 jampgamex86

 Timestamp is 4e0401a6 (Thu Jun 23 23:16:54 2011)

 Preferred load address is 20000000

 Start         Length     Name                   Class
 0001:00000000 0014fcd9H .textbss                DATA
 0002:00000000 002a9df0H .text                   CODE
 0002:002a9df0 0000112fH .text$x                 CODE
 0003:00000000 00000104H .CRT$XCA                DATA
 0003:00000104 00000104H .CRT$XCZ                DATA
 0003:00000208 00000104H .CRT$XIA                DATA
 0003:0000030c 00000118H .CRT$XIC                DATA
 0003:00000424 00000104H .CRT$XIZ                DATA
 0003:00000528 00000104H .CRT$XPA                DATA
 0003:0000062c 00000109H .CRT$XPX                DATA
 0003:00000738 00000104H .CRT$XPXA               DATA
 0003:0000083c 00000104H .CRT$XPZ                DATA
 0003:00000940 00000104H .CRT$XTA                DATA
 0003:00000a44 00000104H .CRT$XTZ                DATA
 0003:00000b50 0003f2e3H .rdata                  DATA
 0003:0003fe34 00000152H .rdata$debug            DATA
 0003:0003ff88 0000032fH .rdata$r                DATA
 0003:000402b8 00000104H .rtc$IAA                DATA
 0003:000403bc 00000388H .rtc$IMZ                DATA
 0003:00040744 00000104H .rtc$IZZ                DATA
 0003:00040848 00000104H .rtc$TAA                DATA
 0003:0004094c 00000388H .rtc$TMZ                DATA
 0003:00040cd4 00000104H .rtc$TZZ                DATA
 0003:00040dd8 00000e62H .xdata$x                DATA
 0003:00041c40 0000016eH .edata                  DATA
 0004:00000000 0000ff7cH .data                   DATA
 0004:0000ff80 00b25228H .bss                    DATA
 0005:00000000 00000014H .idata$2                DATA
 0005:00000014 00000014H .idata$3                DATA
 0005:00000028 000001c4H .idata$4                DATA
 0005:000001ec 000001c4H .idata$5                DATA
 0005:000003b0 000007bfH .idata$6                DATA
 0006:00000000 00000169H .rsrc$01                DATA
 0006:00000170 000002e9H .rsrc$02                DATA

  Address         Publics by Value              Rva+Base       Lib:Object

 0000:00000000       ___safe_se_handler_table   00000000     <absolute>
 0000:00000000       __except_list              00000000     <absolute>
 0000:00000000       ___safe_se_handler_count   00000000     <absolute>
 0000:00000000       ___ImageBase               20000000     <linker-defined>
 0001:00000000       __enc$textbss$begin        20001000     <linker-defined>
 0001:0014fcd9       __enc$textbss$end          20150cd9     <linker-defined>
 0002:0000a560       ?BG_AttachToRancor@@YAXPAXMQAMHPAH1W4qboolean@@11QAY02M@Z 2015b560 f   bg_g2_utils.obj
 0002:0000aa80       ?BG_AttachToSandCreature@@YAXPAXMQAMHPAH111QAY02M@Z 2015ba80 f   bg_g2_utils.obj
 0002:0000ad00       ?BG_GetRootSurfNameWithVariant@@YA?AW4qboolean@@PAXPBDPADH@Z 2015bd00 f   bg_g2_utils.obj
 0002:0000ae10       ?BG_FileExists@@YA?AW4qboolean@@PBD@Z 2015be10 f   bg_misc.obj
 0002:0000aef0       ?BG_ParseField@@YAXPAUBG_field_t@@PBD1PAE@Z 2015bef0 f   bg_misc.obj
 0002:0000b1a0       ?BG_LegalizedForcePowers@@YA?AW4qboolean@@PADHW41@HHH@Z 2015c1a0 f   bg_misc.obj
 0002:0000c020       ?vectoyaw@@YAMQBM@Z        2015d020 f   bg_misc.obj
 0002:0000c140       ?atan2@@YAMMM@Z            2015d140 f i bg_misc.obj
 0002:0000c1a0       _atan2f                    2015d1a0 f i bg_misc.obj
 0002:0000c210       ?BG_HasYsalamiri@@YA?AW4qboolean@@HPAUplayerState_s@@@Z 2015d210 f   bg_misc.obj
 0002:0000c290       ?BG_CanUseFPNow@@YA?AW4qboolean@@HPAUplayerState_s@@HH@Z 2015d290 f   bg_misc.obj
 0002:0000c4c0       ?BG_FindItemForPowerup@@YAPAUgitem_s@@H@Z 2015d4c0 f   bg_misc.obj
 0002:0000c570       ?BG_FindItemForHoldable@@YAPAUgitem_s@@H@Z 2015d570 f   bg_misc.obj
 0002:0000c630       ?BG_FindItemForWeapon@@YAPAUgitem_s@@H@Z 2015d630 f   bg_misc.obj
 0002:0000c6d0       ?BG_FindItemForAmmo@@YAPAUgitem_s@@W4ammo_t@@@Z 2015d6d0 f   bg_misc.obj
 0002:0000c770       ?BG_FindItem@@YAPAUgitem_s@@PBD@Z 2015d770 f   bg_misc.obj
 0002:0000c800       ?BG_PlayerTouchesItem@@YA?AW4qboolean@@PAUplayerState_s@@PAUentityState_s@@H@Z 2015d800 f   bg_misc.obj
 0002:0000c960       ?BG_ProperForceIndex@@YAHH@Z 2015d960 f   bg_misc.obj
 0002:0000c9d0       ?BG_CycleForce@@YAXPAUplayerState_s@@H@Z 2015d9d0 f   bg_misc.obj
 0002:0000cbb0       ?BG_GetItemIndexByTag@@YAHHH@Z 2015dbb0 f   bg_misc.obj
 0002:0000cc40       ?BG_IsItemSelectable@@YA?AW4qboolean@@PAUplayerState_s@@H@Z 2015dc40 f   bg_misc.obj
 0002:0000cc90       ?BG_CycleInven@@YAXPAUplayerState_s@@H@Z 2015dc90 f   bg_misc.obj
 0002:0000ce00       ?BG_CanItemBeGrabbed@@YA?AW4qboolean@@HPBUentityState_s@@PBUplayerState_s@@@Z 2015de00 f   bg_misc.obj
 0002:0000d460       ?BG_EvaluateTrajectory@@YAXPBUtrajectory_t@@HQAM@Z 2015e460 f   bg_misc.obj
 0002:0000d920       ?cos@@YAMM@Z               2015e920 f i bg_misc.obj
 0002:0000d980       _cosf                      2015e980 f i bg_misc.obj
 0002:0000d9f0       ?sin@@YAMM@Z               2015e9f0 f i bg_misc.obj
 0002:0000da50       _sinf                      2015ea50 f i bg_misc.obj
 0002:0000dac0       ?BG_EvaluateTrajectoryDelta@@YAXPBUtrajectory_t@@HQAM@Z 2015eac0 f   bg_misc.obj
 0002:0000de50       ?BG_AddPredictableEventToPlayerstate@@YAXHHPAUplayerState_s@@@Z 2015ee50 f   bg_misc.obj
 0002:0000df70       ?BG_TouchJumpPad@@YAXPAUplayerState_s@@PAUentityState_s@@@Z 2015ef70 f   bg_misc.obj
 0002:0000e0f0       ?fabs@@YAMM@Z              2015f0f0 f i bg_misc.obj
 0002:0000e150       _fabsf                     2015f150 f i bg_misc.obj
 0002:0000e1c0       ?BG_EmplacedView@@YAHQAM0PAMM@Z 2015f1c0 f   bg_misc.obj
 0002:0000e320       ?BG_IsValidCharacterModel@@YA?AW4qboolean@@PBD0@Z 2015f320 f   bg_misc.obj
 0002:0000e410       ?BG_ValidateSkinForTeam@@YA?AW4qboolean@@PBDPADHPAM@Z 2015f410 f   bg_misc.obj
 0002:0000e830       ?strchr@@YAPADPADH@Z       2015f830 f i bg_misc.obj
 0002:0000e890       ?BG_PlayerStateToEntityState@@YAXPAUplayerState_s@@PAUentityState_s@@W4qboolean@@@Z 2015f890 f   bg_misc.obj
 0002:0000f0f0       ?BG_PlayerStateToEntityStateExtraPolate@@YAXPAUplayerState_s@@PAUentityState_s@@HW4qboolean@@@Z 201600f0 f   bg_misc.obj
 0002:0000f880       ?BG_ModelCache@@YAHPBD0@Z  20160880 f   bg_misc.obj
 0002:0000f960       ?BG_Alloc@@YAPAXH@Z        20160960 f   bg_misc.obj
 0002:0000fa20       ?BG_AllocUnaligned@@YAPAXH@Z 20160a20 f   bg_misc.obj
 0002:0000fac0       ?BG_TempAlloc@@YAPAXH@Z    20160ac0 f   bg_misc.obj
 0002:0000fb70       ?BG_TempFree@@YAXH@Z       20160b70 f   bg_misc.obj
 0002:0000fc10       ?BG_StringAlloc@@YAPADPBD@Z 20160c10 f   bg_misc.obj
 0002:0000fc90       ?BG_OutOfMemory@@YA?AW4qboolean@@XZ 20160c90 f   bg_misc.obj
 0002:0000fce0       ?BG_IsWhiteSpace@@YA?AW4qboolean@@D@Z 20160ce0 f   bg_misc.obj
 0002:0000fd40       ?BG_IsLMSGametype@@YA?AW4qboolean@@H@Z 20160d40 f   bg_misc.obj
 0002:0000fd90       ?BG_IsUsingMediumWeap@@YA?AW4qboolean@@PAUplayerState_s@@@Z 20160d90 f   bg_misc.obj
 0002:0000fe50       ?BG_IsUsingHeavyWeap@@YA?AW4qboolean@@PAUplayerState_s@@@Z 20160e50 f   bg_misc.obj
 0002:0000ff20       ?BG_SaberStanceAnim@@YA?AW4qboolean@@H@Z 20160f20 f   bg_panimate.obj
 0002:0000ffe0       ?BG_CrouchAnim@@YA?AW4qboolean@@H@Z 20160fe0 f   bg_panimate.obj
 0002:000101c0       ?BG_InSpecialJump@@YA?AW4qboolean@@H@Z 201611c0 f   bg_panimate.obj
 0002:000103c0       ?BG_InSaberStandAnim@@YA?AW4qboolean@@H@Z 201613c0 f   bg_panimate.obj
 0002:00010470       ?BG_InReboundJump@@YA?AW4qboolean@@H@Z 20161470 f   bg_panimate.obj
 0002:000104e0       ?BG_InReboundHold@@YA?AW4qboolean@@H@Z 201614e0 f   bg_panimate.obj
 0002:00010550       ?BG_InReboundRelease@@YA?AW4qboolean@@H@Z 20161550 f   bg_panimate.obj
 0002:000105c0       ?BG_InLedgeMove@@YA?AW4qboolean@@H@Z 201615c0 f   bg_panimate.obj
 0002:00010630       ?In_LedgeIdle@@YA?AW4qboolean@@H@Z 20161630 f   bg_panimate.obj
 0002:000106a0       ?BG_InBackFlip@@YA?AW4qboolean@@H@Z 201616a0 f   bg_panimate.obj
 0002:00010710       ?BG_DirectFlippingAnim@@YA?AW4qboolean@@H@Z 20161710 f   bg_panimate.obj
 0002:00010780       ?BG_SaberInAttackPure@@YA?AW4qboolean@@H@Z 20161780 f   bg_panimate.obj
 0002:000107d0       ?BG_SaberInAttack@@YA?AW4qboolean@@H@Z 201617d0 f   bg_panimate.obj
 0002:00010850       ?BG_SaberInKata@@YA?AW4qboolean@@H@Z 20161850 f   bg_panimate.obj
 0002:000108b0       ?BG_InKataAnim@@YA?AW4qboolean@@H@Z 201618b0 f   bg_panimate.obj
 0002:00010920       ?PM_LockedAnim@@YA?AW4qboolean@@H@Z 20161920 f   bg_panimate.obj
 0002:000109d0       ?BG_SaberInSpecial@@YA?AW4qboolean@@H@Z 201619d0 f   bg_panimate.obj
 0002:00010a30       ?BG_KickMove@@YA?AW4qboolean@@H@Z 20161a30 f   bg_panimate.obj
 0002:00010aa0       ?BG_SaberInIdle@@YA?AW4qboolean@@H@Z 20161aa0 f   bg_panimate.obj
 0002:00010b00       ?BG_InExtraDefenseSaberMove@@YA?AW4qboolean@@H@Z 20161b00 f   bg_panimate.obj
 0002:00010bc0       ?BG_FlippingAnim@@YA?AW4qboolean@@H@Z 20161bc0 f   bg_panimate.obj
 0002:00010d50       ?BG_SpinningSaberAnim@@YA?AW4qboolean@@H@Z 20161d50 f   bg_panimate.obj
 0002:00011110       ?BG_SaberInSpecialAttack@@YA?AW4qboolean@@H@Z 20162110 f   bg_panimate.obj
 0002:00011340       ?BG_PunchAnim@@YA?AW4qboolean@@H@Z 20162340 f   bg_panimate.obj
 0002:000113a0       ?BG_KickingAnim@@YA?AW4qboolean@@H@Z 201623a0 f   bg_panimate.obj
 0002:00011490       ?BG_InGrappleMove@@YAHH@Z  20162490 f   bg_panimate.obj
 0002:00011590       ?BG_BrokenParryForAttack@@YAHH@Z 20162590 f   bg_panimate.obj
 0002:00011680       ?BG_BrokenParryForParry@@YAHH@Z 20162680 f   bg_panimate.obj
 0002:00011860       ?BG_KnockawayForParry@@YAHH@Z 20162860 f   bg_panimate.obj
 0002:00011910       ?PM_InRollIgnoreTimer@@YA?AW4qboolean@@PAUplayerState_s@@@Z 20162910 f   bg_panimate.obj
 0002:00011a10       ?BG_InRoll@@YA?AW4qboolean@@PAUplayerState_s@@H@Z 20162a10 f   bg_panimate.obj
 0002:00011b10       ?BG_InSpecialDeathAnim@@YA?AW4qboolean@@H@Z 20162b10 f   bg_panimate.obj
 0002:00011b70       ?BG_InDeathAnim@@YA?AW4qboolean@@H@Z 20162b70 f   bg_panimate.obj
 0002:00011c30       ?BG_InKnockDownOnly@@YA?AW4qboolean@@H@Z 20162c30 f   bg_panimate.obj
 0002:00011cd0       ?BG_InSaberLockOld@@YA?AW4qboolean@@H@Z 20162cd0 f   bg_panimate.obj
 0002:00011d70       ?BG_InSaberLock@@YA?AW4qboolean@@H@Z 20162d70 f   bg_panimate.obj
 0002:00011e90       ?PM_InCartwheel@@YA?AW4qboolean@@H@Z 20162e90 f   bg_panimate.obj
 0002:00011f10       ?PM_InAirKickingAnim@@YA?AW4qboolean@@H@Z 20162f10 f   bg_panimate.obj
 0002:00011f80       ?BG_InKnockDownOnGround@@YA?AW4qboolean@@PAUplayerState_s@@@Z 20162f80 f   bg_panimate.obj
 0002:000121b0       ?BG_StabDownAnim@@YA?AW4qboolean@@H@Z 201631b0 f   bg_panimate.obj
 0002:00012220       ?PM_SaberBounceForAttack@@YAHH@Z 20163220 f   bg_panimate.obj
 0002:00012300       ?InvertQuad@@YAHH@Z        20163300 f   bg_panimate.obj
 0002:000123e0       ?PM_SaberDeflectionForQuad@@YAHH@Z 201633e0 f   bg_panimate.obj
 0002:000124c0       ?PM_SaberInParry@@YA?AW4qboolean@@H@Z 201634c0 f   bg_panimate.obj
 0002:00012510       ?BG_InWalk@@YA?AW4qboolean@@H@Z 20163510 f   bg_panimate.obj
 0002:00012680       ?PM_SaberInKnockaway@@YA?AW4qboolean@@H@Z 20163680 f   bg_panimate.obj
 0002:000126d0       ?PM_KnockawayAnim@@YA?AW4qboolean@@H@Z 201636d0 f   bg_panimate.obj
 0002:00012760       ?PM_SaberInReflect@@YA?AW4qboolean@@H@Z 20163760 f   bg_panimate.obj
 0002:000127b0       ?PM_SaberInStart@@YA?AW4qboolean@@H@Z 201637b0 f   bg_panimate.obj
 0002:00012800       ?PM_SaberInReturn@@YA?AW4qboolean@@H@Z 20163800 f   bg_panimate.obj
 0002:00012850       ?BG_SaberInReturn@@YA?AW4qboolean@@H@Z 20163850 f   bg_panimate.obj
 0002:000128a0       ?PM_InSaberAnim@@YA?AW4qboolean@@H@Z 201638a0 f   bg_panimate.obj
 0002:000128f0       ?PM_InForceGetUp@@YA?AW4qboolean@@PAUplayerState_s@@@Z 201638f0 f   bg_panimate.obj
 0002:00012970       ?PM_InGetUp@@YA?AW4qboolean@@PAUplayerState_s@@@Z 20163970 f   bg_panimate.obj
 0002:00012a50       ?PM_InKnockDown@@YA?AW4qboolean@@PAUplayerState_s@@@Z 20163a50 f   bg_panimate.obj
 0002:00012b70       ?PM_PainAnim@@YA?AW4qboolean@@H@Z 20163b70 f   bg_panimate.obj
 0002:00012bd0       ?PM_JumpingAnim@@YA?AW4qboolean@@H@Z 20163bd0 f   bg_panimate.obj
 0002:00012c40       ?PM_LandingAnim@@YA?AW4qboolean@@H@Z 20163c40 f   bg_panimate.obj
 0002:00012cf0       ?PM_SaberReturnAnim@@YA?AW4qboolean@@H@Z 20163cf0 f   bg_panimate.obj
 0002:00012dd0       ?PM_SpinningAnim@@YA?AW4qboolean@@H@Z 20163dd0 f   bg_panimate.obj
 0002:00012e20       ?PM_InOnGroundAnim@@YA?AW4qboolean@@H@Z 20163e20 f   bg_panimate.obj
 0002:00012f30       ?PM_InRollComplete@@YA?AW4qboolean@@PAUplayerState_s@@H@Z 20163f30 f   bg_panimate.obj
 0002:00012fa0       ?PM_CanRollFromSoulCal@@YA?AW4qboolean@@PAUplayerState_s@@@Z 20163fa0 f   bg_panimate.obj
 0002:00013010       ?BG_SuperBreakLoseAnim@@YA?AW4qboolean@@H@Z 20164010 f   bg_panimate.obj
 0002:00013110       ?BG_SuperBreakWinAnim@@YA?AW4qboolean@@H@Z 20164110 f   bg_panimate.obj
 0002:00013210       ?BG_SaberLockBreakAnim@@YA?AW4qboolean@@H@Z 20164210 f   bg_panimate.obj
 0002:00013380       ?BG_KnockDownAnim@@YA?AW4qboolean@@H@Z 20164380 f   bg_panimate.obj
 0002:00013420       ?PM_KnockDownAnimExtended@@YA?AW4qboolean@@H@Z 20164420 f   bg_panimate.obj
 0002:000134f0       ?BG_FullBodyTauntAnim@@YA?AW4qboolean@@H@Z 201644f0 f   bg_panimate.obj
 0002:000135b0       ?BG_AnimLength@@YAHHW4animNumber_t@@@Z 201645b0 f   bg_panimate.obj
 0002:00013680       ?PM_AnimLength@@YAHHW4animNumber_t@@@Z 20164680 f   bg_panimate.obj
 0002:00013780       ?PM_DebugLegsAnim@@YAXH@Z  20164780 f   bg_panimate.obj
 0002:00013850       ?PM_SaberInTransition@@YA?AW4qboolean@@H@Z 20164850 f   bg_panimate.obj
 0002:000138a0       ?BG_SaberInTransitionAny@@YA?AW4qboolean@@H@Z 201648a0 f   bg_panimate.obj
 0002:00013940       ?BG_FlipPart@@YAXPAUplayerState_s@@H@Z 20164940 f   bg_panimate.obj
 0002:000139d0       ?BG_InitAnimsets@@YAXXZ    201649d0 f   bg_panimate.obj
 0002:00013a40       ?BG_ClearAnimsets@@YAXXZ   20164a40 f   bg_panimate.obj
 0002:00013a70       ?BG_AnimsetAlloc@@YAPAUanimation_s@@XZ 20164a70 f   bg_panimate.obj
 0002:00013b10       ?BG_AnimsetFree@@YAXPAUanimation_s@@@Z 20164b10 f   bg_panimate.obj
 0002:00013b40       ?BG_ParseAnimationFile@@YAHPBDPAUanimation_s@@W4qboolean@@@Z 20164b40 f   bg_panimate.obj
 0002:000142c0       ?ceil@@YAMM@Z              201652c0 f i bg_panimate.obj
 0002:00014320       _ceilf                     20165320 f i bg_panimate.obj
 0002:00014390       ?floor@@YAMM@Z             20165390 f i bg_panimate.obj
 0002:000143f0       _floorf                    201653f0 f i bg_panimate.obj
 0002:00014460       ?PM_ContinueLegsAnim@@YAXH@Z 20165460 f   bg_panimate.obj
 0002:000145e0       ?PM_ForceLegsAnim@@YAXH@Z  201655e0 f   bg_panimate.obj
 0002:000146f0       ?BG_StartTorsoAnim@@YAXPAUplayerState_s@@H@Z 201656f0 f   bg_panimate.obj
 0002:000147a0       ?PM_StartTorsoAnim@@YAXH@Z 201657a0 f   bg_panimate.obj
 0002:00014800       ?BG_SetLegsAnimTimer@@YAXPAUplayerState_s@@H@Z 20165800 f   bg_panimate.obj
 0002:00014980       ?PM_SetLegsAnimTimer@@YAXH@Z 20165980 f   bg_panimate.obj
 0002:000149e0       ?BG_SetTorsoAnimTimer@@YAXPAUplayerState_s@@H@Z 201659e0 f   bg_panimate.obj
 0002:00014b60       ?PM_SetTorsoAnimTimer@@YAXH@Z 20165b60 f   bg_panimate.obj
 0002:00014bc0       ?BG_SaberStartTransAnim@@YAXHHHHPAMHH@Z 20165bc0 f   bg_panimate.obj
 0002:000150b0       ?BG_SetAnimFinal@@YAXPAUplayerState_s@@PAUanimation_s@@HHHH@Z 201660b0 f   bg_panimate.obj
 0002:000157b0       ?PM_SetAnimFinal@@YAXHHHH@Z 201667b0 f   bg_panimate.obj
 0002:00015830       ?BG_HasAnimation@@YA?AW4qboolean@@HH@Z 20166830 f   bg_panimate.obj
 0002:000158d0       ?BG_PickAnim@@YAHHHH@Z     201668d0 f   bg_panimate.obj
 0002:00015980       ?BG_SetAnim@@YAXPAUplayerState_s@@PAUanimation_s@@HHHH@Z 20166980 f   bg_panimate.obj
 0002:00015b90       ?PM_SetAnim@@YAXHHHH@Z     20166b90 f   bg_panimate.obj
 0002:00015c10       ?BG_GetTorsoAnimPoint@@YAMPAUplayerState_s@@H@Z 20166c10 f   bg_panimate.obj
 0002:00015e60       ?BG_GetLegsAnimPoint@@YAMPAUplayerState_s@@H@Z 20166e60 f   bg_panimate.obj
 0002:000160b0       ?BG_HopAnim@@YA?AW4qboolean@@H@Z 201670b0 f   bg_panimate.obj
 0002:00016100       ?BG_BounceAnim@@YA?AW4qboolean@@H@Z 20167100 f   bg_panimate.obj
 0002:000161e0       ?BG_BlockAnim@@YA?AW4qboolean@@H@Z 201671e0 f   bg_panimate.obj
 0002:00016260       ?PM_BGEntForNum@@YAPAUbgEntity_s@@H@Z 20167260 f   bg_pmove.obj
 0002:000163d0       ?PM_CanSetWeaponReadyAnim@@YA?AW4qboolean@@XZ 201673d0 f   bg_pmove.obj
 0002:000164e0       ?BG_SabersOff@@YA?AW4qboolean@@PAUplayerState_s@@@Z 201674e0 f   bg_pmove.obj
 0002:00016560       ?BG_KnockDownable@@YA?AW4qboolean@@PAUplayerState_s@@@Z 20167560 f   bg_pmove.obj
 0002:000165d0       ?PM_GetSaberStance@@YAHXZ  201675d0 f   bg_pmove.obj
 0002:000167e0       ?PM_DoSlowFall@@YA?AW4qboolean@@XZ 201677e0 f   bg_pmove.obj
 0002:00016860       ?PM_pitch_roll_for_slope@@YAXPAUbgEntity_s@@QAM1@Z 20167860 f   bg_pmove.obj
 0002:00016ec0       ?PM_SetSpecialMoveValues@@YAXXZ 20167ec0 f   bg_pmove.obj
 0002:00016fd0       ?BG_VehicleTurnRateForSpeed@@YAXPAUVehicle_s@@MPAM1@Z 20167fd0 f   bg_pmove.obj
 0002:00017140       ?PM_HoverTrace@@YAXXZ      20168140 f   bg_pmove.obj
 0002:00018070       ?PM_AddEvent@@YAXH@Z       20169070 f   bg_pmove.obj
 0002:000180d0       ?PM_AddEventWithParm@@YAXHH@Z 201690d0 f   bg_pmove.obj
 0002:00018130       ?PM_AddTouchEnt@@YAXH@Z    20169130 f   bg_pmove.obj
 0002:00018200       ?PM_ClipVelocity@@YAXQAM00M@Z 20169200 f   bg_pmove.obj
 0002:00018390       ?PM_ForceJumpingUp@@YA?AW4qboolean@@XZ 20169390 f   bg_pmove.obj
 0002:00018560       ?PM_SetPMViewAngle@@YAXPAUplayerState_s@@QAMPAUusercmd_s@@@Z 20169560 f   bg_pmove.obj
 0002:00018640       ?PM_AdjustAngleForWallRun@@YA?AW4qboolean@@PAUplayerState_s@@PAUusercmd_s@@W41@@Z 20169640 f   bg_pmove.obj
 0002:00018df0       ?PM_AdjustAnglesForWallRunUpFlipAlt@@YA?AW4qboolean@@PAUusercmd_s@@@Z 20169df0 f   bg_pmove.obj
 0002:00018e60       ?PM_AdjustAngleForWallRunUp@@YA?AW4qboolean@@PAUplayerState_s@@PAUusercmd_s@@W41@@Z 20169e60 f   bg_pmove.obj
 0002:00019660       ?PM_AdjustAngleForWallJump@@YA?AW4qboolean@@PAUplayerState_s@@PAUusercmd_s@@W41@@Z 2016a660 f   bg_pmove.obj
 0002:00019ef0       ?BG_LetGoofLedge@@YAXPAUplayerState_s@@@Z 2016aef0 f   bg_pmove.obj
 0002:00019f50       ?PM_SetVelocityforLedgeMove@@YAXPAUplayerState_s@@H@Z 2016af50 f   bg_pmove.obj
 0002:0001a430       ?LedgeGrabableEntity@@YA?AW4qboolean@@H@Z 2016b430 f   bg_pmove.obj
 0002:0001a4c0       ?PM_AdjustAngleForWallGrap@@YAXPAUplayerState_s@@PAUusercmd_s@@@Z 2016b4c0 f   bg_pmove.obj
 0002:0001a960       ?PM_AdjustAnglesForKnockdown@@YA?AW4qboolean@@PAUplayerState_s@@PAUusercmd_s@@@Z 2016b960 f   bg_pmove.obj
 0002:0001aad0       ?PM_SetForceJumpZStart@@YAXM@Z 2016bad0 f   bg_pmove.obj
 0002:0001ab60       ?PM_GrabWallForJump@@YAXH@Z 2016bb60 f   bg_pmove.obj
 0002:0001abf0       ?NumberOfWeapons@@YAHXZ    2016bbf0 f   bg_pmove.obj
 0002:0001adc0       ?GetJumpHeight@@YAHXZ      2016bdc0 f   bg_pmove.obj
 0002:0001ae30       ?JumpHeightDeduction@@YAHXZ 2016be30 f   bg_pmove.obj
 0002:0001af10       ?LedgeTrace@@YA?AW4qboolean@@PAUtrace_t@@QAMPAM22@Z 2016bf10 f   bg_pmove.obj
 0002:0001b580       ?sqrt@@YAMM@Z              2016c580 f i bg_pmove.obj
 0002:0001b5e0       _sqrtf                     2016c5e0 f i bg_pmove.obj
 0002:0001b650       ?PM_CheckGrab@@YAXXZ       2016c650 f   bg_pmove.obj
 0002:0001d110       ?BG_InDFA@@YA_NXZ          2016e110 f   bg_pmove.obj
 0002:0001d190       ?G_InDFA@@YA_NPAUgentity_s@@@Z 2016e190 f   bg_pmove.obj
 0002:0001d280       ?PM_CheckDualForwardJumpDuck@@YA?AW4qboolean@@XZ 2016e280 f   bg_pmove.obj
 0002:0001d3a0       ?PM_CheckFixMins@@YAXXZ    2016e3a0 f   bg_pmove.obj
 0002:0001d820       ?PM_Use@@YAXXZ             2016e820 f   bg_pmove.obj
 0002:0001d8f0       ?PM_WalkingAnim@@YA?AW4qboolean@@H@Z 2016e8f0 f   bg_pmove.obj
 0002:0001d9b0       ?PM_RunningAnim@@YA?AW4qboolean@@H@Z 2016e9b0 f   bg_pmove.obj
 0002:0001da60       ?PM_SwimmingAnim@@YA?AW4qboolean@@H@Z 2016ea60 f   bg_pmove.obj
 0002:0001dad0       ?PM_RollingAnim@@YA?AW4qboolean@@H@Z 2016ead0 f   bg_pmove.obj
 0002:0001dbc0       ?PM_AnglesForSlope@@YAXMQBMQAM@Z 2016ebc0 f   bg_pmove.obj
 0002:0001ddc0       ?PM_FootSlopeTrace@@YAXPAM0@Z 2016edc0 f   bg_pmove.obj
 0002:0001e390       ?BG_InSlopeAnim@@YA?AW4qboolean@@H@Z 2016f390 f   bg_pmove.obj
 0002:0001e400       ?PM_AdjustStandAnimForSlope@@YA?AW4qboolean@@XZ 2016f400 f   bg_pmove.obj
 0002:0001ef10       ?PM_LegsSlopeBackTransition@@YAHH@Z 2016ff10 f   bg_pmove.obj
 0002:0001f070       ?BG_ClearRocketLock@@YAXPAUplayerState_s@@@Z 20170070 f   bg_pmove.obj
 0002:0001f0f0       ?PM_BeginWeaponChange@@YAXH@Z 201700f0 f   bg_pmove.obj
 0002:0001f280       ?PM_FinishWeaponChange@@YAXXZ 20170280 f   bg_pmove.obj
 0002:0001f450       ?BG_VehTraceFromCamPos@@YAHPAUtrace_t@@PAUbgEntity_s@@QBM22QAM3M@Z 20170450 f   bg_pmove.obj
 0002:0001f7a0       ?PM_RocketLock@@YAXMW4qboolean@@@Z 201707a0 f   bg_pmove.obj
 0002:0001fff0       ?PM_ItemUsable@@YAHPAUplayerState_s@@H@Z 20170ff0 f   bg_pmove.obj
 0002:00020740       ?PM_CanSetWeaponAnims@@YA?AW4qboolean@@XZ 20171740 f   bg_pmove.obj
 0002:00020790       ?PM_VehicleWeaponAnimate@@YAXXZ 20171790 f   bg_pmove.obj
 0002:00020e40       ?PM_DoPunch@@YAXXZ         20171e40 f   bg_pmove.obj
 0002:00020ef0       ?CanShootRocket@@YA?AW4qboolean@@XZ 20171ef0 f   bg_pmove.obj
 0002:00020fb0       ?CanDrainAmmo@@YA?AW4qboolean@@XZ 20171fb0 f   bg_pmove.obj
 0002:00021090       ?CanFireWeapon@@YA?AW4qboolean@@XZ 20172090 f   bg_pmove.obj
 0002:00021270       ?BG_UnrestrainedPitchRoll@@YA?AW4qboolean@@PAUplayerState_s@@PAUVehicle_s@@@Z 20172270 f   bg_pmove.obj
 0002:00021300       ?PM_UpdateViewAngles@@YAXPAUplayerState_s@@PBUusercmd_s@@@Z 20172300 f   bg_pmove.obj
 0002:000216d0       ?PM_AdjustAttackStates@@YAXPAUpmove_t@@@Z 201726d0 f   bg_pmove.obj
 0002:000220b0       ?BG_CmdForRoll@@YAXPAUplayerState_s@@HPAUusercmd_s@@@Z 201730b0 f   bg_pmove.obj
 0002:00022550       ?BG_AdjustClientSpeed@@YAXPAUplayerState_s@@PAUusercmd_s@@H@Z 20173550 f   bg_pmove.obj
 0002:00022bb0       ?BG_InRollAnim@@YA?AW4qboolean@@PAUentityState_s@@@Z 20173bb0 f   bg_pmove.obj
 0002:00022c20       ?BG_InKnockDown@@YA?AW4qboolean@@H@Z 20173c20 f   bg_pmove.obj
 0002:00022d40       ?BG_InRollES@@YA?AW4qboolean@@PAUentityState_s@@H@Z 20173d40 f   bg_pmove.obj
 0002:00022db0       ?BG_IK_MoveArm@@YAXPAXHHPAUentityState_s@@HQAMPAW4qboolean@@222HW42@@Z 20173db0 f   bg_pmove.obj
 0002:000236f0       ?BG_ClassHasBadBones@@YA?AW4qboolean@@H@Z 201746f0 f   bg_pmove.obj
 0002:00023790       ?BG_BoneOrientationsForClass@@YAXHPADPAH11@Z 20174790 f   bg_pmove.obj
 0002:00023a50       ?BG_UpdateLookAngles@@YAXHQAMH0MMMMMMM@Z 20174a50 f   bg_pmove.obj
 0002:00023db0       ?BG_InRoll2@@YA?AW4qboolean@@PAUentityState_s@@@Z 20174db0 f   bg_pmove.obj
 0002:00023eb0       ?BG_G2PlayerAngles@@YAXPAXHPAUentityState_s@@HQAM2QAY02M2PAW4qboolean@@44PAM55H22HHPAH22H16@Z 20174eb0 f   bg_pmove.obj
 0002:00026540       ?BG_G2ATSTAngles@@YAXPAXHQAM@Z 20177540 f   bg_pmove.obj
 0002:000265b0       ?PM_VehicleViewAngles@@YAXPAUplayerState_s@@PAUbgEntity_s@@PAUusercmd_s@@@Z 201775b0 f   bg_pmove.obj
 0002:000268b0       ?PM_WeaponOkOnVehicle@@YA?AW4qboolean@@H@Z 201778b0 f   bg_pmove.obj
 0002:00026920       ?PM_GetOkWeaponForVehicle@@YAHXZ 20177920 f   bg_pmove.obj
 0002:000269c0       ?PM_VehForcedTurning@@YAXPAUbgEntity_s@@@Z 201779c0 f   bg_pmove.obj
 0002:00026c90       ?PM_VehFaceHyperspacePoint@@YAXPAUbgEntity_s@@@Z 20177c90 f   bg_pmove.obj
 0002:00027140       ?BG_VehicleAdjustBBoxForOrientation@@YAXPAUVehicle_s@@QAM11HHP6AXPAUtrace_t@@QBM333HH@Z@Z 20178140 f   bg_pmove.obj
 0002:00027bb0       ?PM_MoveForKata@@YAXPAUusercmd_s@@@Z 20178bb0 f   bg_pmove.obj
 0002:00027e60       ?PM_MoveLock@@YAXXZ        20178e60 f   bg_pmove.obj
 0002:00027fe0       ?PmoveSingle@@YAXPAUpmove_t@@@Z 20178fe0 f   bg_pmove.obj
 0002:0002aa10       ?PM_IsRocketTrooper@@YA?AW4qboolean@@XZ 2017ba10 f i bg_pmove.obj
 0002:000328a0       ?PM_GetWeaponReadyAnim@@YA?AW4animNumber_t@@XZ 201838a0 f i bg_pmove.obj
 0002:0003a400       ?Pmove@@YAXPAUpmove_t@@@Z  2018b400 f   bg_pmove.obj
 0002:0003a590       ?PM_MinGetUpTime@@YAHPAUplayerState_s@@@Z 2018b590 f   bg_pmove.obj
 0002:0003a6a0       ?PM_InAttackRoll@@YA?AW4qboolean@@H@Z 2018b6a0 f   bg_pmove.obj
 0002:0003a740       ?PM_CheckRollSafety@@YA?AW4qboolean@@HM@Z 2018b740 f   bg_pmove.obj
 0002:0003ab60       ?PM_GoingToAttackDown@@YA?AW4qboolean@@PAUplayerState_s@@@Z 2018bb60 f   bg_pmove.obj
 0002:0003ac40       ?PM_CrouchGetup@@YA?AW4qboolean@@M@Z 2018bc40 f   bg_pmove.obj
 0002:0003aec0       ?PM_CheckRollGetup@@YA?AW4qboolean@@XZ 2018bec0 f   bg_pmove.obj
 0002:0003b6f0       ?PM_GettingUpFromKnockDown@@YA?AW4qboolean@@MM@Z 2018c6f0 f   bg_pmove.obj
 0002:0003c190       ?PM_irand_timesync@@YAHHH@Z 2018d190 f   bg_saber.obj
 0002:0003c260       ?BG_ForcePowerDrain@@YAXPAUplayerState_s@@HH@Z 2018d260 f   bg_saber.obj
 0002:0003c370       ?BG_EnoughForcePowerForMove@@YA?AW4qboolean@@H@Z 2018d370 f   bg_saber.obj
 0002:0003c3e0       ?PM_AttackMoveForQuad@@YAHH@Z 2018d3e0 f   bg_saber.obj
 0002:0003c4b0       ?PM_SaberAnimTransitionAnim@@YAHHH@Z 2018d4b0 f   bg_saber.obj
 0002:0003c8d0       ?PM_CheckStabDown@@YAHXZ   2018d8d0 f   bg_saber.obj
 0002:0003ccc0       ?PM_SaberMoveQuadrantForMovement@@YAHPAUusercmd_s@@@Z 2018dcc0 f   bg_saber.obj
 0002:0003cdc0       ?PM_SaberInBounce@@YA?AW4qboolean@@H@Z 2018ddc0 f   bg_saber.obj
 0002:0003ce30       ?PM_SetAnimFrame@@YAXPAUplayerState_s@@HW4qboolean@@1@Z 2018de30 f   bg_saber.obj
 0002:0003ce70       ?PM_SaberLockWinAnim@@YAHW4qboolean@@0@Z 2018de70 f   bg_saber.obj
 0002:0003d0f0       ?PM_SaberLockLoseAnim@@YAHPAUplayerState_s@@W4qboolean@@1@Z 2018e0f0 f   bg_saber.obj
 0002:0003d3d0       ?PM_SaberLockResultAnim@@YAHPAUplayerState_s@@W4qboolean@@1@Z 2018e3d0 f   bg_saber.obj
 0002:0003d5e0       ?PM_SaberLockBreak@@YAXPAUplayerState_s@@W4qboolean@@H@Z 2018e5e0 f   bg_saber.obj
 0002:0003d9f0       ?BG_CheckIncrementLockAnim@@YA?AW4qboolean@@HH@Z 2018e9f0 f   bg_saber.obj
 0002:0003db40       ?PM_SaberLocked@@YAXXZ     2018eb40 f   bg_saber.obj
 0002:0003e2a0       ?PM_SaberInBrokenParry@@YA?AW4qboolean@@H@Z 2018f2a0 f   bg_saber.obj
 0002:0003e330       ?PM_BrokenParryForParry@@YAHH@Z 2018f330 f   bg_saber.obj
 0002:0003e4d0       ?PM_CanBackstab@@YA?AW4qboolean@@XZ 2018f4d0 f   bg_saber.obj
 0002:0003e7b0       ?PM_SaberFlipOverAttackMove@@YAHXZ 2018f7b0 f   bg_saber.obj
 0002:0003eac0       ?PM_SaberInDeflect@@YA?AW4qboolean@@H@Z 2018fac0 f   bg_saber.obj
 0002:0003eb10       ?BG_SaberAttacking@@YA?AW4qboolean@@PAUplayerState_s@@@Z 2018fb10 f   bg_saber.obj
 0002:0003ec70       ?PM_SaberBackflipAttackMove@@YAHXZ 2018fc70 f   bg_saber.obj
 0002:0003edc0       ?PM_SaberDualJumpAttackMove@@YAHXZ 2018fdc0 f   bg_saber.obj
 0002:0003ee00       ?PM_SomeoneInFront@@YA?AW4qboolean@@PAUtrace_t@@@Z 2018fe00 f   bg_saber.obj
 0002:0003f0b0       ?PM_SaberLungeAttackMove@@YAHW4qboolean@@@Z 201900b0 f   bg_saber.obj
 0002:0003f5c0       ?PM_JMCanBackstab@@YA?AW4qboolean@@XZ 201905c0 f   bg_saber.obj
 0002:0003f860       ?PM_CanLunge@@YA?AW4qboolean@@XZ 20190860 f   bg_saber.obj
 0002:0003fb00       ?PM_JMCanLunge@@YA?AW4qboolean@@XZ 20190b00 f   bg_saber.obj
 0002:0003fda0       ?PM_SaberJumpAttackMove2@@YAHXZ 20190da0 f   bg_saber.obj
 0002:0003fef0       ?PM_SaberJumpAttackMove@@YAHXZ 20190ef0 f   bg_saber.obj
 0002:000401c0       ?PM_GroundDistance@@YAMXZ  201911c0 f   bg_saber.obj
 0002:000403f0       ?PM_WalkableGroundDistance@@YAMXZ 201913f0 f   bg_saber.obj
 0002:000405b0       ?PM_CheckPullAttack@@YAHXZ 201915b0 f   bg_saber.obj
 0002:000405e0       ?PM_InSecondaryStyle@@YA?AW4qboolean@@XZ 201915e0 f   bg_saber.obj
 0002:00040670       ?PM_SaberAttackForMovement@@YAHH@Z 20191670 f   bg_saber.obj
 0002:000420a0       ?PM_KickMoveForConditions@@YAHXZ 201930a0 f   bg_saber.obj
 0002:000422d0       ?PM_SaberMoveOkayForKata@@YA?AW4qboolean@@XZ 201932d0 f   bg_saber.obj
 0002:00042350       ?PM_CanDoKata@@YA?AW4qboolean@@XZ 20193350 f   bg_saber.obj
 0002:00042550       ?PM_SaberThrowable@@YA?AW4qboolean@@XZ 20193550 f   bg_saber.obj
 0002:00042670       ?PM_CheckAltKickAttack@@YA?AW4qboolean@@XZ 20193670 f   bg_saber.obj
 0002:000427d0       ?PM_SaberPowerCheck@@YA?AW4qboolean@@XZ 201937d0 f   bg_saber.obj
 0002:00042890       ?PM_CanDoRollStab@@YA?AW4qboolean@@XZ 20193890 f   bg_saber.obj
 0002:000429a0       ?PM_SaberDroidWeapon@@YAXXZ 201939a0 f   bg_saber.obj
 0002:00042ce0       ?PM_ReturnforQuad@@YAHH@Z  20193ce0 f   bg_saber.obj
 0002:00042dd0       ?BlockedforQuad@@YAHH@Z    20193dd0 f   bg_saber.obj
 0002:00042ec0       ?PM_DoFake@@YAHH@Z         20193ec0 f   bg_saber.obj
 0002:000430d0       ?InSaberDelayAnimation@@YA?AW4qboolean@@H@Z 201940d0 f   bg_saber.obj
 0002:00043150       ?PM_WeaponLightsaber@@YAXXZ 20194150 f   bg_saber.obj
 0002:00044fb0       ?BG_AddFatigue@@YAXPAUplayerState_s@@H@Z 20195fb0 f   bg_saber.obj
 0002:00045060       ?Fatigue_SaberAttack@@YAHPAUplayerState_s@@@Z 20196060 f   bg_saber.obj
 0002:000450a0       ?BG_SaberFatigue@@YAXPAUplayerState_s@@HH@Z 201960a0 f   bg_saber.obj
 0002:000451a0       ?PM_SetSaberMove@@YAXF@Z   201961a0 f   bg_saber.obj
 0002:00046070       ?BG_MySaber@@YAPAUsaberInfo_t@@HH@Z 20197070 f   bg_saber.obj
 0002:00046150       ?PM_DoKick@@YA?AW4qboolean@@XZ 20197150 f   bg_saber.obj
 0002:000463c0       ?PM_SaberFakeFlagUpdate@@YAXPAUplayerState_s@@HH@Z 201973c0 f   bg_saber.obj
 0002:00046460       ?BG_SaberInFullDamageMove@@YA?AW4qboolean@@PAUplayerState_s@@H@Z 20197460 f   bg_saber.obj
 0002:000465d0       ?BG_SaberInTransitionDamageMove@@YA?AW4qboolean@@PAUplayerState_s@@@Z 201975d0 f   bg_saber.obj
 0002:00046650       ?BG_SaberInNonIdleDamageMove@@YA?AW4qboolean@@PAUplayerState_s@@H@Z 20197650 f   bg_saber.obj
 0002:000466b0       ?BG_InSlowBounce@@YA?AW4qboolean@@PAUplayerState_s@@@Z 201976b0 f   bg_saber.obj
 0002:00046740       ?BG_SoundIndex@@YAHPAD@Z   20197740 f   bg_saberLoad.obj
 0002:00046790       ?BG_ParseLiteral@@YA?AW4qboolean@@PAPBDPBD@Z 20197790 f   bg_saberLoad.obj
 0002:00046850       ?TranslateSaberColor@@YAHPBD@Z 20197850 f   bg_saberLoad.obj
 0002:000469a0       ?TranslateSaberStyle@@YA?AW4saber_styles_t@@PBD@Z 201979a0 f   bg_saberLoad.obj
 0002:00046ae0       ?WP_SaberBladeUseSecondBladeStyle@@YA?AW4qboolean@@PAUsaberInfo_t@@H@Z 20197ae0 f   bg_saberLoad.obj
 0002:00046b50       ?WP_SaberBladeDoTransitionDamage@@YA?AW4qboolean@@PAUsaberInfo_t@@H@Z 20197b50 f   bg_saberLoad.obj
 0002:00046c10       ?WP_UseFirstValidSaberStyle@@YA?AW4qboolean@@PAUsaberInfo_t@@0HPAH@Z 20197c10 f   bg_saberLoad.obj
 0002:00046ec0       ?WP_SaberCanTurnOffSomeBlades@@YA?AW4qboolean@@PAUsaberInfo_t@@@Z 20197ec0 f   bg_saberLoad.obj
 0002:00046f70       ?WP_SaberSetDefaults@@YAXPAUsaberInfo_t@@@Z 20197f70 f   bg_saberLoad.obj
 0002:000475e0       ?WP_SaberParseParms@@YA?AW4qboolean@@PBDPAUsaberInfo_t@@@Z 201985e0 f   bg_saberLoad.obj
 0002:0004b440       ?WP_SaberParseParm@@YA?AW4qboolean@@PBD0PAD@Z 2019c440 f   bg_saberLoad.obj
 0002:0004b670       ?WP_SaberValidForPlayerInMP@@YA?AW4qboolean@@PBD@Z 2019c670 f   bg_saberLoad.obj
 0002:0004b770       ?WP_RemoveSaber@@YAXPAUsaberInfo_t@@H@Z 2019c770 f   bg_saberLoad.obj
 0002:0004b850       ?WP_SetSaber@@YAXHPAUsaberInfo_t@@HPBD@Z 2019c850 f   bg_saberLoad.obj
 0002:0004b9b0       ?WP_SaberSetColor@@YAXPAUsaberInfo_t@@HHPAD@Z 2019c9b0 f   bg_saberLoad.obj
 0002:0004ba30       ?WP_SaberLoadParms@@YAXXZ  2019ca30 f   bg_saberLoad.obj
 0002:0004bce0       ?BG_BLADE_ActivateTrail@@YAXPAUbladeInfo_t@@M@Z 2019cce0 f   bg_saberLoad.obj
 0002:0004bd40       ?BG_BLADE_DeactivateTrail@@YAXPAUbladeInfo_t@@M@Z 2019cd40 f   bg_saberLoad.obj
 0002:0004bda0       ?BG_SI_Activate@@YAXPAUsaberInfo_t@@@Z 2019cda0 f   bg_saberLoad.obj
 0002:0004be20       ?BG_SI_Deactivate@@YAXPAUsaberInfo_t@@@Z 2019ce20 f   bg_saberLoad.obj
 0002:0004bea0       ?BG_SI_BladeActivate@@YAXPAUsaberInfo_t@@HW4qboolean@@@Z 2019cea0 f   bg_saberLoad.obj
 0002:0004bf10       ?BG_SI_Active@@YA?AW4qboolean@@PAUsaberInfo_t@@@Z 2019cf10 f   bg_saberLoad.obj
 0002:0004bf90       ?BG_SI_SetLength@@YAXPAUsaberInfo_t@@M@Z 2019cf90 f   bg_saberLoad.obj
 0002:0004c010       ?BG_SI_SetDesiredLength@@YAXPAUsaberInfo_t@@MH@Z 2019d010 f   bg_saberLoad.obj
 0002:0004c0c0       ?BG_SI_SetLengthGradual@@YAXPAUsaberInfo_t@@H@Z 2019d0c0 f   bg_saberLoad.obj
 0002:0004c500       ?BG_SI_Length@@YAMPAUsaberInfo_t@@@Z 2019d500 f   bg_saberLoad.obj
 0002:0004c5c0       ?BG_SI_LengthMax@@YAMPAUsaberInfo_t@@@Z 2019d5c0 f   bg_saberLoad.obj
 0002:0004c680       ?BG_SI_ActivateTrail@@YAXPAUsaberInfo_t@@M@Z 2019d680 f   bg_saberLoad.obj
 0002:0004c720       ?BG_SI_DeactivateTrail@@YAXPAUsaberInfo_t@@M@Z 2019d720 f   bg_saberLoad.obj
 0002:0004c7c0       ?BG_SiegeStripTabs@@YAXPAD@Z 2019d7c0 f   bg_saga.obj
 0002:0004c870       ?BG_GetNextValueGroup@@YAPADPAD0@Z 2019d870 f   bg_saga.obj
 0002:0004ca70       ?BG_SiegeGetValueGroup@@YAHPAD00@Z 2019da70 f   bg_saga.obj
 0002:0004d340       ?BG_SiegeGetPairedValue@@YAHPAD00@Z 2019e340 f   bg_saga.obj
 0002:0004d9d0       ?BG_SiegeTranslateForcePowers@@YAXPADPAUsiegeClass_t@@@Z 2019e9d0 f   bg_saga.obj
 0002:0004def0       ?BG_SiegeTranslateGenericTable@@YAHPADPAUstringID_table_s@@W4qboolean@@@Z 2019eef0 f   bg_saga.obj
 0002:0004e1d0       ?BG_SiegeParseClassFile@@YAXPBDPAUsiegeClassDesc_t@@@Z 2019f1d0 f   bg_saga.obj
 0002:0004ee90       ?BG_SiegeCountBaseClass@@YAHHF@Z 2019fe90 f   bg_saga.obj
 0002:0004ef60       ?BG_GetUIPortraitFile@@YAPADHFF@Z 2019ff60 f   bg_saga.obj
 0002:0004f050       ?BG_GetUIPortrait@@YAHHFF@Z 201a0050 f   bg_saga.obj
 0002:0004f140       ?BG_GetClassOnBaseClass@@YAPAUsiegeClass_t@@HFF@Z 201a0140 f   bg_saga.obj
 0002:0004f220       ?BG_SiegeLoadClasses@@YAXPAUsiegeClassDesc_t@@@Z 201a0220 f   bg_saga.obj
 0002:0004f400       ?BG_SiegeFindClassByName@@YAPAUsiegeClass_t@@PBD@Z 201a0400 f   bg_saga.obj
 0002:0004f4b0       ?BG_SiegeParseTeamFile@@YAXPBD@Z 201a04b0 f   bg_saga.obj
 0002:0004f880       ?BG_SiegeLoadTeams@@YAXXZ  201a0880 f   bg_saga.obj
 0002:0004fa20       ?BG_SiegeFindThemeForTeam@@YAPAUsiegeTeam_t@@H@Z 201a0a20 f   bg_saga.obj
 0002:0004fa80       ?BG_PrecacheSabersForSiegeTeam@@YAXH@Z 201a0a80 f   bg_saga.obj
 0002:0004fca0       ?BG_SiegeCheckClassLegality@@YA?AW4qboolean@@HPAD@Z 201a0ca0 f   bg_saga.obj
 0002:0004fdb0       ?BG_SiegeFindTeamForTheme@@YAPAUsiegeTeam_t@@PAD@Z 201a0db0 f   bg_saga.obj
 0002:0004fe70       ?BG_SiegeSetTeamTheme@@YAXHPAD@Z 201a0e70 f   bg_saga.obj
 0002:0004fef0       ?BG_SiegeFindClassIndexByName@@YAHPBD@Z 201a0ef0 f   bg_saga.obj
 0002:0004ff90       ?PM_VehicleImpact@@YAXPAUbgEntity_s@@PAUtrace_t@@@Z 201a0f90 f   bg_slidemove.obj
 0002:00051bf0       ?PM_GroundSlideOkay@@YA?AW4qboolean@@M@Z 201a2bf0 f   bg_slidemove.obj
 0002:00051d40       ?PM_ClientImpact@@YA?AW4qboolean@@PAUtrace_t@@@Z 201a2d40 f   bg_slidemove.obj
 0002:00051e80       ?PM_SlideMove@@YA?AW4qboolean@@W41@@Z 201a2e80 f   bg_slidemove.obj
 0002:00052e10       ?PM_StepSlideMove@@YAXW4qboolean@@@Z 201a3e10 f   bg_slidemove.obj
 0002:000539b0       ?BG_ClearVehicleParseParms@@YAXXZ 201a49b0 f   bg_vehicleLoad.obj
 0002:00053a10       ?VEH_LoadVehWeapon@@YAHPBD@Z 201a4a10 f   bg_vehicleLoad.obj
 0002:00054260       ?VEH_VehWeaponIndexForName@@YAHPBD@Z 201a5260 f   bg_vehicleLoad.obj
 0002:00054390       ?BG_SetSharedVehicleFunctions@@YAXPAUvehicleInfo_t@@@Z 201a5390 f   bg_vehicleLoad.obj
 0002:00054480       ?BG_VehicleSetDefaults@@YAXPAUvehicleInfo_t@@@Z 201a5480 f   bg_vehicleLoad.obj
 0002:00054590       ?BG_VehicleClampData@@YAXPAUvehicleInfo_t@@@Z 201a5590 f   bg_vehicleLoad.obj
 0002:00054680       ?VEH_LoadVehicle@@YAHPBD@Z 201a5680 f   bg_vehicleLoad.obj
 0002:00055b30       ?VEH_VehicleIndexForName@@YAHPBD@Z 201a6b30 f   bg_vehicleLoad.obj
 0002:00055c60       ?BG_VehWeaponLoadParms@@YAXXZ 201a6c60 f   bg_vehicleLoad.obj
 0002:00055f40       ?BG_VehicleUnloadParms@@YAXXZ 201a6f40 f   bg_vehicleLoad.obj
 0002:00055f90       ?BG_VehicleLoadParms@@YAXXZ 201a6f90 f   bg_vehicleLoad.obj
 0002:000563c0       ?BG_VehicleGetIndex@@YAHPBD@Z 201a73c0 f   bg_vehicleLoad.obj
 0002:00056410       ?BG_GetVehicleModelName@@YAXPAD@Z 201a7410 f   bg_vehicleLoad.obj
 0002:000564e0       ?BG_GetVehicleSkinName@@YAXPAD@Z 201a74e0 f   bg_vehicleLoad.obj
 0002:000565f0       ?AttachRidersGeneric@@YAXPAUVehicle_s@@@Z 201a75f0 f   bg_vehicleLoad.obj
 0002:000569a0       ?P_SetTwitchInfo@@YAXPAUgclient_s@@@Z 201a79a0 f   g_active.obj
 0002:00056a00       ?P_DamageFeedback@@YAXPAUgentity_s@@@Z 201a7a00 f   g_active.obj
 0002:00056d80       ?P_WorldEffects@@YAXPAUgentity_s@@@Z 201a7d80 f   g_active.obj
 0002:000570f0       ?DoImpact@@YAXPAUgentity_s@@0W4qboolean@@@Z 201a80f0 f   g_active.obj
 0002:00057970       ?Client_CheckImpactBBrush@@YAXPAUgentity_s@@0@Z 201a8970 f   g_active.obj
 0002:00057ad0       ?G_SetClientSound@@YAXPAUgentity_s@@@Z 201a8ad0 f   g_active.obj
 0002:00057c90       ?ClientImpacts@@YAXPAUgentity_s@@PAUpmove_t@@@Z 201a8c90 f   g_active.obj
 0002:00057e60       ?G_TouchTriggers@@YAXPAUgentity_s@@@Z 201a8e60 f   g_active.obj
 0002:00058370       ?G_MoverTouchPushTriggers@@YAXPAUgentity_s@@QAM@Z 201a9370 f   g_active.obj
 0002:00058950       ?SpectatorThink@@YAXPAUgentity_s@@PAUusercmd_s@@@Z 201a9950 f   g_active.obj
 0002:00058c50       ?ClientInactivityTimer@@YA?AW4qboolean@@PAUgclient_s@@@Z 201a9c50 f   g_active.obj
 0002:00058e10       ?ClientTimerActions@@YAXPAUgentity_s@@H@Z 201a9e10 f   g_active.obj
 0002:00058ed0       ?ClientIntermissionThink@@YAXPAUgclient_s@@@Z 201a9ed0 f   g_active.obj
 0002:00058fb0       ?G_VehicleAttachDroidUnit@@YAXPAUgentity_s@@@Z 201a9fb0 f   g_active.obj
 0002:00059440       ?G_CheapWeaponFire@@YAXHH@Z 201aa440 f   g_active.obj
 0002:000596c0       ?ClientEvents@@YAXPAUgentity_s@@H@Z 201aa6c0 f   g_active.obj
 0002:00059c80       ?G_ThrownDeathAnimForDeathAnim@@YAXPAUgentity_s@@QAM@Z 201aac80 f   g_active.obj
 0002:0005a080       ?SendPendingPredictableEvents@@YAXPAUplayerState_s@@@Z 201ab080 f   g_active.obj
 0002:0005a200       ?G_UpdateClientBroadcasts@@YAXPAUgentity_s@@@Z 201ab200 f   g_active.obj
 0002:0005a750       ?G_AddPushVecToUcmd@@YAXPAUgentity_s@@PAUusercmd_s@@@Z 201ab750 f   g_active.obj
 0002:0005ab30       ?G_StandingAnim@@YA?AW4qboolean@@H@Z 201abb30 f   g_active.obj
 0002:0005abd0       ?G_ActionButtonPressed@@YA?AW4qboolean@@H@Z 201abbd0 f   g_active.obj
 0002:0005ace0       ?G_CheckClientIdle@@YAXPAUgentity_s@@PAUusercmd_s@@@Z 201abce0 f   g_active.obj
 0002:0005b6d0       ?NPC_Accelerate@@YAXPAUgentity_s@@W4qboolean@@1@Z 201ac6d0 f   g_active.obj
 0002:0005bad0       ?G_CheckMovingLoopingSounds@@YAXPAUgentity_s@@PAUusercmd_s@@@Z 201acad0 f   g_active.obj
 0002:0005bd90       ?G_HeldByMonster@@YAXPAUgentity_s@@PAPAUusercmd_s@@@Z 201acd90 f   g_active.obj
 0002:0005c050       ?G_SetTauntAnim@@YAXPAUgentity_s@@H@Z 201ad050 f   g_active.obj
 0002:0005ce80       ?TouchingItem@@YAPAUgentity_s@@PAU1@@Z 201ade80 f   g_active.obj
 0002:0005d100       ?ClientThink_real@@YAXPAUgentity_s@@@Z 201ae100 f   g_active.obj
 0002:00063120       ?G_CheckClientTimeouts@@YAXPAUgentity_s@@@Z 201b4120 f   g_active.obj
 0002:000631d0       ?ClientThink@@YAXHPAUusercmd_s@@@Z 201b41d0 f   g_active.obj
 0002:000632e0       ?G_RunClient@@YAXPAUgentity_s@@@Z 201b42e0 f   g_active.obj
 0002:00063370       ?SpectatorClientEndFrame@@YAXPAUgentity_s@@@Z 201b4370 f   g_active.obj
 0002:000635b0       ?ClientEndFrame@@YAXPAUgentity_s@@@Z 201b45b0 f   g_active.obj
 0002:000638b0       ?UpdateTournamentInfo@@YAXXZ 201b48b0 f   g_arenas.obj
 0002:00063d90       ?Touch_Autosave@@YAXPAUgentity_s@@0PAUtrace_t@@@Z 201b4d90 f   g_autosave.obj
 0002:00063e20       ?SpawnPointRender@@YAXXZ   201b4e20 f   g_autosave.obj
 0002:00063f50       ?AutosaveRender@@YAXXZ     201b4f50 f   g_autosave.obj
 0002:00064100       ?SP_trigger_autosave@@YAXPAUgentity_s@@@Z 201b5100 f   g_autosave.obj
 0002:00064180       ?Create_Autosave@@YAXQAMHW4qboolean@@@Z 201b5180 f   g_autosave.obj
 0002:00064320       ?Load_Autosaves@@YAXXZ     201b5320 f   g_autosave.obj
 0002:00064610       ?Save_Autosaves@@YAXXZ     201b5610 f   g_autosave.obj
 0002:00064980       ?Delete_Autosaves@@YAXPAUgentity_s@@@Z 201b5980 f   g_autosave.obj
 0002:00064c40       ?GetRandQuote@@YAPBDXZ     201b5c40 f   g_aynrand.obj
 0002:00064cb0       ?trap_Cvar_VariableValue@@YAMPBD@Z 201b5cb0 f   g_bot.obj
 0002:00064d80       ?G_ParseInfos@@YAHPADHQAPAD@Z 201b5d80 f   g_bot.obj
 0002:00065050       ?G_GetMapTypeBits@@YAHPAD@Z 201b6050 f   g_bot.obj
 0002:00065280       ?strstr@@YAPADPADPBD@Z     201b6280 f i g_bot.obj
 0002:000652e0       ?G_DoesMapSupportGametype@@YA?AW4qboolean@@PBDH@Z 201b62e0 f   g_bot.obj
 0002:00065440       ?G_RefreshNextMap@@YAPBDHW4qboolean@@@Z 201b6440 f   g_bot.obj
 0002:000656a0       ?G_LoadArenas@@YAXXZ       201b66a0 f   g_bot.obj
 0002:00065a80       ?G_GetArenaInfoByMap@@YAPBDPBD@Z 201b6a80 f   g_bot.obj
 0002:00065b30       ?PickName@@YAPADXZ         201b6b30 f   g_bot.obj
 0002:00065c00       ?G_AddRandomBot@@YAXH@Z    201b6c00 f   g_bot.obj
 0002:00066080       ?G_RemoveRandomBot@@YAHH@Z 201b7080 f   g_bot.obj
 0002:00066250       ?G_CountHumanPlayers@@YAHHH@Z 201b7250 f   g_bot.obj
 0002:00066360       ?G_CountBotPlayers@@YAHH@Z 201b7360 f   g_bot.obj
 0002:000664c0       ?G_CheckMinimumPlayers@@YAXXZ 201b74c0 f   g_bot.obj
 0002:00066be0       ?G_CheckBotSpawn@@YAXXZ    201b7be0 f   g_bot.obj
 0002:00066ca0       ?G_RemoveQueuedBotBegin@@YAXH@Z 201b7ca0 f   g_bot.obj
 0002:00066d20       ?G_BotConnect@@YA?AW4qboolean@@HW41@@Z 201b7d20 f   g_bot.obj
 0002:00066ef0       ?Svcmd_AddBot_f@@YAXXZ     201b7ef0 f   g_bot.obj
 0002:00067e40       ?Svcmd_BotList_f@@YAXXZ    201b8e40 f   g_bot.obj
 0002:00068100       ?G_GetBotInfoByNumber@@YAPADH@Z 201b9100 f   g_bot.obj
 0002:00068190       ?G_GetBotInfoByName@@YAPADPBD@Z 201b9190 f   g_bot.obj
 0002:00068250       ?G_InitBots@@YAXW4qboolean@@@Z 201b9250 f   g_bot.obj
 0002:000686b0       ?misc_model_breakable_die@@YAXPAUgentity_s@@00HH@Z 201b96b0 f   g_breakable.obj
 0002:00068f60       ?misc_model_breakable_touch@@YAXPAUgentity_s@@0PAUtrace_t@@@Z 201b9f60 f   g_breakable.obj
 0002:00068f90       ?misc_model_throw_at_target4@@YAXPAUgentity_s@@0@Z 201b9f90 f   g_breakable.obj
 0002:00069360       ?misc_model_use@@YAXPAUgentity_s@@00@Z 201ba360 f   g_breakable.obj
 0002:00069530       ?misc_model_breakable_pain@@YAXPAUgentity_s@@0H@Z 201ba530 f   g_breakable.obj
 0002:000695d0       ?health_shutdown@@YAXPAUgentity_s@@@Z 201ba5d0 f   g_breakable.obj
 0002:00069750       ?ITM_AddHealth@@YA?AW4qboolean@@PAUgentity_s@@H@Z 201ba750 f   g_breakable.obj
 0002:00069820       ?ITM_AddArmor@@YA?AW4qboolean@@PAUgentity_s@@H@Z 201ba820 f   g_breakable.obj
 0002:00069900       ?health_think@@YAXPAUgentity_s@@@Z 201ba900 f   g_breakable.obj
 0002:00069b90       ?health_use@@YAXPAUgentity_s@@00@Z 201bab90 f   g_breakable.obj
 0002:00069da0       ?ammo_shutdown@@YAXPAUgentity_s@@@Z 201bada0 f   g_breakable.obj
 0002:00069e30       ?Add_Ammo2@@YA?AW4qboolean@@PAUgentity_s@@HH@Z 201bae30 f   g_breakable.obj
 0002:00069f10       ?ammo_think@@YAXPAUgentity_s@@@Z 201baf10 f   g_breakable.obj
 0002:0006a080       ?ammo_use@@YAXPAUgentity_s@@00@Z 201bb080 f   g_breakable.obj
 0002:0006a200       ?misc_model_breakable_init@@YAXPAUgentity_s@@@Z 201bb200 f   g_breakable.obj
 0002:0006a480       ?misc_model_breakable_gravity_init@@YAXPAUgentity_s@@W4qboolean@@@Z 201bb480 f   g_breakable.obj
 0002:0006a9e0       ?SP_misc_model_breakable@@YAXPAUgentity_s@@@Z 201bb9e0 f   g_breakable.obj
 0002:0006b600       ?GCam_Update@@YAXXZ        201bc600 f   g_camera.obj
 0002:0006bac0       ?GCam_FollowUpdate@@YAXXZ  201bcac0 f   g_camera.obj
 0002:0006c510       ?GCam_FollowDisable@@YAXXZ 201bd510 f   g_camera.obj
 0002:0006c590       ?GCam_TrackDisable@@YAXXZ  201bd590 f   g_camera.obj
 0002:0006c5e0       ?GCam_DistanceDisable@@YAXXZ 201bd5e0 f   g_camera.obj
 0002:0006c620       ?GCam_SetPosition@@YAXQAM@Z 201bd620 f   g_camera.obj
 0002:0006c6b0       ?GCam_Move@@YAXQAMM@Z      201bd6b0 f   g_camera.obj
 0002:0006c7b0       ?GCam_Follow@@YAXQAHMM@Z   201bd7b0 f   g_camera.obj
 0002:0006c8c0       ?GCam_Enable@@YAXXZ        201bd8c0 f   g_camera.obj
 0002:0006c990       ?GCam_Disable@@YAXXZ       201bd990 f   g_camera.obj
 0002:0006ca40       ?GCam_SetAngles@@YAXQAM@Z  201bda40 f   g_camera.obj
 0002:0006cad0       ?GCam_Pan@@YAXQAM0M@Z      201bdad0 f   g_camera.obj
 0002:0006cda0       ?UpdatePlayerCameraPos@@YAXXZ 201bdda0 f   g_camera.obj
 0002:0006cf30       ?EnablePlayerCameraPos@@YAXPAUgentity_s@@@Z 201bdf30 f   g_camera.obj
 0002:0006d2e0       ?DisablePlayerCameraPos@@YAXXZ 201be2e0 f   g_camera.obj
 0002:0006d550       ?UpdatePlayerCameraOrigin@@YAXPAUgentity_s@@QAM@Z 201be550 f   g_camera.obj
 0002:0006d600       ?UpdatePlayerCameraAngle@@YAXPAUgentity_s@@QAM@Z 201be600 f   g_camera.obj
 0002:0006d6b0       ?OJP_Spectator@@YAXPAUgentity_s@@@Z 201be6b0 f   g_client.obj
 0002:0006d7d0       ?SP_info_player_duel@@YAXPAUgentity_s@@@Z 201be7d0 f   g_client.obj
 0002:0006d8d0       ?SP_info_player_duel1@@YAXPAUgentity_s@@@Z 201be8d0 f   g_client.obj
 0002:0006d9d0       ?SP_info_player_duel2@@YAXPAUgentity_s@@@Z 201be9d0 f   g_client.obj
 0002:0006dad0       ?SP_info_player_deathmatch@@YAXPAUgentity_s@@@Z 201bead0 f   g_client.obj
 0002:0006dbe0       ?SP_info_player_start@@YAXPAUgentity_s@@@Z 201bebe0 f   g_client.obj
 0002:0006dc40       ?SP_info_player_start_red@@YAXPAUgentity_s@@@Z 201bec40 f   g_client.obj
 0002:0006dc90       ?SP_info_player_start_blue@@YAXPAUgentity_s@@@Z 201bec90 f   g_client.obj
 0002:0006dce0       ?SiegePointUse@@YAXPAUgentity_s@@00@Z 201bece0 f   g_client.obj
 0002:0006dd40       ?SP_info_player_siegeteam1@@YAXPAUgentity_s@@@Z 201bed40 f   g_client.obj
 0002:0006de40       ?SP_info_player_siegeteam2@@YAXPAUgentity_s@@@Z 201bee40 f   g_client.obj
 0002:0006df40       ?SP_info_player_intermission@@YAXPAUgentity_s@@@Z 201bef40 f   g_client.obj
 0002:0006df70       ?SP_info_player_intermission_red@@YAXPAUgentity_s@@@Z 201bef70 f   g_client.obj
 0002:0006dfa0       ?SP_info_player_intermission_blue@@YAXPAUgentity_s@@@Z 201befa0 f   g_client.obj
 0002:0006dfd0       ?ThrowSaberToAttacker@@YAXPAUgentity_s@@0@Z 201befd0 f   g_client.obj
 0002:0006e5a0       ?JMSaberThink@@YAXPAUgentity_s@@@Z 201bf5a0 f   g_client.obj
 0002:0006e8e0       ?JMSaberTouch@@YAXPAUgentity_s@@0PAUtrace_t@@@Z 201bf8e0 f   g_client.obj
 0002:0006ec80       ?SP_info_jedimaster_start@@YAXPAUgentity_s@@@Z 201bfc80 f   g_client.obj
 0002:0006eec0       ?SpotWouldTelefrag@@YA?AW4qboolean@@PAUgentity_s@@@Z 201bfec0 f   g_client.obj
 0002:0006f0a0       ?SpotWouldTelefrag2@@YA?AW4qboolean@@PAUgentity_s@@QAM@Z 201c00a0 f   g_client.obj
 0002:0006f2b0       ?SelectNearestDeathmatchSpawnPoint@@YAPAUgentity_s@@QAM@Z 201c02b0 f   g_client.obj
 0002:0006f490       ?SelectRandomDeathmatchSpawnPoint@@YAPAUgentity_s@@XZ 201c0490 f   g_client.obj
 0002:0006f5b0       ?SelectRandomFurthestSpawnPoint@@YAPAUgentity_s@@QAM00H@Z 201c05b0 f   g_client.obj
 0002:0006fd40       ?SelectDuelSpawnPoint@@YAPAUgentity_s@@HQAM00@Z 201c0d40 f   g_client.obj
 0002:000702b0       ?SelectSpawnPoint@@YAPAUgentity_s@@QAM00H@Z 201c12b0 f   g_client.obj
 0002:00070310       ?SelectInitialSpawnPoint@@YAPAUgentity_s@@QAM0H@Z 201c1310 f   g_client.obj
 0002:00070450       ?SelectSpectatorSpawnPoint@@YAPAUgentity_s@@QAM0@Z 201c1450 f   g_client.obj
 0002:000704f0       ?BodySink@@YAXPAUgentity_s@@@Z 201c14f0 f   g_client.obj
 0002:000705d0       ?SetClientViewAngle@@YAXPAUgentity_s@@QAM@Z 201c15d0 f   g_client.obj
 0002:00070710       ?MaintainBodyQueue@@YAXPAUgentity_s@@@Z 201c1710 f   g_client.obj
 0002:00070f30       ?respawn@@YAXPAUgentity_s@@@Z 201c1f30 f   g_client.obj
 0002:000713d0       ?TeamCount@@YAHHH@Z        201c23d0 f   g_client.obj
 0002:000714d0       ?TeamLeader@@YAHH@Z        201c24d0 f   g_client.obj
 0002:000715a0       ?PickTeam@@YAHHW4qboolean@@@Z 201c25a0 f   g_client.obj
 0002:00071720       ?G_DebugWrite@@YAXPBD0@Z   201c2720 f   g_client.obj
 0002:000717e0       ?G_SaberModelSetup@@YA?AW4qboolean@@PAUgentity_s@@@Z 201c27e0 f   g_client.obj
 0002:00071b90       ?SetupGameGhoul2Model@@YAXPAUgentity_s@@PAD1@Z 201c2b90 f   g_client.obj
 0002:00072e70       ?ClientUserinfoChanged@@YAXH@Z 201c3e70 f   g_client.obj
 0002:00074430       ?ClientConnect@@YAPADHW4qboolean@@0@Z 201c5430 f   g_client.obj
 0002:00074a50       ?ClientBegin@@YAXHW4qboolean@@@Z 201c5a50 f   g_client.obj
 0002:00075500       ?AllForceDisabled@@YA?AW4qboolean@@H@Z 201c6500 f   g_client.obj
 0002:00075580       ?G_BreakArm@@YAXPAUgentity_s@@H@Z 201c6580 f   g_client.obj
 0002:00075800       ?G_UpdateClientAnims@@YAXPAUgentity_s@@M@Z 201c6800 f   g_client.obj
 0002:000761c0       ?TotalAllociatedSkillPoints@@YAHPAUgentity_s@@@Z 201c71c0 f   g_client.obj
 0002:00076300       ?SkillSide@@YAHH@Z         201c7300 f   g_client.obj
 0002:000763e0       ?GetLevelJedi3Rank@@YA?AW4OJPRank@@PAUgentity_s@@H@Z 201c73e0 f   g_client.obj
 0002:00076440       ?GetLevelJedi2Rank@@YA?AW4OJPRank@@PAUgentity_s@@HHHH@Z 201c7440 f   g_client.obj
 0002:00076950       ?GetLevelJedi1Rank@@YA?AW4OJPRank@@PAUgentity_s@@HHHH@Z 201c7950 f   g_client.obj
 0002:00076b00       ?GetTotalCostForSkill@@YAHH@Z 201c7b00 f   g_client.obj
 0002:00076b60       ?GetSpentInSkill@@YAHPAUgentity_s@@H@Z 201c7b60 f   g_client.obj
 0002:00076c50       ?CalculateAndSetRank@@YAXPAUgentity_s@@@Z 201c7c50 f   g_client.obj
 0002:000781e0       ?ClientSpawn@@YAXPAUgentity_s@@@Z 201c91e0 f   g_client.obj
 0002:0007b220       ?ClientDisconnect@@YAXH@Z  201cc220 f   g_client.obj
 0002:0007b870       ?FindYoungestPlayeronTeam@@YAPAUgentity_s@@HW4qboolean@@@Z 201cc870 f   g_client.obj
 0002:0007ba30       ?CheckTeamBotBalance@@YAXXZ 201cca30 f   g_client.obj
 0002:0007bc80       ?CheckTeamBalance@@YAXXZ   201ccc80 f   g_client.obj
 0002:0007bfa0       ?G_StandardHumanoid@@YA?AW4qboolean@@PAUgentity_s@@@Z 201ccfa0 f   g_client.obj
 0002:0007c1b0       ?OJP_AllPlayersHaveClientPlugin@@YA?AW4qboolean@@XZ 201cd1b0 f   g_client.obj
 0002:0007c250       ?LMS_EnoughPlayers@@YA?AW4qboolean@@XZ 201cd250 f   g_client.obj
 0002:0007c2e0       ?DeathmatchScoreboardMessage@@YAXPAUgentity_s@@@Z 201cd2e0 f   g_cmds.obj
 0002:0007c720       ?Cmd_Score_f@@YAXPAUgentity_s@@@Z 201cd720 f   g_cmds.obj
 0002:0007c770       ?CheatsOk@@YA?AW4qboolean@@PAUgentity_s@@@Z 201cd770 f   g_cmds.obj
 0002:0007c870       ?ConcatArgs@@YAPADH@Z      201cd870 f   g_cmds.obj
 0002:0007c9f0       ?SanitizeString@@YAXPAD0@Z 201cd9f0 f   g_cmds.obj
 0002:0007cac0       ?ClientNumberFromString@@YAHPAUgentity_s@@PAD@Z 201cdac0 f   g_cmds.obj
 0002:0007cd50       ?Cmd_Give_f@@YAXPAUgentity_s@@H@Z 201cdd50 f   g_cmds.obj
 0002:0007d580       ?Cmd_God_f@@YAXPAUgentity_s@@@Z 201ce580 f   g_cmds.obj
 0002:0007d650       ?Cmd_Notarget_f@@YAXPAUgentity_s@@@Z 201ce650 f   g_cmds.obj
 0002:0007d720       ?Cmd_Noclip_f@@YAXPAUgentity_s@@@Z 201ce720 f   g_cmds.obj
 0002:0007d810       ?Cmd_LevelShot_f@@YAXPAUgentity_s@@@Z 201ce810 f   g_cmds.obj
 0002:0007d8d0       ?Cmd_TeamTask_f@@YAXPAUgentity_s@@@Z 201ce8d0 f   g_cmds.obj
 0002:0007da70       ?G_CheckTKAutoKickBan@@YAXPAUgentity_s@@@Z 201cea70 f   g_cmds.obj
 0002:0007dd60       ?Cmd_Kill_f@@YAXPAUgentity_s@@@Z 201ced60 f   g_cmds.obj
 0002:0007e170       ?BroadcastTeamChange@@YAXPAUgclient_s@@H@Z 201cf170 f   g_cmds.obj
 0002:0007e450       ?G_PowerDuelCheckFail@@YA?AW4qboolean@@PAUgentity_s@@@Z 201cf450 f   g_cmds.obj
 0002:0007e590       ?SetTeam@@YAXPAUgentity_s@@PAD@Z 201cf590 f   g_cmds.obj
 0002:0007f020       ?StopFollowing@@YAXPAUgentity_s@@@Z 201d0020 f   g_cmds.obj
 0002:0007f2b0       ?Cmd_Team_f@@YAXPAUgentity_s@@@Z 201d02b0 f   g_cmds.obj
 0002:0007f710       ?Cmd_DuelTeam_f@@YAXPAUgentity_s@@@Z 201d0710 f   g_cmds.obj
 0002:0007fb40       ?G_TeamForSiegeClass@@YAHPBD@Z 201d0b40 f   g_cmds.obj
 0002:0007fc70       ?Cmd_SiegeClass_f@@YAXPAUgentity_s@@@Z 201d0c70 f   g_cmds.obj
 0002:00080080       ?Cmd_ForceChanged_f@@YAXPAUgentity_s@@@Z 201d1080 f   g_cmds.obj
 0002:000802f0       ?G_SetSaber@@YA?AW4qboolean@@PAUgentity_s@@HPADW41@@Z 201d12f0 f   g_cmds.obj
 0002:00080680       ?Cmd_Follow_f@@YAXPAUgentity_s@@@Z 201d1680 f   g_cmds.obj
 0002:000808b0       ?Cmd_FollowCycle_f@@YAXPAUgentity_s@@H@Z 201d18b0 f   g_cmds.obj
 0002:00080aa0       ?BotOrderParser@@YAXPAUgentity_s@@0HPBD@Z 201d1aa0 f   g_cmds.obj
 0002:00080f20       ?G_Say@@YAXPAUgentity_s@@0HPBD@Z 201d1f20 f   g_cmds.obj
 0002:00081660       ?Cmd_GameCommand_f@@YAXPAUgentity_s@@@Z 201d2660 f   g_cmds.obj
 0002:000817d0       ?Cmd_Where_f@@YAXPAUgentity_s@@@Z 201d27d0 f   g_cmds.obj
 0002:000818d0       ?G_ClientNumberFromName@@YAHPBD@Z 201d28d0 f   g_cmds.obj
 0002:00081a30       ?SanitizeString2@@YAXPAD0@Z 201d2a30 f   g_cmds.obj
 0002:00081b50       ?G_ClientNumberFromStrippedName@@YAHPBD@Z 201d2b50 f   g_cmds.obj
 0002:00081cb0       ?Cmd_CallVote_f@@YAXPAUgentity_s@@@Z 201d2cb0 f   g_cmds.obj
 0002:00082b60       ?Cmd_Vote_f@@YAXPAUgentity_s@@@Z 201d3b60 f   g_cmds.obj
 0002:00082f50       ?Cmd_CallTeamVote_f@@YAXPAUgentity_s@@@Z 201d3f50 f   g_cmds.obj
 0002:00083a80       ?Cmd_TeamVote_f@@YAXPAUgentity_s@@@Z 201d4a80 f   g_cmds.obj
 0002:00083dd0       ?Cmd_SetViewpos_f@@YAXPAUgentity_s@@@Z 201d4dd0 f   g_cmds.obj
 0002:00084010       ?Cmd_Stats_f@@YAXPAUgentity_s@@@Z 201d5010 f   g_cmds.obj
 0002:00084040       ?G_LeaveVehicle@@YAXPAUgentity_s@@W4qboolean@@@Z 201d5040 f   g_cmds.obj
 0002:000841f0       ?G_ItemUsable@@YAHPAUplayerState_s@@H@Z 201d51f0 f   g_cmds.obj
 0002:000848c0       ?Cmd_ToggleSaber_f@@YAXPAUgentity_s@@@Z 201d58c0 f   g_cmds.obj
 0002:00084cc0       ?G_ValidSaberStyle@@YA?AW4qboolean@@PAUgentity_s@@H@Z 201d5cc0 f   g_cmds.obj
 0002:00084d60       ?Cmd_SaberAttackCycle_f@@YAXPAUgentity_s@@@Z 201d5d60 f   g_cmds.obj
 0002:00085370       ?G_OtherPlayersDueling@@YA?AW4qboolean@@XZ 201d6370 f   g_cmds.obj
 0002:00085420       ?Cmd_EngageDuel_f@@YAXPAUgentity_s@@@Z 201d6420 f   g_cmds.obj
 0002:00085d70       ?Cmd_DebugSetSaberMove_f@@YAXPAUgentity_s@@@Z 201d6d70 f   g_cmds.obj
 0002:00085ef0       ?Cmd_DebugSetSaberBlock_f@@YAXPAUgentity_s@@@Z 201d6ef0 f   g_cmds.obj
 0002:00086020       ?Cmd_DebugSetBodyAnim_f@@YAXPAUgentity_s@@H@Z 201d7020 f   g_cmds.obj
 0002:000861c0       ?StandardSetBodyAnim@@YAXPAUgentity_s@@HH@Z 201d71c0 f   g_cmds.obj
 0002:00086220       ?TryGrapple@@YA?AW4qboolean@@PAUgentity_s@@@Z 201d7220 f   g_cmds.obj
 0002:00086440       ?ClientCommand@@YAXH@Z     201d7440 f   g_cmds.obj
 0002:0008ad20       ?G_DropKey@@YAXPAUgentity_s@@@Z 201dbd20 f   g_combat.obj
 0002:0008ade0       ?ObjectDie@@YAXPAUgentity_s@@00HH@Z 201dbde0 f   g_combat.obj
 0002:0008ae50       ?G_HeavyMelee@@YA?AW4qboolean@@PAUgentity_s@@@Z 201dbe50 f   g_combat.obj
 0002:0008aef0       ?G_GetHitLocation@@YAHPAUgentity_s@@QAM@Z 201dbef0 f   g_combat.obj
 0002:0008b830       ?ExplodeDeath@@YAXPAUgentity_s@@@Z 201dc830 f   g_combat.obj
 0002:0008b9f0       ?ScorePlum@@YAXPAUgentity_s@@QAMH@Z 201dc9f0 f   g_combat.obj
 0002:0008ba90       ?AddScore@@YAXPAUgentity_s@@QAMH@Z 201dca90 f   g_combat.obj
 0002:0008bb70       ?TossClientWeapon@@YAXPAUgentity_s@@QAMM@Z 201dcb70 f   g_combat.obj
 0002:0008bef0       ?TossClientItems@@YAXPAUgentity_s@@@Z 201dcef0 f   g_combat.obj
 0002:0008c3e0       ?LookAtKiller@@YAXPAUgentity_s@@00@Z 201dd3e0 f   g_combat.obj
 0002:0008c590       ?GibEntity@@YAXPAUgentity_s@@H@Z 201dd590 f   g_combat.obj
 0002:0008c620       ?BodyRid@@YAXPAUgentity_s@@@Z 201dd620 f   g_combat.obj
 0002:0008c680       ?body_die@@YAXPAUgentity_s@@00HH@Z 201dd680 f   g_combat.obj
 0002:0008c940       ?G_InKnockDown@@YA?AW4qboolean@@PAUplayerState_s@@@Z 201dd940 f   g_combat.obj
 0002:0008ca00       ?G_PickDeathAnim@@YAHPAUgentity_s@@QAMHHH@Z 201dda00 f   g_combat.obj
 0002:0008e3e0       ?G_CheckLedgeDive@@YAHPAUgentity_s@@MQBMW4qboolean@@2@Z 201df3e0 f   g_combat.obj
 0002:0008e960       ?G_GetJediMaster@@YAPAUgentity_s@@XZ 201df960 f   g_combat.obj
 0002:0008ea10       ?G_AlertTeam@@YAXPAUgentity_s@@0MM@Z 201dfa10 f   g_combat.obj
 0002:0008ef70       ?G_DeathAlert@@YAXPAUgentity_s@@0@Z 201dff70 f   g_combat.obj
 0002:0008efe0       ?DeathFX@@YAXPAUgentity_s@@@Z 201dffe0 f   g_combat.obj
 0002:0008f8a0       ?G_CheckVictoryScript@@YAXPAUgentity_s@@@Z 201e08a0 f   g_combat.obj
 0002:0008fb00       ?G_AddPowerDuelScore@@YAXHH@Z 201e0b00 f   g_combat.obj
 0002:0008fc50       ?G_AddPowerDuelLoserScore@@YAXHH@Z 201e0c50 f   g_combat.obj
 0002:0008fda0       ?G_BroadcastObit@@YAXPAUgentity_s@@00HHHW4qboolean@@@Z 201e0da0 f   g_combat.obj
 0002:0008ff90       ?player_die@@YAXPAUgentity_s@@00HH@Z 201e0f90 f   g_combat.obj
 0002:00092e70       ?CheckArmor@@YAHPAUgentity_s@@HHH@Z 201e3e70 f   g_combat.obj
 0002:00093160       ?G_ApplyKnockback@@YAXPAUgentity_s@@QAMM@Z 201e4160 f   g_combat.obj
 0002:00093720       ?RaySphereIntersections@@YAHQAMM00QAY02M@Z 201e4720 f   g_combat.obj
 0002:00093a10       ?G_GetDismemberLoc@@YAXPAUgentity_s@@QAMH@Z 201e4a10 f   g_combat.obj
 0002:00093f40       ?G_GetDismemberBolt@@YAXPAUgentity_s@@QAMH@Z 201e4f40 f   g_combat.obj
 0002:00094620       ?LimbTouch@@YAXPAUgentity_s@@0PAUtrace_t@@@Z 201e5620 f   g_combat.obj
 0002:00094650       ?LimbThink@@YAXPAUgentity_s@@@Z 201e5650 f   g_combat.obj
 0002:000947c0       ?G_Dismember@@YAXPAUgentity_s@@0QAMHMMHW4qboolean@@@Z 201e57c0 f   g_combat.obj
 0002:000956a0       ?DismembermentTest@@YAXPAUgentity_s@@@Z 201e66a0 f   g_combat.obj
 0002:000957b0       ?DismembermentByNum@@YAXPAUgentity_s@@H@Z 201e67b0 f   g_combat.obj
 0002:00095940       ?G_GetHitQuad@@YAHPAUgentity_s@@QAM@Z 201e6940 f   g_combat.obj
 0002:00095c70       ?G_GetHitLocFromSurfName@@YA?AW4qboolean@@PAUgentity_s@@PBDPAHQAM33H@Z 201e6c70 f   g_combat.obj
 0002:000976b0       ?G_CheckForDismemberment@@YAXPAUgentity_s@@0QAMHHW4qboolean@@@Z 201e86b0 f   g_combat.obj
 0002:00097af0       ?G_CheckForblowingup@@YAXPAUgentity_s@@0QAMHHW4qboolean@@@Z 201e8af0 f   g_combat.obj
 0002:00097e10       ?G_LocationBasedDamageModifier@@YAXPAUgentity_s@@QAMHHPAH@Z 201e8e10 f   g_combat.obj
 0002:00098180       ?G_ThereIsAMaster@@YA?AW4qboolean@@XZ 201e9180 f   g_combat.obj
 0002:00098220       ?G_Knockdown@@YAXPAUgentity_s@@0QBMMW4qboolean@@@Z 201e9220 f   g_combat.obj
 0002:00098760       ?G_ApplyVehicleOtherKiller@@YAXPAUgentity_s@@00HW4qboolean@@@Z 201e9760 f   g_combat.obj
 0002:00098bd0       ?G_CheckVehicleNPCTeamDamage@@YA?AW4qboolean@@PAUgentity_s@@@Z 201e9bd0 f   g_combat.obj
 0002:00098c50       ?G_Damage@@YAXPAUgentity_s@@00QAM1HHH@Z 201e9c50 f   g_combat.obj
 0002:0009c670       ?G_DamageFromKiller@@YAXPAUgentity_s@@00QAMHHH@Z 201ed670 f   g_combat.obj
 0002:0009c8b0       ?CanDamage@@YA?AW4qboolean@@PAUgentity_s@@QAM@Z 201ed8b0 f   g_combat.obj
 0002:0009cc70       ?G_RadiusDamage@@YA?AW4qboolean@@QAMPAUgentity_s@@MM11H@Z 201edc70 f   g_combat.obj
 0002:0009d520       ?AddFatigueKillBonus@@YAXPAUgentity_s@@0@Z 201ee520 f   g_combat.obj
 0002:0009d5c0       ?AddSkill@@YAXPAUgentity_s@@M@Z 201ee5c0 f   g_combat.obj
 0002:0009d6f0       ?G_DodgeDrain@@YAXPAUgentity_s@@0H@Z 201ee6f0 f   g_combat.obj
 0002:0009d930       ?EnumModules@@YGHPADKPAX@Z 201ee930 f   g_crash.obj
 0002:0009d9a0       ?ExceptionName@@YAPADK@Z   201ee9a0 f   g_crash.obj
 0002:0009dd50       ?win32_exceptioninfo@@YAXPAU_EXCEPTION_POINTERS@@@Z 201eed50 f   g_crash.obj
 0002:0009dde0       ?win32_dllinfo@@YAXXZ      201eede0 f   g_crash.obj
 0002:0009de60       ?win32_backtrace@@YAXPAU_EXCEPTION_POINTERS@@@Z 201eee60 f   g_crash.obj
 0002:0009e220       ?win32_exception_handler@@YGJPAU_EXCEPTION_POINTERS@@@Z 201ef220 f   g_crash.obj
 0002:0009e470       ?win32_initialize_handler@@YAXXZ 201ef470 f   g_crash.obj
 0002:0009e6a0       ?win32_deinitialize_handler@@YAXXZ 201ef6a0 f   g_crash.obj
 0002:0009e770       ?EnableCoreDumps@@YAXXZ    201ef770 f   g_crash.obj
 0002:0009e7a0       ?DisableCoreDump@@YAXXZ    201ef7a0 f   g_crash.obj
 0002:0009e7d0       ?EnableStackTrace@@YAXXZ   201ef7d0 f   g_crash.obj
 0002:0009e820       ?DisableStackTrace@@YAXXZ  201ef820 f   g_crash.obj
 0002:0009e870       ?LoadDynamicMusic@@YAXXZ   201ef870 f   g_dynmusic.obj
 0002:0009ea00       ?LoadDMSSongData@@YAXPAD0PAUDynamicMusicSet_s@@0@Z 201efa00 f   g_dynmusic.obj
 0002:0009ede0       ?LoadLengthforSong@@YAXPADPAUDynamicMusicSet_s@@@Z 201efde0 f   g_dynmusic.obj
 0002:0009f090       ?strrchr@@YAPADPADH@Z      201f0090 f i g_dynmusic.obj
 0002:0009f0f0       ?LoadDMSSongLengths@@YAXXZ 201f00f0 f   g_dynmusic.obj
 0002:0009f2f0       ?LoadDynamicMusicGroup@@YAXPAD0@Z 201f02f0 f   g_dynmusic.obj
 0002:0009f5a0       ?TransitionBetweenState@@YAXXZ 201f05a0 f   g_dynmusic.obj
 0002:0009f7c0       ?G_DynamicMusicUpdate@@YAXXZ 201f07c0 f   g_dynmusic.obj
 0002:000a0100       ?SetDMSState@@YAXH@Z       201f1100 f   g_dynmusic.obj
 0002:000a0160       ?G_RunExPhys@@YAXPAUgentity_s@@MMMW4qboolean@@PAHH@Z 201f1160 f   g_exphysics.obj
 0002:000a1090       ?Q3_TaskIDClear@@YAXPAH@Z  201f2090 f   g_ICARUScb.obj
 0002:000a10d0       ?G_DebugPrint@@YAXHPBDZZ   201f20d0 f   g_ICARUScb.obj
 0002:000a12e0       ?Icarus_SoundTime@@YAHQAD@Z 201f22e0 f   g_ICARUScb.obj
 0002:000a14a0       ?Q3_PlaySound@@YAHHHPBD0@Z 201f24a0 f   g_ICARUScb.obj
 0002:000a1810       ?Q3_Play@@YAXHHPBD0@Z      201f2810 f   g_ICARUScb.obj
 0002:000a1990       ?anglerCallback@@YAXPAUgentity_s@@@Z 201f2990 f   g_ICARUScb.obj
 0002:000a1b30       ?moverCallback@@YAXPAUgentity_s@@@Z 201f2b30 f   g_ICARUScb.obj
 0002:000a1c30       ?Blocked_Mover@@YAXPAUgentity_s@@0@Z 201f2c30 f   g_ICARUScb.obj
 0002:000a1d30       ?moveAndRotateCallback@@YAXPAUgentity_s@@@Z 201f2d30 f   g_ICARUScb.obj
 0002:000a1d90       ?Q3_Lerp2Start@@YAXHHM@Z   201f2d90 f   g_ICARUScb.obj
 0002:000a1f30       ?Q3_Lerp2End@@YAXHHM@Z     201f2f30 f   g_ICARUScb.obj
 0002:000a20d0       ?Q3_Lerp2Pos@@YAXHHQAM0M@Z 201f30d0 f   g_ICARUScb.obj
 0002:000a2530       ?Q3_Lerp2Angles@@YAXHHQAMM@Z 201f3530 f   g_ICARUScb.obj
 0002:000a27d0       ?Q3_GetTag@@YAHHPBDHQAM@Z  201f37d0 f   g_ICARUScb.obj
 0002:000a28d0       ?Q3_Use@@YAXHPBD@Z         201f38d0 f   g_ICARUScb.obj
 0002:000a2990       ?Q3_Kill@@YAXHPBD@Z        201f3990 f   g_ICARUScb.obj
 0002:000a2b10       ?Q3_Remove@@YAXHPBD@Z      201f3b10 f   g_ICARUScb.obj
 0002:000a2f20       ?Q3_GetFloat@@YAHHHPBDPAM@Z 201f3f20 f   g_ICARUScb.obj
 0002:000a3b70       ?Q3_GetVector@@YAHHHPBDQAM@Z 201f4b70 f   g_ICARUScb.obj
 0002:000a3d90       ?Q3_GetString@@YAHHHPBDPAPAD@Z 201f4d90 f   g_ICARUScb.obj
 0002:000a4860       ?MoveOwner@@YAXPAUgentity_s@@@Z 201f5860 f   g_ICARUScb.obj
 0002:000a4960       ?Q3_Lerp2Origin@@YAXHHQAMM@Z 201f5960 f   g_ICARUScb.obj
 0002:000a4c30       ?Q3_SetInvisible@@YAXHW4qboolean@@@Z 201f5c30 f   g_ICARUScb.obj
 0002:000a4d70       ?Q3_SetLoopSound@@YAXHPBD@Z 201f5d70 f   g_ICARUScb.obj
 0002:000a4e70       ?Q3_SetICARUSFreeze@@YAXHPBDW4qboolean@@@Z 201f5e70 f   g_ICARUScb.obj
 0002:000a4f60       ?Q3_SetViewEntity@@YAXHPBD@Z 201f5f60 f   g_ICARUScb.obj
 0002:000a4fc0       ?InitSpawnScriptValues@@YAXXZ 201f5fc0 f   g_ICARUScb.obj
 0002:000a5050       ?SetSpawnWeapon@@YAXH@Z    201f6050 f   g_ICARUScb.obj
 0002:000a50c0       ?G_SetWeapon@@YAXPAUgentity_s@@H@Z 201f60c0 f   g_ICARUScb.obj
 0002:000a5470       ?SetSpawnForcePower@@YAXHH@Z 201f6470 f   g_ICARUScb.obj
 0002:000a54c0       ?Q3_SetParm@@YAXHHPBD@Z    201f64c0 f   g_ICARUScb.obj
 0002:000a5790       ?SolidifyOwner@@YAXPAUgentity_s@@@Z 201f6790 f   g_ICARUScb.obj
 0002:000a58a0       ?Q3_Set@@YA?AW4qboolean@@HHPBD0@Z 201f68a0 f   g_ICARUScb.obj
 0002:000afb20       ?ICam_Enable@@YAXXZ        20200b20 f   g_ICARUScb.obj
 0002:000afb90       ?ICam_Disable@@YAXXZ       20200b90 f   g_ICARUScb.obj
 0002:000afc30       ?ICam_Move@@YAXQAMM@Z      20200c30 f   g_ICARUScb.obj
 0002:000afce0       ?ICam_Pan@@YAXQAM0M@Z      20200ce0 f   g_ICARUScb.obj
 0002:000afdc0       ?ICam_Zoom@@YAXMM@Z        20200dc0 f   g_ICARUScb.obj
 0002:000afe40       ?ICam_Fade@@YAXQAM0M@Z     20200e40 f   g_ICARUScb.obj
 0002:000aff30       ?ICam_Follow@@YAXPBDMM@Z   20200f30 f   g_ICARUScb.obj
 0002:000b0170       ?ProcessTag@@YAXHPAD@Z     20201170 f   g_ICARUScb.obj
 0002:000b03a0       ?ParseTags@@YAXHPBD@Z      202013a0 f   g_ICARUScb.obj
 0002:000b0430       ?ICam_Shake@@YAXMH@Z       20201430 f   g_ICARUScb.obj
 0002:000b04a0       ?UpdatePlayerScriptTarget@@YAXXZ 202014a0 f   g_ICARUScb.obj
 0002:000b0670       ?RemoveComma@@YAXPAD@Z     20201670 f   g_ICARUScb.obj
 0002:000b06f0       ?Q3_SetBroadcast@@YAXHW4qboolean@@@Z 202016f0 f   g_ICARUScb.obj
 0002:000b0800       ?G_GetLocationForEnt@@YAPADPAUgentity_s@@@Z 20201800 f   g_ICARUScb.obj
 0002:000b0a30       ?Q3_SetForcePower@@YAXHHW4qboolean@@@Z 20201a30 f   g_ICARUScb.obj
 0002:000b0b40       ?ToggleNPCWinterGear@@YAXPAUgentity_s@@@Z 20201b40 f   g_ICARUScb.obj
 0002:000b0c90       ?GetDeclaredVariableFromName@@YAPAUDeclaredVariable_s@@PBD@Z 20201c90 f   g_ICARUScb.obj
 0002:000b0d40       ?GetStringDeclaredVariable@@YAHPBDPAPAD@Z 20201d40 f   g_ICARUScb.obj
 0002:000b0dd0       ?GetFloatDeclaredVariable@@YAHPBDPAM@Z 20201dd0 f   g_ICARUScb.obj
 0002:000b0e70       ?GetVectorDeclaredVariable@@YAHPBDQAM@Z 20201e70 f   g_ICARUScb.obj
 0002:000b0f50       ?SetVar@@YAXPBD0@Z         20201f50 f   g_ICARUScb.obj
 0002:000b10b0       ?adjustRespawnTime@@YAHMHH@Z 202020b0 f   g_items.obj
 0002:000b11f0       ?ShieldRemove@@YAXPAUgentity_s@@@Z 202021f0 f   g_items.obj
 0002:000b1290       ?ShieldThink@@YAXPAUgentity_s@@@Z 20202290 f   g_items.obj
 0002:000b1320       ?ShieldDie@@YAXPAUgentity_s@@00HH@Z 20202320 f   g_items.obj
 0002:000b1390       ?ShieldPain@@YAXPAUgentity_s@@0H@Z 20202390 f   g_items.obj
 0002:000b1420       ?ShieldGoSolid@@YAXPAUgentity_s@@@Z 20202420 f   g_items.obj
 0002:000b1630       ?ShieldGoNotSolid@@YAXPAUgentity_s@@@Z 20202630 f   g_items.obj
 0002:000b1720       ?ShieldTouch@@YAXPAUgentity_s@@0PAUtrace_t@@@Z 20202720 f   g_items.obj
 0002:000b19e0       ?CreateShield@@YAXPAUgentity_s@@@Z 202029e0 f   g_items.obj
 0002:000b2260       ?PlaceShield@@YA?AW4qboolean@@PAUgentity_s@@@Z 20203260 f   g_items.obj
 0002:000b27b0       ?ItemUse_Binoculars@@YAXPAUgentity_s@@@Z 202037b0 f   g_items.obj
 0002:000b2900       ?ItemUse_Shield@@YAXPAUgentity_s@@@Z 20203900 f   g_items.obj
 0002:000b2950       ?SentryTouch@@YAXPAUgentity_s@@0PAUtrace_t@@@Z 20203950 f   g_items.obj
 0002:000b2980       ?pas_fire@@YAXPAUgentity_s@@@Z 20203980 f   g_items.obj
 0002:000b2c40       ?pas_adjust_enemy@@YAXPAUgentity_s@@@Z 20203c40 f   g_items.obj
 0002:000b2f70       ?sentryExpire@@YAXPAUgentity_s@@@Z 20203f70 f   g_items.obj
 0002:000b2fd0       ?pas_think@@YAXPAUgentity_s@@@Z 20203fd0 f   g_items.obj
 0002:000b40c0       ?turret_die@@YAXPAUgentity_s@@00HH@Z 202050c0 f   g_items.obj
 0002:000b42b0       ?SP_PAS@@YAXPAUgentity_s@@@Z 202052b0 f   g_items.obj
 0002:000b4460       ?ItemUse_Sentry@@YAXPAUgentity_s@@@Z 20205460 f   g_items.obj
 0002:000b44e0       ?ItemUse_Sentry2@@YAXPAUgentity_s@@@Z 202054e0 f   g_items.obj
 0002:000b4a00       ?ItemUse_Seeker@@YAXPAUgentity_s@@@Z 20205a00 f   g_items.obj
 0002:000b4f60       ?ItemUse_MedPack_Big@@YAXPAUgentity_s@@@Z 20205f60 f   g_items.obj
 0002:000b50e0       ?ItemUse_MedPack@@YAXPAUgentity_s@@@Z 202060e0 f   g_items.obj
 0002:000b5130       ?Jetpack_Off@@YAXPAUgentity_s@@@Z 20206130 f   g_items.obj
 0002:000b5200       ?Jetpack_On@@YAXPAUgentity_s@@@Z 20206200 f   g_items.obj
 0002:000b5310       ?Flamethrower_Fire@@YAXPAUgentity_s@@@Z 20206310 f   g_items.obj
 0002:000b5c20       ?ItemUse_FlameThrower@@YAXPAUgentity_s@@@Z 20206c20 f   g_items.obj
 0002:000b5ce0       ?ItemUse_Jetpack@@YAXPAUgentity_s@@@Z 20206ce0 f   g_items.obj
 0002:000b5e60       ?ItemUse_UseCloak@@YAXPAUgentity_s@@@Z 20206e60 f   g_items.obj
 0002:000b5fe0       ?SpecialItemThink@@YAXPAUgentity_s@@@Z 20206fe0 f   g_items.obj
 0002:000b6100       ?G_SpecialSpawnItem@@YAXPAUgentity_s@@PAUgitem_s@@@Z 20207100 f   g_items.obj
 0002:000b62f0       ?G_PrecacheDispensers@@YAXXZ 202072f0 f   g_items.obj
 0002:000b6390       ?ItemUse_UseDisp@@YAXPAUgentity_s@@H@Z 20207390 f   g_items.obj
 0002:000b66d0       ?EWebDisattach@@YAXPAUgentity_s@@0@Z 202076d0 f   g_items.obj
 0002:000b6750       ?EWebPrecache@@YAXXZ       20207750 f   g_items.obj
 0002:000b67d0       ?EWebDie@@YAXPAUgentity_s@@00HH@Z 202077d0 f   g_items.obj
 0002:000b69f0       ?EWeb_SetBoneAngles@@YAXPAUgentity_s@@PADQAM@Z 202079f0 f   g_items.obj
 0002:000b6c80       ?EWeb_SetBoneAnim@@YAXPAUgentity_s@@HH@Z 20207c80 f   g_items.obj
 0002:000b6dc0       ?EWebFire@@YAXPAUgentity_s@@0@Z 20207dc0 f   g_items.obj
 0002:000b7270       ?EWebPositionUser@@YAXPAUgentity_s@@0@Z 20208270 f   g_items.obj
 0002:000b77c0       ?EWebUpdateBoneAngles@@YAXPAUgentity_s@@0@Z 202087c0 f   g_items.obj
 0002:000b79e0       ?EWebThink@@YAXPAUgentity_s@@@Z 202089e0 f   g_items.obj
 0002:000b7c80       ?EWebTouch@@YAXPAUgentity_s@@0PAUtrace_t@@@Z 20208c80 f   g_items.obj
 0002:000b7d80       ?EWeb_Create@@YAPAUgentity_s@@PAU1@@Z 20208d80 f   g_items.obj
 0002:000b8550       ?ItemUse_UseEWeb@@YAXPAUgentity_s@@@Z 20209550 f   g_items.obj
 0002:000b85e0       ?Pickup_Powerup@@YAHPAUgentity_s@@0@Z 202095e0 f   g_items.obj
 0002:000b89d0       ?Pickup_Holdable@@YAHPAUgentity_s@@0@Z 202099d0 f   g_items.obj
 0002:000b8ae0       ?Add_Ammo3@@YAXPAUgentity_s@@HHPAHPAW4qboolean@@@Z 20209ae0 f   g_items.obj
 0002:000b8cc0       ?Add_Ammo@@YAXPAUgentity_s@@HH@Z 20209cc0 f   g_items.obj
 0002:000b8e70       ?Pickup_Ammo@@YAHPAUgentity_s@@0@Z 20209e70 f   g_items.obj
 0002:000b90a0       ?Pickup_Weapon@@YAHPAUgentity_s@@0@Z 2020a0a0 f   g_items.obj
 0002:000b9250       ?Pickup_Health@@YAHPAUgentity_s@@0@Z 2020a250 f   g_items.obj
 0002:000b93d0       ?Pickup_Armor@@YAHPAUgentity_s@@0@Z 2020a3d0 f   g_items.obj
 0002:000b94f0       ?RespawnItem@@YAXPAUgentity_s@@@Z 2020a4f0 f   g_items.obj
 0002:000b9700       ?CheckItemCanBePickedUpByNPC@@YA?AW4qboolean@@PAUgentity_s@@0@Z 2020a700 f   g_items.obj
 0002:000b9820       ?Touch_Item@@YAXPAUgentity_s@@0PAUtrace_t@@@Z 2020a820 f   g_items.obj
 0002:000ba380       ?LaunchItem@@YAPAUgentity_s@@PAUgitem_s@@QAM1@Z 2020b380 f   g_items.obj
 0002:000ba710       ?Drop_Item@@YAPAUgentity_s@@PAU1@PAUgitem_s@@M@Z 2020b710 f   g_items.obj
 0002:000ba8a0       ?Use_Item@@YAXPAUgentity_s@@00@Z 2020b8a0 f   g_items.obj
 0002:000ba8f0       ?FinishSpawningItem@@YAXPAUgentity_s@@@Z 2020b8f0 f   g_items.obj
 0002:000baf70       ?G_CheckTeamItems@@YAXXZ   2020bf70 f   g_items.obj
 0002:000bb070       ?ClearRegisteredItems@@YAXXZ 2020c070 f   g_items.obj
 0002:000bb1b0       ?RegisterItem@@YAXPAUgitem_s@@@Z 2020c1b0 f   g_items.obj
 0002:000bb230       ?SaveRegisteredItems@@YAXXZ 2020c230 f   g_items.obj
 0002:000bb380       ?G_ItemDisabled@@YAHPAUgitem_s@@@Z 2020c380 f   g_items.obj
 0002:000bb450       ?G_AmmoDisabled@@YA?AW4qboolean@@HPAUgitem_s@@@Z 2020c450 f   g_items.obj
 0002:000bb670       ?G_SpawnItem@@YAXPAUgentity_s@@PAUgitem_s@@@Z 2020c670 f   g_items.obj
 0002:000bb850       ?G_BounceItem@@YAXPAUgentity_s@@PAUtrace_t@@@Z 2020c850 f   g_items.obj
 0002:000bbd50       ?G_RunItem@@YAXPAUgentity_s@@@Z 2020cd50 f   g_items.obj
 0002:000bbfd0       ?G_LogWeaponInit@@YAXXZ    2020cfd0 f   g_log.obj
 0002:000bc110       ?G_LogWeaponPickup@@YAXHH@Z 2020d110 f   g_log.obj
 0002:000bc180       ?G_LogWeaponFire@@YAXHH@Z  2020d180 f   g_log.obj
 0002:000bc280       ?G_LogWeaponDamage@@YAXHHH@Z 2020d280 f   g_log.obj
 0002:000bc300       ?G_LogWeaponKill@@YAXHH@Z  2020d300 f   g_log.obj
 0002:000bc380       ?G_LogWeaponFrag@@YAXHH@Z  2020d380 f   g_log.obj
 0002:000bc400       ?G_LogWeaponDeath@@YAXHH@Z 2020d400 f   g_log.obj
 0002:000bc480       ?G_LogWeaponPowerup@@YAXHH@Z 2020d480 f   g_log.obj
 0002:000bc500       ?G_LogWeaponItem@@YAXHH@Z  2020d500 f   g_log.obj
 0002:000bc580       ?G_LogWeaponOutput@@YAXXZ  2020d580 f   g_log.obj
 0002:000becd0       ?CalculateEfficiency@@YA?AW4qboolean@@PAUgentity_s@@PAH@Z 2020fcd0 f   g_log.obj
 0002:000bee20       ?CalculateSharpshooter@@YA?AW4qboolean@@PAUgentity_s@@PAH@Z 2020fe20 f   g_log.obj
 0002:000befa0       ?CalculateUntouchable@@YA?AW4qboolean@@PAUgentity_s@@@Z 2020ffa0 f   g_log.obj
 0002:000bf070       ?CalculateLogistics@@YA?AW4qboolean@@PAUgentity_s@@PAH@Z 20210070 f   g_log.obj
 0002:000bf270       ?CalculateTactician@@YA?AW4qboolean@@PAUgentity_s@@PAH@Z 20210270 f   g_log.obj
 0002:000bf670       ?CalculateDemolitionist@@YA?AW4qboolean@@PAUgentity_s@@PAH@Z 20210670 f   g_log.obj
 0002:000bf8a0       ?CalculateTeamMVP@@YA?AW4qboolean@@PAUgentity_s@@@Z 202108a0 f   g_log.obj
 0002:000bf9e0       ?CalculateTeamMVPByRank@@YA?AW4qboolean@@PAUgentity_s@@@Z 202109e0 f   g_log.obj
 0002:000bfb30       ?CalculateTeamDefender@@YA?AW4qboolean@@PAUgentity_s@@@Z 20210b30 f   g_log.obj
 0002:000bfc70       ?CalculateTeamWarrior@@YA?AW4qboolean@@PAUgentity_s@@@Z 20210c70 f   g_log.obj
 0002:000bfdb0       ?CalculateTeamCarrier@@YA?AW4qboolean@@PAUgentity_s@@@Z 20210db0 f   g_log.obj
 0002:000bfef0       ?CalculateTeamInterceptor@@YA?AW4qboolean@@PAUgentity_s@@@Z 20210ef0 f   g_log.obj
 0002:000c0050       ?CalculateTeamRedShirt@@YA?AW4qboolean@@PAUgentity_s@@@Z 20211050 f   g_log.obj
 0002:000c01b0       ?CalculateTeamAward@@YAHPAUgentity_s@@@Z 202111b0 f   g_log.obj
 0002:000c02e0       ?CalculateSection31Award@@YA?AW4qboolean@@PAUgentity_s@@@Z 202112e0 f   g_log.obj
 0002:000c0440       ?CalculateAwards@@YAXPAUgentity_s@@PAD@Z 20211440 f   g_log.obj
 0002:000c09b0       ?GetMaxDeathsForClient@@YAHH@Z 202119b0 f   g_log.obj
 0002:000c0a60       ?GetMaxKillsForClient@@YAHH@Z 20211a60 f   g_log.obj
 0002:000c0b10       ?GetFavoriteTargetForClient@@YAHH@Z 20211b10 f   g_log.obj
 0002:000c0bd0       ?GetWorstEnemyForClient@@YAHH@Z 20211bd0 f   g_log.obj
 0002:000c0cc0       ?GetFavoriteWeaponForClient@@YAHH@Z 20211cc0 f   g_log.obj
 0002:000c0e60       ?G_ClearClientLog@@YAXH@Z  20211e60 f   g_log.obj
 0002:000c1100       ?vmMain@@YAHHHHHHHHHHHHHH@Z 20212100 f   g_main.obj
 0002:000c19a0       ?G_Printf@@YAXPBDZZ        202129a0 f   g_main.obj
 0002:000c1a70       ?G_Error@@YAXPBDZZ         20212a70 f   g_main.obj
 0002:000c1b40       ?G_FindTeams@@YAXXZ        20212b40 f   g_main.obj
 0002:000c1da0       ?G_RegisterCvars@@YAXXZ    20212da0 f   g_main.obj
 0002:000c1ed0       ?G_UpdateCvars@@YAXXZ      20212ed0 f   g_main.obj
 0002:000c1ff0       ?G_InitGame@@YAXHHH@Z      20212ff0 f   g_main.obj
 0002:000c2810       ?G_ShutdownGame@@YAXH@Z    20213810 f   g_main.obj
 0002:000c2a90       ?Com_Error@@YAXHPBDZZ      20213a90 f   g_main.obj
 0002:000c2b70       ?Com_Printf@@YAXPBDZZ      20213b70 f   g_main.obj
 0002:000c2c50       ?AddTournamentPlayer@@YAXXZ 20213c50 f   g_main.obj
 0002:000c2dd0       ?RemoveTournamentLoser@@YAXXZ 20213dd0 f   g_main.obj
 0002:000c2e70       ?G_PowerDuelCount@@YAXPAH0W4qboolean@@@Z 20213e70 f   g_main.obj
 0002:000c2f50       ?AddPowerDuelPlayers@@YAXXZ 20213f50 f   g_main.obj
 0002:000c3220       ?RemovePowerDuelLosers@@YAXXZ 20214220 f   g_main.obj
 0002:000c33f0       ?RemoveTournamentWinner@@YAXXZ 202143f0 f   g_main.obj
 0002:000c3490       ?AdjustTournamentScores@@YAXXZ 20214490 f   g_main.obj
 0002:000c3930       ?SortRanks@@YAHPBX0@Z      20214930 f   g_main.obj
 0002:000c3b50       ?G_CanResetDuelists@@YA?AW4qboolean@@XZ 20214b50 f   g_main.obj
 0002:000c3c20       ?G_ResetDuelists@@YAXXZ    20214c20 f   g_main.obj
 0002:000c3d40       ?CalculateRanks@@YAXXZ     20214d40 f   g_main.obj
 0002:000c44b0       ?SendScoreboardMessageToAllClients@@YAXXZ 202154b0 f   g_main.obj
 0002:000c4560       ?MoveClientToIntermission@@YAXPAUgentity_s@@@Z 20215560 f   g_main.obj
 0002:000c47a0       ?FindIntermissionPoint@@YAXXZ 202157a0 f   g_main.obj
 0002:000c4a70       ?BeginIntermission@@YAXXZ  20215a70 f   g_main.obj
 0002:000c4bf0       ?ExitLevel@@YAXXZ          20215bf0 f   g_main.obj
 0002:000c4e10       ?G_LogPrintf@@YAXPBDZZ     20215e10 f   g_main.obj
 0002:000c5030       ?LogExit@@YAXPBD@Z         20216030 f   g_main.obj
 0002:000c51e0       ?CheckIntermissionExit@@YAXXZ 202161e0 f   g_main.obj
 0002:000c5bc0       ?ScoreIsTied@@YA?AW4qboolean@@XZ 20216bc0 f   g_main.obj
 0002:000c5c80       ?CheckLMS@@YAXXZ           20216c80 f   g_main.obj
 0002:000c6110       ?CheckExitRules@@YAXXZ     20217110 f   g_main.obj
 0002:000c6880       ?CheckTournament@@YAXXZ    20217880 f   g_main.obj
 0002:000c71f0       ?G_KickAllBots@@YAXXZ      202181f0 f   g_main.obj
 0002:000c7350       ?CheckVote@@YAXXZ          20218350 f   g_main.obj
 0002:000c76c0       ?PrintTeam@@YAXHPAD@Z      202186c0 f   g_main.obj
 0002:000c7760       ?SetLeader@@YAXHH@Z        20218760 f   g_main.obj
 0002:000c7990       ?CheckTeamLeader@@YAXH@Z   20218990 f   g_main.obj
 0002:000c7b40       ?CheckTeamVote@@YAXH@Z     20218b40 f   g_main.obj
 0002:000c7d60       ?CheckCvars@@YAXXZ         20218d60 f   g_main.obj
 0002:000c7f00       ?ICARUS_SoundCheck@@YAXPAUgentity_s@@@Z 20218f00 f   g_main.obj
 0002:000c7f80       ?G_RunThink@@YAXPAUgentity_s@@@Z 20218f80 f   g_main.obj
 0002:000c8080       ?NAV_CheckCalcPaths@@YAXXZ 20219080 f   g_main.obj
 0002:000c8230       ?BG_GetTime@@YAHXZ         20219230 f   g_main.obj
 0002:000c8270       ?survivor_npc_die@@YAXPAUgentity_s@@00HH@Z 20219270 f   g_main.obj
 0002:000c82f0       ?G_RunFrame@@YAXH@Z        202192f0 f   g_main.obj
 0002:000c9d50       ?G_GetStringEdString@@YAPBDPAD0@Z 2021ad50 f   g_main.obj
 0002:000c9dc0       ?G_Alloc@@YAPAXH@Z         2021adc0 f   g_mem.obj
 0002:000c9ea0       ?Svcmd_GameMem_f@@YAXXZ    2021aea0 f   g_mem.obj
 0002:000c9f00       ?SP_info_camp@@YAXPAUgentity_s@@@Z 2021af00 f   g_misc.obj
 0002:000c9f60       ?SP_info_null@@YAXPAUgentity_s@@@Z 2021af60 f   g_misc.obj
 0002:000c9fb0       ?SP_info_notnull@@YAXPAUgentity_s@@@Z 2021afb0 f   g_misc.obj
 0002:000ca010       ?misc_dlight_use@@YAXPAUgentity_s@@00@Z 2021b010 f   g_misc.obj
 0002:000ca3f0       ?SP_light@@YAXPAUgentity_s@@@Z 2021b3f0 f   g_misc.obj
 0002:000ca560       ?TeleportPlayer@@YAXPAUgentity_s@@QAM1@Z 2021b560 f   g_misc.obj
 0002:000ca890       ?SP_misc_teleporter_dest@@YAXPAUgentity_s@@@Z 2021b890 f   g_misc.obj
 0002:000ca8c0       ?SP_misc_model@@YAXPAUgentity_s@@@Z 2021b8c0 f   g_misc.obj
 0002:000ca910       ?SP_misc_model_static@@YAXPAUgentity_s@@@Z 2021b910 f   g_misc.obj
 0002:000ca960       ?misc_use@@YAXPAUgentity_s@@00@Z 2021b960 f   g_misc.obj
 0002:000ca9c0       ?SP_misc_exploding_crate@@YAXPAUgentity_s@@@Z 2021b9c0 f   g_misc.obj
 0002:000cabd0       ?GasBurst@@YAXPAUgentity_s@@0H@Z 2021bbd0 f   g_misc.obj
 0002:000cad20       ?gas_random_jet@@YAXPAUgentity_s@@@Z 2021bd20 f   g_misc.obj
 0002:000cae70       ?SP_misc_gas_tank@@YAXPAUgentity_s@@@Z 2021be70 f   g_misc.obj
 0002:000cb110       ?SP_misc_G2model@@YAXPAUgentity_s@@@Z 2021c110 f   g_misc.obj
 0002:000cb160       ?locateCamera@@YAXPAUgentity_s@@@Z 2021c160 f   g_misc.obj
 0002:000cb3b0       ?SP_misc_portal_surface@@YAXPAUgentity_s@@@Z 2021c3b0 f   g_misc.obj
 0002:000cb4d0       ?SP_misc_portal_camera@@YAXPAUgentity_s@@@Z 2021c4d0 f   g_misc.obj
 0002:000cb5f0       ?SP_misc_bsp@@YAXPAUgentity_s@@@Z 2021c5f0 f   g_misc.obj
 0002:000cb9c0       ?SP_terrain@@YAXPAUgentity_s@@@Z 2021c9c0 f   g_misc.obj
 0002:000cc170       ?G_PortalifyEntities@@YAXPAUgentity_s@@@Z 2021d170 f   g_misc.obj
 0002:000cc360       ?SP_misc_skyportal_orient@@YAXPAUgentity_s@@@Z 2021d360 f   g_misc.obj
 0002:000cc3b0       ?SP_misc_skyportal@@YAXPAUgentity_s@@@Z 2021d3b0 f   g_misc.obj
 0002:000cc5d0       ?HolocronRespawn@@YAXPAUgentity_s@@@Z 2021d5d0 f   g_misc.obj
 0002:000cc620       ?HolocronPopOut@@YAXPAUgentity_s@@@Z 2021d620 f   g_misc.obj
 0002:000cc770       ?HolocronTouch@@YAXPAUgentity_s@@0PAUtrace_t@@@Z 2021d770 f   g_misc.obj
 0002:000ccb00       ?HolocronThink@@YAXPAUgentity_s@@@Z 2021db00 f   g_misc.obj
 0002:000cd310       ?SP_misc_holocron@@YAXPAUgentity_s@@@Z 2021e310 f   g_misc.obj
 0002:000cd780       ?Use_Shooter@@YAXPAUgentity_s@@00@Z 2021e780 f   g_misc.obj
 0002:000cdaf0       ?InitShooter@@YAXPAUgentity_s@@H@Z 2021eaf0 f   g_misc.obj
 0002:000cdcc0       ?SP_shooter_blaster@@YAXPAUgentity_s@@@Z 2021ecc0 f   g_misc.obj
 0002:000cdd10       ?check_recharge@@YAXPAUgentity_s@@@Z 2021ed10 f   g_misc.obj
 0002:000cdec0       ?EnergyShieldStationSettings@@YAXPAUgentity_s@@@Z 2021eec0 f   g_misc.obj
 0002:000cdf70       ?shield_power_converter_use@@YAXPAUgentity_s@@00@Z 2021ef70 f   g_misc.obj
 0002:000ce330       ?HasValidWeaponThatUsesAmmo@@YA?AW4qboolean@@PAUgentity_s@@H@Z 2021f330 f   g_misc.obj
 0002:000ce610       ?AllAmmosFull@@YA?AW4qboolean@@PAUgentity_s@@@Z 2021f610 f   g_misc.obj
 0002:000ce880       ?ammo_generic_power_converter_use@@YAXPAUgentity_s@@00@Z 2021f880 f   g_misc.obj
 0002:000cec20       ?SP_misc_ammo_floor_unit@@YAXPAUgentity_s@@@Z 2021fc20 f   g_misc.obj
 0002:000cf110       ?health_power_converter_use@@YAXPAUgentity_s@@00@Z 20220110 f   g_misc.obj
 0002:000cf2b0       ?health_power_converter_die@@YAXPAUgentity_s@@00HH@Z 202202b0 f   g_misc.obj
 0002:000cf3e0       ?SP_misc_health_floor_unit@@YAXPAUgentity_s@@@Z 202203e0 f   g_misc.obj
 0002:000cf8e0       ?SP_misc_model_shield_power_converter@@YAXPAUgentity_s@@@Z 202208e0 f   g_misc.obj
 0002:000cfb50       ?EnergyAmmoStationSettings@@YAXPAUgentity_s@@@Z 20220b50 f   g_misc.obj
 0002:000cfbb0       ?ammo_power_converter_use@@YAXPAUgentity_s@@00@Z 20220bb0 f   g_misc.obj
 0002:000cfe40       ?SP_misc_model_ammo_power_converter@@YAXPAUgentity_s@@@Z 20220e40 f   g_misc.obj
 0002:000d00c0       ?EnergyHealthStationSettings@@YAXPAUgentity_s@@@Z 202210c0 f   g_misc.obj
 0002:000d0120       ?HealthPowerConverterDie@@YAXPAUgentity_s@@00HH@Z 20221120 f   g_misc.obj
 0002:000d0250       ?SP_misc_model_health_power_converter@@YAXPAUgentity_s@@@Z 20221250 f   g_misc.obj
 0002:000d0530       ?fx_runner_think@@YAXPAUgentity_s@@@Z 20221530 f   g_misc.obj
 0002:000d07e0       ?fx_runner_use@@YAXPAUgentity_s@@00@Z 202217e0 f   g_misc.obj
 0002:000d0ab0       ?fx_runner_link@@YAXPAUgentity_s@@@Z 20221ab0 f   g_misc.obj
 0002:000d0dc0       ?SP_fx_runner@@YAXPAUgentity_s@@@Z 20221dc0 f   g_misc.obj
 0002:000d1100       ?SP_CreateSpaceDust@@YAXPAUgentity_s@@@Z 20222100 f   g_misc.obj
 0002:000d1170       ?SP_CreateSnow@@YAXPAUgentity_s@@@Z 20222170 f   g_misc.obj
 0002:000d11e0       ?SP_CreateRain@@YAXPAUgentity_s@@@Z 202221e0 f   g_misc.obj
 0002:000d1250       ?Use_Target_Screenshake@@YAXPAUgentity_s@@00@Z 20222250 f   g_misc.obj
 0002:000d12f0       ?SP_target_screenshake@@YAXPAUgentity_s@@@Z 202222f0 f   g_misc.obj
 0002:000d13b0       ?Use_Target_Escapetrig@@YAXPAUgentity_s@@00@Z 202223b0 f   g_misc.obj
 0002:000d1590       ?SP_target_escapetrig@@YAXPAUgentity_s@@@Z 20222590 f   g_misc.obj
 0002:000d1640       ?maglock_die@@YAXPAUgentity_s@@00HH@Z 20222640 f   g_misc.obj
 0002:000d1710       ?SP_misc_maglock@@YAXPAUgentity_s@@@Z 20222710 f   g_misc.obj
 0002:000d17d0       ?maglock_link@@YAXPAUgentity_s@@@Z 202227d0 f   g_misc.obj
 0002:000d1c30       ?faller_touch@@YAXPAUgentity_s@@0PAUtrace_t@@@Z 20222c30 f   g_misc.obj
 0002:000d1d90       ?faller_think@@YAXPAUgentity_s@@@Z 20222d90 f   g_misc.obj
 0002:000d1f40       ?misc_faller_create@@YAXPAUgentity_s@@00@Z 20222f40 f   g_misc.obj
 0002:000d2200       ?misc_faller_think@@YAXPAUgentity_s@@@Z 20223200 f   g_misc.obj
 0002:000d22a0       ?SP_misc_faller@@YAXPAUgentity_s@@@Z 202232a0 f   g_misc.obj
 0002:000d2410       ?FirstFreeTagOwner@@YAPAUtagOwner_s@@XZ 20223410 f   g_misc.obj
 0002:000d24b0       ?FirstFreeRefTag@@YAPAUreference_tag_s@@PAUtagOwner_s@@@Z 202234b0 f   g_misc.obj
 0002:000d2580       ?TAG_Init@@YAXXZ           20223580 f   g_misc.obj
 0002:000d2650       ?TAG_FindOwner@@YAPAUtagOwner_s@@PBD@Z 20223650 f   g_misc.obj
 0002:000d2710       ?TAG_Find@@YAPAUreference_tag_s@@PBD0@Z 20223710 f   g_misc.obj
 0002:000d28d0       ?TAG_Add@@YAPAUreference_tag_s@@PBD0QAM1HH@Z 202238d0 f   g_misc.obj
 0002:000d2b50       ?TAG_GetOrigin@@YAHPBD0QAM@Z 20223b50 f   g_misc.obj
 0002:000d2c10       ?TAG_GetOrigin2@@YAHPBD0QAM@Z 20223c10 f   g_misc.obj
 0002:000d2cb0       ?TAG_GetAngles@@YAHPBD0QAM@Z 20223cb0 f   g_misc.obj
 0002:000d2d70       ?TAG_GetRadius@@YAHPBD0@Z  20223d70 f   g_misc.obj
 0002:000d2e10       ?TAG_GetFlags@@YAHPBD0@Z   20223e10 f   g_misc.obj
 0002:000d2eb0       ?ref_link@@YAXPAUgentity_s@@@Z 20223eb0 f   g_misc.obj
 0002:000d3060       ?SP_reference_tag@@YAXPAUgentity_s@@@Z 20224060 f   g_misc.obj
 0002:000d30f0       ?G_ClientForShooter@@YAPAUgclient_s@@XZ 202240f0 f   g_misc.obj
 0002:000d31c0       ?G_FreeClientForShooter@@YAXPAUgclient_s@@@Z 202241c0 f   g_misc.obj
 0002:000d3240       ?misc_weapon_shooter_fire@@YAXPAUgentity_s@@@Z 20224240 f   g_misc.obj
 0002:000d3380       ?misc_weapon_shooter_use@@YAXPAUgentity_s@@00@Z 20224380 f   g_misc.obj
 0002:000d3400       ?misc_weapon_shooter_aim@@YAXPAUgentity_s@@@Z 20224400 f   g_misc.obj
 0002:000d35e0       ?SP_misc_weapon_shooter@@YAXPAUgentity_s@@@Z 202245e0 f   g_misc.obj
 0002:000d3870       ?SP_misc_weather_zone@@YAXPAUgentity_s@@@Z 20224870 f   g_misc.obj
 0002:000d38c0       ?SP_misc_trip_mine@@YAXPAUgentity_s@@@Z 202248c0 f   g_misc.obj
 0002:000d3a30       ?GunRackAddItem@@YAXPAUgitem_s@@QAM1MMM@Z 20224a30 f   g_misc.obj
 0002:000d41d0       ?SP_misc_model_gun_rack@@YAXPAUgentity_s@@@Z 202251d0 f   g_misc.obj
 0002:000d4570       ?spawn_rack_goods@@YAXPAUgentity_s@@@Z 20225570 f   g_misc.obj
 0002:000d4d00       ?SP_misc_model_ammo_rack@@YAXPAUgentity_s@@@Z 20225d00 f   g_misc.obj
 0002:000d4f20       ?camera_die@@YAXPAUgentity_s@@00HH@Z 20225f20 f   g_misc.obj
 0002:000d50f0       ?camera_use@@YAXPAUgentity_s@@00@Z 202260f0 f   g_misc.obj
 0002:000d5360       ?camera_aim@@YAXPAUgentity_s@@@Z 20226360 f   g_misc.obj
 0002:000d5a80       ?SP_misc_camera@@YAXPAUgentity_s@@@Z 20226a80 f   g_misc.obj
 0002:000d5d60       ?SP_misc_spotlight@@YAXPAUgentity_s@@@Z 20226d60 f   g_misc.obj
 0002:000d5f00       ?panel_touch@@YAXPAUgentity_s@@0PAUtrace_t@@@Z 20226f00 f   g_misc.obj
 0002:000d6000       ?SP_misc_security_panel@@YAXPAUgentity_s@@@Z 20227000 f   g_misc.obj
 0002:000d61a0       ?Precashe_Key@@YAXXZ       202271a0 f   g_misc.obj
 0002:000d6200       ?INV_GoodieKeyGive@@YA?AW4qboolean@@PAUgentity_s@@@Z 20227200 f   g_misc.obj
 0002:000d6250       ?INV_SecurityKeyGive@@YA?AW4qboolean@@PAUgentity_s@@PBD@Z 20227250 f   g_misc.obj
 0002:000d62b0       ?key_touch@@YAXPAUgentity_s@@0PAUtrace_t@@@Z 202272b0 f   g_misc.obj
 0002:000d6330       ?SP_item_security_key@@YAXPAUgentity_s@@@Z 20227330 f   g_misc.obj
 0002:000d6490       ?bomb_planted_use@@YAXPAUgentity_s@@00@Z 20227490 f   g_misc.obj
 0002:000d6610       ?SP_misc_model_bomb_planted@@YAXPAUgentity_s@@@Z 20227610 f   g_misc.obj
 0002:000d6920       ?beacon_deploy@@YAXPAUgentity_s@@@Z 20227920 f   g_misc.obj
 0002:000d69d0       ?beacon_think@@YAXPAUgentity_s@@@Z 202279d0 f   g_misc.obj
 0002:000d6ab0       ?beacon_use@@YAXPAUgentity_s@@00@Z 20227ab0 f   g_misc.obj
 0002:000d6bd0       ?SP_misc_model_beacon@@YAXPAUgentity_s@@@Z 20227bd0 f   g_misc.obj
 0002:000d6ed0       ?G_ReflectMissile@@YAXPAUgentity_s@@0QAM@Z 20227ed0 f   g_missile.obj
 0002:000d7470       ?G_DeflectMissile@@YAXPAUgentity_s@@0QAM@Z 20228470 f   g_missile.obj
 0002:000d7910       ?G_BounceMissile@@YAXPAUgentity_s@@PAUtrace_t@@@Z 20228910 f   g_missile.obj
 0002:000d7e40       ?G_ExplodeMissile@@YAXPAUgentity_s@@@Z 20228e40 f   g_missile.obj
 0002:000d8140       ?G_RunStuckMissile@@YAXPAUgentity_s@@@Z 20229140 f   g_missile.obj
 0002:000d8300       ?G_BounceProjectile@@YAXQAM000@Z 20229300 f   g_missile.obj
 0002:000d84c0       ?CreateMissile@@YAPAUgentity_s@@QAM0MHPAU1@W4qboolean@@@Z 202294c0 f   g_missile.obj
 0002:000d8690       ?G_MissileBounceEffect@@YAXPAUgentity_s@@QAM1@Z 20229690 f   g_missile.obj
 0002:000d8810       ?G_MissileImpact@@YA?AW4qboolean@@PAUgentity_s@@PAUtrace_t@@@Z 20229810 f   g_missile.obj
 0002:000d9b90       ?G_RunMissile@@YAXPAUgentity_s@@@Z 2022ab90 f   g_missile.obj
 0002:000da3b0       ?ReflectionLevel@@YAHPAUgentity_s@@@Z 2022b3b0 f   g_missile.obj
 0002:000da4f0       ?OJP_HandleBoltBlock@@YAXPAUgentity_s@@0PAUtrace_t@@@Z 2022b4f0 f   g_missile.obj
 0002:000dadd0       ?G_PlayDoorLoopSound@@YAXPAUgentity_s@@@Z 2022bdd0 f   g_mover.obj
 0002:000dae80       ?G_PlayDoorSound@@YAXPAUgentity_s@@H@Z 2022be80 f   g_mover.obj
 0002:000daf20       ?G_TestEntityPosition@@YAPAUgentity_s@@PAU1@@Z 2022bf20 f   g_mover.obj
 0002:000db100       ?G_CreateRotationMatrix@@YAXQAMQAY02M@Z 2022c100 f   g_mover.obj
 0002:000db1e0       ?G_TransposeMatrix@@YAXQAY02M0@Z 2022c1e0 f   g_mover.obj
 0002:000db280       ?G_RotatePoint@@YAXQAMQAY02M@Z 2022c280 f   g_mover.obj
 0002:000db3b0       ?G_TryPushingEntity@@YA?AW4qboolean@@PAUgentity_s@@0QAM1@Z 2022c3b0 f   g_mover.obj
 0002:000dbc10       ?G_MoverPush@@YA?AW4qboolean@@PAUgentity_s@@QAM1PAPAU2@@Z 2022cc10 f   g_mover.obj
 0002:000dc570       ?G_MoverTeam@@YAXPAUgentity_s@@@Z 2022d570 f   g_mover.obj
 0002:000dc9c0       ?G_RunMover@@YAXPAUgentity_s@@@Z 2022d9c0 f   g_mover.obj
 0002:000dca50       ?CalcTeamDoorCenter@@YAXPAUgentity_s@@QAM@Z 2022da50 f   g_mover.obj
 0002:000dccd0       ?SetMoverState@@YAXPAUgentity_s@@W4moverState_t@@H@Z 2022dcd0 f   g_mover.obj
 0002:000dd0b0       ?MatchTeam@@YAXPAUgentity_s@@HH@Z 2022e0b0 f   g_mover.obj
 0002:000dd130       ?ReturnToPos1@@YAXPAUgentity_s@@@Z 2022e130 f   g_mover.obj
 0002:000dd1e0       ?Reached_BinaryMover@@YAXPAUgentity_s@@@Z 2022e1e0 f   g_mover.obj
 0002:000dd4d0       ?Use_BinaryMover_Go@@YAXPAUgentity_s@@@Z 2022e4d0 f   g_mover.obj
 0002:000ddb20       ?acos@@YAMM@Z              2022eb20 f i g_mover.obj
 0002:000ddb80       _acosf                     2022eb80 f i g_mover.obj
 0002:000ddc80       ?UnLockDoors@@YAXQAUgentity_s@@@Z 2022ec80 f   g_mover.obj
 0002:000ddd20       ?LockDoors@@YAXQAUgentity_s@@@Z 2022ed20 f   g_mover.obj
 0002:000ddda0       ?Use_BinaryMover@@YAXPAUgentity_s@@00@Z 2022eda0 f   g_mover.obj
 0002:000ddef0       ?InitMoverTrData@@YAXPAUgentity_s@@@Z 2022eef0 f   g_mover.obj
 0002:000de0e0       ?InitMover@@YAXPAUgentity_s@@@Z 2022f0e0 f   g_mover.obj
 0002:000de420       ?Blocked_Door@@YAXPAUgentity_s@@0@Z 2022f420 f   g_mover.obj
 0002:000de500       ?Touch_DoorTrigger@@YAXPAUgentity_s@@0PAUtrace_t@@@Z 2022f500 f   g_mover.obj
 0002:000deb30       ?Think_SpawnNewDoorTrigger@@YAXPAUgentity_s@@@Z 2022fb30 f   g_mover.obj
 0002:000dee60       ?Think_MatchTeam@@YAXPAUgentity_s@@@Z 2022fe60 f   g_mover.obj
 0002:000deed0       ?G_EntIsDoor@@YA?AW4qboolean@@H@Z 2022fed0 f   g_mover.obj
 0002:000def70       ?G_FindDoorTrigger@@YAPAUgentity_s@@PAU1@@Z 2022ff70 f   g_mover.obj
 0002:000df120       ?G_EntIsUnlockedDoor@@YA?AW4qboolean@@H@Z 20230120 f   g_mover.obj
 0002:000df3b0       ?SP_func_door@@YAXPAUgentity_s@@@Z 202303b0 f   g_mover.obj
 0002:000df980       ?Touch_Plat@@YAXPAUgentity_s@@0PAUtrace_t@@@Z 20230980 f   g_mover.obj
 0002:000dfa00       ?Touch_PlatCenterTrigger@@YAXPAUgentity_s@@0PAUtrace_t@@@Z 20230a00 f   g_mover.obj
 0002:000dfa90       ?SpawnPlatTrigger@@YAXPAUgentity_s@@@Z 20230a90 f   g_mover.obj
 0002:000dfd40       ?SP_func_plat@@YAXPAUgentity_s@@@Z 20230d40 f   g_mover.obj
 0002:000dffd0       ?Touch_Button@@YAXPAUgentity_s@@0PAUtrace_t@@@Z 20230fd0 f   g_mover.obj
 0002:000e0050       ?SP_func_button@@YAXPAUgentity_s@@@Z 20231050 f   g_mover.obj
 0002:000e03a0       ?Think_BeginMoving@@YAXPAUgentity_s@@@Z 202313a0 f   g_mover.obj
 0002:000e0420       ?Reached_Train@@YAXPAUgentity_s@@@Z 20231420 f   g_mover.obj
 0002:000e0720       ?Think_SetupTrainTargets@@YAXPAUgentity_s@@@Z 20231720 f   g_mover.obj
 0002:000e08e0       ?SP_path_corner@@YAXPAUgentity_s@@@Z 202318e0 f   g_mover.obj
 0002:000e0960       ?SP_func_train@@YAXPAUgentity_s@@@Z 20231960 f   g_mover.obj
 0002:000e0ae0       ?SP_func_static@@YAXPAUgentity_s@@@Z 20231ae0 f   g_mover.obj
 0002:000e0dd0       ?func_static_use@@YAXPAUgentity_s@@00@Z 20231dd0 f   g_mover.obj
 0002:000e0e70       ?func_rotating_use@@YAXPAUgentity_s@@00@Z 20231e70 f   g_mover.obj
 0002:000e0fe0       ?SP_func_rotating@@YAXPAUgentity_s@@@Z 20231fe0 f   g_mover.obj
 0002:000e1540       ?SP_func_bobbing@@YAXPAUgentity_s@@@Z 20232540 f   g_mover.obj
 0002:000e1770       ?SP_func_pendulum@@YAXPAUgentity_s@@@Z 20232770 f   g_mover.obj
 0002:000e19f0       ?CacheChunkEffects@@YAXH@Z 202329f0 f   g_mover.obj
 0002:000e1b50       ?G_MiscModelExplosion@@YAXQAM0HH@Z 20232b50 f   g_mover.obj
 0002:000e1ce0       ?G_Chunks@@YAXHQAMQBM11MHHHM@Z 20232ce0 f   g_mover.obj
 0002:000e1e50       ?funcBBrushDieGo@@YAXPAUgentity_s@@@Z 20232e50 f   g_mover.obj
 0002:000e24c0       ?funcBBrushDie@@YAXPAUgentity_s@@00HH@Z 202334c0 f   g_mover.obj
 0002:000e25b0       ?funcBBrushUse@@YAXPAUgentity_s@@00@Z 202335b0 f   g_mover.obj
 0002:000e2680       ?funcBBrushPain@@YAXPAUgentity_s@@0H@Z 20233680 f   g_mover.obj
 0002:000e2b20       ?funcBBrushTouch@@YAXPAUgentity_s@@0PAUtrace_t@@@Z 20233b20 f   g_mover.obj
 0002:000e2b50       ?SP_func_breakable@@YAXPAUgentity_s@@@Z 20233b50 f   g_mover.obj
 0002:000e32d0       ?G_EntIsBreakable@@YA?AW4qboolean@@H@Z 202342d0 f   g_mover.obj
 0002:000e33e0       ?GlassDie@@YAXPAUgentity_s@@00HH@Z 202343e0 f   g_mover.obj
 0002:000e35f0       ?GlassDie_Old@@YAXPAUgentity_s@@00HH@Z 202345f0 f   g_mover.obj
 0002:000e37a0       ?GlassPain@@YAXPAUgentity_s@@0H@Z 202347a0 f   g_mover.obj
 0002:000e37d0       ?GlassUse@@YAXPAUgentity_s@@00@Z 202347d0 f   g_mover.obj
 0002:000e3a90       ?SP_func_glass@@YAXPAUgentity_s@@@Z 20234a90 f   g_mover.obj
 0002:000e3c50       ?func_wait_return_solid@@YAXPAUgentity_s@@@Z 20234c50 f   g_mover.obj
 0002:000e3e30       ?func_usable_think@@YAXPAUgentity_s@@@Z 20234e30 f   g_mover.obj
 0002:000e3eb0       ?G_EntIsRemovableUsable@@YA?AW4qboolean@@H@Z 20234eb0 f   g_mover.obj
 0002:000e3f70       ?func_usable_use@@YAXPAUgentity_s@@00@Z 20234f70 f   g_mover.obj
 0002:000e4230       ?func_usable_pain@@YAXPAUgentity_s@@0H@Z 20235230 f   g_mover.obj
 0002:000e4290       ?func_usable_die@@YAXPAUgentity_s@@00HH@Z 20235290 f   g_mover.obj
 0002:000e4300       ?SP_func_usable@@YAXPAUgentity_s@@@Z 20235300 f   g_mover.obj
 0002:000e45e0       ?use_wall@@YAXPAUgentity_s@@00@Z 202355e0 f   g_mover.obj
 0002:000e4710       ?SP_func_wall@@YAXPAUgentity_s@@@Z 20235710 f   g_mover.obj
 0002:000e48c0       ?G_Line@@YAXQAM00M@Z       202358c0 f   g_nav.obj
 0002:000e48f0       ?G_Cube@@YAXQAM00M@Z       202358f0 f   g_nav.obj
 0002:000e4920       ?G_CubeOutline@@YAXQAM0HIM@Z 20235920 f   g_nav.obj
 0002:000e4950       ?G_DrawEdge@@YAXQAM0H@Z    20235950 f   g_nav.obj
 0002:000e4980       ?G_DrawNode@@YAXQAMH@Z     20235980 f   g_nav.obj
 0002:000e49b0       ?G_DrawCombatPoint@@YAXQAMH@Z 202359b0 f   g_nav.obj
 0002:000e49e0       ?TAG_ShowTags@@YAXH@Z      202359e0 f   g_nav.obj
 0002:000e4a10       ?FlyingCreature@@YA?AW4qboolean@@PAUgentity_s@@@Z 20235a10 f   g_nav.obj
 0002:000e4a70       ?NPC_Blocked@@YAXPAUgentity_s@@0@Z 20235a70 f   g_nav.obj
 0002:000e4be0       ?NPC_SetMoveGoal@@YAXPAUgentity_s@@QAMHW4qboolean@@H0@Z 20235be0 f   g_nav.obj
 0002:000e4fb0       ?NAV_HitNavGoal@@YA?AW4qboolean@@QAM000HW41@@Z 20235fb0 f   g_nav.obj
 0002:000e5480       ?NAV_ClearPathToPoint@@YA?AW4qboolean@@PAUgentity_s@@QAM11HH@Z 20236480 f   g_nav.obj
 0002:000e5d40       ?NAV_FindClosestWaypointForEnt@@YAHPAUgentity_s@@H@Z 20236d40 f   g_nav.obj
 0002:000e5db0       ?NAV_FindClosestWaypointForPoint@@YAHPAUgentity_s@@QAM@Z 20236db0 f   g_nav.obj
 0002:000e5f10       ?NAV_FindClosestWaypointForPoint2@@YAHQAM@Z 20236f10 f   g_nav.obj
 0002:000e6050       ?NAV_ClearBlockedInfo@@YAXPAUgentity_s@@@Z 20237050 f   g_nav.obj
 0002:000e60c0       ?NAV_SetBlockedInfo@@YAXPAUgentity_s@@H@Z 202370c0 f   g_nav.obj
 0002:000e6130       ?NAV_Steer@@YAHPAUgentity_s@@QAMM@Z 20237130 f   g_nav.obj
 0002:000e6430       ?NAV_CheckAhead@@YA?AW4qboolean@@PAUgentity_s@@QAMPAUtrace_t@@H@Z 20237430 f   g_nav.obj
 0002:000e68d0       ?NAV_Bypass@@YA?AW4qboolean@@PAUgentity_s@@0QAMM1@Z 202378d0 f   g_nav.obj
 0002:000e70d0       ?NAV_MoveBlocker@@YA?AW4qboolean@@PAUgentity_s@@QAM@Z 202380d0 f   g_nav.obj
 0002:000e7250       ?NAV_ResolveBlock@@YA?AW4qboolean@@PAUgentity_s@@0QAM@Z 20238250 f   g_nav.obj
 0002:000e72f0       ?NAV_TrueCollision@@YA?AW4qboolean@@PAUgentity_s@@0QAM1@Z 202382f0 f   g_nav.obj
 0002:000e7650       ?NAV_StackedCanyon@@YA?AW4qboolean@@PAUgentity_s@@0QAM@Z 20238650 f   g_nav.obj
 0002:000e7d40       ?NAV_ResolveEntityCollision@@YA?AW4qboolean@@PAUgentity_s@@0QAM1@Z 20238d40 f   g_nav.obj
 0002:000e7f40       ?NAV_TestForBlocked@@YA?AW4qboolean@@PAUgentity_s@@00MPAH@Z 20238f40 f   g_nav.obj
 0002:000e8040       ?NAV_AvoidCollision@@YA?AW4qboolean@@PAUgentity_s@@0PAUnavInfo_s@@@Z 20239040 f   g_nav.obj
 0002:000e8330       ?NAV_TestBestNode@@YAHPAUgentity_s@@HHW4qboolean@@@Z 20239330 f   g_nav.obj
 0002:000e8870       ?NAV_GetNearestNode@@YAHPAUgentity_s@@H@Z 20239870 f   g_nav.obj
 0002:000e88d0       ?NAV_MicroError@@YA?AW4qboolean@@QAM0@Z 202398d0 f   g_nav.obj
 0002:000e8970       ?NAV_MoveToGoal@@YAHPAUgentity_s@@PAUnavInfo_s@@@Z 20239970 f   g_nav.obj
 0002:000e8f10       ?waypoint_testDirection@@YAIQAMMI@Z 20239f10 f   g_nav.obj
 0002:000e91a0       ?waypoint_getRadius@@YAIPAUgentity_s@@@Z 2023a1a0 f   g_nav.obj
 0002:000e9260       ?SP_waypoint@@YAXPAUgentity_s@@@Z 2023a260 f   g_nav.obj
 0002:000e9480       ?SP_waypoint_small@@YAXPAUgentity_s@@@Z 2023a480 f   g_nav.obj
 0002:000e96c0       ?SP_waypoint_navgoal@@YAXPAUgentity_s@@@Z 2023a6c0 f   g_nav.obj
 0002:000e98b0       ?SP_waypoint_navgoal_8@@YAXPAUgentity_s@@@Z 2023a8b0 f   g_nav.obj
 0002:000e9a50       ?SP_waypoint_navgoal_4@@YAXPAUgentity_s@@@Z 2023aa50 f   g_nav.obj
 0002:000e9bf0       ?SP_waypoint_navgoal_2@@YAXPAUgentity_s@@@Z 2023abf0 f   g_nav.obj
 0002:000e9d90       ?SP_waypoint_navgoal_1@@YAXPAUgentity_s@@@Z 2023ad90 f   g_nav.obj
 0002:000e9f20       ?Svcmd_Nav_f@@YAXXZ        2023af20 f   g_nav.obj
 0002:000ea380       ?NAV_WaypointsTooFar@@YA?AW4qboolean@@PAUgentity_s@@0@Z 2023b380 f   g_nav.obj
 0002:000ea650       ?NAV_ClearStoredWaypoints@@YAXXZ 2023b650 f   g_nav.obj
 0002:000ea690       ?NAV_StoreWaypoint@@YAXPAUgentity_s@@@Z 2023b690 f   g_nav.obj
 0002:000ea860       ?NAV_GetStoredWaypoint@@YAHPAD@Z 2023b860 f   g_nav.obj
 0002:000ea940       ?NAV_CalculatePaths@@YAXPBDH@Z 2023b940 f   g_nav.obj
 0002:000eaba0       ?NAV_Shutdown@@YAXXZ       2023bba0 f   g_nav.obj
 0002:000eabf0       ?NAV_ShowDebugInfo@@YAXXZ  2023bbf0 f   g_nav.obj
 0002:000eae00       ?NAV_FindPlayerWaypoint@@YAXH@Z 2023be00 f   g_nav.obj
 0002:000eae90       ?NAV_CheckNodeFailedForEnt@@YA?AW4qboolean@@PAUgentity_s@@H@Z 2023be90 f   g_navnew.obj
 0002:000eaf10       ?NPC_ClearBlocked@@YAXPAUgentity_s@@@Z 2023bf10 f   g_navnew.obj
 0002:000eaf70       ?NPC_SetBlocked@@YAXPAUgentity_s@@0@Z 2023bf70 f   g_navnew.obj
 0002:000eb050       ?NAVNEW_ClearPathBetweenPoints@@YAHQAM000HH@Z 2023c050 f   g_navnew.obj
 0002:000eb140       ?NAVNEW_PushBlocker@@YAXPAUgentity_s@@0QAMW4qboolean@@@Z 2023c140 f   g_navnew.obj
 0002:000eb810       ?NAVNEW_DanceWithBlocker@@YA?AW4qboolean@@PAUgentity_s@@0QAM1@Z 2023c810 f   g_navnew.obj
 0002:000eba70       ?NAVNEW_SidestepBlocker@@YA?AW4qboolean@@PAUgentity_s@@0QAMM11@Z 2023ca70 f   g_navnew.obj
 0002:000ec310       ?NAVNEW_Bypass@@YA?AW4qboolean@@PAUgentity_s@@0QAMM1W41@@Z 2023d310 f   g_navnew.obj
 0002:000ec4b0       ?NAVNEW_CheckDoubleBlock@@YA?AW4qboolean@@PAUgentity_s@@0QAM@Z 2023d4b0 f   g_navnew.obj
 0002:000ec520       ?NAVNEW_ResolveEntityCollision@@YA?AW4qboolean@@PAUgentity_s@@0QAM1W41@@Z 2023d520 f   g_navnew.obj
 0002:000ec800       ?NAVNEW_AvoidCollision@@YA?AW4qboolean@@PAUgentity_s@@0PAUnavInfo_s@@W41@H@Z 2023d800 f   g_navnew.obj
 0002:000ecb60       ?NAVNEW_TestNodeConnectionBlocked@@YA?AW4qboolean@@HHPAUgentity_s@@HW41@1@Z 2023db60 f   g_navnew.obj
 0002:000ecec0       ?NAVNEW_MoveToGoal@@YAHPAUgentity_s@@PAUnavInfo_s@@@Z 2023dec0 f   g_navnew.obj
 0002:000ed910       ?NAV_MoveDirSafe@@YA?AW4qboolean@@PAUgentity_s@@PAUusercmd_s@@M@Z 2023e910 f   g_navnew.obj
 0002:000edc50       ?G_BounceObject@@YAXPAUgentity_s@@PAUtrace_t@@@Z 2023ec50 f   g_object.obj
 0002:000ee0b0       ?G_RunObject@@YAXPAUgentity_s@@@Z 2023f0b0 f   g_object.obj
 0002:000ee990       ?G_StopObjectMoving@@YAXPAUgentity_s@@@Z 2023f990 f   g_object.obj
 0002:000eea60       ?G_StartObjectMoving@@YAXPAUgentity_s@@QAMMW4trType_t@@@Z 2023fa60 f   g_object.obj
 0002:000eeb80       ?G_LoadRoff@@YAHPBD@Z      2023fb80 f   g_roff.obj
 0002:000ef510       ?G_Roff@@YAXPAUgentity_s@@@Z 20240510 f   g_roff.obj
 0002:000efd10       ?SabBeh_RollBalance@@YA?AW4qboolean@@PAUgentity_s@@PAUsabmech_s@@W41@2@Z 20240d10 f   g_saberbeh.obj
 0002:000eff20       ?G_AddMercBalance@@YAXPAUgentity_s@@H@Z 20240f20 f   g_saberbeh.obj
 0002:000f0030       ?G_RollBalance@@YAXPAUgentity_s@@0W4qboolean@@@Z 20241030 f   g_saberbeh.obj
 0002:000f0250       ?SabBeh_AddBalance@@YAXPAUgentity_s@@PAUsabmech_s@@HW4qboolean@@@Z 20241250 f   g_saberbeh.obj
 0002:000f03b0       ?SabBeh_AttackVsAttack@@YAXPAUgentity_s@@PAUsabmech_s@@01PAW4qboolean@@2@Z 202413b0 f   g_saberbeh.obj
 0002:000f0640       ?SabBeh_AttackVsBlock@@YAXPAUgentity_s@@PAUsabmech_s@@01QAMW4qboolean@@PAW43@4@Z 20241640 f   g_saberbeh.obj
 0002:000f0e20       ?SabBeh_RunSaberBehavior@@YAXPAUgentity_s@@PAUsabmech_s@@01QAMPAW4qboolean@@W43@@Z 20241e20 f   g_saberbeh.obj
 0002:000f1080       ?SabBeh_AnimateSlowBounce@@YAXPAUgentity_s@@0@Z 20242080 f   g_saberbeh.obj
 0002:000f1150       ?SabBeh_AnimateHeavySlowBounce@@YAXPAUgentity_s@@0@Z 20242150 f   g_saberbeh.obj
 0002:000f1240       ?SabBeh_ButtonforSaberLock@@YA?AW4qboolean@@PAUgentity_s@@@Z 20242240 f   g_saberbeh.obj
 0002:000f13d0       ?BG_ReduceMishapLevel@@YAXPAUplayerState_s@@@Z 202423d0 f   g_saberbeh.obj
 0002:000f1480       ?G_SiegeRegisterWeaponsAndHoldables@@YAXH@Z 20242480 f   g_saga.obj
 0002:000f15e0       ?SiegeSetCompleteData@@YAXH@Z 202425e0 f   g_saga.obj
 0002:000f1650       ?InitSiegeMode@@YAXXZ      20242650 f   g_saga.obj
 0002:000f23a0       ?G_SiegeSetObjectiveComplete@@YAXHHW4qboolean@@@Z 202433a0 f   g_saga.obj
 0002:000f2500       ?G_SiegeGetCompletionStatus@@YA?AW4qboolean@@HH@Z 20243500 f   g_saga.obj
 0002:000f2650       ?UseSiegeTarget@@YAXPAUgentity_s@@0PAD@Z 20243650 f   g_saga.obj
 0002:000f2770       ?SiegeBroadcast_OBJECTIVECOMPLETE@@YAXHHH@Z 20243770 f   g_saga.obj
 0002:000f2880       ?SiegeBroadcast_ROUNDOVER@@YAXHH@Z 20243880 f   g_saga.obj
 0002:000f2980       ?BroadcastObjectiveCompletion@@YAXHHHH@Z 20243980 f   g_saga.obj
 0002:000f2a60       ?AddSiegeWinningTeamPoints@@YAXHH@Z 20243a60 f   g_saga.obj
 0002:000f2b60       ?SiegeClearSwitchData@@YAXXZ 20243b60 f   g_saga.obj
 0002:000f2bd0       ?SiegeDoTeamAssign@@YAXXZ  20243bd0 f   g_saga.obj
 0002:000f2d50       ?SiegeTeamSwitch@@YAXHH@Z  20243d50 f   g_saga.obj
 0002:000f2e00       ?SiegeRoundComplete@@YAXHH@Z 20243e00 f   g_saga.obj
 0002:000f31c0       ?G_ValidateSiegeClassForTeam@@YAXPAUgentity_s@@H@Z 202441c0 f   g_saga.obj
 0002:000f3370       ?SetTeamQuick@@YAXPAUgentity_s@@HW4qboolean@@@Z 20244370 f   g_saga.obj
 0002:000f35a0       ?SiegeRespawn@@YAXPAUgentity_s@@@Z 202445a0 f   g_saga.obj
 0002:000f3680       ?SiegeBeginRound@@YAXH@Z   20244680 f   g_saga.obj
 0002:000f3920       ?SiegeCheckTimers@@YAXXZ   20244920 f   g_saga.obj
 0002:000f3ca0       ?SiegeObjectiveCompleted@@YAXHHHH@Z 20244ca0 f   g_saga.obj
 0002:000f3df0       ?siegeTriggerUse@@YAXPAUgentity_s@@00@Z 20244df0 f   g_saga.obj
 0002:000f4160       ?SP_info_siege_objective@@YAXPAUgentity_s@@@Z 20245160 f   g_saga.obj
 0002:000f4360       ?SiegeIconUse@@YAXPAUgentity_s@@00@Z 20245360 f   g_saga.obj
 0002:000f4400       ?SP_info_siege_radaricon@@YAXPAUgentity_s@@@Z 20245400 f   g_saga.obj
 0002:000f4580       ?decompTriggerUse@@YAXPAUgentity_s@@00@Z 20245580 f   g_saga.obj
 0002:000f4850       ?SP_info_siege_decomplete@@YAXPAUgentity_s@@@Z 20245850 f   g_saga.obj
 0002:000f4950       ?siegeEndUse@@YAXPAUgentity_s@@00@Z 20245950 f   g_saga.obj
 0002:000f49a0       ?SP_target_siege_end@@YAXPAUgentity_s@@@Z 202459a0 f   g_saga.obj
 0002:000f4a20       ?SiegeItemRemoveOwner@@YAXPAUgentity_s@@0@Z 20245a20 f   g_saga.obj
 0002:000f4ab0       ?SiegeItemThink@@YAXPAUgentity_s@@@Z 20245ab0 f   g_saga.obj
 0002:000f53e0       ?SiegeItemTouch@@YAXPAUgentity_s@@0PAUtrace_t@@@Z 202463e0 f   g_saga.obj
 0002:000f56c0       ?SiegeItemPain@@YAXPAUgentity_s@@0H@Z 202466c0 f   g_saga.obj
 0002:000f5700       ?SiegeItemDie@@YAXPAUgentity_s@@00HH@Z 20246700 f   g_saga.obj
 0002:000f5860       ?SiegeItemUse@@YAXPAUgentity_s@@00@Z 20246860 f   g_saga.obj
 0002:000f5ca0       ?SP_misc_siege_item@@YAXPAUgentity_s@@@Z 20246ca0 f   g_saga.obj
 0002:000f6480       ?G_SiegeClientExData@@YAXPAUgentity_s@@@Z 20247480 f   g_saga.obj
 0002:000f6750       ?G_WriteClientSessionData@@YAXPAUgclient_s@@@Z 20247750 f   g_session.obj
 0002:000f6a80       ?G_ReadSessionData@@YAXPAUgclient_s@@@Z 20247a80 f   g_session.obj
 0002:000f6e40       ?G_InitSessionData@@YAXPAUgclient_s@@PADW4qboolean@@2@Z 20247e40 f   g_session.obj
 0002:000f72d0       ?G_InitWorldSession@@YAXXZ 202482d0 f   g_session.obj
 0002:000f73d0       ?G_WriteSessionData@@YAXXZ 202483d0 f   g_session.obj
 0002:000f74a0       ?G_SpawnString@@YA?AW4qboolean@@PBD0PAPAD@Z 202484a0 f   g_spawn.obj
 0002:000f7570       ?G_SpawnFloat@@YA?AW4qboolean@@PBD0PAM@Z 20248570 f   g_spawn.obj
 0002:000f7620       ?G_SpawnInt@@YA?AW4qboolean@@PBD0PAH@Z 20248620 f   g_spawn.obj
 0002:000f76d0       ?G_SpawnVector@@YA?AW4qboolean@@PBD0PAM@Z 202486d0 f   g_spawn.obj
 0002:000f7790       ?SP_item_botroam@@YAXPAUgentity_s@@@Z 20248790 f   g_spawn.obj
 0002:000f77c0       ?SP_gametype_item@@YAXPAUgentity_s@@@Z 202487c0 f   g_spawn.obj
 0002:000f7a20       ?G_CallSpawn@@YA?AW4qboolean@@PAUgentity_s@@@Z 20248a20 f   g_spawn.obj
 0002:000f7c00       ?G_NewString@@YAPADPBD@Z   20248c00 f   g_spawn.obj
 0002:000f7d20       ?G_SpawnGEntityFromSpawnVars@@YAXW4qboolean@@@Z 20248d20 f   g_spawn.obj
 0002:000f8090       ?G_AddSpawnVarToken@@YAPADPBD@Z 20249090 f   g_spawn.obj
 0002:000f8160       ?AddSpawnField@@YAXPAD0@Z  20249160 f   g_spawn.obj
 0002:000f8260       ?G_ParseSpawnVars@@YA?AW4qboolean@@W41@@Z 20249260 f   g_spawn.obj
 0002:000f8d70       ?fmod@@YAMMM@Z             20249d70 f i g_spawn.obj
 0002:000f8dd0       _fmodf                     20249dd0 f i g_spawn.obj
 0002:000f8e40       ?SP_worldspawn@@YAXXZ      20249e40 f   g_spawn.obj
 0002:000f9510       ?SP_bsp_worldspawn@@YA?AW4qboolean@@XZ 2024a510 f   g_spawn.obj
 0002:000f9550       ?G_PrecacheSoundsets@@YAXXZ 2024a550 f   g_spawn.obj
 0002:000f9660       ?G_SpawnEntitiesFromString@@YAXW4qboolean@@@Z 2024a660 f   g_spawn.obj
 0002:000f97d0       ?strap_G2API_GetBoltMatrix@@YA?AW4qboolean@@PAXHHPAUmdxaBone_t@@QBM2HPAHQAM@Z 2024a7d0 f   g_strap.obj
 0002:000f9850       ?strap_G2API_GetBoltMatrix_NoReconstruct@@YA?AW4qboolean@@PAXHHPAUmdxaBone_t@@QBM2HPAHQAM@Z 2024a850 f   g_strap.obj
 0002:000f98d0       ?strap_G2API_GetBoltMatrix_NoRecNoRot@@YA?AW4qboolean@@PAXHHPAUmdxaBone_t@@QBM2HPAHQAM@Z 2024a8d0 f   g_strap.obj
 0002:000f9950       ?strap_G2API_SetBoneAngles@@YA?AW4qboolean@@PAXHPBDQBMHHHHPAHHH@Z 2024a950 f   g_strap.obj
 0002:000f99d0       ?strap_G2API_SetBoneAnim@@YA?AW4qboolean@@PAXHPBDHHHMHMH@Z 2024a9d0 f   g_strap.obj
 0002:000f9a60       ?strap_G2API_GetBoneAnim@@YA?AW4qboolean@@PAXPBDHPAMPAH3323H@Z 2024aa60 f   g_strap.obj
 0002:000f9ae0       ?strap_G2API_SetRagDoll@@YAXPAXPAUsharedRagDollParams_t@@@Z 2024aae0 f   g_strap.obj
 0002:000f9b40       ?strap_G2API_AnimateG2Models@@YAXPAXHPAUsharedRagDollUpdateParams_t@@@Z 2024ab40 f   g_strap.obj
 0002:000f9ba0       ?strap_G2API_SetBoneIKState@@YA?AW4qboolean@@PAXHPBDHPAUsharedSetBoneIKStateParams_t@@@Z 2024aba0 f   g_strap.obj
 0002:000f9c10       ?strap_G2API_IKMove@@YA?AW4qboolean@@PAXHPAUsharedIKMoveParams_t@@@Z 2024ac10 f   g_strap.obj
 0002:000f9c70       ?strap_TrueMalloc@@YAXPAPAXH@Z 2024ac70 f   g_strap.obj
 0002:000f9cd0       ?strap_TrueFree@@YAXPAPAX@Z 2024acd0 f   g_strap.obj
 0002:000f9d20       ?G_FilterPacket@@YA?AW4qboolean@@PAD@Z 2024ad20 f   g_svcmds.obj
 0002:000f9ec0       ?AddIP@@YAXPAD@Z           2024aec0 f   g_svcmds.obj
 0002:000fa3b0       ?G_ProcessIPBans@@YAXXZ    2024b3b0 f   g_svcmds.obj
 0002:000fa4f0       ?Svcmd_AddIP_f@@YAXXZ      2024b4f0 f   g_svcmds.obj
 0002:000fa5d0       ?Svcmd_RemoveIP_f@@YAXXZ   2024b5d0 f   g_svcmds.obj
 0002:000fa760       ?Svcmd_ListIPs_f@@YAXXZ    2024b760 f   g_svcmds.obj
 0002:000fa8a0       ?G_SaveBanIP@@YAXXZ        2024b8a0 f   g_svcmds.obj
 0002:000faa80       ?G_LoadIPBans@@YAXXZ       2024ba80 f   g_svcmds.obj
 0002:000facc0       ?Svcmd_EntityList_f@@YAXXZ 2024bcc0 f   g_svcmds.obj
 0002:000faf30       ?ClientForString@@YAPAUgclient_s@@PBD@Z 2024bf30 f   g_svcmds.obj
 0002:000fb0b0       ?Svcmd_ForceTeam_f@@YAXXZ  2024c0b0 f   g_svcmds.obj
 0002:000fb1d0       ?ConsoleCommand@@YA?AW4qboolean@@XZ 2024c1d0 f   g_svcmds.obj
 0002:000fb5e0       ?dllEntry@@YAXP6AHHZZ@Z    2024c5e0 f   g_syscalls.obj
 0002:000fb620       ?PASSFLOAT@@YAHM@Z         2024c620 f   g_syscalls.obj
 0002:000fb660       ?trap_Printf@@YAXPBD@Z     2024c660 f   g_syscalls.obj
 0002:000fb6c0       ?trap_Error@@YAXPBD@Z      2024c6c0 f   g_syscalls.obj
 0002:000fb720       ?trap_Milliseconds@@YAHXZ  2024c720 f   g_syscalls.obj
 0002:000fb780       ?trap_PrecisionTimer_Start@@YAXPAPAX@Z 2024c780 f   g_syscalls.obj
 0002:000fb7e0       ?trap_PrecisionTimer_End@@YAHPAX@Z 2024c7e0 f   g_syscalls.obj
 0002:000fb840       ?trap_Cvar_Register@@YAXPAUvmCvar_t@@PBD1H@Z 2024c840 f   g_syscalls.obj
 0002:000fb8b0       ?trap_Cvar_Update@@YAXPAUvmCvar_t@@@Z 2024c8b0 f   g_syscalls.obj
 0002:000fb910       ?trap_Cvar_Set@@YAXPBD0@Z  2024c910 f   g_syscalls.obj
 0002:000fb980       ?trap_Cvar_VariableIntegerValue@@YAHPBD@Z 2024c980 f   g_syscalls.obj
 0002:000fb9e0       ?trap_Cvar_VariableStringBuffer@@YAXPBDPADH@Z 2024c9e0 f   g_syscalls.obj
 0002:000fba50       ?trap_Argc@@YAHXZ          2024ca50 f   g_syscalls.obj
 0002:000fbab0       ?trap_Argv@@YAXHPADH@Z     2024cab0 f   g_syscalls.obj
 0002:000fbb20       ?trap_FS_FOpenFile@@YAHPBDPAHW4fsMode_t@@@Z 2024cb20 f   g_syscalls.obj
 0002:000fbb90       ?trap_FS_Read@@YAXPAXHH@Z  2024cb90 f   g_syscalls.obj
 0002:000fbc00       ?trap_FS_Write@@YAXPBXHH@Z 2024cc00 f   g_syscalls.obj
 0002:000fbc70       ?trap_FS_FCloseFile@@YAXH@Z 2024cc70 f   g_syscalls.obj
 0002:000fbcd0       ?trap_SendConsoleCommand@@YAXHPBD@Z 2024ccd0 f   g_syscalls.obj
 0002:000fbd40       ?trap_LocateGameData@@YAXPAUgentity_s@@HHPAUplayerState_s@@H@Z 2024cd40 f   g_syscalls.obj
 0002:000fbdb0       ?trap_DropClient@@YAXHPBD@Z 2024cdb0 f   g_syscalls.obj
 0002:000fbe20       ?trap_SendServerCommand@@YAXHPBD@Z 2024ce20 f   g_syscalls.obj
 0002:000fbe90       ?trap_SetConfigstring@@YAXHPBD@Z 2024ce90 f   g_syscalls.obj
 0002:000fbf00       ?trap_GetConfigstring@@YAXHPADH@Z 2024cf00 f   g_syscalls.obj
 0002:000fbf70       ?trap_GetUserinfo@@YAXHPADH@Z 2024cf70 f   g_syscalls.obj
 0002:000fbfe0       ?trap_SetUserinfo@@YAXHPBD@Z 2024cfe0 f   g_syscalls.obj
 0002:000fc050       ?trap_GetServerinfo@@YAXPADH@Z 2024d050 f   g_syscalls.obj
 0002:000fc0c0       ?trap_SetServerCull@@YAXM@Z 2024d0c0 f   g_syscalls.obj
 0002:000fc130       ?trap_SetBrushModel@@YAXPAUgentity_s@@PBD@Z 2024d130 f   g_syscalls.obj
 0002:000fc1a0       ?trap_Trace@@YAXPAUtrace_t@@QBM111HH@Z 2024d1a0 f   g_syscalls.obj
 0002:000fc220       ?trap_G2Trace@@YAXPAUtrace_t@@QBM111HHHH@Z 2024d220 f   g_syscalls.obj
 0002:000fc2b0       ?trap_PointContents@@YAHQBMH@Z 2024d2b0 f   g_syscalls.obj
 0002:000fc320       ?trap_InPVS@@YA?AW4qboolean@@QBM0@Z 2024d320 f   g_syscalls.obj
 0002:000fc390       ?trap_InPVSIgnorePortals@@YA?AW4qboolean@@QBM0@Z 2024d390 f   g_syscalls.obj
 0002:000fc400       ?trap_AdjustAreaPortalState@@YAXPAUgentity_s@@W4qboolean@@@Z 2024d400 f   g_syscalls.obj
 0002:000fc470       ?trap_AreasConnected@@YA?AW4qboolean@@HH@Z 2024d470 f   g_syscalls.obj
 0002:000fc4e0       ?trap_LinkEntity@@YAXPAUgentity_s@@@Z 2024d4e0 f   g_syscalls.obj
 0002:000fc540       ?trap_UnlinkEntity@@YAXPAUgentity_s@@@Z 2024d540 f   g_syscalls.obj
 0002:000fc5a0       ?trap_EntitiesInBox@@YAHQBM0PAHH@Z 2024d5a0 f   g_syscalls.obj
 0002:000fc610       ?trap_EntityContact@@YA?AW4qboolean@@QBM0PBUgentity_s@@@Z 2024d610 f   g_syscalls.obj
 0002:000fc680       ?trap_BotAllocateClient@@YAHXZ 2024d680 f   g_syscalls.obj
 0002:000fc6e0       ?trap_BotFreeClient@@YAXH@Z 2024d6e0 f   g_syscalls.obj
 0002:000fc740       ?trap_GetUsercmd@@YAXHPAUusercmd_s@@@Z 2024d740 f   g_syscalls.obj
 0002:000fc7b0       ?trap_GetEntityToken@@YA?AW4qboolean@@PADH@Z 2024d7b0 f   g_syscalls.obj
 0002:000fc820       ?trap_SiegePersSet@@YAXPAUsiegePers_s@@@Z 2024d820 f   g_syscalls.obj
 0002:000fc880       ?trap_SiegePersGet@@YAXPAUsiegePers_s@@@Z 2024d880 f   g_syscalls.obj
 0002:000fc8e0       ?trap_FS_GetFileList@@YAHPBD0PADH@Z 2024d8e0 f   g_syscalls.obj
 0002:000fc950       ?trap_DebugPolygonCreate@@YAHHHPAY02M@Z 2024d950 f   g_syscalls.obj
 0002:000fc9c0       ?trap_DebugPolygonDelete@@YAXH@Z 2024d9c0 f   g_syscalls.obj
 0002:000fca20       ?trap_RealTime@@YAHPAUqtime_s@@@Z 2024da20 f   g_syscalls.obj
 0002:000fca80       ?trap_SnapVector@@YAXPAM@Z 2024da80 f   g_syscalls.obj
 0002:000fcae0       ?trap_TraceCapsule@@YAXPAUtrace_t@@QBM111HH@Z 2024dae0 f   g_syscalls.obj
 0002:000fcb60       ?trap_EntityContactCapsule@@YA?AW4qboolean@@QBM0PBUgentity_s@@@Z 2024db60 f   g_syscalls.obj
 0002:000fcbd0       ?trap_SP_GetStringTextString@@YAHPBDPADH@Z 2024dbd0 f   g_syscalls.obj
 0002:000fcc40       ?trap_ROFF_Clean@@YA?AW4qboolean@@XZ 2024dc40 f   g_syscalls.obj
 0002:000fcca0       ?trap_ROFF_UpdateEntities@@YAXXZ 2024dca0 f   g_syscalls.obj
 0002:000fcd00       ?trap_ROFF_Cache@@YAHPAD@Z 2024dd00 f   g_syscalls.obj
 0002:000fcd60       ?trap_ROFF_Play@@YA?AW4qboolean@@HHW41@@Z 2024dd60 f   g_syscalls.obj
 0002:000fcdd0       ?trap_ROFF_Purge_Ent@@YA?AW4qboolean@@H@Z 2024ddd0 f   g_syscalls.obj
 0002:000fce30       ?trap_TrueMalloc@@YAXPAPAXH@Z 2024de30 f   g_syscalls.obj
 0002:000fcea0       ?trap_TrueFree@@YAXPAPAX@Z 2024dea0 f   g_syscalls.obj
 0002:000fcf00       ?trap_ICARUS_RunScript@@YAHPAUgentity_s@@PBD@Z 2024df00 f   g_syscalls.obj
 0002:000fcf70       ?trap_ICARUS_RegisterScript@@YA?AW4qboolean@@PBDW41@@Z 2024df70 f   g_syscalls.obj
 0002:000fcfe0       ?trap_ICARUS_Init@@YAXXZ   2024dfe0 f   g_syscalls.obj
 0002:000fd040       ?trap_ICARUS_ValidEnt@@YA?AW4qboolean@@PAUgentity_s@@@Z 2024e040 f   g_syscalls.obj
 0002:000fd0a0       ?trap_ICARUS_IsInitialized@@YA?AW4qboolean@@H@Z 2024e0a0 f   g_syscalls.obj
 0002:000fd100       ?trap_ICARUS_MaintainTaskManager@@YA?AW4qboolean@@H@Z 2024e100 f   g_syscalls.obj
 0002:000fd160       ?trap_ICARUS_IsRunning@@YA?AW4qboolean@@H@Z 2024e160 f   g_syscalls.obj
 0002:000fd1c0       ?trap_ICARUS_TaskIDPending@@YA?AW4qboolean@@PAUgentity_s@@H@Z 2024e1c0 f   g_syscalls.obj
 0002:000fd230       ?trap_ICARUS_InitEnt@@YAXPAUgentity_s@@@Z 2024e230 f   g_syscalls.obj
 0002:000fd290       ?trap_ICARUS_FreeEnt@@YAXPAUgentity_s@@@Z 2024e290 f   g_syscalls.obj
 0002:000fd2f0       ?trap_ICARUS_AssociateEnt@@YAXPAUgentity_s@@@Z 2024e2f0 f   g_syscalls.obj
 0002:000fd350       ?trap_ICARUS_Shutdown@@YAXXZ 2024e350 f   g_syscalls.obj
 0002:000fd3b0       ?trap_ICARUS_TaskIDSet@@YAXPAUgentity_s@@HH@Z 2024e3b0 f   g_syscalls.obj
 0002:000fd420       ?trap_ICARUS_TaskIDComplete@@YAXPAUgentity_s@@H@Z 2024e420 f   g_syscalls.obj
 0002:000fd490       ?trap_ICARUS_SetVar@@YAXHHPBD0@Z 2024e490 f   g_syscalls.obj
 0002:000fd500       ?trap_ICARUS_VariableDeclared@@YAHPBD@Z 2024e500 f   g_syscalls.obj
 0002:000fd560       ?trap_ICARUS_GetFloatVariable@@YAHPBDPAM@Z 2024e560 f   g_syscalls.obj
 0002:000fd5d0       ?trap_ICARUS_GetStringVariable@@YAHPBD0@Z 2024e5d0 f   g_syscalls.obj
 0002:000fd640       ?trap_ICARUS_GetVectorVariable@@YAHPBDQBM@Z 2024e640 f   g_syscalls.obj
 0002:000fd6b0       ?trap_Nav_Init@@YAXXZ      2024e6b0 f   g_syscalls.obj
 0002:000fd710       ?trap_Nav_Free@@YAXXZ      2024e710 f   g_syscalls.obj
 0002:000fd770       ?trap_Nav_Load@@YA?AW4qboolean@@PBDH@Z 2024e770 f   g_syscalls.obj
 0002:000fd7e0       ?trap_Nav_Save@@YA?AW4qboolean@@PBDH@Z 2024e7e0 f   g_syscalls.obj
 0002:000fd850       ?trap_Nav_AddRawPoint@@YAHQAMHH@Z 2024e850 f   g_syscalls.obj
 0002:000fd8c0       ?trap_Nav_CalculatePaths@@YAXW4qboolean@@@Z 2024e8c0 f   g_syscalls.obj
 0002:000fd920       ?trap_Nav_HardConnect@@YAXHH@Z 2024e920 f   g_syscalls.obj
 0002:000fd990       ?trap_Nav_ShowNodes@@YAXXZ 2024e990 f   g_syscalls.obj
 0002:000fd9f0       ?trap_Nav_ShowEdges@@YAXXZ 2024e9f0 f   g_syscalls.obj
 0002:000fda50       ?trap_Nav_ShowPath@@YAXHH@Z 2024ea50 f   g_syscalls.obj
 0002:000fdac0       ?trap_Nav_GetNearestNode@@YAHPAUgentity_s@@HHH@Z 2024eac0 f   g_syscalls.obj
 0002:000fdb30       ?trap_Nav_GetBestNode@@YAHHHH@Z 2024eb30 f   g_syscalls.obj
 0002:000fdba0       ?trap_Nav_GetNodePosition@@YAHHQAM@Z 2024eba0 f   g_syscalls.obj
 0002:000fdc10       ?trap_Nav_GetNodeNumEdges@@YAHH@Z 2024ec10 f   g_syscalls.obj
 0002:000fdc70       ?trap_Nav_GetNodeEdge@@YAHHH@Z 2024ec70 f   g_syscalls.obj
 0002:000fdce0       ?trap_Nav_GetNumNodes@@YAHXZ 2024ece0 f   g_syscalls.obj
 0002:000fdd40       ?trap_Nav_Connected@@YA?AW4qboolean@@HH@Z 2024ed40 f   g_syscalls.obj
 0002:000fddb0       ?trap_Nav_GetPathCost@@YAHHH@Z 2024edb0 f   g_syscalls.obj
 0002:000fde20       ?trap_Nav_GetEdgeCost@@YAHHH@Z 2024ee20 f   g_syscalls.obj
 0002:000fde90       ?trap_Nav_GetProjectedNode@@YAHQAMH@Z 2024ee90 f   g_syscalls.obj
 0002:000fdf00       ?trap_Nav_CheckFailedNodes@@YAXPAUgentity_s@@@Z 2024ef00 f   g_syscalls.obj
 0002:000fdf60       ?trap_Nav_AddFailedNode@@YAXPAUgentity_s@@H@Z 2024ef60 f   g_syscalls.obj
 0002:000fdfd0       ?trap_Nav_NodeFailed@@YA?AW4qboolean@@PAUgentity_s@@H@Z 2024efd0 f   g_syscalls.obj
 0002:000fe040       ?trap_Nav_NodesAreNeighbors@@YA?AW4qboolean@@HH@Z 2024f040 f   g_syscalls.obj
 0002:000fe0b0       ?trap_Nav_ClearFailedEdge@@YAXPAUfailedEdge_e@@@Z 2024f0b0 f   g_syscalls.obj
 0002:000fe110       ?trap_Nav_ClearAllFailedEdges@@YAXXZ 2024f110 f   g_syscalls.obj
 0002:000fe170       ?trap_Nav_EdgeFailed@@YAHHH@Z 2024f170 f   g_syscalls.obj
 0002:000fe1e0       ?trap_Nav_AddFailedEdge@@YAXHHH@Z 2024f1e0 f   g_syscalls.obj
 0002:000fe250       ?trap_Nav_CheckFailedEdge@@YA?AW4qboolean@@PAUfailedEdge_e@@@Z 2024f250 f   g_syscalls.obj
 0002:000fe2b0       ?trap_Nav_CheckAllFailedEdges@@YAXXZ 2024f2b0 f   g_syscalls.obj
 0002:000fe310       ?trap_Nav_RouteBlocked@@YA?AW4qboolean@@HHHH@Z 2024f310 f   g_syscalls.obj
 0002:000fe380       ?trap_Nav_GetBestNodeAltRoute@@YAHHHPAHH@Z 2024f380 f   g_syscalls.obj
 0002:000fe3f0       ?trap_Nav_GetBestNodeAltRoute2@@YAHHHH@Z 2024f3f0 f   g_syscalls.obj
 0002:000fe460       ?trap_Nav_GetBestPathBetweenEnts@@YAHPAUgentity_s@@0H@Z 2024f460 f   g_syscalls.obj
 0002:000fe4d0       ?trap_Nav_GetNodeRadius@@YAHH@Z 2024f4d0 f   g_syscalls.obj
 0002:000fe530       ?trap_Nav_CheckBlockedEdges@@YAXXZ 2024f530 f   g_syscalls.obj
 0002:000fe590       ?trap_Nav_ClearCheckedNodes@@YAXXZ 2024f590 f   g_syscalls.obj
 0002:000fe5f0       ?trap_Nav_CheckedNode@@YAHHH@Z 2024f5f0 f   g_syscalls.obj
 0002:000fe660       ?trap_Nav_SetCheckedNode@@YAXHHH@Z 2024f660 f   g_syscalls.obj
 0002:000fe6d0       ?trap_Nav_FlagAllNodes@@YAXH@Z 2024f6d0 f   g_syscalls.obj
 0002:000fe730       ?trap_Nav_GetPathsCalculated@@YA?AW4qboolean@@XZ 2024f730 f   g_syscalls.obj
 0002:000fe790       ?trap_Nav_SetPathsCalculated@@YAXW4qboolean@@@Z 2024f790 f   g_syscalls.obj
 0002:000fe7f0       ?trap_SV_RegisterSharedMemory@@YAXPAD@Z 2024f7f0 f   g_syscalls.obj
 0002:000fe850       ?trap_BotLibSetup@@YAHXZ   2024f850 f   g_syscalls.obj
 0002:000fe8b0       ?trap_BotLibShutdown@@YAHXZ 2024f8b0 f   g_syscalls.obj
 0002:000fe910       ?trap_BotLibVarSet@@YAHPAD0@Z 2024f910 f   g_syscalls.obj
 0002:000fe980       ?trap_BotLibVarGet@@YAHPAD0H@Z 2024f980 f   g_syscalls.obj
 0002:000fe9f0       ?trap_BotLibDefine@@YAHPAD@Z 2024f9f0 f   g_syscalls.obj
 0002:000fea50       ?trap_BotLibStartFrame@@YAHM@Z 2024fa50 f   g_syscalls.obj
 0002:000feac0       ?trap_BotLibLoadMap@@YAHPBD@Z 2024fac0 f   g_syscalls.obj
 0002:000feb20       ?trap_BotLibUpdateEntity@@YAHHPAX@Z 2024fb20 f   g_syscalls.obj
 0002:000feb90       ?trap_BotLibTest@@YAHHPADQAM1@Z 2024fb90 f   g_syscalls.obj
 0002:000fec00       ?trap_BotGetSnapshotEntity@@YAHHH@Z 2024fc00 f   g_syscalls.obj
 0002:000fec70       ?trap_BotGetServerCommand@@YAHHPADH@Z 2024fc70 f   g_syscalls.obj
 0002:000fece0       ?trap_BotUserCommand@@YAXHPAUusercmd_s@@@Z 2024fce0 f   g_syscalls.obj
 0002:000fed50       ?trap_AAS_EntityInfo@@YAXHPAX@Z 2024fd50 f   g_syscalls.obj
 0002:000fedc0       ?trap_AAS_Initialized@@YAHXZ 2024fdc0 f   g_syscalls.obj
 0002:000fee20       ?trap_AAS_PresenceTypeBoundingBox@@YAXHQAM0@Z 2024fe20 f   g_syscalls.obj
 0002:000fee90       ?trap_AAS_Time@@YAMXZ      2024fe90 f   g_syscalls.obj
 0002:000fef00       ?trap_AAS_PointAreaNum@@YAHQAM@Z 2024ff00 f   g_syscalls.obj
 0002:000fef60       ?trap_AAS_PointReachabilityAreaIndex@@YAHQAM@Z 2024ff60 f   g_syscalls.obj
 0002:000fefc0       ?trap_AAS_TraceAreas@@YAHQAM0PAHPAY02MH@Z 2024ffc0 f   g_syscalls.obj
 0002:000ff040       ?trap_AAS_BBoxAreas@@YAHQAM0PAHH@Z 20250040 f   g_syscalls.obj
 0002:000ff0b0       ?trap_AAS_AreaInfo@@YAHHPAX@Z 202500b0 f   g_syscalls.obj
 0002:000ff120       ?trap_AAS_PointContents@@YAHQAM@Z 20250120 f   g_syscalls.obj
 0002:000ff180       ?trap_AAS_NextBSPEntity@@YAHH@Z 20250180 f   g_syscalls.obj
 0002:000ff1e0       ?trap_AAS_ValueForBSPEpairKey@@YAHHPAD0H@Z 202501e0 f   g_syscalls.obj
 0002:000ff250       ?trap_AAS_VectorForBSPEpairKey@@YAHHPADQAM@Z 20250250 f   g_syscalls.obj
 0002:000ff2c0       ?trap_AAS_FloatForBSPEpairKey@@YAHHPADPAM@Z 202502c0 f   g_syscalls.obj
 0002:000ff330       ?trap_AAS_IntForBSPEpairKey@@YAHHPADPAH@Z 20250330 f   g_syscalls.obj
 0002:000ff3a0       ?trap_AAS_AreaReachability@@YAHH@Z 202503a0 f   g_syscalls.obj
 0002:000ff400       ?trap_AAS_AreaTravelTimeToGoalArea@@YAHHQAMHH@Z 20250400 f   g_syscalls.obj
 0002:000ff470       ?trap_AAS_EnableRoutingArea@@YAHHH@Z 20250470 f   g_syscalls.obj
 0002:000ff4e0       ?trap_AAS_PredictRoute@@YAHPAXHQAMHHHHHHHH@Z 202504e0 f   g_syscalls.obj
 0002:000ff580       ?trap_AAS_AlternativeRouteGoals@@YAHQAMH0HHPAXHH@Z 20250580 f   g_syscalls.obj
 0002:000ff610       ?trap_AAS_Swimming@@YAHQAM@Z 20250610 f   g_syscalls.obj
 0002:000ff670       ?trap_AAS_PredictClientMovement@@YAHPAXHQAMHH11HHMHHH@Z 20250670 f   g_syscalls.obj
 0002:000ff720       ?trap_EA_Say@@YAXHPAD@Z    20250720 f   g_syscalls.obj
 0002:000ff790       ?trap_EA_SayTeam@@YAXHPAD@Z 20250790 f   g_syscalls.obj
 0002:000ff800       ?trap_EA_Command@@YAXHPAD@Z 20250800 f   g_syscalls.obj
 0002:000ff870       ?trap_EA_Action@@YAXHH@Z   20250870 f   g_syscalls.obj
 0002:000ff8e0       ?trap_EA_Gesture@@YAXH@Z   202508e0 f   g_syscalls.obj
 0002:000ff940       ?trap_EA_Talk@@YAXH@Z      20250940 f   g_syscalls.obj
 0002:000ff9a0       ?trap_EA_Attack@@YAXH@Z    202509a0 f   g_syscalls.obj
 0002:000ffa00       ?trap_EA_Alt_Attack@@YAXH@Z 20250a00 f   g_syscalls.obj
 0002:000ffa60       ?trap_EA_ForcePower@@YAXH@Z 20250a60 f   g_syscalls.obj
 0002:000ffac0       ?trap_EA_Use@@YAXH@Z       20250ac0 f   g_syscalls.obj
 0002:000ffb20       ?trap_EA_Respawn@@YAXH@Z   20250b20 f   g_syscalls.obj
 0002:000ffb80       ?trap_EA_Crouch@@YAXH@Z    20250b80 f   g_syscalls.obj
 0002:000ffbe0       ?trap_EA_MoveUp@@YAXH@Z    20250be0 f   g_syscalls.obj
 0002:000ffc40       ?trap_EA_MoveDown@@YAXH@Z  20250c40 f   g_syscalls.obj
 0002:000ffca0       ?trap_EA_MoveForward@@YAXH@Z 20250ca0 f   g_syscalls.obj
 0002:000ffd00       ?trap_EA_MoveBack@@YAXH@Z  20250d00 f   g_syscalls.obj
 0002:000ffd60       ?trap_EA_MoveLeft@@YAXH@Z  20250d60 f   g_syscalls.obj
 0002:000ffdc0       ?trap_EA_MoveRight@@YAXH@Z 20250dc0 f   g_syscalls.obj
 0002:000ffe20       ?trap_EA_SelectWeapon@@YAXHH@Z 20250e20 f   g_syscalls.obj
 0002:000ffe90       ?trap_EA_Jump@@YAXH@Z      20250e90 f   g_syscalls.obj
 0002:000ffef0       ?trap_EA_DelayedJump@@YAXH@Z 20250ef0 f   g_syscalls.obj
 0002:000fff50       ?trap_EA_Move@@YAXHQAMM@Z  20250f50 f   g_syscalls.obj
 0002:000fffd0       ?trap_EA_View@@YAXHQAM@Z   20250fd0 f   g_syscalls.obj
 0002:00100040       ?trap_EA_EndRegular@@YAXHM@Z 20251040 f   g_syscalls.obj
 0002:001000c0       ?trap_EA_GetInput@@YAXHMPAX@Z 202510c0 f   g_syscalls.obj
 0002:00100140       ?trap_EA_ResetInput@@YAXH@Z 20251140 f   g_syscalls.obj
 0002:001001a0       ?trap_BotLoadCharacter@@YAHPADM@Z 202511a0 f   g_syscalls.obj
 0002:00100220       ?trap_BotFreeCharacter@@YAXH@Z 20251220 f   g_syscalls.obj
 0002:00100280       ?trap_Characteristic_Float@@YAMHH@Z 20251280 f   g_syscalls.obj
 0002:001002f0       ?trap_Characteristic_BFloat@@YAMHHMM@Z 202512f0 f   g_syscalls.obj
 0002:00100390       ?trap_Characteristic_Integer@@YAHHH@Z 20251390 f   g_syscalls.obj
 0002:00100400       ?trap_Characteristic_BInteger@@YAHHHHH@Z 20251400 f   g_syscalls.obj
 0002:00100470       ?trap_Characteristic_String@@YAXHHPADH@Z 20251470 f   g_syscalls.obj
 0002:001004e0       ?trap_BotAllocChatState@@YAHXZ 202514e0 f   g_syscalls.obj
 0002:00100540       ?trap_BotFreeChatState@@YAXH@Z 20251540 f   g_syscalls.obj
 0002:001005a0       ?trap_BotQueueConsoleMessage@@YAXHHPAD@Z 202515a0 f   g_syscalls.obj
 0002:00100610       ?trap_BotRemoveConsoleMessage@@YAXHH@Z 20251610 f   g_syscalls.obj
 0002:00100680       ?trap_BotNextConsoleMessage@@YAHHPAX@Z 20251680 f   g_syscalls.obj
 0002:001006f0       ?trap_BotNumConsoleMessages@@YAHH@Z 202516f0 f   g_syscalls.obj
 0002:00100750       ?trap_BotInitialChat@@YAXHPADH00000000@Z 20251750 f   g_syscalls.obj
 0002:001007f0       ?trap_BotNumInitialChats@@YAHHPAD@Z 202517f0 f   g_syscalls.obj
 0002:00100860       ?trap_BotReplyChat@@YAHHPADHH00000000@Z 20251860 f   g_syscalls.obj
 0002:00100900       ?trap_BotChatLength@@YAHH@Z 20251900 f   g_syscalls.obj
 0002:00100960       ?trap_BotEnterChat@@YAXHHH@Z 20251960 f   g_syscalls.obj
 0002:001009d0       ?trap_BotGetChatMessage@@YAXHPADH@Z 202519d0 f   g_syscalls.obj
 0002:00100a40       ?trap_StringContains@@YAHPAD0H@Z 20251a40 f   g_syscalls.obj
 0002:00100ab0       ?trap_BotFindMatch@@YAHPADPAXK@Z 20251ab0 f   g_syscalls.obj
 0002:00100b20       ?trap_BotMatchVariable@@YAXPAXHPADH@Z 20251b20 f   g_syscalls.obj
 0002:00100b90       ?trap_UnifyWhiteSpaces@@YAXPAD@Z 20251b90 f   g_syscalls.obj
 0002:00100bf0       ?trap_BotReplaceSynonyms@@YAXPADK@Z 20251bf0 f   g_syscalls.obj
 0002:00100c60       ?trap_BotLoadChatFile@@YAHHPAD0@Z 20251c60 f   g_syscalls.obj
 0002:00100cd0       ?trap_BotSetChatGender@@YAXHH@Z 20251cd0 f   g_syscalls.obj
 0002:00100d40       ?trap_BotSetChatName@@YAXHPADH@Z 20251d40 f   g_syscalls.obj
 0002:00100db0       ?trap_BotResetGoalState@@YAXH@Z 20251db0 f   g_syscalls.obj
 0002:00100e10       ?trap_BotResetAvoidGoals@@YAXH@Z 20251e10 f   g_syscalls.obj
 0002:00100e70       ?trap_BotRemoveFromAvoidGoals@@YAXHH@Z 20251e70 f   g_syscalls.obj
 0002:00100ee0       ?trap_BotPushGoal@@YAXHPAX@Z 20251ee0 f   g_syscalls.obj
 0002:00100f50       ?trap_BotPopGoal@@YAXH@Z   20251f50 f   g_syscalls.obj
 0002:00100fb0       ?trap_BotEmptyGoalStack@@YAXH@Z 20251fb0 f   g_syscalls.obj
 0002:00101010       ?trap_BotDumpAvoidGoals@@YAXH@Z 20252010 f   g_syscalls.obj
 0002:00101070       ?trap_BotDumpGoalStack@@YAXH@Z 20252070 f   g_syscalls.obj
 0002:001010d0       ?trap_BotGoalName@@YAXHPADH@Z 202520d0 f   g_syscalls.obj
 0002:00101140       ?trap_BotGetTopGoal@@YAHHPAX@Z 20252140 f   g_syscalls.obj
 0002:001011b0       ?trap_BotGetSecondGoal@@YAHHPAX@Z 202521b0 f   g_syscalls.obj
 0002:00101220       ?trap_BotChooseLTGItem@@YAHHQAMPAHH@Z 20252220 f   g_syscalls.obj
 0002:00101290       ?trap_BotChooseNBGItem@@YAHHQAMPAHHPAXM@Z 20252290 f   g_syscalls.obj
 0002:00101320       ?trap_BotTouchingGoal@@YAHQAMPAX@Z 20252320 f   g_syscalls.obj
 0002:00101390       ?trap_BotItemGoalInVisButNotVisible@@YAHHQAM0PAX@Z 20252390 f   g_syscalls.obj
 0002:00101400       ?trap_BotGetLevelItemGoal@@YAHHPADPAX@Z 20252400 f   g_syscalls.obj
 0002:00101470       ?trap_BotGetNextCampSpotGoal@@YAHHPAX@Z 20252470 f   g_syscalls.obj
 0002:001014e0       ?trap_BotGetMapLocationGoal@@YAHPADPAX@Z 202524e0 f   g_syscalls.obj
 0002:00101550       ?trap_BotAvoidGoalTime@@YAMHH@Z 20252550 f   g_syscalls.obj
 0002:001015c0       ?trap_BotSetAvoidGoalTime@@YAXHHM@Z 202525c0 f   g_syscalls.obj
 0002:00101640       ?trap_BotInitLevelItems@@YAXXZ 20252640 f   g_syscalls.obj
 0002:001016a0       ?trap_BotUpdateEntityItems@@YAXXZ 202526a0 f   g_syscalls.obj
 0002:00101700       ?trap_BotLoadItemWeights@@YAHHPAD@Z 20252700 f   g_syscalls.obj
 0002:00101770       ?trap_BotFreeItemWeights@@YAXH@Z 20252770 f   g_syscalls.obj
 0002:001017d0       ?trap_BotInterbreedGoalFuzzyLogic@@YAXHHH@Z 202527d0 f   g_syscalls.obj
 0002:00101840       ?trap_BotSaveGoalFuzzyLogic@@YAXHPAD@Z 20252840 f   g_syscalls.obj
 0002:001018b0       ?trap_BotMutateGoalFuzzyLogic@@YAXHM@Z 202528b0 f   g_syscalls.obj
 0002:00101920       ?trap_BotAllocGoalState@@YAHH@Z 20252920 f   g_syscalls.obj
 0002:00101980       ?trap_BotFreeGoalState@@YAXH@Z 20252980 f   g_syscalls.obj
 0002:001019e0       ?trap_BotResetMoveState@@YAXH@Z 202529e0 f   g_syscalls.obj
 0002:00101a40       ?trap_BotAddAvoidSpot@@YAXHQAMMH@Z 20252a40 f   g_syscalls.obj
 0002:00101ac0       ?trap_BotMoveToGoal@@YAXPAXH0H@Z 20252ac0 f   g_syscalls.obj
 0002:00101b30       ?trap_BotMoveInDirection@@YAHHQAMMH@Z 20252b30 f   g_syscalls.obj
 0002:00101bb0       ?trap_BotResetAvoidReach@@YAXH@Z 20252bb0 f   g_syscalls.obj
 0002:00101c10       ?trap_BotResetLastAvoidReach@@YAXH@Z 20252c10 f   g_syscalls.obj
 0002:00101c70       ?trap_BotReachabilityArea@@YAHQAMH@Z 20252c70 f   g_syscalls.obj
 0002:00101ce0       ?trap_BotMovementViewTarget@@YAHHPAXHMQAM@Z 20252ce0 f   g_syscalls.obj
 0002:00101d70       ?trap_BotPredictVisiblePosition@@YAHQAMHPAXH0@Z 20252d70 f   g_syscalls.obj
 0002:00101df0       ?trap_BotAllocMoveState@@YAHXZ 20252df0 f   g_syscalls.obj
 0002:00101e50       ?trap_BotFreeMoveState@@YAXH@Z 20252e50 f   g_syscalls.obj
 0002:00101eb0       ?trap_BotInitMoveState@@YAXHPAX@Z 20252eb0 f   g_syscalls.obj
 0002:00101f20       ?trap_BotChooseBestFightWeapon@@YAHHPAH@Z 20252f20 f   g_syscalls.obj
 0002:00101f90       ?trap_BotGetWeaponInfo@@YAXHHPAX@Z 20252f90 f   g_syscalls.obj
 0002:00102000       ?trap_BotLoadWeaponWeights@@YAHHPAD@Z 20253000 f   g_syscalls.obj
 0002:00102070       ?trap_BotAllocWeaponState@@YAHXZ 20253070 f   g_syscalls.obj
 0002:001020d0       ?trap_BotFreeWeaponState@@YAXH@Z 202530d0 f   g_syscalls.obj
 0002:00102130       ?trap_BotResetWeaponState@@YAXH@Z 20253130 f   g_syscalls.obj
 0002:00102190       ?trap_GeneticParentsAndChildSelection@@YAHHPAMPAH11@Z 20253190 f   g_syscalls.obj
 0002:00102210       ?trap_PC_LoadSource@@YAHPBD@Z 20253210 f   g_syscalls.obj
 0002:00102270       ?trap_PC_FreeSource@@YAHH@Z 20253270 f   g_syscalls.obj
 0002:001022d0       ?trap_PC_ReadToken@@YAHHPAUpc_token_s@@@Z 202532d0 f   g_syscalls.obj
 0002:00102340       ?trap_PC_SourceFileAndLine@@YAHHPADPAH@Z 20253340 f   g_syscalls.obj
 0002:001023b0       ?trap_R_RegisterSkin@@YAHPBD@Z 202533b0 f   g_syscalls.obj
 0002:00102410       ?trap_G2_ListModelBones@@YAXPAXH@Z 20253410 f   g_syscalls.obj
 0002:00102480       ?trap_G2_ListModelSurfaces@@YAXPAX@Z 20253480 f   g_syscalls.obj
 0002:001024e0       ?trap_G2_HaveWeGhoul2Models@@YA?AW4qboolean@@PAX@Z 202534e0 f   g_syscalls.obj
 0002:00102540       ?trap_G2_SetGhoul2ModelIndexes@@YAXPAXPAH1@Z 20253540 f   g_syscalls.obj
 0002:001025b0       ?trap_G2API_GetBoltMatrix@@YA?AW4qboolean@@PAXHHPAUmdxaBone_t@@QBM2HPAHQAM@Z 202535b0 f   g_syscalls.obj
 0002:00102640       ?trap_G2API_GetBoltMatrix_NoReconstruct@@YA?AW4qboolean@@PAXHHPAUmdxaBone_t@@QBM2HPAHQAM@Z 20253640 f   g_syscalls.obj
 0002:001026d0       ?trap_G2API_GetBoltMatrix_NoRecNoRot@@YA?AW4qboolean@@PAXHHPAUmdxaBone_t@@QBM2HPAHQAM@Z 202536d0 f   g_syscalls.obj
 0002:00102760       ?trap_G2API_InitGhoul2Model@@YAHPAPAXPBDHHHHH@Z 20253760 f   g_syscalls.obj
 0002:001027e0       ?trap_G2API_SetSkin@@YA?AW4qboolean@@PAXHHH@Z 202537e0 f   g_syscalls.obj
 0002:00102850       ?trap_G2API_Ghoul2Size@@YAHPAX@Z 20253850 f   g_syscalls.obj
 0002:001028b0       ?trap_G2API_AddBolt@@YAHPAXHPBD@Z 202538b0 f   g_syscalls.obj
 0002:00102920       ?trap_G2API_SetBoltInfo@@YAXPAXHH@Z 20253920 f   g_syscalls.obj
 0002:00102990       ?trap_G2API_SetBoneAngles@@YA?AW4qboolean@@PAXHPBDQBMHHHHPAHHH@Z 20253990 f   g_syscalls.obj
 0002:00102a30       ?trap_G2API_SetBoneAnim@@YA?AW4qboolean@@PAXHPBDHHHMHMH@Z 20253a30 f   g_syscalls.obj
 0002:00102ae0       ?trap_G2API_GetBoneAnim@@YA?AW4qboolean@@PAXPBDHPAMPAH3323H@Z 20253ae0 f   g_syscalls.obj
 0002:00102b70       ?trap_G2API_GetGLAName@@YAXPAXHPAD@Z 20253b70 f   g_syscalls.obj
 0002:00102be0       ?trap_G2API_CopyGhoul2Instance@@YAHPAX0H@Z 20253be0 f   g_syscalls.obj
 0002:00102c50       ?trap_G2API_CopySpecificGhoul2Model@@YAXPAXH0H@Z 20253c50 f   g_syscalls.obj
 0002:00102cc0       ?trap_G2API_DuplicateGhoul2Instance@@YAXPAXPAPAX@Z 20253cc0 f   g_syscalls.obj
 0002:00102d30       ?trap_G2API_HasGhoul2ModelOnIndex@@YA?AW4qboolean@@PAXH@Z 20253d30 f   g_syscalls.obj
 0002:00102da0       ?trap_G2API_RemoveGhoul2Model@@YA?AW4qboolean@@PAXH@Z 20253da0 f   g_syscalls.obj
 0002:00102e10       ?trap_G2API_RemoveGhoul2Models@@YA?AW4qboolean@@PAX@Z 20253e10 f   g_syscalls.obj
 0002:00102e70       ?trap_G2API_CleanGhoul2Models@@YAXPAPAX@Z 20253e70 f   g_syscalls.obj
 0002:00102ed0       ?trap_G2API_CollisionDetect@@YAXPAUCollisionRecord_t@@PAXQBM2HHQAM33HHM@Z 20253ed0 f   g_syscalls.obj
 0002:00102f80       ?trap_G2API_CollisionDetectCache@@YAXPAUCollisionRecord_t@@PAXQBM2HHQAM33HHM@Z 20253f80 f   g_syscalls.obj
 0002:00103030       ?trap_G2API_GetSurfaceName@@YAXPAXHHPAD@Z 20254030 f   g_syscalls.obj
 0002:001030a0       ?trap_G2API_SetRootSurface@@YA?AW4qboolean@@PAXHPBD@Z 202540a0 f   g_syscalls.obj
 0002:00103110       ?trap_G2API_SetSurfaceOnOff@@YA?AW4qboolean@@PAXPBDH@Z 20254110 f   g_syscalls.obj
 0002:00103180       ?trap_G2API_SetNewOrigin@@YA?AW4qboolean@@PAXH@Z 20254180 f   g_syscalls.obj
 0002:001031f0       ?trap_G2API_DoesBoneExist@@YA?AW4qboolean@@PAXHPBD@Z 202541f0 f   g_syscalls.obj
 0002:00103260       ?trap_G2API_GetSurfaceRenderStatus@@YAHPAXHPBD@Z 20254260 f   g_syscalls.obj
 0002:001032d0       ?trap_G2API_AbsurdSmoothing@@YAXPAXW4qboolean@@@Z 202542d0 f   g_syscalls.obj
 0002:00103340       ?trap_G2API_SetRagDoll@@YAXPAXPAUsharedRagDollParams_t@@@Z 20254340 f   g_syscalls.obj
 0002:001033b0       ?trap_G2API_AnimateG2Models@@YAXPAXHPAUsharedRagDollUpdateParams_t@@@Z 202543b0 f   g_syscalls.obj
 0002:00103420       ?trap_G2API_RagPCJConstraint@@YA?AW4qboolean@@PAXPBDQAM2@Z 20254420 f   g_syscalls.obj
 0002:00103490       ?trap_G2API_RagPCJGradientSpeed@@YA?AW4qboolean@@PAXPBDM@Z 20254490 f   g_syscalls.obj
 0002:00103510       ?trap_G2API_RagEffectorGoal@@YA?AW4qboolean@@PAXPBDQAM@Z 20254510 f   g_syscalls.obj
 0002:00103580       ?trap_G2API_GetRagBonePos@@YA?AW4qboolean@@PAXPBDQAM222@Z 20254580 f   g_syscalls.obj
 0002:00103600       ?trap_G2API_RagEffectorKick@@YA?AW4qboolean@@PAXPBDQAM@Z 20254600 f   g_syscalls.obj
 0002:00103670       ?trap_G2API_RagForceSolve@@YA?AW4qboolean@@PAXW41@@Z 20254670 f   g_syscalls.obj
 0002:001036e0       ?trap_G2API_SetBoneIKState@@YA?AW4qboolean@@PAXHPBDHPAUsharedSetBoneIKStateParams_t@@@Z 202546e0 f   g_syscalls.obj
 0002:00103760       ?trap_G2API_IKMove@@YA?AW4qboolean@@PAXHPAUsharedIKMoveParams_t@@@Z 20254760 f   g_syscalls.obj
 0002:001037d0       ?trap_G2API_RemoveBone@@YA?AW4qboolean@@PAXPBDH@Z 202547d0 f   g_syscalls.obj
 0002:00103840       ?trap_G2API_AttachInstanceToEntNum@@YAXPAXHW4qboolean@@@Z 20254840 f   g_syscalls.obj
 0002:001038b0       ?trap_G2API_ClearAttachedInstance@@YAXH@Z 202548b0 f   g_syscalls.obj
 0002:00103910       ?trap_G2API_CleanEntAttachments@@YAXXZ 20254910 f   g_syscalls.obj
 0002:00103970       ?trap_G2API_OverrideServer@@YA?AW4qboolean@@PAX@Z 20254970 f   g_syscalls.obj
 0002:001039d0       ?trap_SetActiveSubBSP@@YAXH@Z 202549d0 f   g_syscalls.obj
 0002:00103a30       ?trap_CM_RegisterTerrain@@YAHPBD@Z 20254a30 f   g_syscalls.obj
 0002:00103a90       ?trap_RMG_Init@@YAXH@Z     20254a90 f   g_syscalls.obj
 0002:00103af0       ?trap_Bot_UpdateWaypoints@@YAXHPAPAUwpobject_s@@@Z 20254af0 f   g_syscalls.obj
 0002:00103b60       ?trap_Bot_CalculatePaths@@YAXH@Z 20254b60 f   g_syscalls.obj
 0002:00103bc0       ?Use_Target_Give@@YAXPAUgentity_s@@00@Z 20254bc0 f   g_target.obj
 0002:00103d10       ?SP_target_give@@YAXPAUgentity_s@@@Z 20254d10 f   g_target.obj
 0002:00103d50       ?Use_target_remove_powerups@@YAXPAUgentity_s@@00@Z 20254d50 f   g_target.obj
 0002:00103e40       ?SP_target_remove_powerups@@YAXPAUgentity_s@@@Z 20254e40 f   g_target.obj
 0002:00103e80       ?Think_Target_Delay@@YAXPAUgentity_s@@@Z 20254e80 f   g_target.obj
 0002:00103ee0       ?Use_Target_Delay@@YAXPAUgentity_s@@00@Z 20254ee0 f   g_target.obj
 0002:00104020       ?SP_target_delay@@YAXPAUgentity_s@@@Z 20255020 f   g_target.obj
 0002:001040e0       ?Use_Target_Score@@YAXPAUgentity_s@@00@Z 202550e0 f   g_target.obj
 0002:00104150       ?SP_target_score@@YAXPAUgentity_s@@@Z 20255150 f   g_target.obj
 0002:001041b0       ?Use_Target_Print@@YAXPAUgentity_s@@00@Z 202551b0 f   g_target.obj
 0002:00104710       ?SP_target_print@@YAXPAUgentity_s@@@Z 20255710 f   g_target.obj
 0002:00104750       ?Use_Target_Speaker@@YAXPAUgentity_s@@00@Z 20255750 f   g_target.obj
 0002:001048b0       ?SP_target_speaker@@YAXPAUgentity_s@@@Z 202558b0 f   g_target.obj
 0002:00104be0       ?target_laser_think@@YAXPAUgentity_s@@@Z 20255be0 f   g_target.obj
 0002:00104f40       ?target_laser_on@@YAXPAUgentity_s@@@Z 20255f40 f   g_target.obj
 0002:00104fb0       ?target_laser_off@@YAXPAUgentity_s@@@Z 20255fb0 f   g_target.obj
 0002:00105010       ?target_laser_use@@YAXPAUgentity_s@@00@Z 20256010 f   g_target.obj
 0002:00105090       ?target_laser_start@@YAXPAUgentity_s@@@Z 20256090 f   g_target.obj
 0002:00105200       ?SP_target_laser@@YAXPAUgentity_s@@@Z 20256200 f   g_target.obj
 0002:00105260       ?target_teleporter_use@@YAXPAUgentity_s@@00@Z 20256260 f   g_target.obj
 0002:00105320       ?SP_target_teleporter@@YAXPAUgentity_s@@@Z 20256320 f   g_target.obj
 0002:001053b0       ?target_relay_use@@YAXPAUgentity_s@@00@Z 202563b0 f   g_target.obj
 0002:00105580       ?SP_target_relay@@YAXPAUgentity_s@@@Z 20256580 f   g_target.obj
 0002:00105600       ?target_kill_use@@YAXPAUgentity_s@@00@Z 20256600 f   g_target.obj
 0002:00105680       ?SP_target_kill@@YAXPAUgentity_s@@@Z 20256680 f   g_target.obj
 0002:001056c0       ?SP_target_position@@YAXPAUgentity_s@@@Z 202566c0 f   g_target.obj
 0002:00105720       ?SP_target_location@@YAXPAUgentity_s@@@Z 20256720 f   g_target.obj
 0002:00105900       ?target_counter_use@@YAXPAUgentity_s@@00@Z 20256900 f   g_target.obj
 0002:00105ae0       ?SP_target_counter@@YAXPAUgentity_s@@@Z 20256ae0 f   g_target.obj
 0002:00105b70       ?target_random_use@@YAXPAUgentity_s@@00@Z 20256b70 f   g_target.obj
 0002:00105d40       ?SP_target_random@@YAXPAUgentity_s@@@Z 20256d40 f   g_target.obj
 0002:00105d80       ?scriptrunner_run@@YAXPAUgentity_s@@@Z 20256d80 f   g_target.obj
 0002:001060e0       ?target_scriptrunner_use@@YAXPAUgentity_s@@00@Z 202570e0 f   g_target.obj
 0002:001061b0       ?SP_target_scriptrunner@@YAXPAUgentity_s@@@Z 202571b0 f   g_target.obj
 0002:00106300       ?G_SetActiveState@@YAXPADW4qboolean@@@Z 20257300 f   g_target.obj
 0002:001063c0       ?target_activate_use@@YAXPAUgentity_s@@00@Z 202573c0 f   g_target.obj
 0002:00106430       ?target_deactivate_use@@YAXPAUgentity_s@@00@Z 20257430 f   g_target.obj
 0002:001064a0       ?SP_target_activate@@YAXPAUgentity_s@@@Z 202574a0 f   g_target.obj
 0002:00106510       ?SP_target_deactivate@@YAXPAUgentity_s@@@Z 20257510 f   g_target.obj
 0002:00106580       ?target_level_change_use@@YAXPAUgentity_s@@00@Z 20257580 f   g_target.obj
 0002:00106730       ?SP_target_level_change@@YAXPAUgentity_s@@@Z 20257730 f   g_target.obj
 0002:00106940       ?target_play_music_use@@YAXPAUgentity_s@@00@Z 20257940 f   g_target.obj
 0002:001069b0       ?SP_target_play_music@@YAXPAUgentity_s@@@Z 202579b0 f   g_target.obj
 0002:00106ab0       ?Use_Secret@@YAXPAUgentity_s@@00@Z 20257ab0 f   g_target.obj
 0002:00106c30       ?SP_target_secret@@YAXPAUgentity_s@@@Z 20257c30 f   g_target.obj
 0002:00106cb0       ?CheckforGoodSpawnPoint@@YA?AW4qboolean@@QAMW41@@Z 20257cb0 f   g_target.obj
 0002:00106ee0       ?Use_Autosave@@YAXPAUgentity_s@@00@Z 20257ee0 f   g_target.obj
 0002:00107390       ?SP_target_autosave@@YAXPAUgentity_s@@@Z 20258390 f   g_target.obj
 0002:001073e0       ?Team_InitGame@@YAXXZ      202583e0 f   g_team.obj
 0002:001074a0       ?OtherTeam@@YAHH@Z         202584a0 f   g_team.obj
 0002:00107500       ?TeamName@@YAPBDH@Z        20258500 f   g_team.obj
 0002:00107570       ?OtherTeamName@@YAPBDH@Z   20258570 f   g_team.obj
 0002:001075e0       ?TeamColorString@@YAPBDH@Z 202585e0 f   g_team.obj
 0002:00107650       ?PrintCTFMessage@@YAXHHH@Z 20258650 f   g_team.obj
 0002:00107750       ?AddTeamScore@@YAXQAMHH@Z  20258750 f   g_team.obj
 0002:001078c0       ?OnSameTeam@@YA?AW4qboolean@@PAUgentity_s@@0@Z 202588c0 f   g_team.obj
 0002:00107b40       ?Team_SetFlagStatus@@YAXHH@Z 20258b40 f   g_team.obj
 0002:00107cb0       ?Team_CheckDroppedItem@@YAXPAUgentity_s@@@Z 20258cb0 f   g_team.obj
 0002:00107d60       ?Team_ForceGesture@@YAXH@Z 20258d60 f   g_team.obj
 0002:00107e20       ?Team_FragBonuses@@YAXPAUgentity_s@@00@Z 20258e20 f   g_team.obj
 0002:001089b0       ?Team_CheckHurtCarrier@@YAXPAUgentity_s@@0@Z 202599b0 f   g_team.obj
 0002:00108af0       ?Team_ResetFlag@@YAPAUgentity_s@@H@Z 20259af0 f   g_team.obj
 0002:00108c10       ?Team_ResetFlags@@YAXXZ    20259c10 f   g_team.obj
 0002:00108c80       ?Team_ReturnFlagSound@@YAXPAUgentity_s@@H@Z 20259c80 f   g_team.obj
 0002:00108d40       ?Team_TakeFlagSound@@YAXPAUgentity_s@@H@Z 20259d40 f   g_team.obj
 0002:00108e90       ?Team_CaptureFlagSound@@YAXPAUgentity_s@@H@Z 20259e90 f   g_team.obj
 0002:00108f50       ?Team_ReturnFlag@@YAXH@Z   20259f50 f   g_team.obj
 0002:00108fd0       ?Team_FreeEntity@@YAXPAUgentity_s@@@Z 20259fd0 f   g_team.obj
 0002:00109080       ?Team_DroppedFlagThink@@YAXPAUgentity_s@@@Z 2025a080 f   g_team.obj
 0002:00109140       ?Team_TouchOurFlag@@YAHPAUgentity_s@@0H@Z 2025a140 f   g_team.obj
 0002:00109630       ?Team_TouchEnemyFlag@@YAHPAUgentity_s@@0H@Z 2025a630 f   g_team.obj
 0002:00109720       ?Pickup_Team@@YAHPAUgentity_s@@0@Z 2025a720 f   g_team.obj
 0002:00109840       ?Team_GetLocation@@YAPAUgentity_s@@PAU1@@Z 2025a840 f   g_team.obj
 0002:00109a00       ?Team_GetLocationMsg@@YA?AW4qboolean@@PAUgentity_s@@PADH@Z 2025aa00 f   g_team.obj
 0002:00109b20       ?SelectRandomTeamSpawnPoint@@YAPAUgentity_s@@HHH@Z 2025ab20 f   g_team.obj
 0002:00109ec0       ?SelectCTFSpawnPoint@@YAPAUgentity_s@@HHQAM0@Z 2025aec0 f   g_team.obj
 0002:00109fc0       ?PointWouldTelefrag@@YA?AW4qboolean@@QAM@Z 2025afc0 f   g_team.obj
 0002:0010a1a0       ?SPSpawnpointCheck@@YA?AW4qboolean@@QAM@Z 2025b1a0 f   g_team.obj
 0002:0010a3e0       ?SelectSPSpawnPoint@@YAPAUgentity_s@@QAM0@Z 2025b3e0 f   g_team.obj
 0002:0010a620       ?SelectSiegeSpawnPoint@@YAPAUgentity_s@@HHHQAM0@Z 2025b620 f   g_team.obj
 0002:0010a720       ?TeamplayInfoMessage@@YAXPAUgentity_s@@@Z 2025b720 f   g_team.obj
 0002:0010ad70       ?CheckTeamStatus@@YAXXZ    2025bd70 f   g_team.obj
 0002:0010af90       ?SP_team_CTF_redplayer@@YAXPAUgentity_s@@@Z 2025bf90 f   g_team.obj
 0002:0010afc0       ?SP_team_CTF_blueplayer@@YAXPAUgentity_s@@@Z 2025bfc0 f   g_team.obj
 0002:0010aff0       ?SP_team_CTF_redspawn@@YAXPAUgentity_s@@@Z 2025bff0 f   g_team.obj
 0002:0010b020       ?SP_team_CTF_bluespawn@@YAXPAUgentity_s@@@Z 2025c020 f   g_team.obj
 0002:0010b050       ?OJP_PointSpread@@YAHXZ    2025c050 f   g_team.obj
 0002:0010b0d0       ?TIMER_Clear@@YAXXZ        2025c0d0 f   g_timer.obj
 0002:0010b1a0       ?TIMER_Clear2@@YAXPAUgentity_s@@@Z 2025c1a0 f   g_timer.obj
 0002:0010b260       ?TIMER_GetNew@@YAPAUgtimer_s@@HPBD@Z 2025c260 f   g_timer.obj
 0002:0010b340       ?TIMER_GetExisting@@YAPAUgtimer_s@@HPBD@Z 2025c340 f   g_timer.obj
 0002:0010b3d0       ?TIMER_Set@@YAXPAUgentity_s@@PBDH@Z 2025c3d0 f   g_timer.obj
 0002:0010b450       ?TIMER_Get@@YAHPAUgentity_s@@PBD@Z 2025c450 f   g_timer.obj
 0002:0010b4c0       ?TIMER_Done@@YA?AW4qboolean@@PAUgentity_s@@PBD@Z 2025c4c0 f   g_timer.obj
 0002:0010b540       ?TIMER_RemoveHelper@@YAXHPAUgtimer_s@@@Z 2025c540 f   g_timer.obj
 0002:0010b610       ?TIMER_Done2@@YA?AW4qboolean@@PAUgentity_s@@PBDW41@@Z 2025c610 f   g_timer.obj
 0002:0010b6c0       ?TIMER_Exists@@YA?AW4qboolean@@PAUgentity_s@@PBD@Z 2025c6c0 f   g_timer.obj
 0002:0010b730       ?TIMER_Remove@@YAXPAUgentity_s@@PBD@Z 2025c730 f   g_timer.obj
 0002:0010b7b0       ?TIMER_Start@@YA?AW4qboolean@@PAUgentity_s@@PBDH@Z 2025c7b0 f   g_timer.obj
 0002:0010b830       ?InitTrigger@@YAXPAUgentity_s@@@Z 2025c830 f   g_trigger.obj
 0002:0010b9c0       ?multi_wait@@YAXPAUgentity_s@@@Z 2025c9c0 f   g_trigger.obj
 0002:0010ba00       ?multi_trigger_run@@YAXPAUgentity_s@@@Z 2025ca00 f   g_trigger.obj
 0002:0010bdc0       ?G_NameInTriggerClassList@@YA?AW4qboolean@@PAD0@Z 2025cdc0 f   g_trigger.obj
 0002:0010bf60       ?multi_trigger@@YAXPAUgentity_s@@0@Z 2025cf60 f   g_trigger.obj
 0002:0010c710       ?Use_Multi@@YAXPAUgentity_s@@00@Z 2025d710 f   g_trigger.obj
 0002:0010c770       ?Touch_Multi@@YAXPAUgentity_s@@0PAUtrace_t@@@Z 2025d770 f   g_trigger.obj
 0002:0010cf10       ?trigger_cleared_fire@@YAXPAUgentity_s@@@Z 2025df10 f   g_trigger.obj
 0002:0010d040       ?SP_trigger_multiple@@YAXPAUgentity_s@@@Z 2025e040 f   g_trigger.obj
 0002:0010d330       ?SP_trigger_once@@YAXPAUgentity_s@@@Z 2025e330 f   g_trigger.obj
 0002:0010d530       ?Do_Strike@@YAXPAUgentity_s@@@Z 2025e530 f   g_trigger.obj
 0002:0010d820       ?Think_Strike@@YAXPAUgentity_s@@@Z 2025e820 f   g_trigger.obj
 0002:0010d8e0       ?Use_Strike@@YAXPAUgentity_s@@00@Z 2025e8e0 f   g_trigger.obj
 0002:0010d950       ?SP_trigger_lightningstrike@@YAXPAUgentity_s@@@Z 2025e950 f   g_trigger.obj
 0002:0010db10       ?trigger_always_think@@YAXPAUgentity_s@@@Z 2025eb10 f   g_trigger.obj
 0002:0010db80       ?SP_trigger_always@@YAXPAUgentity_s@@@Z 2025eb80 f   g_trigger.obj
 0002:0010dbe0       ?trigger_push_touch@@YAXPAUgentity_s@@0PAUtrace_t@@@Z 2025ebe0 f   g_trigger.obj
 0002:0010e100       ?AimAtTarget@@YAXPAUgentity_s@@@Z 2025f100 f   g_trigger.obj
 0002:0010e5a0       ?SP_trigger_push@@YAXPAUgentity_s@@@Z 2025f5a0 f   g_trigger.obj
 0002:0010e6a0       ?Use_target_push@@YAXPAUgentity_s@@00@Z 2025f6a0 f   g_trigger.obj
 0002:0010e7d0       ?SP_target_push@@YAXPAUgentity_s@@@Z 2025f7d0 f   g_trigger.obj
 0002:0010e9b0       ?trigger_teleporter_touch@@YAXPAUgentity_s@@0PAUtrace_t@@@Z 2025f9b0 f   g_trigger.obj
 0002:0010eab0       ?SP_trigger_teleport@@YAXPAUgentity_s@@@Z 2025fab0 f   g_trigger.obj
 0002:0010eb90       ?hurt_use@@YAXPAUgentity_s@@00@Z 2025fb90 f   g_trigger.obj
 0002:0010ec60       ?hurt_touch@@YAXPAUgentity_s@@0PAUtrace_t@@@Z 2025fc60 f   g_trigger.obj
 0002:0010f1e0       ?SP_trigger_hurt@@YAXPAUgentity_s@@@Z 202601e0 f   g_trigger.obj
 0002:0010f310       ?space_touch@@YAXPAUgentity_s@@0PAUtrace_t@@@Z 20260310 f   g_trigger.obj
 0002:0010f510       ?SP_trigger_space@@YAXPAUgentity_s@@@Z 20260510 f   g_trigger.obj
 0002:0010f590       ?shipboundary_touch@@YAXPAUgentity_s@@0PAUtrace_t@@@Z 20260590 f   g_trigger.obj
 0002:0010f780       ?shipboundary_think@@YAXPAUgentity_s@@@Z 20260780 f   g_trigger.obj
 0002:0010f9b0       ?SP_trigger_shipboundary@@YAXPAUgentity_s@@@Z 202609b0 f   g_trigger.obj
 0002:0010fad0       ?hyperspace_touch@@YAXPAUgentity_s@@0PAUtrace_t@@@Z 20260ad0 f   g_trigger.obj
 0002:001101d0       ?SP_trigger_hyperspace@@YAXPAUgentity_s@@@Z 202611d0 f   g_trigger.obj
 0002:00110480       ?func_timer_think@@YAXPAUgentity_s@@@Z 20261480 f   g_trigger.obj
 0002:00110570       ?func_timer_use@@YAXPAUgentity_s@@00@Z 20261570 f   g_trigger.obj
 0002:00110600       ?SP_func_timer@@YAXPAUgentity_s@@@Z 20261600 f   g_trigger.obj
 0002:00110750       ?asteroid_pick_random_asteroid@@YAPAUgentity_s@@PAU1@@Z 20261750 f   g_trigger.obj
 0002:00110880       ?asteroid_count_num_asteroids@@YAHPAUgentity_s@@@Z 20261880 f   g_trigger.obj
 0002:00110920       ?asteroid_move_to_start2@@YAXPAUgentity_s@@0@Z 20261920 f   g_trigger.obj
 0002:00110dc0       ?asteroid_move_to_start@@YAXPAUgentity_s@@@Z 20261dc0 f   g_trigger.obj
 0002:00110e30       ?asteroid_field_think@@YAXPAUgentity_s@@@Z 20261e30 f   g_trigger.obj
 0002:001110b0       ?SP_trigger_asteroid_field@@YAXPAUgentity_s@@@Z 202620b0 f   g_trigger.obj
 0002:001111b0       ?trigger_visible_think@@YAXPAUgentity_s@@@Z 202621b0 f   g_trigger.obj
 0002:00111410       ?SP_trigger_visible@@YAXPAUgentity_s@@@Z 20262410 f   g_trigger.obj
 0002:001114e0       ?SP_trigger_location@@YAXPAUgentity_s@@@Z 202624e0 f   g_trigger.obj
 0002:00111540       ?TurretPain@@YAXPAUgentity_s@@0H@Z 20262540 f   g_turret.obj
 0002:001116a0       ?TurretBasePain@@YAXPAUgentity_s@@0H@Z 202626a0 f   g_turret.obj
 0002:00111760       ?auto_turret_die@@YAXPAUgentity_s@@00HH@Z 20262760 f   g_turret.obj
 0002:00111ad0       ?bottom_die@@YAXPAUgentity_s@@00HH@Z 20262ad0 f   g_turret.obj
 0002:00111bb0       ?turret_head_think@@YAXPAUgentity_s@@@Z 20262bb0 f   g_turret.obj
 0002:00112310       ?turret_base_think@@YAXPAUgentity_s@@@Z 20263310 f   g_turret.obj
 0002:00113810       ?turret_base_use@@YAXPAUgentity_s@@00@Z 20264810 f   g_turret.obj
 0002:00113860       ?SP_misc_turret@@YAXPAUgentity_s@@@Z 20264860 f   g_turret.obj
 0002:00113ac0       ?turret_base_spawn_top@@YA?AW4qboolean@@PAUgentity_s@@@Z 20264ac0 f   g_turret.obj
 0002:001141e0       ?G2Tur_SetBoneAngles@@YAXPAUgentity_s@@PADQAM@Z 202651e0 f   g_turret_G2.obj
 0002:00114470       ?turretG2_set_models@@YAXPAUgentity_s@@W4qboolean@@@Z 20265470 f   g_turret_G2.obj
 0002:00114710       ?TurretG2Pain@@YAXPAUgentity_s@@0H@Z 20265710 f   g_turret_G2.obj
 0002:00114890       ?turretG2_die@@YAXPAUgentity_s@@00HH@Z 20265890 f   g_turret_G2.obj
 0002:00114c50       ?TurboLaser_SetBoneAnim@@YAXPAUgentity_s@@HH@Z 20265c50 f   g_turret_G2.obj
 0002:00114d90       ?turretG2_respawn@@YAXPAUgentity_s@@@Z 20265d90 f   g_turret_G2.obj
 0002:00114ec0       ?turretG2_head_think@@YAXPAUgentity_s@@@Z 20265ec0 f   g_turret_G2.obj
 0002:00115970       ?turretG2_base_think@@YAXPAUgentity_s@@@Z 20266970 f   g_turret_G2.obj
 0002:00117150       ?turretG2_base_use@@YAXPAUgentity_s@@00@Z 20268150 f   g_turret_G2.obj
 0002:001171e0       ?SP_misc_turretG2@@YAXPAUgentity_s@@@Z 202681e0 f   g_turret_G2.obj
 0002:00117440       ?finish_spawning_turretG2@@YAXPAUgentity_s@@@Z 20268440 f   g_turret_G2.obj
 0002:00117d50       ?AddRemap@@YAXPBD0M@Z      20268d50 f   g_utils.obj
 0002:00117ea0       ?BuildShaderStateConfig@@YAPBDXZ 20268ea0 f   g_utils.obj
 0002:00118020       ?G_BoneIndex@@YAHPBD@Z     20269020 f   g_utils.obj
 0002:001181e0       ?G_ModelIndex@@YAHPBD@Z    202691e0 f   g_utils.obj
 0002:00118240       ?G_IconIndex@@YAHPBD@Z     20269240 f   g_utils.obj
 0002:001182d0       ?G_SoundIndex@@YAHPBD@Z    202692d0 f   g_utils.obj
 0002:00118370       ?G_SoundSetIndex@@YAHPBD@Z 20269370 f   g_utils.obj
 0002:001183d0       ?G_EffectIndex@@YAHPBD@Z   202693d0 f   g_utils.obj
 0002:00118430       ?G_BSPIndex@@YAHPBD@Z      20269430 f   g_utils.obj
 0002:00118490       ?G_PlayerHasCustomSkeleton@@YA?AW4qboolean@@PAUgentity_s@@@Z 20269490 f   g_utils.obj
 0002:001184c0       ?G_TeamCommand@@YAXHPAD@Z  202694c0 f   g_utils.obj
 0002:00118590       ?G_Find@@YAPAUgentity_s@@PAU1@HPBD@Z 20269590 f   g_utils.obj
 0002:00118670       ?G_RadiusList@@YAHQAMMPAUgentity_s@@W4qboolean@@QAPAU1@@Z 20269670 f   g_utils.obj
 0002:00118aa0       ?G_Throw@@YAXPAUgentity_s@@QAMM@Z 20269aa0 f   g_utils.obj
 0002:00118ec0       ?G_FreeFakeClient@@YAXPAPAUgclient_s@@@Z 20269ec0 f   g_utils.obj
 0002:00118ef0       ?G_AllocateVehicleObject@@YAXPAPAUVehicle_s@@@Z 20269ef0 f   g_utils.obj
 0002:00119000       ?G_FreeVehicleObject@@YAXPAUVehicle_s@@@Z 2026a000 f   g_utils.obj
 0002:00119090       ?G_CreateFakeClient@@YAXHPAPAUgclient_s@@@Z 2026a090 f   g_utils.obj
 0002:00119110       ?G_CleanAllFakeClients@@YAXXZ 2026a110 f   g_utils.obj
 0002:001191d0       ?G_SetAnim@@YAXPAUgentity_s@@PAUusercmd_s@@HHHH@Z 2026a1d0 f   g_utils.obj
 0002:00119290       ?G_PickTarget@@YAPAUgentity_s@@PAD@Z 2026a290 f   g_utils.obj
 0002:001193d0       ?GlobalUse@@YAXPAUgentity_s@@00@Z 2026a3d0 f   g_utils.obj
 0002:00119470       ?G_UseTargets2@@YAXPAUgentity_s@@0PBD@Z 2026a470 f   g_utils.obj
 0002:001195e0       ?G_UseTargets@@YAXPAUgentity_s@@0@Z 2026a5e0 f   g_utils.obj
 0002:00119650       ?tv@@YAPAMMMM@Z            2026a650 f   g_utils.obj
 0002:001196d0       ?vtos@@YAPADQBM@Z          2026a6d0 f   g_utils.obj
 0002:00119780       ?G_SetMovedir@@YAXQAM0@Z   2026a780 f   g_utils.obj
 0002:00119920       ?G_InitGentity@@YAXPAUgentity_s@@@Z 2026a920 f   g_utils.obj
 0002:001199d0       ?G_SpewEntList@@YAXXZ      2026a9d0 f   g_utils.obj
 0002:00119d90       ?FindRemoveAbleGent@@YAPAUgentity_s@@XZ 2026ad90 f   g_utils.obj
 0002:0011a0f0       ?G_Spawn@@YAPAUgentity_s@@XZ 2026b0f0 f   g_utils.obj
 0002:0011a2d0       ?G_EntitiesFree@@YA?AW4qboolean@@XZ 2026b2d0 f   g_utils.obj
 0002:0011a360       ?G_SendG2KillQueue@@YAXXZ  2026b360 f   g_utils.obj
 0002:0011a510       ?G_KillG2Queue@@YAXH@Z     2026b510 f   g_utils.obj
 0002:0011a5c0       ?G_FreeEntity@@YAXPAUgentity_s@@@Z 2026b5c0 f   g_utils.obj
 0002:0011a990       ?G_TempEntity@@YAPAUgentity_s@@QAMH@Z 2026b990 f   g_utils.obj
 0002:0011abb0       ?G_SoundTempEntity@@YAPAUgentity_s@@QAMHH@Z 2026bbb0 f   g_utils.obj
 0002:0011ad00       ?G_ScaleNetHealth@@YAXPAUgentity_s@@@Z 2026bd00 f   g_utils.obj
 0002:0011ae20       ?G_KillBox@@YAXPAUgentity_s@@@Z 2026be20 f   g_utils.obj
 0002:0011b0a0       ?G_AddPredictableEvent@@YAXPAUgentity_s@@HH@Z 2026c0a0 f   g_utils.obj
 0002:0011b110       ?G_AddEvent@@YAXPAUgentity_s@@HH@Z 2026c110 f   g_utils.obj
 0002:0011b270       ?G_PlayEffect@@YAPAUgentity_s@@HQAM0@Z 2026c270 f   g_utils.obj
 0002:0011b340       ?G_PlayEffectID@@YAPAUgentity_s@@HQAM0@Z 2026c340 f   g_utils.obj
 0002:0011b450       ?G_PlayBoltedEffect@@YAPAUgentity_s@@HPAU1@PBD@Z 2026c450 f   g_utils.obj
 0002:0011b510       ?G_ScreenShake@@YAPAUgentity_s@@QAMPAU1@MHW4qboolean@@@Z 2026c510 f   g_utils.obj
 0002:0011b600       ?G_MuteSound@@YAXHH@Z      2026c600 f   g_utils.obj
 0002:0011b6d0       ?G_Sound@@YAXPAUgentity_s@@HH@Z 2026c6d0 f   g_utils.obj
 0002:0011b8f0       ?G_SoundAtLoc@@YAXQAMHH@Z  2026c8f0 f   g_utils.obj
 0002:0011b970       ?G_EntitySound@@YAXPAUgentity_s@@HH@Z 2026c970 f   g_utils.obj
 0002:0011ba00       ?G_SoundOnEnt@@YAXPAUgentity_s@@HPBD@Z 2026ca00 f   g_utils.obj
 0002:0011baa0       ?G_SoundIndexOnEnt@@YAXPAUgentity_s@@HH@Z 2026caa0 f   g_utils.obj
 0002:0011bb30       ?ValidUseTarget@@YA?AW4qboolean@@PAUgentity_s@@@Z 2026cb30 f   g_utils.obj
 0002:0011bbb0       ?G_UseDispenserOn@@YAXPAUgentity_s@@H0@Z 2026cbb0 f   g_utils.obj
 0002:0011be60       ?G_CanUseDispOn@@YAHPAUgentity_s@@H@Z 2026ce60 f   g_utils.obj
 0002:0011bfd0       ?TryHeal@@YA?AW4qboolean@@PAUgentity_s@@0@Z 2026cfd0 f   g_utils.obj
 0002:0011c300       ?TryUse@@YAXPAUgentity_s@@@Z 2026d300 f   g_utils.obj
 0002:0011cf00       ?G_PointInBounds@@YA?AW4qboolean@@QAM00@Z 2026df00 f   g_utils.obj
 0002:0011cfb0       ?G_BoxInBounds@@YA?AW4qboolean@@QAM0000@Z 2026dfb0 f   g_utils.obj
 0002:0011d160       ?G_SetAngles@@YAXPAUgentity_s@@QAM@Z 2026e160 f   g_utils.obj
 0002:0011d220       ?G_ClearTrace@@YA?AW4qboolean@@QAM000HH@Z 2026e220 f   g_utils.obj
 0002:0011d2d0       ?G_SetOrigin@@YAXPAUgentity_s@@QAM@Z 2026e2d0 f   g_utils.obj
 0002:0011d470       ?G_CheckInSolid@@YA?AW4qboolean@@PAUgentity_s@@W41@@Z 2026e470 f   g_utils.obj
 0002:0011d6a0       ?DebugLine@@YAHQAM0H@Z     2026e6a0 f   g_utils.obj
 0002:0011da50       ?G_ROFF_NotetrackCallback@@YAXPAUgentity_s@@PBD@Z 2026ea50 f   g_utils.obj
 0002:0011dcf0       ?G_SpeechEvent@@YAXPAUgentity_s@@H@Z 2026ecf0 f   g_utils.obj
 0002:0011dd50       ?G_ExpandPointToBBox@@YA?AW4qboolean@@QAMQBM1HH@Z 2026ed50 f   g_utils.obj
 0002:0011e020       ?GetAnglesForDirection@@YAXQBM0QAM@Z 2026f020 f   g_utils.obj
 0002:0011e100       ?TextWrapCenterPrint@@YAXQAD0@Z 2026f100 f   g_utils.obj
 0002:0011e2c0       ?ViewTarget@@YAPAUgentity_s@@PAU1@HPAY02MPAUcplane_s@@@Z 2026f2c0 f   g_utils.obj
 0002:0011e4f0       ?Vehicle_SetAnim@@YAXPAUgentity_s@@HHHH@Z 2026f4f0 f   g_vehicles.obj
 0002:0011e5c0       ?G_VehicleTrace@@YAXPAUtrace_t@@QBM111HH@Z 2026f5c0 f   g_vehicles.obj
 0002:0011e630       ?G_IsRidingVehicle@@YAPAUVehicle_s@@PAUgentity_s@@@Z 2026f630 f   g_vehicles.obj
 0002:0011e6d0       ?G_CanJumpToEnemyVeh@@YAMPAUVehicle_s@@PBUusercmd_s@@@Z 2026f6d0 f   g_vehicles.obj
 0002:0011e700       ?G_VehicleSpawn@@YAXPAUgentity_s@@@Z 2026f700 f   g_vehicles.obj
 0002:0011e890       ?G_AttachToVehicle@@YAXPAUgentity_s@@PAPAUusercmd_s@@@Z 2026f890 f   g_vehicles.obj
 0002:0011ec40       ?Animate@@YAXPAUVehicle_s@@@Z 2026fc40 f   g_vehicles.obj
 0002:0011ed00       ?ValidateBoard@@YA?AW4qboolean@@PAUVehicle_s@@PAUbgEntity_s@@@Z 2026fd00 f   g_vehicles.obj
 0002:0011f040       ?Board@@YA?AW4qboolean@@PAUVehicle_s@@PAUbgEntity_s@@@Z 20270040 f   g_vehicles.obj
 0002:0011f6d0       ?VEH_TryEject@@YA?AW4qboolean@@PAUVehicle_s@@PAUgentity_s@@1HQAM@Z 202706d0 f   g_vehicles.obj
 0002:0011fbc0       ?G_EjectDroidUnit@@YAXPAUVehicle_s@@W4qboolean@@@Z 20270bc0 f   g_vehicles.obj
 0002:0011fce0       ?Eject@@YA?AW4qboolean@@PAUVehicle_s@@PAUbgEntity_s@@W41@@Z 20270ce0 f   g_vehicles.obj
 0002:00120590       ?EjectAll@@YA?AW4qboolean@@PAUVehicle_s@@@Z 20271590 f   g_vehicles.obj
 0002:001208a0       ?RegisterAssets@@YAXPAUVehicle_s@@@Z 202718a0 f   g_vehicles.obj
 0002:001208d0       ?Initialize@@YA?AW4qboolean@@PAUVehicle_s@@@Z 202718d0 f   g_vehicles.obj
 0002:00120f20       ?G_VehicleDamageBoxSizing@@YAXPAUVehicle_s@@@Z 20271f20 f   g_vehicles.obj
 0002:001213e0       ?G_FlyVehicleImpactDir@@YAHPAUgentity_s@@PAUtrace_t@@@Z 202723e0 f   g_vehicles.obj
 0002:00121a60       ?G_ShipSurfaceForSurfName@@YAHPBD@Z 20272a60 f   g_vehicles.obj
 0002:00121c00       ?G_SetVehDamageFlags@@YAXPAUgentity_s@@HH@Z 20272c00 f   g_vehicles.obj
 0002:00122030       ?G_VehicleSetDamageLocFlags@@YAXPAUgentity_s@@HH@Z 20273030 f   g_vehicles.obj
 0002:00122380       ?G_FlyVehicleDestroySurface@@YA?AW4qboolean@@PAUgentity_s@@H@Z 20273380 f   g_vehicles.obj
 0002:00122640       ?G_FlyVehicleSurfaceDestruction@@YAXPAUgentity_s@@PAUtrace_t@@HW4qboolean@@@Z 20273640 f   g_vehicles.obj
 0002:001228a0       ?G_VehUpdateShields@@YAXPAUgentity_s@@@Z 202738a0 f   g_vehicles.obj
 0002:001229b0       ?G_SetSharedVehicleFunctions@@YAXPAUvehicleInfo_t@@@Z 202739b0 f   g_vehicles.obj
 0002:00125970       ?SetParent@@YAXPAUVehicle_s@@PAUbgEntity_s@@@Z 20276970 f i g_vehicles.obj
 0002:001259b0       ?SetPilot@@YAXPAUVehicle_s@@PAUbgEntity_s@@@Z 202769b0 f i g_vehicles.obj
 0002:001259f0       ?AddPassenger@@YA?AW4qboolean@@PAUVehicle_s@@@Z 202769f0 f i g_vehicles.obj
 0002:00125a20       ?Inhabited@@YA?AW4qboolean@@PAUVehicle_s@@@Z 20276a20 f i g_vehicles.obj
 0002:00125a90       ?DrivingCloakableVehicle@@YA?AW4qboolean@@PAUgentity_s@@@Z 20276a90 f   g_vehicles.obj
 0002:00125b20       ?G_ToggleVehicleCloak@@YAXPAUplayerState_s@@@Z 20276b20 f   g_vehicles.obj
 0002:00125c90       ?VEH_TurretCheckFire@@YAXPAUVehicle_s@@PAUgentity_s@@PAUturretStats_t@@PAUvehWeaponInfo_t@@HH@Z 20276c90 f   g_vehicleTurret.obj
 0002:00125ec0       ?VEH_TurretAnglesToEnemy@@YAXPAUVehicle_s@@HMPAUgentity_s@@W4qboolean@@QAM@Z 20276ec0 f   g_vehicleTurret.obj
 0002:00126140       ?VEH_TurretAim@@YA?AW4qboolean@@PAUVehicle_s@@PAUgentity_s@@1PAUturretStats_t@@PAUvehWeaponInfo_t@@HHQAM@Z 20277140 f   g_vehicleTurret.obj
 0002:00126710       ?VEH_TurretObeyPassengerControl@@YAXPAUVehicle_s@@PAUgentity_s@@H@Z 20277710 f   g_vehicleTurret.obj
 0002:00126900       ?VEH_TurretThink@@YAXPAUVehicle_s@@PAUgentity_s@@H@Z 20277900 f   g_vehicleTurret.obj
 0002:001275c0       ?Q_rand@@YAHPAH@Z          202785c0 f   q_math.obj
 0002:00127610       ?Q_random@@YAMPAH@Z        20278610 f   q_math.obj
 0002:00127690       ?Q_crandom@@YAMPAH@Z       20278690 f   q_math.obj
 0002:00127700       ?ClampChar@@YACH@Z         20278700 f   q_math.obj
 0002:00127750       ?ClampShort@@YAFH@Z        20278750 f   q_math.obj
 0002:001277b0       ?DirToByte@@YAHQAM@Z       202787b0 f   q_math.obj
 0002:001278a0       ?ByteToDir@@YAXHQAM@Z      202788a0 f   q_math.obj
 0002:00127960       ?ColorBytes3@@YAIMMM@Z     20278960 f   q_math.obj
 0002:00127a80       ?ColorBytes4@@YAIMMMM@Z    20278a80 f   q_math.obj
 0002:00127be0       ?NormalizeColor@@YAMQBMQAM@Z 20278be0 f   q_math.obj
 0002:00127cd0       ?PlaneFromPoints@@YA?AW4qboolean@@QAMQBM11@Z 20278cd0 f   q_math.obj
 0002:00127f00       ?RotatePointAroundVector@@YAXQAMQBM1M@Z 20278f00 f   q_math.obj
 0002:001282c0       ?RotateAroundDirection@@YAXQAY02MM@Z 202792c0 f   q_math.obj
 0002:001283e0       ?vectoangles@@YAXQBMQAM@Z  202793e0 f   q_math.obj
 0002:001285e0       ?AnglesToAxis@@YAXQBMQAY02M@Z 202795e0 f   q_math.obj
 0002:001286e0       ?AxisClear@@YAXQAY02M@Z    202796e0 f   q_math.obj
 0002:00128770       ?AxisCopy@@YAXQAY02M0@Z    20279770 f   q_math.obj
 0002:00128830       ?ProjectPointOnPlane@@YAXQAMQBM1@Z 20279830 f   q_math.obj
 0002:001289e0       ?MakeNormalVectors@@YAXQBMQAM1@Z 202799e0 f   q_math.obj
 0002:00128b10       ?VectorRotate@@YAXQAMQAY02M0@Z 20279b10 f   q_math.obj
 0002:00128bf0       ?Q_rsqrt@@YAMM@Z           20279bf0 f   q_math.obj
 0002:00128c80       ?Q_fabs@@YAMM@Z            20279c80 f   q_math.obj
 0002:00128cd0       ?LerpAngle@@YAMMMM@Z       20279cd0 f   q_math.obj
 0002:00128d70       ?AngleSubtract@@YAMMM@Z    20279d70 f   q_math.obj
 0002:00128e30       ?AnglesSubtract@@YAXQAM00@Z 20279e30 f   q_math.obj
 0002:00128ef0       ?AngleMod@@YAMM@Z          20279ef0 f   q_math.obj
 0002:00128f70       ?AngleNormalize360@@YAMM@Z 20279f70 f   q_math.obj
 0002:00128ff0       ?AngleNormalize180@@YAMM@Z 20279ff0 f   q_math.obj
 0002:00129070       ?AngleDelta@@YAMMM@Z       2027a070 f   q_math.obj
 0002:001290e0       ?SetPlaneSignbits@@YAXPAUcplane_s@@@Z 2027a0e0 f   q_math.obj
 0002:00129180       ?BoxOnPlaneSide@@YAHQAM0PAUcplane_s@@@Z 2027a180 f   q_math.obj
 0002:00129450       ?RadiusFromBounds@@YAMQBM0@Z 2027a450 f   q_math.obj
 0002:00129620       ?ClearBounds@@YAXQAM0@Z    2027a620 f   q_math.obj
 0002:001296b0       ?DistanceHorizontal@@YAMQBM0@Z 2027a6b0 f   q_math.obj
 0002:001297a0       ?DistanceHorizontalSquared@@YAMQBM0@Z 2027a7a0 f   q_math.obj
 0002:00129870       ?AddPointToBounds@@YAXQBMQAM1@Z 2027a870 f   q_math.obj
 0002:00129990       ?VectorNormalize@@YAMQAM@Z 2027a990 f   q_math.obj
 0002:00129a70       ?VectorNormalize2@@YAMQBMQAM@Z 2027aa70 f   q_math.obj
 0002:00129b70       ?_VectorMA@@YAXQBMM0QAM@Z  2027ab70 f   q_math.obj
 0002:00129bf0       ?_DotProduct@@YAMQBM0@Z    2027abf0 f   q_math.obj
 0002:00129c60       ?_VectorSubtract@@YAXQBM0QAM@Z 2027ac60 f   q_math.obj
 0002:00129cd0       ?_VectorAdd@@YAXQBM0QAM@Z  2027acd0 f   q_math.obj
 0002:00129d40       ?_VectorCopy@@YAXQBMQAM@Z  2027ad40 f   q_math.obj
 0002:00129da0       ?_VectorScale@@YAXQBMMQAM@Z 2027ada0 f   q_math.obj
 0002:00129e10       ?Vector4Scale@@YAXQBMMQAM@Z 2027ae10 f   q_math.obj
 0002:00129e90       ?Q_log2@@YAHH@Z            2027ae90 f   q_math.obj
 0002:00129ef0       ?MatrixMultiply@@YAXQAY02M00@Z 2027aef0 f   q_math.obj
 0002:0012a120       ?AngleVectors@@YAXQBMQAM11@Z 2027b120 f   q_math.obj
 0002:0012a3b0       ?PerpendicularVector@@YAXQAMQBM@Z 2027b3b0 f   q_math.obj
 0002:0012a510       ?NormalToLatLong@@YAXQBMQAE@Z 2027b510 f   q_math.obj
 0002:0012a670       ?Rand_Init@@YAXH@Z         2027b670 f   q_math.obj
 0002:0012a6b0       ?flrand@@YAMMM@Z           2027b6b0 f   q_math.obj
 0002:0012a740       ?Q_flrand@@YAMMM@Z         2027b740 f   q_math.obj
 0002:0012a7a0       ?irand@@YAHHH@Z            2027b7a0 f   q_math.obj
 0002:0012a860       ?Q_irand@@YAHHH@Z          2027b860 f   q_math.obj
 0002:0012a8c0       ?DotProductNormalize@@YAMQBM0@Z 2027b8c0 f   q_math.obj
 0002:0012a9c0       ?G_FindClosestPointOnLineSegment@@YA?AW4qboolean@@QBM00QAM@Z 2027b9c0 f   q_math.obj
 0002:0012af00       ?G_PointDistFromLineSegment@@YAMQBM00@Z 2027bf00 f   q_math.obj
 0002:0012b3e0       ?G_FindClosestPointBetweenLineSegments@@YAXQAM0000@Z 2027c3e0 f   q_math.obj
 0002:0012b700       ?ShortestLineSegBewteen2LineSegs@@YAMQAM00000@Z 2027c700 f   q_math.obj
 0002:0012c010       ?VectorDistance@@YAMQAM0@Z 2027d010 f   q_math.obj
 0002:0012c0f0       ?GetIDForString@@YAHPAUstringID_table_s@@PBD@Z 2027d0f0 f   q_shared.obj
 0002:0012c1a0       ?GetStringForID@@YAPBDPAUstringID_table_s@@H@Z 2027d1a0 f   q_shared.obj
 0002:0012c230       ?Com_Clampi@@YAHHHH@Z      2027d230 f   q_shared.obj
 0002:0012c290       ?Com_Clamp@@YAMMMM@Z       2027d290 f   q_shared.obj
 0002:0012c300       ?COM_SkipPath@@YAPADPAD@Z  2027d300 f   q_shared.obj
 0002:0012c370       ?COM_StripExtension@@YAXPBDPAD@Z 2027d370 f   q_shared.obj
 0002:0012c3f0       ?COM_DefaultExtension@@YAXPADHPBD@Z 2027d3f0 f   q_shared.obj
 0002:0012c510       ?ShortSwap@@YAFF@Z         2027d510 f   q_shared.obj
 0002:0012c570       ?ShortNoSwap@@YAFF@Z       2027d570 f   q_shared.obj
 0002:0012c5b0       ?LongSwap@@YAHH@Z          2027d5b0 f   q_shared.obj
 0002:0012c650       ?LongNoSwap@@YAHH@Z        2027d650 f   q_shared.obj
 0002:0012c690       ?Long64Swap@@YA?AUqint64@@U1@@Z 2027d690 f   q_shared.obj
 0002:0012c740       ?Long64NoSwap@@YA?AUqint64@@U1@@Z 2027d740 f   q_shared.obj
 0002:0012c780       ?FloatSwap@@YAMPBM@Z       2027d780 f   q_shared.obj
 0002:0012c820       ?FloatNoSwap@@YAMPBM@Z     2027d820 f   q_shared.obj
 0002:0012c860       ?COM_BeginParseSession@@YAXPBD@Z 2027d860 f   q_shared.obj
 0002:0012c8d0       ?COM_GetCurrentParseLine@@YAHXZ 2027d8d0 f   q_shared.obj
 0002:0012c910       ?COM_Parse@@YAPADPAPBD@Z   2027d910 f   q_shared.obj
 0002:0012c960       ?COM_ParseError@@YAXPADZZ  2027d960 f   q_shared.obj
 0002:0012c9f0       ?COM_ParseWarning@@YAXPADZZ 2027d9f0 f   q_shared.obj
 0002:0012ca80       ?SkipWhitespace@@YAPBDPBDPAW4qboolean@@@Z 2027da80 f   q_shared.obj
 0002:0012cb10       ?COM_Compress@@YAHPAD@Z    2027db10 f   q_shared.obj
 0002:0012cdb0       ?COM_ParseExt@@YAPADPAPBDW4qboolean@@@Z 2027ddb0 f   q_shared.obj
 0002:0012d0e0       ?COM_ParseString@@YA?AW4qboolean@@PAPBD0@Z 2027e0e0 f   q_shared.obj
 0002:0012d160       ?COM_ParseInt@@YA?AW4qboolean@@PAPBDPAH@Z 2027e160 f   q_shared.obj
 0002:0012d200       ?COM_ParseFloat@@YA?AW4qboolean@@PAPBDPAM@Z 2027e200 f   q_shared.obj
 0002:0012d2a0       ?COM_ParseVec4@@YA?AW4qboolean@@PAPBDPAY03M@Z 2027e2a0 f   q_shared.obj
 0002:0012d370       ?COM_MatchToken@@YAXPAPBDPAD@Z 2027e370 f   q_shared.obj
 0002:0012d400       ?SkipBracedSection@@YAXPAPBD@Z 2027e400 f   q_shared.obj
 0002:0012d4b0       ?SkipRestOfLine@@YAXPAPBD@Z 2027e4b0 f   q_shared.obj
 0002:0012d560       ?Parse1DMatrix@@YAXPAPBDHPAM@Z 2027e560 f   q_shared.obj
 0002:0012d620       ?Parse2DMatrix@@YAXPAPBDHHPAM@Z 2027e620 f   q_shared.obj
 0002:0012d6e0       ?Parse3DMatrix@@YAXPAPBDHHHPAM@Z 2027e6e0 f   q_shared.obj
 0002:0012d7a0       ?Q_isprint@@YAHH@Z         2027e7a0 f   q_shared.obj
 0002:0012d7f0       ?Q_islower@@YAHH@Z         2027e7f0 f   q_shared.obj
 0002:0012d840       ?Q_isupper@@YAHH@Z         2027e840 f   q_shared.obj
 0002:0012d890       ?Q_isalpha@@YAHH@Z         2027e890 f   q_shared.obj
 0002:0012d8f0       ?Q_strrchr@@YAPADPBDH@Z    2027e8f0 f   q_shared.obj
 0002:0012d980       ?Q_strncpyz@@YAXPADPBDH@Z  2027e980 f   q_shared.obj
 0002:0012da40       ?Q_stricmpn@@YAHPBD0H@Z    2027ea40 f   q_shared.obj
 0002:0012db70       ?Q_strncmp@@YAHPBD0H@Z     2027eb70 f   q_shared.obj
 0002:0012dc20       ?Q_stricmp@@YAHPBD0@Z      2027ec20 f   q_shared.obj
 0002:0012dcb0       ?Q_stristr@@YAPADPBD0@Z    2027ecb0 f   q_shared.obj
 0002:0012de20       ?Q_StrReplace@@YAPADPAD00@Z 2027ee20 f   q_shared.obj
 0002:0012e100       ?COM_BitCheck@@YA?AW4qboolean@@QBHH@Z 2027f100 f   q_shared.obj
 0002:0012e190       ?COM_BitSet@@YAXQAHH@Z     2027f190 f   q_shared.obj
 0002:0012e220       ?COM_BitClear@@YAXQAHH@Z   2027f220 f   q_shared.obj
 0002:0012e2b0       ?Q_strlwr@@YAPADPAD@Z      2027f2b0 f   q_shared.obj
 0002:0012e330       ?Q_strupr@@YAPADPAD@Z      2027f330 f   q_shared.obj
 0002:0012e3b0       ?Q_strcat@@YAXPADHPBD@Z    2027f3b0 f   q_shared.obj
 0002:0012e440       ?Q_PrintStrlen@@YAHPBD@Z   2027f440 f   q_shared.obj
 0002:0012e520       ?Q_CleanStr@@YAPADPAD@Z    2027f520 f   q_shared.obj
 0002:0012e610       ?Q_vsnprintf@@YAHPADHPBD0@Z 2027f610 f   q_shared.obj
 0002:0012e6a0       ?Com_sprintf@@YAXPADHPBDZZ 2027f6a0 f   q_shared.obj
 0002:0012e730       ?va@@YAPADPADZZ            2027f730 f   q_shared.obj
 0002:0012e840       ?Info_ValueForKey@@YAPADPBD0@Z 2027f840 f   q_shared.obj
 0002:0012eaa0       ?Info_NextPair@@YAXPAPBDPAD1@Z 2027faa0 f   q_shared.obj
 0002:0012ebd0       ?Info_RemoveKey@@YAXPADPBD@Z 2027fbd0 f   q_shared.obj
 0002:0012ee30       ?Info_RemoveKey_Big@@YAXPADPBD@Z 2027fe30 f   q_shared.obj
 0002:0012f090       ?Info_Validate@@YA?AW4qboolean@@PBD@Z 20280090 f   q_shared.obj
 0002:0012f110       ?Info_SetValueForKey@@YAXPADPBD1@Z 20280110 f   q_shared.obj
 0002:0012f360       ?Info_SetValueForKey_Big@@YAXPADPBD1@Z 20280360 f   q_shared.obj
 0002:0012f5a0       ?coplanar_tri_tri@@YA?AW4qboolean@@QAM000000@Z 202805a0 f   tri_coll_test.obj
 0002:00130f60       ?tri_tri_intersect@@YA?AW4qboolean@@QAM00000@Z 20281f60 f   tri_coll_test.obj
 0002:00131d40       ?RandFloat@@YAMMM@Z        20282d40 f   w_saber.obj
 0002:00131dc0       ?G_DebugBoxLines@@YAXQAM0H@Z 20282dc0 f   w_saber.obj
 0002:00132070       ?G_CanBeEnemy@@YA?AW4qboolean@@PAUgentity_s@@0@Z 20283070 f   w_saber.obj
 0002:001321b0       ?WP_DeactivateSaber@@YAXPAUgentity_s@@W4qboolean@@@Z 202831b0 f   w_saber.obj
 0002:001322d0       ?WP_ActivateSaber@@YAXPAUgentity_s@@@Z 202832d0 f   w_saber.obj
 0002:00132470       ?SaberUpdateSelf@@YAXPAUgentity_s@@@Z 20283470 f   w_saber.obj
 0002:00132930       ?SaberGotHit@@YAXPAUgentity_s@@0PAUtrace_t@@@Z 20283930 f   w_saber.obj
 0002:00132980       ?WP_SaberInitBladeData@@YAXPAUgentity_s@@@Z 20283980 f   w_saber.obj
 0002:001339e0       ?G_SaberLockAnim@@YAHHHHHH@Z 202849e0 f   w_saber.obj
 0002:00133c20       ?WP_SabersCheckLock@@YA?AW4qboolean@@PAUgentity_s@@0@Z 20284c20 f   w_saber.obj
 0002:001354c0       ?G_KnockawayForParry@@YAHH@Z 202864c0 f   w_saber.obj
 0002:00135580       ?CalcTraceFraction@@YAMQAM00@Z 20286580 f   w_saber.obj
 0002:00135640       ?TraceCopy@@YAXPAUtrace_t@@0@Z 20286640 f   w_saber.obj
 0002:00135730       ?BasicSaberBlockCost@@YAHH@Z 20286730 f   w_saber.obj
 0002:00135840       ?IsMoving@@YA?AW4qboolean@@PAUgentity_s@@@Z 20286840 f   w_saber.obj
 0002:001358e0       ?OJP_SaberBlockCost@@YAHPAUgentity_s@@0QAM@Z 202868e0 f   w_saber.obj
 0002:001366a0       ?OJP_SaberCanBlock@@YAHPAUgentity_s@@0W4qboolean@@QAMHH@Z 202876a0 f   w_saber.obj
 0002:001370e0       ?InitRealTraceContent@@YAXXZ 202880e0 f   w_saber.obj
 0002:00137160       ?AddRealTraceContent@@YA?AW4qboolean@@H@Z 20288160 f   w_saber.obj
 0002:00137270       ?RestoreRealTraceContent@@YAXXZ 20288270 f   w_saber.obj
 0002:00137360       ?G_RealTrace@@YAHPAUgentity_s@@PAUtrace_t@@QAM222HHHH@Z 20288360 f   w_saber.obj
 0002:0013a7f0       ?WP_SaberBladeLength@@YAMPAUsaberInfo_t@@@Z 2028b7f0 f   w_saber.obj
 0002:0013a8a0       ?WP_SaberLength@@YAMPAUgentity_s@@@Z 2028b8a0 f   w_saber.obj
 0002:0013a970       ?WPDEBUG_SaberColor@@YAHH@Z 2028b970 f   w_saber.obj
 0002:0013aa30       ?WP_SabersIntersect@@YA?AW4qboolean@@PAUgentity_s@@HH0W41@@Z 2028ba30 f   w_saber.obj
 0002:0013c080       ?WP_SaberClearDamage@@YAXXZ 2028d080 f   w_saber.obj
 0002:0013c190       ?WP_SaberDamageAdd@@YAXHQAM0HW4qboolean@@H@Z 2028d190 f   w_saber.obj
 0002:0013c3c0       ?WP_SaberApplyDamage@@YAXPAUgentity_s@@@Z 2028d3c0 f   w_saber.obj
 0002:0013c530       ?WP_SaberSpecificDoHit@@YAXPAUgentity_s@@HH0QAMH@Z 2028d530 f   w_saber.obj
 0002:0013c8e0       ?WP_SaberDoHit@@YAXPAUgentity_s@@HH@Z 2028d8e0 f   w_saber.obj
 0002:0013cda0       ?WP_SaberRadiusDamage@@YAXPAUgentity_s@@QAMMHM@Z 2028dda0 f   w_saber.obj
 0002:0013d310       ?WP_SaberDoClash@@YAXPAUgentity_s@@HH@Z 2028e310 f   w_saber.obj
 0002:0013d4d0       ?WP_SaberBounceSound@@YAXPAUgentity_s@@HH@Z 2028e4d0 f   w_saber.obj
 0002:0013e030       ?AnimateStun@@YAXPAUgentity_s@@0QAM@Z 2028f030 f   w_saber.obj
 0002:0013e1e0       ?AnimateKnockdown@@YAXPAUgentity_s@@0@Z 2028f1e0 f   w_saber.obj
 0002:0013e460       ?WalkCheck@@YA?AW4qboolean@@PAUgentity_s@@@Z 2028f460 f i w_saber.obj
 0002:0013e4d0       ?DoNormalDodge@@YAXPAUgentity_s@@HW4qboolean@@@Z 2028f4d0 f   w_saber.obj
 0002:0013e5c0       ?DodgeRollCheck@@YA?AW4qboolean@@PAUgentity_s@@HQAM1@Z 2028f5c0 f   w_saber.obj
 0002:0013ea80       ?G_CanDodge@@YA_NPAUgentity_s@@0H@Z 2028fa80 f   w_saber.obj
 0002:0013ee00       ?G_DoDodge@@YA?AW4qboolean@@PAUgentity_s@@0QAMHPAHH@Z 2028fe00 f   w_saber.obj
 0002:00140140       ?WP_SaberStartMissileBlockCheck@@YAXPAUgentity_s@@PAUusercmd_s@@@Z 20291140 f   w_saber.obj
 0002:00141590       ?SaberBounceSound@@YAXPAUgentity_s@@0PAUtrace_t@@@Z 20292590 f   w_saber.obj
 0002:00141610       ?DeadSaberThink@@YAXPAUgentity_s@@@Z 20292610 f   w_saber.obj
 0002:001416f0       ?MakeDeadSaber@@YAXPAUgentity_s@@@Z 202926f0 f   w_saber.obj
 0002:00141f20       ?DownedSaberThink@@YAXPAUgentity_s@@@Z 20292f20 f   w_saber.obj
 0002:00142580       ?DrownedSaberTouch@@YAXPAUgentity_s@@0PAUtrace_t@@@Z 20293580 f   w_saber.obj
 0002:001428b0       ?saberReactivate@@YAXPAUgentity_s@@0@Z 202938b0 f   w_saber.obj
 0002:001429e0       ?saberKnockDown@@YAXPAUgentity_s@@00@Z 202939e0 f   w_saber.obj
 0002:00143030       ?WP_SaberRemoveG2Model@@YAXPAUgentity_s@@@Z 20294030 f   w_saber.obj
 0002:001430a0       ?WP_SaberAddG2Model@@YAXPAUgentity_s@@PBDH@Z 202940a0 f   w_saber.obj
 0002:00143170       ?saberKnockOutOfHand@@YA?AW4qboolean@@PAUgentity_s@@0QAM@Z 20294170 f   w_saber.obj
 0002:001434c0       ?saberCheckKnockdown_DuelLoss@@YA?AW4qboolean@@PAUgentity_s@@00@Z 202944c0 f   w_saber.obj
 0002:001439a0       ?ButterFingers@@YA?AW4qboolean@@PAUgentity_s@@00PAUtrace_t@@@Z 202949a0 f   w_saber.obj
 0002:00143f90       ?saberCheckKnockdown_BrokenParry@@YA?AW4qboolean@@PAUgentity_s@@00@Z 20294f90 f   w_saber.obj
 0002:00144760       ?saberCheckKnockdown_Smashed@@YA?AW4qboolean@@PAUgentity_s@@00H@Z 20295760 f   w_saber.obj
 0002:00144880       ?saberCheckKnockdown_Thrown@@YA?AW4qboolean@@PAUgentity_s@@00@Z 20295880 f   w_saber.obj
 0002:00144a10       ?saberBackToOwner@@YAXPAUgentity_s@@@Z 20295a10 f   w_saber.obj
 0002:001452c0       ?thrownSaberTouch@@YAXPAUgentity_s@@0PAUtrace_t@@@Z 202962c0 f   w_saber.obj
 0002:00146510       ?saberFirstThrown@@YAXPAUgentity_s@@@Z 20297510 f   w_saber.obj
 0002:00146ef0       ?UpdateClientRenderBolts@@YAXPAUgentity_s@@QAM1@Z 20297ef0 f   w_saber.obj
 0002:00147540       ?UpdateClientRenderinfo@@YAXPAUgentity_s@@QAM1@Z 20298540 f   w_saber.obj
 0002:00148110       ?OJP_DodgeKick@@YA?AW4qboolean@@PAUgentity_s@@0QBM@Z 20299110 f   w_saber.obj
 0002:00148440       ?WP_SaberPositionUpdate@@YAXPAUgentity_s@@PAUusercmd_s@@@Z 20299440 f   w_saber.obj
 0002:00153d10       ?WP_MissileBlockForBlock@@YAHH@Z 202a4d10 f   w_saber.obj
 0002:00153dd0       ?WP_SaberBlockNonRandom@@YAXPAUgentity_s@@QAMW4qboolean@@@Z 202a4dd0 f   w_saber.obj
 0002:001542d0       ?WP_SaberBlock@@YAXPAUgentity_s@@QAMW4qboolean@@@Z 202a52d0 f   w_saber.obj
 0002:001546c0       ?WP_SaberCanBlock@@YAHPAUgentity_s@@QAMHHW4qboolean@@H@Z 202a56c0 f   w_saber.obj
 0002:00154ad0       ?HasSetSaberOnly@@YA?AW4qboolean@@XZ 202a5ad0 f   w_saber.obj
 0002:00154b90       ?G_PickAutoKick@@YAHPAUgentity_s@@0W4qboolean@@@Z 202a5b90 f   w_saber.obj
 0002:00155050       ?G_EnemyInKickRange@@YA?AW4qboolean@@PAUgentity_s@@0@Z 202a6050 f   w_saber.obj
 0002:00155160       ?G_CanKickEntity@@YA?AW4qboolean@@PAUgentity_s@@0@Z 202a6160 f   w_saber.obj
 0002:00155200       ?G_BlockIsParry@@YA?AW4qboolean@@PAUgentity_s@@0QAM@Z 202a6200 f   w_saber.obj
 0002:00155630       ?G_BlockIsQuickParry@@YA?AW4qboolean@@PAUgentity_s@@0QAM@Z 202a6630 f   w_saber.obj
 0002:00155ab0       ?SaberBallisticsTouch@@YAXPAUgentity_s@@0PAUtrace_t@@@Z 202a6ab0 f   w_saber.obj
 0002:00155b70       ?SaberBallisticsThink@@YAXPAUgentity_s@@@Z 202a6b70 f   w_saber.obj
 0002:00156040       ?thrownSaberBallistics@@YAXPAUgentity_s@@0W4qboolean@@@Z 202a7040 f   w_saber.obj
 0002:00156330       ?DebounceSaberImpact@@YAXPAUgentity_s@@0HHH@Z 202a7330 f   w_saber.obj
 0002:001565d0       ?G_InAttackParry@@YA?AW4qboolean@@PAUgentity_s@@@Z 202a75d0 f   w_saber.obj
 0002:001566a0       ?OJP_SaberIsOff@@YA?AW4qboolean@@PAUgentity_s@@H@Z 202a76a0 f   w_saber.obj
 0002:001567e0       ?OJP_BladeIsOff@@YA?AW4qboolean@@PAUgentity_s@@HH@Z 202a77e0 f   w_saber.obj
 0002:001568b0       ?OJP_UsingDualSaberAsPrimary@@YA?AW4qboolean@@PAUplayerState_s@@@Z 202a78b0 f   w_saber.obj
 0002:00156920       ?AnimalProcessOri@@YAXPAUVehicle_s@@@Z 202a7920 f   AnimalNPC.obj
 0002:00156b70       ?G_SetAnimalVehicleFunctions@@YAXPAUvehicleInfo_t@@@Z 202a7b70 f   AnimalNPC.obj
 0002:00157ce0       ?G_CreateAnimalNPC@@YAXPAPAUVehicle_s@@PBD@Z 202a8ce0 f   AnimalNPC.obj
 0002:00157d80       ?BG_FighterUpdate@@YA?AW4qboolean@@PAUVehicle_s@@PBUusercmd_s@@QAM2MP6AXPAUtrace_t@@QBM444HH@Z@Z 202a8d80 f   FighterNPC.obj
 0002:00158000       ?FighterIsInSpace@@YA?AW4qboolean@@PAUgentity_s@@@Z 202a9000 f   FighterNPC.obj
 0002:00158080       ?FighterOverValidLandingSurface@@YA?AW4qboolean@@PAUVehicle_s@@@Z 202a9080 f   FighterNPC.obj
 0002:001580f0       ?FighterIsLanded@@YA?AW4qboolean@@PAUVehicle_s@@PAUplayerState_s@@@Z 202a90f0 f   FighterNPC.obj
 0002:00158170       ?FighterIsLanding@@YA?AW4qboolean@@PAUVehicle_s@@PAUplayerState_s@@@Z 202a9170 f   FighterNPC.obj
 0002:00158240       ?FighterIsLaunching@@YA?AW4qboolean@@PAUVehicle_s@@PAUplayerState_s@@@Z 202a9240 f   FighterNPC.obj
 0002:00158300       ?FighterSuspended@@YA?AW4qboolean@@PAUVehicle_s@@PAUplayerState_s@@@Z 202a9300 f   FighterNPC.obj
 0002:00158390       ?FighterYawAdjust@@YAXPAUVehicle_s@@PAUplayerState_s@@1@Z 202a9390 f   FighterNPC.obj
 0002:00158510       ?FighterPitchAdjust@@YAXPAUVehicle_s@@PAUplayerState_s@@1@Z 202a9510 f   FighterNPC.obj
 0002:00158690       ?FighterPitchClamp@@YAXPAUVehicle_s@@PAUplayerState_s@@1H@Z 202a9690 f   FighterNPC.obj
 0002:001587d0       ?G_SetFighterVehicleFunctions@@YAXPAUvehicleInfo_t@@@Z 202a97d0 f   FighterNPC.obj
 0002:0015beb0       ?G_CreateFighterNPC@@YAXPAPAUVehicle_s@@PBD@Z 202aceb0 f   FighterNPC.obj
 0002:0015bf50       ?CorpsePhysics@@YAXPAUgentity_s@@@Z 202acf50 f   NPC.obj
 0002:0015c120       ?G_OkayToRemoveCorpse@@YA?AW4qboolean@@PAUgentity_s@@@Z 202ad120 f   NPC.obj
 0002:0015c2e0       ?NPC_RemoveBody@@YAXPAUgentity_s@@@Z 202ad2e0 f   NPC.obj
 0002:0015c680       ?BodyRemovalPadTime@@YAHPAUgentity_s@@@Z 202ad680 f   NPC.obj
 0002:0015c790       ?pitch_roll_for_slope@@YAXPAUgentity_s@@QAM@Z 202ad790 f   NPC.obj
 0002:0015ce20       ?SetNPCGlobals@@YAXPAUgentity_s@@@Z 202ade20 f   NPC.obj
 0002:0015ceb0       ?SaveNPCGlobals@@YAXXZ     202adeb0 f   NPC.obj
 0002:0015cf30       ?RestoreNPCGlobals@@YAXXZ  202adf30 f   NPC.obj
 0002:0015cfb0       ?ClearNPCGlobals@@YAXXZ    202adfb0 f   NPC.obj
 0002:0015d010       ?NPC_ApplyScriptFlags@@YAXXZ 202ae010 f   NPC.obj
 0002:0015d2d0       ?NPC_HandleAIFlags@@YAXXZ  202ae2d0 f   NPC.obj
 0002:0015d480       ?NPC_CheckAttackScript@@YAXXZ 202ae480 f   NPC.obj
 0002:0015d4f0       ?NPC_CheckAttackHold@@YAXXZ 202ae4f0 f   NPC.obj
 0002:0015d750       ?NPC_KeepCurrentFacing@@YAXXZ 202ae750 f   NPC.obj
 0002:0015d820       ?NPC_BehaviorSet_Charmed@@YAXH@Z 202ae820 f   NPC.obj
 0002:0015d910       ?NPC_BehaviorSet_Default@@YAXH@Z 202ae910 f   NPC.obj
 0002:0015da50       ?NPC_BehaviorSet_Interrogator@@YAXH@Z 202aea50 f   NPC.obj
 0002:0015db00       ?NPC_BehaviorSet_ImperialProbe@@YAXH@Z 202aeb00 f   NPC.obj
 0002:0015dbb0       ?NPC_BehaviorSet_Seeker@@YAXH@Z 202aebb0 f   NPC.obj
 0002:0015dc00       ?NPC_BehaviorSet_Remote@@YAXH@Z 202aec00 f   NPC.obj
 0002:0015dcb0       ?NPC_BehaviorSet_Sentry@@YAXH@Z 202aecb0 f   NPC.obj
 0002:0015dd60       ?NPC_BehaviorSet_Grenadier@@YAXH@Z 202aed60 f   NPC.obj
 0002:0015de10       ?NPC_BehaviorSet_Sniper@@YAXH@Z 202aee10 f   NPC.obj
 0002:0015dec0       ?NPC_BehaviorSet_Stormtrooper@@YAXH@Z 202aeec0 f   NPC.obj
 0002:0015df90       ?NPC_BehaviorSet_Jedi@@YAXH@Z 202aef90 f   NPC.obj
 0002:0015e050       ?G_JediInNormalAI@@YA?AW4qboolean@@PAUgentity_s@@@Z 202af050 f   NPC.obj
 0002:0015e110       ?NPC_BehaviorSet_Droid@@YAXH@Z 202af110 f   NPC.obj
 0002:0015e1a0       ?NPC_BehaviorSet_Mark1@@YAXH@Z 202af1a0 f   NPC.obj
 0002:0015e230       ?NPC_BehaviorSet_Mark2@@YAXH@Z 202af230 f   NPC.obj
 0002:0015e2e0       ?NPC_BehaviorSet_ATST@@YAXH@Z 202af2e0 f   NPC.obj
 0002:0015e390       ?NPC_BehaviorSet_MineMonster@@YAXH@Z 202af390 f   NPC.obj
 0002:0015e440       ?NPC_BehaviorSet_Howler@@YAXH@Z 202af440 f   NPC.obj
 0002:0015e4f0       ?NPC_BehaviorSet_Rancor@@YAXH@Z 202af4f0 f   NPC.obj
 0002:0015e5a0       ?NPC_BehaviorSet_Wampa@@YAXH@Z 202af5a0 f   NPC.obj
 0002:0015e650       ?NPC_BehaviorSet_SandCreature@@YAXH@Z 202af650 f   NPC.obj
 0002:0015e700       ?NPC_BehaviorSet_Animal@@YAXH@Z 202af700 f   NPC.obj
 0002:0015e780       ?NPC_RunBehavior@@YAXHH@Z  202af780 f   NPC.obj
 0002:0015efc0       ?NPC_ExecuteBState@@YAXPAUgentity_s@@@Z 202affc0 f   NPC.obj
 0002:0015f490       ?NPC_Think@@YAXPAUgentity_s@@@Z 202b0490 f   NPC.obj
 0002:00160010       ?NPC_InitGame@@YAXXZ       202b1010 f   NPC.obj
 0002:00160060       ?NPC_SetAnim@@YAXPAUgentity_s@@HHH@Z 202b1060 f   NPC.obj
 0002:001600d0       ?BubbleShield_IsOn@@YA?AW4qboolean@@PAUgentity_s@@@Z 202b10d0 f   NPC_AI_AssassinDroid.obj
 0002:00160110       ?BubbleShield_TurnOn@@YAXPAUgentity_s@@@Z 202b1110 f   NPC_AI_AssassinDroid.obj
 0002:001601a0       ?BubbleShield_TurnOff@@YAXPAUgentity_s@@@Z 202b11a0 f   NPC_AI_AssassinDroid.obj
 0002:00160230       ?BubbleShield_PushEnt@@YAXPAUgentity_s@@QAM@Z 202b1230 f   NPC_AI_AssassinDroid.obj
 0002:00160320       ?BubbleShield_PushRadiusEnts@@YAXXZ 202b1320 f   NPC_AI_AssassinDroid.obj
 0002:00160660       ?BubbleShield_Update@@YAXXZ 202b1660 f   NPC_AI_AssassinDroid.obj
 0002:001609e0       ?NPC_ATST_Precache@@YAXXZ  202b19e0 f   NPC_AI_Atst.obj
 0002:00160aa0       ?G_ATSTCheckPain@@YAXPAUgentity_s@@0H@Z 202b1aa0 f   NPC_AI_Atst.obj
 0002:00160b20       ?NPC_ATST_Pain@@YAXPAUgentity_s@@0H@Z 202b1b20 f   NPC_AI_Atst.obj
 0002:00160b90       ?ATST_Hunt@@YAXW4qboolean@@0@Z 202b1b90 f   NPC_AI_Atst.obj
 0002:00160c20       ?ATST_Ranged@@YAXW4qboolean@@00@Z 202b1c20 f   NPC_AI_Atst.obj
 0002:00160d10       ?ATST_Attack@@YAXXZ        202b1d10 f   NPC_AI_Atst.obj
 0002:00160fe0       ?ATST_Patrol@@YAXXZ        202b1fe0 f   NPC_AI_Atst.obj
 0002:00161090       ?ATST_Idle@@YAXXZ          202b2090 f   NPC_AI_Atst.obj
 0002:00161100       ?NPC_BSATST_Default@@YAXXZ 202b2100 f   NPC_AI_Atst.obj
 0002:001611c0       ?NPC_BSCivilian_Default@@YAXH@Z 202b21c0 f   NPC_AI_Civilian.obj
 0002:00161510       ?NPC_LostEnemyDecideChase@@YAXXZ 202b2510 f   NPC_AI_Default.obj
 0002:001615e0       ?NPC_StandIdle@@YAXXZ      202b25e0 f   NPC_AI_Default.obj
 0002:00161610       ?NPC_StandTrackAndShoot@@YA?AW4qboolean@@PAUgentity_s@@W41@@Z 202b2610 f   NPC_AI_Default.obj
 0002:001617e0       ?NPC_BSIdle@@YAXXZ         202b27e0 f   NPC_AI_Default.obj
 0002:00161860       ?NPC_BSRun@@YAXXZ          202b2860 f   NPC_AI_Default.obj
 0002:001618d0       ?NPC_BSStandGuard@@YAXXZ   202b28d0 f   NPC_AI_Default.obj
 0002:00161a60       ?NPC_BSHuntAndKill@@YAXXZ  202b2a60 f   NPC_AI_Default.obj
 0002:00161f50       ?NPC_BSStandAndShoot@@YAXXZ 202b2f50 f   NPC_AI_Default.obj
 0002:001620e0       ?NPC_BSRunAndShoot@@YAXXZ  202b30e0 f   NPC_AI_Default.obj
 0002:001623f0       ?NPC_BSFace@@YAXXZ         202b33f0 f   NPC_AI_Default.obj
 0002:001624a0       ?NPC_BSPointShoot@@YAXW4qboolean@@@Z 202b34a0 f   NPC_AI_Default.obj
 0002:001629a0       ?tan@@YAMM@Z               202b39a0 f i NPC_AI_Default.obj
 0002:00162a00       _tanf                      202b3a00 f i NPC_AI_Default.obj
 0002:00162a70       ?NPC_BSMove@@YAXXZ         202b3a70 f   NPC_AI_Default.obj
 0002:00162b20       ?NPC_BSShoot@@YAXXZ        202b3b20 f   NPC_AI_Default.obj
 0002:00162bb0       ?NPC_BSPatrol@@YAXXZ       202b3bb0 f   NPC_AI_Default.obj
 0002:00162cc0       ?NPC_BSDefault@@YAXXZ      202b3cc0 f   NPC_AI_Default.obj
 0002:001632c0       ?R2D2_PartsMove@@YAXXZ     202b42c0 f   NPC_AI_Droid.obj
 0002:00163430       ?Droid_Idle@@YAXXZ         202b4430 f   NPC_AI_Droid.obj
 0002:00163460       ?R2D2_TurnAnims@@YAXXZ     202b4460 f   NPC_AI_Droid.obj
 0002:001635d0       ?Droid_Patrol@@YAXXZ       202b45d0 f   NPC_AI_Droid.obj
 0002:001639e0       ?Droid_Run@@YAXXZ          202b49e0 f   NPC_AI_Droid.obj
 0002:00163af0       ?Droid_Spin@@YAXXZ         202b4af0 f   NPC_AI_Droid.obj
 0002:00163e70       ?NPC_Droid_Pain@@YAXPAUgentity_s@@0H@Z 202b4e70 f   NPC_AI_Droid.obj
 0002:001647a0       ?Droid_Pain@@YAXXZ         202b57a0 f   NPC_AI_Droid.obj
 0002:00164810       ?NPC_Mouse_Precache@@YAXXZ 202b5810 f   NPC_AI_Droid.obj
 0002:001648c0       ?NPC_R5D2_Precache@@YAXXZ  202b58c0 f   NPC_AI_Droid.obj
 0002:001649c0       ?NPC_R2D2_Precache@@YAXXZ  202b59c0 f   NPC_AI_Droid.obj
 0002:00164ac0       ?NPC_Gonk_Precache@@YAXXZ  202b5ac0 f   NPC_AI_Droid.obj
 0002:00164b60       ?NPC_Protocol_Precache@@YAXXZ 202b5b60 f   NPC_AI_Droid.obj
 0002:00164bc0       ?NPC_BSDroid_Default@@YAXXZ 202b5bc0 f   NPC_AI_Droid.obj
 0002:00164cd0       ?NPC_GalakMech_Precache@@YAXXZ 202b5cd0 f   NPC_AI_GalakMech.obj
 0002:00164dc0       ?NPC_GalakMech_Init@@YAXPAUgentity_s@@@Z 202b5dc0 f   NPC_AI_GalakMech.obj
 0002:001650f0       ?GM_Dying@@YAXPAUgentity_s@@@Z 202b60f0 f   NPC_AI_GalakMech.obj
 0002:00165a90       ?NPC_GM_Pain@@YAXPAUgentity_s@@0H@Z 202b6a90 f   NPC_AI_GalakMech.obj
 0002:00165f00       ?NPC_BSGM_Patrol@@YAXXZ    202b6f00 f   NPC_AI_GalakMech.obj
 0002:00165fa0       ?NPC_GM_StartLaser@@YAXXZ  202b6fa0 f   NPC_AI_GalakMech.obj
 0002:001660b0       ?GM_StartGloat@@YAXXZ      202b70b0 f   NPC_AI_GalakMech.obj
 0002:00166200       ?WP_LobFire@@YA?AW4qboolean@@PAUgentity_s@@QAM111H1W41@HHMMM2@Z 202b7200 f   NPC_AI_GalakMech.obj
 0002:00166a40       ?NPC_BSGM_Attack@@YAXXZ    202b7a40 f   NPC_AI_GalakMech.obj
 0002:00169660       ?NPC_BSGM_Default@@YAXXZ   202ba660 f   NPC_AI_GalakMech.obj
 0002:00169a90       ?Grenadier_ClearTimers@@YAXPAUgentity_s@@@Z 202baa90 f   NPC_AI_Grenadier.obj
 0002:00169bf0       ?NPC_Grenadier_PlayConfusionSound@@YAXPAUgentity_s@@@Z 202babf0 f   NPC_AI_Grenadier.obj
 0002:00169cf0       ?NPC_Grenadier_Pain@@YAXPAUgentity_s@@0H@Z 202bacf0 f   NPC_AI_Grenadier.obj
 0002:00169dd0       ?NPC_BSGrenadier_Patrol@@YAXXZ 202badd0 f   NPC_AI_Grenadier.obj
 0002:0016a250       ?Grenadier_EvaluateShot@@YA?AW4qboolean@@H@Z 202bb250 f   NPC_AI_Grenadier.obj
 0002:0016a2f0       ?NPC_BSGrenadier_Attack@@YAXXZ 202bb2f0 f   NPC_AI_Grenadier.obj
 0002:0016b550       ?NPC_BSGrenadier_Default@@YAXXZ 202bc550 f   NPC_AI_Grenadier.obj
 0002:0016b5e0       ?NPC_Howler_Precache@@YAXXZ 202bc5e0 f   NPC_AI_Howler.obj
 0002:0016b6f0       ?Howler_ClearTimers@@YAXPAUgentity_s@@@Z 202bc6f0 f   NPC_AI_Howler.obj
 0002:0016b810       ?Howler_Idle@@YAXXZ        202bc810 f   NPC_AI_Howler.obj
 0002:0016b840       ?NPC_Howler_Pain@@YAXPAUgentity_s@@0H@Z 202bc840 f   NPC_AI_Howler.obj
 0002:0016bb90       ?NPC_BSHowler_Default@@YAXXZ 202bcb90 f   NPC_AI_Howler.obj
 0002:0016e5f0       ?NPC_Probe_Precache@@YAXXZ 202bf5f0 f   NPC_AI_ImperialProbe.obj
 0002:0016e710       ?ImperialProbe_MaintainHeight@@YAXXZ 202bf710 f   NPC_AI_ImperialProbe.obj
 0002:0016eb50       ?ImperialProbe_Strafe@@YAXXZ 202bfb50 f   NPC_AI_ImperialProbe.obj
 0002:0016ee90       ?ImperialProbe_Hunt@@YAXW4qboolean@@0@Z 202bfe90 f   NPC_AI_ImperialProbe.obj
 0002:0016f130       ?ImperialProbe_FireBlaster@@YAXXZ 202c0130 f   NPC_AI_ImperialProbe.obj
 0002:0016f6c0       ?ImperialProbe_Ranged@@YAXW4qboolean@@0@Z 202c06c0 f   NPC_AI_ImperialProbe.obj
 0002:0016f7d0       ?ImperialProbe_AttackDecision@@YAXXZ 202c07d0 f   NPC_AI_ImperialProbe.obj
 0002:0016f9f0       ?NPC_Probe_Pain@@YAXPAUgentity_s@@0H@Z 202c09f0 f   NPC_AI_ImperialProbe.obj
 0002:0016fdc0       ?ImperialProbe_Idle@@YAXXZ 202c0dc0 f   NPC_AI_ImperialProbe.obj
 0002:0016fe10       ?ImperialProbe_Patrol@@YAXXZ 202c0e10 f   NPC_AI_ImperialProbe.obj
 0002:0016ffd0       ?ImperialProbe_Wait@@YAXXZ 202c0fd0 f   NPC_AI_ImperialProbe.obj
 0002:001701b0       ?NPC_BSImperialProbe_Default@@YAXXZ 202c11b0 f   NPC_AI_ImperialProbe.obj
 0002:00170270       ?NPC_Interrogator_Precache@@YAXPAUgentity_s@@@Z 202c1270 f   NPC_AI_Interrogator.obj
 0002:00170310       ?Interrogator_die@@YAXPAUgentity_s@@00HHHH@Z 202c1310 f   NPC_AI_Interrogator.obj
 0002:00170400       ?Interrogator_PartsMove@@YAXXZ 202c1400 f   NPC_AI_Interrogator.obj
 0002:001707f0       ?Interrogator_MaintainHeight@@YAXXZ 202c17f0 f   NPC_AI_Interrogator.obj
 0002:00170c60       ?Interrogator_Strafe@@YAXXZ 202c1c60 f   NPC_AI_Interrogator.obj
 0002:00171040       ?Interrogator_Hunt@@YAXW4qboolean@@0@Z 202c2040 f   NPC_AI_Interrogator.obj
 0002:001712f0       ?Interrogator_Melee@@YAXW4qboolean@@0@Z 202c22f0 f   NPC_AI_Interrogator.obj
 0002:001714b0       ?Interrogator_Attack@@YAXXZ 202c24b0 f   NPC_AI_Interrogator.obj
 0002:001716c0       ?Interrogator_Idle@@YAXXZ  202c26c0 f   NPC_AI_Interrogator.obj
 0002:00171750       ?NPC_BSInterrogator_Default@@YAXXZ 202c2750 f   NPC_AI_Interrogator.obj
 0002:001717b0       ?G_StartMatrixEffect@@YAXPAUgentity_s@@@Z 202c27b0 f   NPC_AI_Jedi.obj
 0002:001717e0       ?NPC_CultistDestroyer_Precache@@YAXXZ 202c27e0 f   NPC_AI_Jedi.obj
 0002:00171840       ?NPC_ShadowTrooper_Precache@@YAXXZ 202c2840 f   NPC_AI_Jedi.obj
 0002:001718c0       ?NPC_Rosh_Dark_Precache@@YAXXZ 202c28c0 f   NPC_AI_Jedi.obj
 0002:00171920       ?Jedi_ClearTimers@@YAXPAUgentity_s@@@Z 202c2920 f   NPC_AI_Jedi.obj
 0002:00171ba0       ?Jedi_CultistDestroyer@@YA?AW4qboolean@@PAUgentity_s@@@Z 202c2ba0 f   NPC_AI_Jedi.obj
 0002:00171c50       ?Jedi_PlayBlockedPushSound@@YAXPAUgentity_s@@@Z 202c2c50 f   NPC_AI_Jedi.obj
 0002:00171d30       ?Jedi_PlayDeflectSound@@YAXPAUgentity_s@@@Z 202c2d30 f   NPC_AI_Jedi.obj
 0002:00171e30       ?NPC_Jedi_PlayConfusionSound@@YAXPAUgentity_s@@@Z 202c2e30 f   NPC_AI_Jedi.obj
 0002:00171f70       ?Jedi_StopKnockdown@@YA?AW4qboolean@@PAUgentity_s@@0QBM@Z 202c2f70 f   NPC_AI_Jedi.obj
 0002:00172360       ?NPC_TavionScepter_Precache@@YAXXZ 202c3360 f   NPC_AI_Jedi.obj
 0002:00172420       ?NPC_TavionSithSword_Precache@@YAXXZ 202c3420 f   NPC_AI_Jedi.obj
 0002:001724a0       ?Tavion_ScepterDamage@@YAXXZ 202c34a0 f   NPC_AI_Jedi.obj
 0002:00172c10       ?Tavion_ScepterSlam@@YAXXZ 202c3c10 f   NPC_AI_Jedi.obj
 0002:001733d0       ?Tavion_StartScepterBeam@@YAXXZ 202c43d0 f   NPC_AI_Jedi.obj
 0002:00173710       ?Tavion_StartScepterSlam@@YAXXZ 202c4710 f   NPC_AI_Jedi.obj
 0002:00173a30       ?Tavion_SithSwordRecharge@@YAXXZ 202c4a30 f   NPC_AI_Jedi.obj
 0002:00173ea0       ?Jedi_Cloak@@YAXPAUgentity_s@@@Z 202c4ea0 f   NPC_AI_Jedi.obj
 0002:00173f40       ?Jedi_Decloak@@YAXPAUgentity_s@@@Z 202c4f40 f   NPC_AI_Jedi.obj
 0002:00173fe0       ?Jedi_CheckCloak@@YAXXZ    202c4fe0 f   NPC_AI_Jedi.obj
 0002:001741b0       ?Boba_Precache@@YAXXZ      202c51b0 f   NPC_AI_Jedi.obj
 0002:00174240       ?Boba_ChangeWeapon@@YAXH@Z 202c5240 f   NPC_AI_Jedi.obj
 0002:001742d0       ?WP_ResistForcePush@@YAXPAUgentity_s@@0W4qboolean@@@Z 202c52d0 f   NPC_AI_Jedi.obj
 0002:001747e0       ?Boba_StopKnockdown@@YA?AW4qboolean@@PAUgentity_s@@0QBMW41@@Z 202c57e0 f   NPC_AI_Jedi.obj
 0002:00174b90       ?Boba_FlyStart@@YAXPAUgentity_s@@@Z 202c5b90 f   NPC_AI_Jedi.obj
 0002:00174cf0       ?Boba_FlyStop@@YAXPAUgentity_s@@@Z 202c5cf0 f   NPC_AI_Jedi.obj
 0002:00174e50       ?Boba_Flying@@YA?AW4qboolean@@PAUgentity_s@@@Z 202c5e50 f   NPC_AI_Jedi.obj
 0002:00174ea0       ?Boba_FireFlameThrower@@YAXPAUgentity_s@@@Z 202c5ea0 f   NPC_AI_Jedi.obj
 0002:001751e0       ?Boba_StartFlameThrower@@YAXPAUgentity_s@@@Z 202c61e0 f   NPC_AI_Jedi.obj
 0002:001753f0       ?Boba_DoFlameThrower@@YAXPAUgentity_s@@@Z 202c63f0 f   NPC_AI_Jedi.obj
 0002:001754a0       ?G_GroundDistance@@YAMPAUgentity_s@@@Z 202c64a0 f   NPC_AI_Jedi.obj
 0002:00175760       ?Boba_FireDecide@@YAXXZ    202c6760 f   NPC_AI_Jedi.obj
 0002:00176890       ?NPC_Jedi_RateNewEnemy@@YAXPAUgentity_s@@0@Z 202c7890 f   NPC_AI_Jedi.obj
 0002:00176bb0       ?Jedi_RageStop@@YAXPAUgentity_s@@@Z 202c7bb0 f   NPC_AI_Jedi.obj
 0002:00176c40       ?NPC_MoveDirClear@@YA?AW4qboolean@@HHW41@@Z 202c7c40 f   NPC_AI_Jedi.obj
 0002:001772e0       ?Kyle_GrabEnemy@@YAXXZ     202c82e0 f   NPC_AI_Jedi.obj
 0002:00177360       ?Kyle_TryGrab@@YAXXZ       202c8360 f   NPC_AI_Jedi.obj
 0002:00177510       ?Kyle_CanDoGrab@@YA?AW4qboolean@@XZ 202c8510 f   NPC_AI_Jedi.obj
 0002:00177740       ?G_PickAutoMultiKick@@YAHPAUgentity_s@@W4qboolean@@1@Z 202c8740 f   NPC_AI_Jedi.obj
 0002:00177770       ?Jedi_CheckFlipEvasions@@YA?AW4evasionType_t@@PAUgentity_s@@MM@Z 202c8770 f   NPC_AI_Jedi.obj
 0002:00178d60       ?Jedi_ReCalcParryTime@@YAHPAUgentity_s@@W4evasionType_t@@@Z 202c9d60 f   NPC_AI_Jedi.obj
 0002:00179110       ?Jedi_QuickReactions@@YA?AW4qboolean@@PAUgentity_s@@@Z 202ca110 f   NPC_AI_Jedi.obj
 0002:00179200       ?Jedi_SaberBusy@@YA?AW4qboolean@@PAUgentity_s@@@Z 202ca200 f   NPC_AI_Jedi.obj
 0002:00179350       ?Jedi_InNoAIAnim@@YA?AW4qboolean@@PAUgentity_s@@@Z 202ca350 f   NPC_AI_Jedi.obj
 0002:00179650       ?Jedi_CheckJumpEvasionSafety@@YAXPAUgentity_s@@PAUusercmd_s@@W4evasionType_t@@@Z 202ca650 f   NPC_AI_Jedi.obj
 0002:001798e0       ?Jedi_SaberBlockGo@@YA?AW4evasionType_t@@PAUgentity_s@@PAUusercmd_s@@QAM20M@Z 202ca8e0 f   NPC_AI_Jedi.obj
 0002:0017b780       ?Jedi_FindEnemyInCone@@YAPAUgentity_s@@PAU1@0M@Z 202cc780 f   NPC_AI_Jedi.obj
 0002:0017bbc0       ?NPC_EvasionSaber@@YAXXZ   202ccbc0 f   NPC_AI_Jedi.obj
 0002:001804c0       ?NPC_Jedi_Pain@@YAXPAUgentity_s@@0H@Z 202d14c0 f   NPC_AI_Jedi.obj
 0002:00180fa0       ?Jedi_CheckDanger@@YA?AW4qboolean@@XZ 202d1fa0 f   NPC_AI_Jedi.obj
 0002:00181110       ?Jedi_CheckAmbushPlayer@@YA?AW4qboolean@@XZ 202d2110 f   NPC_AI_Jedi.obj
 0002:001813e0       ?Jedi_Ambush@@YAXPAUgentity_s@@@Z 202d23e0 f   NPC_AI_Jedi.obj
 0002:001814e0       ?Jedi_WaitingAmbush@@YA?AW4qboolean@@PAUgentity_s@@@Z 202d24e0 f   NPC_AI_Jedi.obj
 0002:00181550       ?Jedi_CanPullBackSaber@@YA?AW4qboolean@@PAUgentity_s@@@Z 202d2550 f   NPC_AI_Jedi.obj
 0002:00181650       ?NPC_BSJedi_FollowLeader@@YAXXZ 202d2650 f   NPC_AI_Jedi.obj
 0002:001830f0       ?Jedi_CheckKataAttack@@YA?AW4qboolean@@XZ 202d40f0 f   NPC_AI_Jedi.obj
 0002:00183260       ?Rosh_BeingHealed@@YA?AW4qboolean@@PAUgentity_s@@@Z 202d4260 f   NPC_AI_Jedi.obj
 0002:00183310       ?Rosh_TwinPresent@@YA?AW4qboolean@@PAUgentity_s@@@Z 202d4310 f   NPC_AI_Jedi.obj
 0002:001833c0       ?Kothos_HealRosh@@YA?AW4qboolean@@XZ 202d43c0 f   NPC_AI_Jedi.obj
 0002:00183a00       ?Kothos_Retreat@@YA?AW4qboolean@@XZ 202d4a00 f   NPC_AI_Jedi.obj
 0002:00183a70       ?Twins_DangerDist@@YAMXZ   202d4a70 f   NPC_AI_Jedi.obj
 0002:00183af0       ?WP_Explode@@YAXPAUgentity_s@@@Z 202d4af0 f   NPC_AI_Jedi.obj
 0002:00183d00       ?Jedi_InSpecialMove@@YA?AW4qboolean@@XZ 202d4d00 f   NPC_AI_Jedi.obj
 0002:00185db0       ?NPC_BSJedi_Default@@YAXXZ 202d6db0 f   NPC_AI_Jedi.obj
 0002:0018eb20       ?NPC_Mark1_Precache@@YAXXZ 202dfb20 f   NPC_AI_Mark1.obj
 0002:0018ecc0       ?NPC_Mark1_Part_Explode@@YAXPAUgentity_s@@H@Z 202dfcc0 f   NPC_AI_Mark1.obj
 0002:0018f040       ?Mark1_Idle@@YAXXZ         202e0040 f   NPC_AI_Mark1.obj
 0002:0018f0b0       ?Mark1Dead_FireRocket@@YAXXZ 202e00b0 f   NPC_AI_Mark1.obj
 0002:0018f3f0       ?Mark1Dead_FireBlaster@@YAXXZ 202e03f0 f   NPC_AI_Mark1.obj
 0002:0018f650       ?Mark1_die@@YAXPAUgentity_s@@00HHHH@Z 202e0650 f   NPC_AI_Mark1.obj
 0002:0018f720       ?Mark1_dying@@YAXPAUgentity_s@@@Z 202e0720 f   NPC_AI_Mark1.obj
 0002:0018f980       ?NPC_Mark1_Pain@@YAXPAUgentity_s@@0H@Z 202e0980 f   NPC_AI_Mark1.obj
 0002:0018fce0       ?Mark1_Hunt@@YAXXZ         202e0ce0 f   NPC_AI_Mark1.obj
 0002:0018fd80       ?Mark1_FireBlaster@@YAXXZ  202e0d80 f   NPC_AI_Mark1.obj
 0002:001901e0       ?Mark1_BlasterAttack@@YAXW4qboolean@@@Z 202e11e0 f   NPC_AI_Mark1.obj
 0002:001903e0       ?Mark1_FireRocket@@YAXXZ   202e13e0 f   NPC_AI_Mark1.obj
 0002:001907f0       ?Mark1_RocketAttack@@YAXW4qboolean@@@Z 202e17f0 f   NPC_AI_Mark1.obj
 0002:001908b0       ?Mark1_AttackDecision@@YAXXZ 202e18b0 f   NPC_AI_Mark1.obj
 0002:00190bf0       ?Mark1_Patrol@@YAXXZ       202e1bf0 f   NPC_AI_Mark1.obj
 0002:00190cc0       ?NPC_BSMark1_Default@@YAXXZ 202e1cc0 f   NPC_AI_Mark1.obj
 0002:00190d60       ?NPC_Mark2_Precache@@YAXXZ 202e1d60 f   NPC_AI_Mark2.obj
 0002:00190e80       ?NPC_Mark2_Part_Explode@@YAXPAUgentity_s@@H@Z 202e1e80 f   NPC_AI_Mark2.obj
 0002:00191210       ?NPC_Mark2_Pain@@YAXPAUgentity_s@@0H@Z 202e2210 f   NPC_AI_Mark2.obj
 0002:001913c0       ?Mark2_Hunt@@YAXXZ         202e23c0 f   NPC_AI_Mark2.obj
 0002:00191460       ?Mark2_FireBlaster@@YAXW4qboolean@@@Z 202e2460 f   NPC_AI_Mark2.obj
 0002:001917b0       ?Mark2_BlasterAttack@@YAXW4qboolean@@@Z 202e27b0 f   NPC_AI_Mark2.obj
 0002:001918a0       ?Mark2_AttackDecision@@YAXXZ 202e28a0 f   NPC_AI_Mark2.obj
 0002:00191cf0       ?Mark2_Patrol@@YAXXZ       202e2cf0 f   NPC_AI_Mark2.obj
 0002:00191de0       ?Mark2_Idle@@YAXXZ         202e2de0 f   NPC_AI_Mark2.obj
 0002:00191e30       ?NPC_BSMark2_Default@@YAXXZ 202e2e30 f   NPC_AI_Mark2.obj
 0002:00191ed0       ?NPC_MineMonster_Precache@@YAXXZ 202e2ed0 f   NPC_AI_MineMonster.obj
 0002:00191f80       ?MineMonster_Idle@@YAXXZ   202e2f80 f   NPC_AI_MineMonster.obj
 0002:00191ff0       ?MineMonster_Patrol@@YAXXZ 202e2ff0 f   NPC_AI_MineMonster.obj
 0002:00192250       ?MineMonster_Move@@YAXW4qboolean@@@Z 202e3250 f   NPC_AI_MineMonster.obj
 0002:001922e0       ?MineMonster_TryDamage@@YAXPAUgentity_s@@H@Z 202e32e0 f   NPC_AI_MineMonster.obj
 0002:00192550       ?MineMonster_Attack@@YAXXZ 202e3550 f   NPC_AI_MineMonster.obj
 0002:00192900       ?MineMonster_Combat@@YAXXZ 202e3900 f   NPC_AI_MineMonster.obj
 0002:00192ac0       ?NPC_MineMonster_Pain@@YAXPAUgentity_s@@0H@Z 202e3ac0 f   NPC_AI_MineMonster.obj
 0002:00192c60       ?NPC_BSMineMonster_Default@@YAXXZ 202e3c60 f   NPC_AI_MineMonster.obj
 0002:00192cf0       ?Rancor_SetBolts@@YAXPAUgentity_s@@@Z 202e3cf0 f   NPC_AI_Rancor.obj
 0002:00192e10       ?NPC_Rancor_Precache@@YAXXZ 202e3e10 f   NPC_AI_Rancor.obj
 0002:00192eb0       ?Rancor_Idle@@YAXXZ        202e3eb0 f   NPC_AI_Rancor.obj
 0002:00192f30       ?Rancor_CheckRoar@@YA?AW4qboolean@@PAUgentity_s@@@Z 202e3f30 f   NPC_AI_Rancor.obj
 0002:00193010       ?Rancor_Patrol@@YAXXZ      202e4010 f   NPC_AI_Rancor.obj
 0002:00193170       ?Rancor_Move@@YAXW4qboolean@@@Z 202e4170 f   NPC_AI_Rancor.obj
 0002:00193240       ?Rancor_DropVictim@@YAXPAUgentity_s@@@Z 202e4240 f   NPC_AI_Rancor.obj
 0002:00193550       ?Rancor_Swing@@YAXW4qboolean@@@Z 202e4550 f   NPC_AI_Rancor.obj
 0002:00193e60       ?Rancor_Smash@@YAXXZ       202e4e60 f   NPC_AI_Rancor.obj
 0002:00194240       ?Rancor_Bite@@YAXXZ        202e5240 f   NPC_AI_Rancor.obj
 0002:001945e0       ?Rancor_Attack@@YAXMW4qboolean@@@Z 202e55e0 f   NPC_AI_Rancor.obj
 0002:001953b0       ?Rancor_Combat@@YAXXZ      202e63b0 f   NPC_AI_Rancor.obj
 0002:001958e0       ?NPC_Rancor_Pain@@YAXPAUgentity_s@@0H@Z 202e68e0 f   NPC_AI_Rancor.obj
 0002:00195e10       ?Rancor_CheckDropVictim@@YAXXZ 202e6e10 f   NPC_AI_Rancor.obj
 0002:001960c0       ?Rancor_Crush@@YAXXZ       202e70c0 f   NPC_AI_Rancor.obj
 0002:001961d0       ?NPC_BSRancor_Default@@YAXXZ 202e71d0 f   NPC_AI_Rancor.obj
 0002:001968a0       ?NPC_Remote_Precache@@YAXXZ 202e78a0 f   NPC_AI_Remote.obj
 0002:00196910       ?NPC_Remote_Pain@@YAXPAUgentity_s@@0H@Z 202e7910 f   NPC_AI_Remote.obj
 0002:00196990       ?Remote_MaintainHeight@@YAXXZ 202e7990 f   NPC_AI_Remote.obj
 0002:00196e50       ?Remote_Strafe@@YAXXZ      202e7e50 f   NPC_AI_Remote.obj
 0002:001971c0       ?Remote_Hunt@@YAXW4qboolean@@00@Z 202e81c0 f   NPC_AI_Remote.obj
 0002:00197440       ?Remote_Fire@@YAXXZ        202e8440 f   NPC_AI_Remote.obj
 0002:001976c0       ?Remote_Ranged@@YAXW4qboolean@@00@Z 202e86c0 f   NPC_AI_Remote.obj
 0002:00197790       ?Remote_Attack@@YAXXZ      202e8790 f   NPC_AI_Remote.obj
 0002:001979f0       ?Remote_Idle@@YAXXZ        202e89f0 f   NPC_AI_Remote.obj
 0002:00197a40       ?Remote_Patrol@@YAXXZ      202e8a40 f   NPC_AI_Remote.obj
 0002:00197ad0       ?NPC_BSRemote_Default@@YAXXZ 202e8ad0 f   NPC_AI_Remote.obj
 0002:00197b50       ?RT_FireDecide@@YAXXZ      202e8b50 f   NPC_AI_RocketTrooper.obj
 0002:00197b80       ?RT_Flying@@YA?AW4qboolean@@PAUgentity_s@@@Z 202e8b80 f   NPC_AI_RocketTrooper.obj
 0002:00197bd0       ?NPC_BSSaberDroid_Patrol@@YAXXZ 202e8bd0 f   NPC_AI_SaberDroid.obj
 0002:001980c0       ?NPC_SaberDroid_PickAttack@@YAXXZ 202e90c0 f   NPC_AI_SaberDroid.obj
 0002:00198320       ?NPC_BSSaberDroid_Attack@@YAXXZ 202e9320 f   NPC_AI_SaberDroid.obj
 0002:00198a00       ?NPC_BSSD_Default@@YAXXZ   202e9a00 f   NPC_AI_SaberDroid.obj
 0002:00198b90       ?SandCreature_Precache@@YAXXZ 202e9b90 f   NPC_AI_Sand_creature.obj
 0002:00198c60       ?SandCreature_ClearTimers@@YAXPAUgentity_s@@@Z 202e9c60 f   NPC_AI_Sand_creature.obj
 0002:00198d70       ?NPC_SandCreature_Pain@@YAXPAUgentity_s@@0H@Z 202e9d70 f   NPC_AI_Sand_creature.obj
 0002:00199110       ?SandCreature_MoveEffect@@YAXXZ 202ea110 f   NPC_AI_Sand_creature.obj
 0002:001995c0       ?SandCreature_CheckAhead@@YA?AW4qboolean@@QAM@Z 202ea5c0 f   NPC_AI_Sand_creature.obj
 0002:00199900       ?SandCreature_Move@@YA?AW4qboolean@@XZ 202ea900 f   NPC_AI_Sand_creature.obj
 0002:00199e00       ?SandCreature_Attack@@YAXW4qboolean@@@Z 202eae00 f   NPC_AI_Sand_creature.obj
 0002:0019a550       ?SandCreature_EntScore@@YAMPAUgentity_s@@@Z 202eb550 f   NPC_AI_Sand_creature.obj
 0002:0019a770       ?SandCreature_SeekEnt@@YAXPAUgentity_s@@M@Z 202eb770 f   NPC_AI_Sand_creature.obj
 0002:0019a850       ?SandCreature_CheckMovingEnts@@YAXXZ 202eb850 f   NPC_AI_Sand_creature.obj
 0002:0019ac80       ?SandCreature_SeekAlert@@YAXH@Z 202ebc80 f   NPC_AI_Sand_creature.obj
 0002:0019ad40       ?SandCreature_CheckAlerts@@YAXXZ 202ebd40 f   NPC_AI_Sand_creature.obj
 0002:0019ade0       ?SandCreature_DistSqToGoal@@YAMW4qboolean@@@Z 202ebde0 f   NPC_AI_Sand_creature.obj
 0002:0019afc0       ?SandCreature_Chase@@YAXXZ 202ebfc0 f   NPC_AI_Sand_creature.obj
 0002:0019b640       ?SandCreature_Hunt@@YAXXZ  202ec640 f   NPC_AI_Sand_creature.obj
 0002:0019b6f0       ?SandCreature_Sleep@@YAXXZ 202ec6f0 f   NPC_AI_Sand_creature.obj
 0002:0019b7a0       ?SandCreature_PushEnts@@YAXXZ 202ec7a0 f   NPC_AI_Sand_creature.obj
 0002:0019bb10       ?NPC_BSSandCreature_Default@@YAXXZ 202ecb10 f   NPC_AI_Sand_creature.obj
 0002:0019c070       ?NPC_Seeker_Precache@@YAXXZ 202ed070 f   NPC_AI_Seeker.obj
 0002:0019c0e0       ?NPC_Seeker_Pain@@YAXPAUgentity_s@@0H@Z 202ed0e0 f   NPC_AI_Seeker.obj
 0002:0019c230       ?Seeker_MaintainHeight@@YAXXZ 202ed230 f   NPC_AI_Seeker.obj
 0002:0019c760       ?Seeker_Strafe@@YAXXZ      202ed760 f   NPC_AI_Seeker.obj
 0002:0019d010       ?Seeker_Hunt@@YAXW4qboolean@@0@Z 202ee010 f   NPC_AI_Seeker.obj
 0002:0019d2f0       ?Seeker_Fire@@YA?AW4qboolean@@XZ 202ee2f0 f   NPC_AI_Seeker.obj
 0002:0019d780       ?Seeker_Ranged@@YAXW4qboolean@@0@Z 202ee780 f   NPC_AI_Seeker.obj
 0002:0019d910       ?Seeker_Attack@@YAXXZ      202ee910 f   NPC_AI_Seeker.obj
 0002:0019db20       ?Seeker_FindEnemy@@YAXXZ   202eeb20 f   NPC_AI_Seeker.obj
 0002:0019e100       ?Seeker_FollowPlayer@@YAXXZ 202ef100 f   NPC_AI_Seeker.obj
 0002:0019e810       ?NPC_BSSeeker_Default@@YAXXZ 202ef810 f   NPC_AI_Seeker.obj
 0002:0019eb10       ?NPC_Sentry_Precache@@YAXXZ 202efb10 f   NPC_AI_Sentry.obj
 0002:0019ec30       ?sentry_use@@YAXPAUgentity_s@@00@Z 202efc30 f   NPC_AI_Sentry.obj
 0002:0019ecd0       ?NPC_Sentry_Pain@@YAXPAUgentity_s@@0H@Z 202efcd0 f   NPC_AI_Sentry.obj
 0002:0019ee00       ?Sentry_Fire@@YAXXZ        202efe00 f   NPC_AI_Sentry.obj
 0002:0019f490       ?Sentry_MaintainHeight@@YAXXZ 202f0490 f   NPC_AI_Sentry.obj
 0002:0019f910       ?Sentry_Idle@@YAXXZ        202f0910 f   NPC_AI_Sentry.obj
 0002:0019fa00       ?Sentry_Strafe@@YAXXZ      202f0a00 f   NPC_AI_Sentry.obj
 0002:0019fd40       ?Sentry_Hunt@@YAXW4qboolean@@0@Z 202f0d40 f   NPC_AI_Sentry.obj
 0002:0019ffd0       ?Sentry_RangedAttack@@YAXW4qboolean@@0@Z 202f0fd0 f   NPC_AI_Sentry.obj
 0002:001a01d0       ?Sentry_AttackDecision@@YAXXZ 202f11d0 f   NPC_AI_Sentry.obj
 0002:001a0420       ?NPC_Sentry_Patrol@@YAXXZ  202f1420 f   NPC_AI_Sentry.obj
 0002:001a0560       ?NPC_BSSentry_Default@@YAXXZ 202f1560 f   NPC_AI_Sentry.obj
 0002:001a0620       ?Sniper_ClearTimers@@YAXPAUgentity_s@@@Z 202f1620 f   NPC_AI_Sniper.obj
 0002:001a0780       ?NPC_Sniper_PlayConfusionSound@@YAXPAUgentity_s@@@Z 202f1780 f   NPC_AI_Sniper.obj
 0002:001a0880       ?NPC_Sniper_Pain@@YAXPAUgentity_s@@0H@Z 202f1880 f   NPC_AI_Sniper.obj
 0002:001a0960       ?NPC_BSSniper_Patrol@@YAXXZ 202f1960 f   NPC_AI_Sniper.obj
 0002:001a0e60       ?Sniper_EvaluateShot@@YA?AW4qboolean@@H@Z 202f1e60 f   NPC_AI_Sniper.obj
 0002:001a0f90       ?Sniper_FaceEnemy@@YAXXZ   202f1f90 f   NPC_AI_Sniper.obj
 0002:001a1840       ?Sniper_UpdateEnemyPos@@YAXXZ 202f2840 f   NPC_AI_Sniper.obj
 0002:001a19f0       ?Sniper_StartHide@@YAXXZ   202f29f0 f   NPC_AI_Sniper.obj
 0002:001a1ac0       ?NPC_BSSniper_Attack@@YAXXZ 202f2ac0 f   NPC_AI_Sniper.obj
 0002:001a3170       ?NPC_BSSniper_Default@@YAXXZ 202f4170 f   NPC_AI_Sniper.obj
 0002:001a31d0       ?NPC_Saboteur_Precache@@YAXXZ 202f41d0 f   NPC_AI_Stormtrooper.obj
 0002:001a3230       ?Saboteur_Decloak@@YAXPAUgentity_s@@H@Z 202f4230 f   NPC_AI_Stormtrooper.obj
 0002:001a3300       ?Saboteur_Cloak@@YAXPAUgentity_s@@@Z 202f4300 f   NPC_AI_Stormtrooper.obj
 0002:001a33d0       ?ST_AggressionAdjust@@YAXPAUgentity_s@@H@Z 202f43d0 f   NPC_AI_Stormtrooper.obj
 0002:001a34d0       ?ST_ClearTimers@@YAXPAUgentity_s@@@Z 202f44d0 f   NPC_AI_Stormtrooper.obj
 0002:001a3690       ?ST_MarkToCover@@YAXPAUgentity_s@@@Z 202f4690 f   NPC_AI_Stormtrooper.obj
 0002:001a3cb0       ?ST_StartFlee@@YAXPAUgentity_s@@0QAMHHH@Z 202f4cb0 f   NPC_AI_Stormtrooper.obj
 0002:001a3d80       ?ST_FleeFromGrenade@@YAXPAUgentity_s@@0QAM@Z 202f4d80 f   NPC_AI_Stormtrooper.obj
 0002:001a3ff0       ?ST_FallToDeath@@YAXPAUgentity_s@@@Z 202f4ff0 f   NPC_AI_Stormtrooper.obj
 0002:001a4020       ?NPC_ST_Pain@@YAXPAUgentity_s@@0H@Z 202f5020 f   NPC_AI_Stormtrooper.obj
 0002:001a4120       ?NPC_ST_SayMovementSpeech@@YAXXZ 202f5120 f   NPC_AI_Stormtrooper.obj
 0002:001a4290       ?NPC_ST_StoreMovementSpeech@@YAXHM@Z 202f5290 f   NPC_AI_Stormtrooper.obj
 0002:001a42f0       ?NPC_BSST_Sleep@@YAXXZ     202f52f0 f   NPC_AI_Stormtrooper.obj
 0002:001a44e0       ?NPC_CheckEnemyStealth@@YA?AW4qboolean@@PAUgentity_s@@@Z 202f54e0 f   NPC_AI_Stormtrooper.obj
 0002:001a5220       ?NPC_CheckPlayerTeamStealth@@YA?AW4qboolean@@XZ 202f6220 f   NPC_AI_Stormtrooper.obj
 0002:001a5330       ?NPC_CheckEnemiesInSpotlight@@YA?AW4qboolean@@XZ 202f6330 f   NPC_AI_Stormtrooper.obj
 0002:001a5a50       ?NPC_BSST_Investigate@@YAXXZ 202f6a50 f   NPC_AI_Stormtrooper.obj
 0002:001a69f0       ?NPC_BSST_Patrol@@YAXXZ    202f79f0 f   NPC_AI_Stormtrooper.obj
 0002:001a7320       ?ST_ResolveBlockedShot@@YAXH@Z 202f8320 f   NPC_AI_Stormtrooper.obj
 0002:001a7550       ?ST_TrackEnemy@@YAXPAUgentity_s@@QAM@Z 202f8550 f   NPC_AI_Stormtrooper.obj
 0002:001a76c0       ?ST_ApproachEnemy@@YAHPAUgentity_s@@@Z 202f86c0 f   NPC_AI_Stormtrooper.obj
 0002:001a77f0       ?ST_HuntEnemy@@YAXPAUgentity_s@@@Z 202f87f0 f   NPC_AI_Stormtrooper.obj
 0002:001a7930       ?ST_TransferTimers@@YAXPAUgentity_s@@0@Z 202f8930 f   NPC_AI_Stormtrooper.obj
 0002:001a7b30       ?ST_TransferMoveGoal@@YAXPAUgentity_s@@0@Z 202f8b30 f   NPC_AI_Stormtrooper.obj
 0002:001a7d60       ?ST_GetCPFlags@@YAHXZ      202f8d60 f   NPC_AI_Stormtrooper.obj
 0002:001a7fe0       ?ST_Commander@@YAXXZ       202f8fe0 f   NPC_AI_Stormtrooper.obj
 0002:001a8f40       ?Noghri_StickTrace@@YAXXZ  202f9f40 f   NPC_AI_Stormtrooper.obj
 0002:001a9680       ?NPC_BSST_Attack@@YAXXZ    202fa680 f   NPC_AI_Stormtrooper.obj
 0002:001ab530       ?NPC_BSST_Default@@YAXXZ   202fc530 f   NPC_AI_Stormtrooper.obj
 0002:001ab7f0       ?AI_GetGroupSize@@YAHQAMHHPAUgentity_s@@@Z 202fc7f0 f   NPC_AI_Utils.obj
 0002:001aba50       ?AI_GetGroupSize2@@YAHPAUgentity_s@@H@Z 202fca50 f   NPC_AI_Utils.obj
 0002:001abae0       ?AI_ClosestGroupEntityNumToPoint@@YAHPAUAIGroupInfo_s@@QAM@Z 202fcae0 f   NPC_AI_Utils.obj
 0002:001abc10       ?AI_SetClosestBuddy@@YAXPAUAIGroupInfo_s@@@Z 202fcc10 f   NPC_AI_Utils.obj
 0002:001abe30       ?AI_SortGroupByPathCostToEnemy@@YAXPAUAIGroupInfo_s@@@Z 202fce30 f   NPC_AI_Utils.obj
 0002:001ac2b0       ?AI_FindSelfInPreviousGroup@@YA?AW4qboolean@@PAUgentity_s@@@Z 202fd2b0 f   NPC_AI_Utils.obj
 0002:001ac3b0       ?AI_InsertGroupMember@@YAXPAUAIGroupInfo_s@@PAUgentity_s@@@Z 202fd3b0 f   NPC_AI_Utils.obj
 0002:001ac4f0       ?AI_TryJoinPreviousGroup@@YA?AW4qboolean@@PAUgentity_s@@@Z 202fd4f0 f   NPC_AI_Utils.obj
 0002:001ac600       ?AI_GetNextEmptyGroup@@YA?AW4qboolean@@PAUgentity_s@@@Z 202fd600 f   NPC_AI_Utils.obj
 0002:001ac6f0       ?AI_ValidateNoEnemyGroupMember@@YA?AW4qboolean@@PAUAIGroupInfo_s@@PAUgentity_s@@@Z 202fd6f0 f   NPC_AI_Utils.obj
 0002:001ac8b0       ?AI_ValidateGroupMember@@YA?AW4qboolean@@PAUAIGroupInfo_s@@PAUgentity_s@@@Z 202fd8b0 f   NPC_AI_Utils.obj
 0002:001acc10       ?AI_GetGroup@@YAXPAUgentity_s@@@Z 202fdc10 f   NPC_AI_Utils.obj
 0002:001ad080       ?AI_SetNewGroupCommander@@YAXPAUAIGroupInfo_s@@@Z 202fe080 f   NPC_AI_Utils.obj
 0002:001ad180       ?AI_DeleteGroupMember@@YAXPAUAIGroupInfo_s@@H@Z 202fe180 f   NPC_AI_Utils.obj
 0002:001ad340       ?AI_DeleteSelfFromGroup@@YAXPAUgentity_s@@@Z 202fe340 f   NPC_AI_Utils.obj
 0002:001ad400       ?AI_GroupMemberKilled@@YAXPAUgentity_s@@@Z 202fe400 f   NPC_AI_Utils.obj
 0002:001ad810       ?AI_GroupUpdateEnemyLastSeen@@YAXPAUAIGroupInfo_s@@QAM@Z 202fe810 f   NPC_AI_Utils.obj
 0002:001ad890       ?AI_GroupUpdateClearShotTime@@YAXPAUAIGroupInfo_s@@@Z 202fe890 f   NPC_AI_Utils.obj
 0002:001ad8e0       ?AI_GroupUpdateSquadstates@@YAXPAUAIGroupInfo_s@@PAUgentity_s@@H@Z 202fe8e0 f   NPC_AI_Utils.obj
 0002:001ada10       ?AI_RefreshGroup@@YA?AW4qboolean@@PAUAIGroupInfo_s@@@Z 202fea10 f   NPC_AI_Utils.obj
 0002:001ae140       ?AI_UpdateGroups@@YAXXZ    202ff140 f   NPC_AI_Utils.obj
 0002:001ae210       ?AI_GroupContainsEntNum@@YA?AW4qboolean@@PAUAIGroupInfo_s@@H@Z 202ff210 f   NPC_AI_Utils.obj
 0002:001ae2a0       ?AI_CheckEnemyCollision@@YA?AW4qboolean@@PAUgentity_s@@W41@@Z 202ff2a0 f   NPC_AI_Utils.obj
 0002:001ae3c0       ?AI_DistributeAttack@@YAPAUgentity_s@@PAU1@0HH@Z 202ff3c0 f   NPC_AI_Utils.obj
 0002:001ae6e0       ?FindClosestPlayer@@YAPAUgentity_s@@QAMH@Z 202ff6e0 f   NPC_AI_Utils.obj
 0002:001ae9b0       ?DistancetoClosestPlayer@@YAMQAMH@Z 202ff9b0 f   NPC_AI_Utils.obj
 0002:001aeb10       ?InPlayersFOV@@YA?AW4qboolean@@QAMHHHW41@@Z 202ffb10 f   NPC_AI_Utils.obj
 0002:001aec80       ?Wampa_SetBolts@@YAXPAUgentity_s@@@Z 202ffc80 f   NPC_AI_Wampa.obj
 0002:001aee20       ?NPC_Wampa_Precache@@YAXXZ 202ffe20 f   NPC_AI_Wampa.obj
 0002:001aee70       ?Wampa_Idle@@YAXXZ         202ffe70 f   NPC_AI_Wampa.obj
 0002:001aeef0       ?Wampa_CheckRoar@@YA?AW4qboolean@@PAUgentity_s@@@Z 202ffef0 f   NPC_AI_Wampa.obj
 0002:001aeff0       ?Wampa_Patrol@@YAXXZ       202ffff0 f   NPC_AI_Wampa.obj
 0002:001af150       ?Wampa_Move@@YAXW4qboolean@@@Z 20300150 f   NPC_AI_Wampa.obj
 0002:001af420       ?Wampa_Slash@@YAXHW4qboolean@@@Z 20300420 f   NPC_AI_Wampa.obj
 0002:001afc90       ?Wampa_Attack@@YAXMW4qboolean@@@Z 20300c90 f   NPC_AI_Wampa.obj
 0002:001b0220       ?Wampa_Combat@@YAXXZ       20301220 f   NPC_AI_Wampa.obj
 0002:001b07a0       ?NPC_Wampa_Pain@@YAXPAUgentity_s@@0H@Z 203017a0 f   NPC_AI_Wampa.obj
 0002:001b0c30       ?NPC_BSWampa_Default@@YAXXZ 20301c30 f   NPC_AI_Wampa.obj
 0002:001b12d0       ?NPC_BSAdvanceFight@@YAXXZ 203022d0 f   NPC_behavior.obj
 0002:001b1d10       ?NPC_BSCinematic@@YAXXZ    20302d10 f   NPC_behavior.obj
 0002:001b1f00       ?NPC_BSWait@@YAXXZ         20302f00 f   NPC_behavior.obj
 0002:001b1f50       ?NPC_BSSleep@@YAXXZ        20302f50 f   NPC_behavior.obj
 0002:001b1fd0       ?NPC_BSFollowLeader_UpdateLeader@@YA?AW4qboolean@@XZ 20302fd0 f   NPC_behavior.obj
 0002:001b2220       ?NPC_BSFollowLeader_UpdateEnemy@@YAXXZ 20303220 f   NPC_behavior.obj
 0002:001b2730       ?NPC_BSFollowLeader_AttackEnemy@@YA?AW4qboolean@@XZ 20303730 f   NPC_behavior.obj
 0002:001b2a80       ?NPC_BSFollowLeader_CanAttack@@YA?AW4qboolean@@XZ 20303a80 f   NPC_behavior.obj
 0002:001b2b20       ?NPC_BSFollowLeader_InFullBodyAttack@@YA?AW4qboolean@@XZ 20303b20 f   NPC_behavior.obj
 0002:001b2be0       ?NPC_BSFollowLeader_LookAtLeader@@YAXXZ 20303be0 f   NPC_behavior.obj
 0002:001b2d90       ?NPC_BSFollowLeader@@YAXXZ 20303d90 f   NPC_behavior.obj
 0002:001b3280       ?NPC_BSJump@@YAXXZ         20304280 f   NPC_behavior.obj
 0002:001b3e50       ?NPC_BSRemove@@YAXXZ       20304e50 f   NPC_behavior.obj
 0002:001b3f80       ?NPC_BSSearch@@YAXXZ       20304f80 f   NPC_behavior.obj
 0002:001b4720       ?NPC_BSSearchStart@@YAXHW4bState_t@@@Z 20305720 f   NPC_behavior.obj
 0002:001b47f0       ?NPC_BSNoClip@@YAXXZ       203057f0 f   NPC_behavior.obj
 0002:001b4b00       ?NPC_BSWander@@YAXXZ       20305b00 f   NPC_behavior.obj
 0002:001b5100       ?NPC_CanSurrender@@YA?AW4qboolean@@XZ 20306100 f   NPC_behavior.obj
 0002:001b52c0       ?NPC_Surrender@@YAXXZ      203062c0 f   NPC_behavior.obj
 0002:001b56e0       ?NPC_CheckSurrender@@YA?AW4qboolean@@XZ 203066e0 f   NPC_behavior.obj
 0002:001b5ef0       ?NPC_JawaFleeSound@@YAXXZ  20306ef0 f   NPC_behavior.obj
 0002:001b5ff0       ?NPC_BSFlee@@YAXXZ         20306ff0 f   NPC_behavior.obj
 0002:001b65b0       ?NPC_StartFlee@@YAXPAUgentity_s@@QAMHHH@Z 203075b0 f   NPC_behavior.obj
 0002:001b6980       ?G_StartFlee@@YAXPAUgentity_s@@0QAMHHH@Z 20307980 f   NPC_behavior.obj
 0002:001b6a10       ?NPC_BSEmplaced@@YAXXZ     20307a10 f   NPC_behavior.obj
 0002:001b6dd0       ?G_ClearEnemy@@YAXPAUgentity_s@@@Z 20307dd0 f   NPC_combat.obj
 0002:001b6f10       ?G_AngerAlert@@YAXPAUgentity_s@@@Z 20307f10 f   NPC_combat.obj
 0002:001b6fe0       ?G_TeamEnemy@@YA?AW4qboolean@@PAUgentity_s@@@Z 20307fe0 f   NPC_combat.obj
 0002:001b7180       ?G_CheckSaberAllyAttackDelay@@YA?AW4qboolean@@PAUgentity_s@@0@Z 20308180 f   NPC_combat.obj
 0002:001b7530       ?G_AttackDelay@@YAXPAUgentity_s@@0@Z 20308530 f   NPC_combat.obj
 0002:001b7c30       ?G_ForceSaberOn@@YAXPAUgentity_s@@@Z 20308c30 f   NPC_combat.obj
 0002:001b7d50       ?G_SetEnemy@@YAXPAUgentity_s@@0@Z 20308d50 f   NPC_combat.obj
 0002:001b8760       ?ChangeWeapon@@YAXPAUgentity_s@@H@Z 20309760 f   NPC_combat.obj
 0002:001b9200       ?NPC_ChangeWeapon@@YAXH@Z  2030a200 f   NPC_combat.obj
 0002:001b9290       ?NPC_ApplyWeaponFireDelay@@YAXXZ 2030a290 f   NPC_combat.obj
 0002:001b92f0       ?ShootThink@@YAXXZ         2030a2f0 f   NPC_combat.obj
 0002:001b9600       ?WeaponThink@@YAXW4qboolean@@@Z 2030a600 f   NPC_combat.obj
 0002:001b9830       ?HaveWeapon@@YA?AW4qboolean@@H@Z 2030a830 f   NPC_combat.obj
 0002:001b9880       ?EntIsGlass@@YA?AW4qboolean@@PAUgentity_s@@@Z 2030a880 f   NPC_combat.obj
 0002:001b9920       ?ShotThroughGlass@@YA?AW4qboolean@@PAUtrace_t@@PAUgentity_s@@QAMH@Z 2030a920 f   NPC_combat.obj
 0002:001b9a50       ?CanShoot@@YA?AW4qboolean@@PAUgentity_s@@0@Z 2030aa50 f   NPC_combat.obj
 0002:001b9d80       ?NPC_CheckPossibleEnemy@@YAXPAUgentity_s@@W4visibility_t@@@Z 2030ad80 f   NPC_combat.obj
 0002:001b9fc0       ?NPC_AttackDebounceForWeapon@@YAHXZ 2030afc0 f   NPC_combat.obj
 0002:001ba0a0       ?NPC_MaxDistSquaredForWeapon@@YAMXZ 2030b0a0 f   NPC_combat.obj
 0002:001ba2a0       ?G_ValidEnemy@@YA?AW4qboolean@@PAUgentity_s@@0@Z 2030b2a0 f   NPC_combat.obj
 0002:001ba5f0       ?NPC_ValidEnemy@@YA?AW4qboolean@@PAUgentity_s@@@Z 2030b5f0 f   NPC_combat.obj
 0002:001ba650       ?ValidEnemy@@YA?AW4qboolean@@PAUgentity_s@@@Z 2030b650 f   NPC_combat.obj
 0002:001ba6b0       ?NPC_EnemyTooFar@@YA?AW4qboolean@@PAUgentity_s@@MW41@@Z 2030b6b0 f   NPC_combat.obj
 0002:001ba870       ?NPC_PickEnemy@@YAPAUgentity_s@@PAU1@HW4qboolean@@11@Z 2030b870 f   NPC_combat.obj
 0002:001bb660       ?NPC_PickAlly@@YAPAUgentity_s@@W4qboolean@@M00@Z 2030c660 f   NPC_combat.obj
 0002:001bbb80       ?NPC_CheckEnemy@@YAPAUgentity_s@@W4qboolean@@00@Z 2030cb80 f   NPC_combat.obj
 0002:001bc250       ?NPC_ClearShot@@YA?AW4qboolean@@PAUgentity_s@@@Z 2030d250 f   NPC_combat.obj
 0002:001bc450       ?NPC_ShotEntity@@YAHPAUgentity_s@@QAM@Z 2030d450 f   NPC_combat.obj
 0002:001bc7f0       ?NPC_EvaluateShot@@YA?AW4qboolean@@HW41@@Z 2030d7f0 f   NPC_combat.obj
 0002:001bc890       ?NPC_CheckAttack@@YA?AW4qboolean@@M@Z 2030d890 f   NPC_combat.obj
 0002:001bc960       ?NPC_CheckDefend@@YA?AW4qboolean@@M@Z 2030d960 f   NPC_combat.obj
 0002:001bca20       ?NPC_CheckCanAttack@@YA?AW4qboolean@@MW41@@Z 2030da20 f   NPC_combat.obj
 0002:001bd400       ?IdealDistance@@YAMPAUgentity_s@@@Z 2030e400 f   NPC_combat.obj
 0002:001bd4d0       ?SP_point_combat@@YAXPAUgentity_s@@@Z 2030e4d0 f   NPC_combat.obj
 0002:001bd670       ?CP_FindCombatPointWaypoints@@YAXXZ 2030e670 f   NPC_combat.obj
 0002:001bd740       ?NPC_FindCombatPoint@@YAHQBM0QAMHMH@Z 2030e740 f   NPC_combat.obj
 0002:001be3a0       ?NPC_FindCombatPointRetry@@YAHQBM0QAMPAHMH@Z 2030f3a0 f   NPC_combat.obj
 0002:001be670       ?NPC_FindSquadPoint@@YAHQAM@Z 2030f670 f   NPC_combat.obj
 0002:001be760       ?NPC_ReserveCombatPoint@@YA?AW4qboolean@@H@Z 2030f760 f   NPC_combat.obj
 0002:001be7e0       ?NPC_FreeCombatPoint@@YA?AW4qboolean@@HW41@@Z 2030f7e0 f   NPC_combat.obj
 0002:001be870       ?NPC_SetCombatPoint@@YA?AW4qboolean@@H@Z 2030f870 f   NPC_combat.obj
 0002:001be930       ?NPC_SearchForWeapons@@YAPAUgentity_s@@XZ 2030f930 f   NPC_combat.obj
 0002:001beb80       ?NPC_SetPickUpGoal@@YAXPAUgentity_s@@@Z 2030fb80 f   NPC_combat.obj
 0002:001bece0       ?NPC_CheckGetNewWeapon@@YAXXZ 2030fce0 f   NPC_combat.obj
 0002:001bee20       ?NPC_AimAdjust@@YAXH@Z     2030fe20 f   NPC_combat.obj
 0002:001befd0       ?G_AimSet@@YAXPAUgentity_s@@H@Z 2030ffd0 f   NPC_combat.obj
 0002:001bf080       ?SetGoal@@YAXPAUgentity_s@@M@Z 20310080 f   NPC_goal.obj
 0002:001bf0e0       ?NPC_SetGoal@@YAXPAUgentity_s@@M@Z 203100e0 f   NPC_goal.obj
 0002:001bf1a0       ?NPC_ClearGoal@@YAXXZ      203101a0 f   NPC_goal.obj
 0002:001bf280       ?G_BoundsOverlap@@YA?AW4qboolean@@QBM000@Z 20310280 f   NPC_goal.obj
 0002:001bf370       ?NPC_ReachedGoal@@YAXXZ    20310370 f   NPC_goal.obj
 0002:001bf400       ?ReachedGoal@@YA?AW4qboolean@@PAUgentity_s@@@Z 20310400 f   NPC_goal.obj
 0002:001bf4e0       ?UpdateGoal@@YAPAUgentity_s@@XZ 203104e0 f   NPC_goal.obj
 0002:001bf5a0       ?Debug_Printf@@YAXPAUvmCvar_t@@HPADZZ 203105a0 f   NPC_misc.obj
 0002:001bf6f0       ?Debug_NPCPrintf@@YAXPAUgentity_s@@PAUvmCvar_t@@HPADZZ 203106f0 f   NPC_misc.obj
 0002:001bf850       ?NPC_CanTryJump@@YA?AW4qboolean@@XZ 20310850 f   NPC_move.obj
 0002:001bf980       ?NPC_TryJump3@@YA?AW4qboolean@@QBMMM@Z 20310980 f   NPC_move.obj
 0002:001bfc80       ?NPC_TryJump2@@YA?AW4qboolean@@PAUgentity_s@@MM@Z 20310c80 f   NPC_move.obj
 0002:001bfeb0       ?NPC_TryJump@@YA?AW4qboolean@@XZ 20310eb0 f   NPC_move.obj
 0002:001c13b0       ?NPC_TryJump_Pos@@YA?AW4qboolean@@QBMMM@Z 203123b0 f   NPC_move.obj
 0002:001c16b0       ?NPC_TryJump_Gent@@YA?AW4qboolean@@PAUgentity_s@@MM@Z 203126b0 f   NPC_move.obj
 0002:001c18e0       ?NPC_JumpAnimation@@YAXXZ  203128e0 f   NPC_move.obj
 0002:001c1a40       ?NPC_JumpSound@@YAXXZ      20312a40 f   NPC_move.obj
 0002:001c1af0       ?NPC_Jumping@@YA?AW4qboolean@@XZ 20312af0 f   NPC_move.obj
 0002:001c1ba0       ?NPC_JumpBackingUp@@YA?AW4qboolean@@XZ 20312ba0 f   NPC_move.obj
 0002:001c26a0       ?NPC_ClearPathToGoal@@YA?AW4qboolean@@QAMPAUgentity_s@@@Z 203136a0 f   NPC_move.obj
 0002:001c2a80       ?NAV_DirSafe@@YA?AW4qboolean@@PAUgentity_s@@QAMM@Z 20313a80 f   NPC_move.obj
 0002:001c2c30       ?NAV_GetLastMove@@YAXPAUnavInfo_s@@@Z 20313c30 f   NPC_move.obj
 0002:001c2c80       ?NPC_GetMoveDirection@@YA?AW4qboolean@@QAMPAM@Z 20313c80 f   NPC_move.obj
 0002:001c3080       ?NPC_GetMoveInformation@@YA?AW4qboolean@@QAMPAM@Z 20314080 f i NPC_move.obj
 0002:001c3200       ?NPC_GetMoveDirectionAltRoute@@YA?AW4qboolean@@QAMPAMW41@@Z 20314200 f   NPC_move.obj
 0002:001c35e0       ?G_UcmdMoveForDir@@YAXPAUgentity_s@@PAUusercmd_s@@QAM@Z 203145e0 f   NPC_move.obj
 0002:001c3830       ?NPC_MoveToGoal@@YA?AW4qboolean@@W41@@Z 20314830 f   NPC_move.obj
 0002:001c3b00       ?NPC_CheckCombatMove@@YA?AW4qboolean@@XZ 20314b00 f i NPC_move.obj
 0002:001c3be0       ?NPC_SlideMoveToGoal@@YA?AW4qboolean@@XZ 20314be0 f   NPC_move.obj
 0002:001c3c70       ?NPC_ApplyRoff@@YAXXZ      20314c70 f   NPC_move.obj
 0002:001c3cf0       ?NPC_SetPainEvent@@YAXPAUgentity_s@@@Z 20314cf0 f   NPC_reactions.obj
 0002:001c3de0       ?NPC_GetPainChance@@YAMPAUgentity_s@@H@Z 20314de0 f   NPC_reactions.obj
 0002:001c3f30       ?NPC_ChoosePainAnimation@@YAXPAUgentity_s@@0QAMHHHH@Z 20314f30 f   NPC_reactions.obj
 0002:001c44d0       ?G_CheckControlledTurretEnemy@@YAPAUgentity_s@@PAU1@0W4qboolean@@@Z 203154d0 f   NPC_reactions.obj
 0002:001c4510       ?NPC_Pain@@YAXPAUgentity_s@@0H@Z 20315510 f   NPC_reactions.obj
 0002:001c4d30       ?npc_push@@YAXPAUgentity_s@@0PAUtrace_t@@@Z 20315d30 f   NPC_reactions.obj
 0002:001c5010       ?NPC_Touch@@YAXPAUgentity_s@@0PAUtrace_t@@@Z 20316010 f   NPC_reactions.obj
 0002:001c5400       ?NPC_TempLookTarget@@YAXPAUgentity_s@@HHH@Z 20316400 f   NPC_reactions.obj
 0002:001c54d0       ?NPC_Respond@@YAXPAUgentity_s@@H@Z 203164d0 f   NPC_reactions.obj
 0002:001c5e10       ?NPC_UseResponse@@YAXPAUgentity_s@@0W4qboolean@@@Z 20316e10 f   NPC_reactions.obj
 0002:001c5f60       ?NPC_Use@@YAXPAUgentity_s@@00@Z 20316f60 f   NPC_reactions.obj
 0002:001c6190       ?G_ClearLineOfSight@@YA?AW4qboolean@@QBM0HH@Z 20317190 f   NPC_senses.obj
 0002:001c6310       ?CanSee@@YA?AW4qboolean@@PAUgentity_s@@@Z 20317310 f   NPC_senses.obj
 0002:001c6560       ?InFront@@YA?AW4qboolean@@QAM00M@Z 20317560 f   NPC_senses.obj
 0002:001c6700       ?InFOV3@@YA?AW4qboolean@@QAM00HH@Z 20317700 f   NPC_senses.obj
 0002:001c68b0       ?InFOV2@@YA?AW4qboolean@@QAMPAUgentity_s@@HH@Z 203178b0 f   NPC_senses.obj
 0002:001c6a10       ?InFOV@@YA?AW4qboolean@@PAUgentity_s@@0HH@Z 20317a10 f   NPC_senses.obj
 0002:001c6f80       ?InVisrange@@YA?AW4qboolean@@PAUgentity_s@@@Z 20317f80 f   NPC_senses.obj
 0002:001c7150       ?NPC_CheckVisibility@@YA?AW4visibility_t@@PAUgentity_s@@H@Z 20318150 f   NPC_senses.obj
 0002:001c7300       ?G_GetLightLevel@@YAMQAM0@Z 20318300 f   NPC_senses.obj
 0002:001c7340       ?G_RememberAlertEvent@@YA?AW4qboolean@@PAUgentity_s@@H@Z 20318340 f   NPC_senses.obj
 0002:001c74c0       ?G_CheckAlertEvents@@YAHPAUgentity_s@@W4qboolean@@1MMH1H1@Z 203184c0 f   NPC_senses.obj
 0002:001c7d30       ?NPC_CheckAlertEvents@@YAHW4qboolean@@0H0H0@Z 20318d30 f   NPC_senses.obj
 0002:001c7dd0       ?G_CheckForDanger@@YA?AW4qboolean@@PAUgentity_s@@H@Z 20318dd0 f   NPC_senses.obj
 0002:001c8010       ?NPC_CheckForDanger@@YA?AW4qboolean@@H@Z 20319010 f   NPC_senses.obj
 0002:001c8070       ?AddSoundEvent@@YAXPAUgentity_s@@QAMMW4alertEventLevel_e@@W4qboolean@@3@Z 20319070 f   NPC_senses.obj
 0002:001c8260       ?AddSightEvent@@YAXPAUgentity_s@@QAMMW4alertEventLevel_e@@M@Z 20319260 f   NPC_senses.obj
 0002:001c83f0       ?ClearPlayerAlertEvents@@YAXXZ 203193f0 f   NPC_senses.obj
 0002:001c8580       ?RemoveOldestAlert@@YA?AW4qboolean@@XZ 20319580 f   NPC_senses.obj
 0002:001c8700       ?G_ClearLOS@@YA?AW4qboolean@@PAUgentity_s@@QBM1@Z 20319700 f   NPC_senses.obj
 0002:001c8880       ?G_ClearLOS2@@YA?AW4qboolean@@PAUgentity_s@@0QBM@Z 20319880 f   NPC_senses.obj
 0002:001c8940       ?G_ClearLOS3@@YA?AW4qboolean@@PAUgentity_s@@QBM0@Z 20319940 f   NPC_senses.obj
 0002:001c8a50       ?G_ClearLOS4@@YA?AW4qboolean@@PAUgentity_s@@0@Z 20319a50 f   NPC_senses.obj
 0002:001c8b10       ?G_ClearLOS5@@YA?AW4qboolean@@PAUgentity_s@@QBM@Z 20319b10 f   NPC_senses.obj
 0002:001c8bd0       ?NPC_GetHFOVPercentage@@YAMQAM00M@Z 20319bd0 f   NPC_senses.obj
 0002:001c8d30       ?NPC_GetVFOVPercentage@@YAMQAM00M@Z 20319d30 f   NPC_senses.obj
 0002:001c8e90       ?G_FindLocalInterestPoint@@YAHPAUgentity_s@@@Z 20319e90 f   NPC_senses.obj
 0002:001c9170       ?SP_target_interest@@YAXPAUgentity_s@@@Z 2031a170 f   NPC_senses.obj
 0002:001c92b0       ?G_CheckSpecialPersistentEvents@@YAXPAUgentity_s@@@Z 2031a2b0 f   NPC_senses.obj
 0002:001c94f0       ?G_AddVoiceEvent@@YAXPAUgentity_s@@HH@Z 2031a4f0 f   NPC_sounds.obj
 0002:001c9680       ?NPC_PlayConfusionSound@@YAXPAUgentity_s@@@Z 2031a680 f   NPC_sounds.obj
 0002:001c9820       ?WP_SetSaberModel@@YAHPAUgclient_s@@W4class_t@@@Z 2031a820 f   NPC_spawn.obj
 0002:001c9860       ?NPC_PainFunc@@YAP6AXPAUgentity_s@@0H@Z0@Z 2031a860 f   NPC_spawn.obj
 0002:001c9a60       ?NPC_TouchFunc@@YAP6AXPAUgentity_s@@0PAUtrace_t@@@Z0@Z 2031aa60 f   NPC_spawn.obj
 0002:001c9aa0       ?G_ClassSetDontFlee@@YAXPAUgentity_s@@@Z 2031aaa0 f   NPC_spawn.obj
 0002:001c9cf0       ?NPC_SetMiscDefaultData@@YAXPAUgentity_s@@@Z 2031acf0 f   NPC_spawn.obj
 0002:001caf20       ?NPC_WeaponsForTeam@@YAHHHPBD@Z 2031bf20 f   NPC_spawn.obj
 0002:001cb670       ?NPC_SetWeapons@@YAXPAUgentity_s@@@Z 2031c670 f   NPC_spawn.obj
 0002:001cb820       ?NPC_SpawnEffect@@YAXPAUgentity_s@@@Z 2031c820 f   NPC_spawn.obj
 0002:001cb850       ?NPC_SetFX_SpawnStates@@YAXPAUgentity_s@@@Z 2031c850 f   NPC_spawn.obj
 0002:001cb8d0       ?NPC_SpotWouldTelefrag@@YA?AW4qboolean@@PAUgentity_s@@@Z 2031c8d0 f   NPC_spawn.obj
 0002:001cbb50       ?NPC_Begin@@YAXPAUgentity_s@@@Z 2031cb50 f   NPC_spawn.obj
 0002:001cd0a0       ?New_NPC_t@@YAPAUgNPC_t@@H@Z 2031e0a0 f   NPC_spawn.obj
 0002:001cd140       ?NPC_DefaultScriptFlags@@YAXPAUgentity_s@@@Z 2031e140 f   NPC_spawn.obj
 0002:001cd1a0       ?NPC_SafeSpawn@@YA?AW4qboolean@@PAUgentity_s@@M@Z 2031e1a0 f   NPC_spawn.obj
 0002:001cd4b0       ?NPC_Spawn_Do@@YAPAUgentity_s@@PAU1@@Z 2031e4b0 f   NPC_spawn.obj
 0002:001ce910       ?NPC_Spawn_Go@@YAXPAUgentity_s@@@Z 2031f910 f   NPC_spawn.obj
 0002:001ce960       ?NPC_ShySpawn@@YAXPAUgentity_s@@@Z 2031f960 f   NPC_spawn.obj
 0002:001cea70       ?NPC_Spawn@@YAXPAUgentity_s@@00@Z 2031fa70 f   NPC_spawn.obj
 0002:001ceb50       ?NPC_PrecacheType@@YAXPAD@Z 2031fb50 f   NPC_spawn.obj
 0002:001cebd0       ?SP_NPC_spawner@@YAXPAUgentity_s@@@Z 2031fbd0 f   NPC_spawn.obj
 0002:001ceed0       ?NPC_VehiclePrecache@@YA?AW4qboolean@@PAUgentity_s@@@Z 2031fed0 f   NPC_spawn.obj
 0002:001cf260       ?NPC_VehicleSpawnUse@@YAXPAUgentity_s@@00@Z 20320260 f   NPC_spawn.obj
 0002:001cf2f0       ?SP_NPC_Vehicle@@YAXPAUgentity_s@@@Z 203202f0 f   NPC_spawn.obj
 0002:001cf5a0       ?SP_NPC_Kyle@@YAXPAUgentity_s@@@Z 203205a0 f   NPC_spawn.obj
 0002:001cf610       ?SP_NPC_Lando@@YAXPAUgentity_s@@@Z 20320610 f   NPC_spawn.obj
 0002:001cf670       ?SP_NPC_Jan@@YAXPAUgentity_s@@@Z 20320670 f   NPC_spawn.obj
 0002:001cf6d0       ?SP_NPC_Luke@@YAXPAUgentity_s@@@Z 203206d0 f   NPC_spawn.obj
 0002:001cf740       ?SP_NPC_MonMothma@@YAXPAUgentity_s@@@Z 20320740 f   NPC_spawn.obj
 0002:001cf7a0       ?SP_NPC_Tavion@@YAXPAUgentity_s@@@Z 203207a0 f   NPC_spawn.obj
 0002:001cf810       ?SP_NPC_Tavion_New@@YAXPAUgentity_s@@@Z 20320810 f   NPC_spawn.obj
 0002:001cf8c0       ?SP_NPC_Alora@@YAXPAUgentity_s@@@Z 203208c0 f   NPC_spawn.obj
 0002:001cf950       ?SP_NPC_Reborn_New@@YAXPAUgentity_s@@@Z 20320950 f   NPC_spawn.obj
 0002:001cfa80       ?SP_NPC_Cultist_Saber@@YAXPAUgentity_s@@@Z 20320a80 f   NPC_spawn.obj
 0002:001cfc00       ?SP_NPC_Cultist_Saber_Powers@@YAXPAUgentity_s@@@Z 20320c00 f   NPC_spawn.obj
 0002:001cfd80       ?SP_NPC_Cultist@@YAXPAUgentity_s@@@Z 20320d80 f   NPC_spawn.obj
 0002:001cff70       ?SP_NPC_Cultist_Commando@@YAXPAUgentity_s@@@Z 20320f70 f   NPC_spawn.obj
 0002:001cffe0       ?SP_NPC_Cultist_Destroyer@@YAXPAUgentity_s@@@Z 20320fe0 f   NPC_spawn.obj
 0002:001d0040       ?SP_NPC_Reelo@@YAXPAUgentity_s@@@Z 20321040 f   NPC_spawn.obj
 0002:001d00a0       ?SP_NPC_Galak@@YAXPAUgentity_s@@@Z 203210a0 f   NPC_spawn.obj
 0002:001d0130       ?SP_NPC_Desann@@YAXPAUgentity_s@@@Z 20321130 f   NPC_spawn.obj
 0002:001d01a0       ?SP_NPC_Bartender@@YAXPAUgentity_s@@@Z 203211a0 f   NPC_spawn.obj
 0002:001d0200       ?SP_NPC_MorganKatarn@@YAXPAUgentity_s@@@Z 20321200 f   NPC_spawn.obj
 0002:001d0260       ?SP_NPC_Jedi@@YAXPAUgentity_s@@@Z 20321260 f   NPC_spawn.obj
 0002:001d04c0       ?SP_NPC_Prisoner@@YAXPAUgentity_s@@@Z 203214c0 f   NPC_spawn.obj
 0002:001d0560       ?SP_NPC_Rebel@@YAXPAUgentity_s@@@Z 20321560 f   NPC_spawn.obj
 0002:001d0600       ?SP_NPC_Stormtrooper@@YAXPAUgentity_s@@@Z 20321600 f   NPC_spawn.obj
 0002:001d0720       ?SP_NPC_StormtrooperOfficer@@YAXPAUgentity_s@@@Z 20321720 f   NPC_spawn.obj
 0002:001d0790       ?SP_NPC_Human_Merc@@YAXPAUgentity_s@@@Z 20321790 f   NPC_spawn.obj
 0002:001d08a0       ?SP_NPC_Rosh_Penin@@YAXPAUgentity_s@@@Z 203218a0 f   NPC_spawn.obj
 0002:001d0950       ?SP_NPC_Saboteur@@YAXPAUgentity_s@@@Z 20321950 f   NPC_spawn.obj
 0002:001d0a20       ?SP_NPC_Chewbacca@@YAXPAUgentity_s@@@Z 20321a20 f   NPC_spawn.obj
 0002:001d0a80       ?SP_NPC_Player@@YAXPAUgentity_s@@@Z 20321a80 f   NPC_spawn.obj
 0002:001d0ae0       ?SP_NPC_Snowtrooper@@YAXPAUgentity_s@@@Z 20321ae0 f   NPC_spawn.obj
 0002:001d0b40       ?SP_NPC_Tie_Pilot@@YAXPAUgentity_s@@@Z 20321b40 f   NPC_spawn.obj
 0002:001d0ba0       ?SP_NPC_Ugnaught@@YAXPAUgentity_s@@@Z 20321ba0 f   NPC_spawn.obj
 0002:001d0c40       ?SP_NPC_Jawa@@YAXPAUgentity_s@@@Z 20321c40 f   NPC_spawn.obj
 0002:001d0ce0       ?SP_NPC_Gran@@YAXPAUgentity_s@@@Z 20321ce0 f   NPC_spawn.obj
 0002:001d0dc0       ?SP_NPC_Rodian@@YAXPAUgentity_s@@@Z 20321dc0 f   NPC_spawn.obj
 0002:001d0e60       ?SP_NPC_Weequay@@YAXPAUgentity_s@@@Z 20321e60 f   NPC_spawn.obj
 0002:001d0f50       ?SP_NPC_Trandoshan@@YAXPAUgentity_s@@@Z 20321f50 f   NPC_spawn.obj
 0002:001d0fc0       ?SP_NPC_Tusken@@YAXPAUgentity_s@@@Z 20321fc0 f   NPC_spawn.obj
 0002:001d1060       ?SP_NPC_Noghri@@YAXPAUgentity_s@@@Z 20322060 f   NPC_spawn.obj
 0002:001d10d0       ?SP_NPC_SwampTrooper@@YAXPAUgentity_s@@@Z 203220d0 f   NPC_spawn.obj
 0002:001d1170       ?SP_NPC_Imperial@@YAXPAUgentity_s@@@Z 20322170 f   NPC_spawn.obj
 0002:001d1230       ?SP_NPC_ImpWorker@@YAXPAUgentity_s@@@Z 20322230 f   NPC_spawn.obj
 0002:001d12f0       ?SP_NPC_BespinCop@@YAXPAUgentity_s@@@Z 203222f0 f   NPC_spawn.obj
 0002:001d1390       ?SP_NPC_Reborn@@YAXPAUgentity_s@@@Z 20322390 f   NPC_spawn.obj
 0002:001d14b0       ?SP_NPC_ShadowTrooper@@YAXPAUgentity_s@@@Z 203224b0 f   NPC_spawn.obj
 0002:001d1560       ?SP_NPC_Monster_Murjj@@YAXPAUgentity_s@@@Z 20322560 f   NPC_spawn.obj
 0002:001d15c0       ?SP_NPC_Monster_Swamp@@YAXPAUgentity_s@@@Z 203225c0 f   NPC_spawn.obj
 0002:001d1620       ?SP_NPC_Monster_Howler@@YAXPAUgentity_s@@@Z 20322620 f   NPC_spawn.obj
 0002:001d1680       ?SP_NPC_MineMonster@@YAXPAUgentity_s@@@Z 20322680 f   NPC_spawn.obj
 0002:001d16e0       ?SP_NPC_Monster_Claw@@YAXPAUgentity_s@@@Z 203226e0 f   NPC_spawn.obj
 0002:001d1740       ?SP_NPC_Monster_Glider@@YAXPAUgentity_s@@@Z 20322740 f   NPC_spawn.obj
 0002:001d17a0       ?SP_NPC_Monster_Flier2@@YAXPAUgentity_s@@@Z 203227a0 f   NPC_spawn.obj
 0002:001d1800       ?SP_NPC_Monster_Lizard@@YAXPAUgentity_s@@@Z 20322800 f   NPC_spawn.obj
 0002:001d1860       ?SP_NPC_Monster_Fish@@YAXPAUgentity_s@@@Z 20322860 f   NPC_spawn.obj
 0002:001d18c0       ?SP_NPC_Monster_Wampa@@YAXPAUgentity_s@@@Z 203228c0 f   NPC_spawn.obj
 0002:001d1920       ?SP_NPC_Monster_Rancor@@YAXPAUgentity_s@@@Z 20322920 f   NPC_spawn.obj
 0002:001d1980       ?SP_NPC_Monster_Sand_Creature@@YAXPAUgentity_s@@@Z 20322980 f   NPC_spawn.obj
 0002:001d1a10       ?SP_NPC_Droid_Interrogator@@YAXPAUgentity_s@@@Z 20322a10 f   NPC_spawn.obj
 0002:001d1a70       ?SP_NPC_Droid_Probe@@YAXPAUgentity_s@@@Z 20322a70 f   NPC_spawn.obj
 0002:001d1ad0       ?SP_NPC_Droid_Mark1@@YAXPAUgentity_s@@@Z 20322ad0 f   NPC_spawn.obj
 0002:001d1b30       ?SP_NPC_Droid_Mark2@@YAXPAUgentity_s@@@Z 20322b30 f   NPC_spawn.obj
 0002:001d1b90       ?SP_NPC_Droid_ATST@@YAXPAUgentity_s@@@Z 20322b90 f   NPC_spawn.obj
 0002:001d1c20       ?SP_NPC_Droid_Remote@@YAXPAUgentity_s@@@Z 20322c20 f   NPC_spawn.obj
 0002:001d1c80       ?SP_NPC_Droid_Seeker@@YAXPAUgentity_s@@@Z 20322c80 f   NPC_spawn.obj
 0002:001d1ce0       ?SP_NPC_Droid_Sentry@@YAXPAUgentity_s@@@Z 20322ce0 f   NPC_spawn.obj
 0002:001d1d40       ?SP_NPC_Droid_Gonk@@YAXPAUgentity_s@@@Z 20322d40 f   NPC_spawn.obj
 0002:001d1da0       ?SP_NPC_Droid_Mouse@@YAXPAUgentity_s@@@Z 20322da0 f   NPC_spawn.obj
 0002:001d1e00       ?SP_NPC_Droid_R2D2@@YAXPAUgentity_s@@@Z 20322e00 f   NPC_spawn.obj
 0002:001d1e90       ?SP_NPC_Droid_R5D2@@YAXPAUgentity_s@@@Z 20322e90 f   NPC_spawn.obj
 0002:001d1f20       ?SP_NPC_Droid_Protocol@@YAXPAUgentity_s@@@Z 20322f20 f   NPC_spawn.obj
 0002:001d1fb0       ?NPC_SpawnType@@YAPAUgentity_s@@PAU1@PAD1W4qboolean@@@Z 20322fb0 f   NPC_spawn.obj
 0002:001d2350       ?NPC_SpawnType@@YAPAUgentity_s@@QAMPAD1W4qboolean@@@Z 20323350 f   NPC_spawn.obj
 0002:001d2510       ?NPC_Spawn_f@@YAXPAUgentity_s@@@Z 20323510 f   NPC_spawn.obj
 0002:001d26a0       ?NPC_Kill_f@@YAXXZ         203236a0 f   NPC_spawn.obj
 0002:001d2d20       ?NPC_PrintScore@@YAXPAUgentity_s@@@Z 20323d20 f   NPC_spawn.obj
 0002:001d2d90       ?Cmd_NPC_f@@YAXPAUgentity_s@@@Z 20323d90 f   NPC_spawn.obj
 0002:001d30a0       ?SP_NPC_Rax@@YAXPAUgentity_s@@@Z 203240a0 f   NPC_spawn.obj
 0002:001d3100       ?SP_NPC_Kothos@@YAXPAUgentity_s@@@Z 20324100 f   NPC_spawn.obj
 0002:001d3190       ?SP_NPC_Droid_Saber@@YAXPAUgentity_s@@@Z 20324190 f   NPC_spawn.obj
 0002:001d3230       ?SP_NPC_HazardTrooper@@YAXPAUgentity_s@@@Z 20324230 f   NPC_spawn.obj
 0002:001d32f0       ?SP_NPC_Lannik_Racto@@YAXPAUgentity_s@@@Z 203242f0 f   NPC_spawn.obj
 0002:001d3350       ?SP_NPC_Droid_Assassin@@YAXPAUgentity_s@@@Z 20324350 f   NPC_spawn.obj
 0002:001d33c0       ?NPC_ReactionTime@@YAHXZ   203243c0 f   NPC_stats.obj
 0002:001d3410       ?G_ParseAnimFileSet@@YA?AW4qboolean@@PBD0PAH@Z 20324410 f   NPC_stats.obj
 0002:001d3480       ?NPC_PrecacheWeapons@@YAXHHPAD@Z 20324480 f   NPC_stats.obj
 0002:001d3530       ?NPC_Precache@@YAXPAUgentity_s@@@Z 20324530 f   NPC_stats.obj
 0002:001d3ee0       ?NPC_ParseParms@@YA?AW4qboolean@@PBDPAUgentity_s@@@Z 20324ee0 f   NPC_stats.obj
 0002:001da380       ?NPC_LoadParms@@YAXXZ      2032b380 f   NPC_stats.obj
 0002:001da5f0       ?NPC_PrecacheByClassName@@YAXPBD@Z 2032b5f0 f   NPC_stats.obj
 0002:001daa40       ?CalcEntitySpot@@YAXPBUgentity_s@@W4spot_t@@QAM@Z 2032ba40 f   NPC_utils.obj
 0002:001db410       ?NPC_UpdateAngles@@YA?AW4qboolean@@W41@0@Z 2032c410 f   NPC_utils.obj
 0002:001db910       ?NPC_AimWiggle@@YAXQAM@Z   2032c910 f   NPC_utils.obj
 0002:001dbaf0       ?NPC_UpdateFiringAngles@@YA?AW4qboolean@@W41@0@Z 2032caf0 f   NPC_utils.obj
 0002:001dbfa0       ?NPC_UpdateShootAngles@@YAXQAMW4qboolean@@1@Z 2032cfa0 f   NPC_utils.obj
 0002:001dc1e0       ?SetTeamNumbers@@YAXXZ     2032d1e0 f   NPC_utils.obj
 0002:001dc3b0       ?G_ActivateBehavior@@YA?AW4qboolean@@PAUgentity_s@@H@Z 2032d3b0 f   NPC_utils.obj
 0002:001dc560       ?NPC_SetBoneAngles@@YAXPAUgentity_s@@PADQAM@Z 2032d560 f   NPC_utils.obj
 0002:001dc7f0       ?NPC_SetSurfaceOnOff@@YAXPAUgentity_s@@PBDH@Z 2032d7f0 f   NPC_utils.obj
 0002:001dc990       ?NPC_SomeoneLookingAtMe@@YA?AW4qboolean@@PAUgentity_s@@@Z 2032d990 f   NPC_utils.obj
 0002:001dcac0       ?NPC_ClearLOS@@YA?AW4qboolean@@QBM0@Z 2032dac0 f   NPC_utils.obj
 0002:001dcb20       ?NPC_ClearLOS5@@YA?AW4qboolean@@QBM@Z 2032db20 f   NPC_utils.obj
 0002:001dcb80       ?NPC_ClearLOS4@@YA?AW4qboolean@@PAUgentity_s@@@Z 2032db80 f   NPC_utils.obj
 0002:001dcbe0       ?NPC_ClearLOS3@@YA?AW4qboolean@@QBMPAUgentity_s@@@Z 2032dbe0 f   NPC_utils.obj
 0002:001dcc40       ?NPC_ClearLOS2@@YA?AW4qboolean@@PAUgentity_s@@QBM@Z 2032dc40 f   NPC_utils.obj
 0002:001dcca0       ?NPC_TargetVisible@@YA?AW4qboolean@@PAUgentity_s@@@Z 2032dca0 f   NPC_utils.obj
 0002:001dce70       ?NPC_FindNearestEnemy@@YAHPAUgentity_s@@@Z 2032de70 f   NPC_utils.obj
 0002:001dd160       ?NPC_PickEnemyExt@@YAPAUgentity_s@@W4qboolean@@@Z 2032e160 f   NPC_utils.obj
 0002:001dd2b0       ?NPC_FindPlayer@@YA?AW4qboolean@@XZ 2032e2b0 f   NPC_utils.obj
 0002:001dd300       ?NPC_FindEnemy@@YA?AW4qboolean@@W41@@Z 2032e300 f   NPC_utils.obj
 0002:001dd780       ?NPC_CheckEnemyExt@@YA?AW4qboolean@@W41@@Z 2032e780 f   NPC_utils.obj
 0002:001dd7d0       ?NPC_FacePosition@@YA?AW4qboolean@@QAMW41@@Z 2032e7d0 f   NPC_utils.obj
 0002:001ddbd0       ?NPC_FaceEntity@@YA?AW4qboolean@@PAUgentity_s@@W41@@Z 2032ebd0 f   NPC_utils.obj
 0002:001ddc90       ?NPC_FaceEnemy@@YA?AW4qboolean@@W41@@Z 2032ec90 f   NPC_utils.obj
 0002:001ddd20       ?NPC_CheckCanAttackExt@@YA?AW4qboolean@@XZ 2032ed20 f   NPC_utils.obj
 0002:001dddc0       ?NPC_ClearLookTarget@@YAXPAUgentity_s@@@Z 2032edc0 f   NPC_utils.obj
 0002:001dde50       ?NPC_SetLookTarget@@YAXPAUgentity_s@@HH@Z 2032ee50 f   NPC_utils.obj
 0002:001ddee0       ?NPC_CheckLookTarget@@YA?AW4qboolean@@PAUgentity_s@@@Z 2032eee0 f   NPC_utils.obj
 0002:001de0a0       ?G_CheckCharmed@@YAXPAUgentity_s@@@Z 2032f0a0 f   NPC_utils.obj
 0002:001de270       ?G_GetBoltPosition@@YAXPAUgentity_s@@HQAMH@Z 2032f270 f   NPC_utils.obj
 0002:001de620       ?NPC_EntRangeFromBolt@@YAMPAUgentity_s@@H@Z 2032f620 f   NPC_utils.obj
 0002:001de860       ?NPC_EnemyRangeFromBolt@@YAMH@Z 2032f860 f   NPC_utils.obj
 0002:001de8c0       ?NPC_GetEntsNearBolt@@YAHPAHMHQAM@Z 2032f8c0 f   NPC_utils.obj
 0002:001dea30       ?InPlayersPVS@@YA?AW4qboolean@@QAM@Z 2032fa30 f   NPC_utils.obj
 0002:001deb40       ?VEH_StartStrafeRam@@YA?AW4qboolean@@PAUVehicle_s@@W41@H@Z 2032fb40 f   SpeederNPC.obj
 0002:001deb70       ?Update@@YA?AW4qboolean@@PAUVehicle_s@@PBUusercmd_s@@@Z 2032fb70 f   SpeederNPC.obj
 0002:001dec20       ?ProcessOrientCommands@@YAXPAUVehicle_s@@@Z 2032fc20 f   SpeederNPC.obj
 0002:001deed0       ?AnimateVehicle@@YAXPAUVehicle_s@@@Z 2032fed0 f   SpeederNPC.obj
 0002:001def00       ?AnimateRiders@@YAXPAUVehicle_s@@@Z 2032ff00 f   SpeederNPC.obj
 0002:001dfad0       ?G_SetSpeederVehicleFunctions@@YAXPAUvehicleInfo_t@@@Z 20330ad0 f   SpeederNPC.obj
 0002:001e0550       ?G_CreateSpeederNPC@@YAXPAPAUVehicle_s@@PBD@Z 20331550 f   SpeederNPC.obj
 0002:001e05f0       ?WalkerYawAdjust@@YAXPAUVehicle_s@@PAUplayerState_s@@1@Z 203315f0 f   WalkerNPC.obj
 0002:001e0850       ?SetVehicleMode@@YAXPAUVehicle_s@@W4vehicleMode_t@@@Z 20331850 f   WalkerNPC.obj
 0002:001e08a0       ?G_SetWalkerVehicleFunctions@@YAXPAUvehicleInfo_t@@@Z 203318a0 f   WalkerNPC.obj
 0002:001e17b0       ?G_CreateWalkerNPC@@YAXPAPAUVehicle_s@@PBD@Z 203327b0 f   WalkerNPC.obj
 0002:001e1850       ?CheckFall_By_Vectors@@YA?AW4qboolean@@QAM0PAUgentity_s@@@Z 20332850 f   ai_aotc.obj
 0002:001e1cd0       ?Set_Enemy_Path@@YAXPAUbot_state_s@@@Z 20332cd0 f   ai_aotc.obj
 0002:001e1ec0       ?AIMod_Jump@@YAXPAUbot_state_s@@@Z 20332ec0 f   ai_aotc.obj
 0002:001e29a0       ?AOTC_BotFallbackNavigation@@YAHPAUbot_state_s@@@Z 203339a0 f   ai_aotc.obj
 0002:001e3530       ?FastBotAI@@YAXPAUbot_state_s@@M@Z 20334530 f   ai_aotc.obj
 0002:001e8b10       ?GetSharedVisibleWP@@YAHPAUgentity_s@@0@Z 20339b10 f   ai_aotc.obj
 0002:001e8d80       ?Scenario_ScanForEnemies@@YAHPAUbot_state_s@@@Z 20339d80 f   ai_aotc.obj
 0002:001e91d0       ?visible@@YA?AW4qboolean@@PAUgentity_s@@0@Z 2033a1d0 f   ai_aotc.obj
 0002:001e93b0       ?AOTC_StandardBotAI@@YAXPAUbot_state_s@@M@Z 2033a3b0 f   ai_aotc.obj
 0002:001eff00       ?HYBRID_StandardBotAI@@YAXPAUbot_state_s@@M@Z 20340f00 f   ai_hybrid.obj
 0002:001f2800       ?BotStraightTPOrderCheck@@YAXPAUgentity_s@@HPAUbot_state_s@@@Z 20343800 f   ai_main.obj
 0002:001f2930       ?BotSelectWeapon@@YAXHH@Z  20343930 f   ai_main.obj
 0002:001f2990       ?BotReportStatus@@YAXPAUbot_state_s@@@Z 20343990 f   ai_main.obj
 0002:001f2a80       ?BotOrder@@YAXPAUgentity_s@@HH@Z 20343a80 f   ai_main.obj
 0002:001f2e30       ?BotMindTricked@@YAHHH@Z   20343e30 f   ai_main.obj
 0002:001f2f60       ?BotAI_Print@@YAXHPADZZ    20343f60 f   ai_main.obj
 0002:001f2f90       ?IsTeamplay@@YAHXZ         20343f90 f   ai_main.obj
 0002:001f2fe0       ?BotAI_GetClientState@@YAHHPAUplayerState_s@@@Z 20343fe0 f   ai_main.obj
 0002:001f3090       ?BotAI_GetEntityState@@YAHHPAUentityState_s@@@Z 20344090 f   ai_main.obj
 0002:001f3160       ?BotAI_GetSnapshotEntity@@YAHHHPAUentityState_s@@@Z 20344160 f   ai_main.obj
 0002:001f3200       ?BotEntityInfo@@YAXHPAUaas_entityinfo_s@@@Z 20344200 f   ai_main.obj
 0002:001f3260       ?NumBots@@YAHXZ            20344260 f   ai_main.obj
 0002:001f32a0       ?AngleDifference@@YAMMM@Z  203442a0 f   ai_main.obj
 0002:001f3340       ?BotChangeViewAngle@@YAMMMM@Z 20344340 f   ai_main.obj
 0002:001f34b0       ?BotChangeViewAngles@@YAXPAUbot_state_s@@M@Z 203444b0 f   ai_main.obj
 0002:001f3930       ?BotInputToUserCommand@@YAXPAUbot_input_s@@PAUusercmd_s@@QAHHH@Z 20344930 f   ai_main.obj
 0002:001f3f80       ?BotUpdateInput@@YAXPAUbot_state_s@@HH@Z 20344f80 f   ai_main.obj
 0002:001f4480       ?BotAIRegularUpdate@@YAXXZ 20345480 f   ai_main.obj
 0002:001f4500       ?RemoveColorEscapeSequences@@YAXPAD@Z 20345500 f   ai_main.obj
 0002:001f4620       ?BotAI@@YAHHM@Z            20345620 f   ai_main.obj
 0002:001f4ba0       ?BotScheduleBotThink@@YAXXZ 20345ba0 f   ai_main.obj
 0002:001f4c60       ?PlayersInGame@@YAHXZ      20345c60 f   ai_main.obj
 0002:001f4d10       ?BotAISetupClient@@YAHHPAUbot_settings_s@@W4qboolean@@@Z 20345d10 f   ai_main.obj
 0002:001f5000       ?BotAIShutdownClient@@YAHHW4qboolean@@@Z 20346000 f   ai_main.obj
 0002:001f50f0       ?BotResetState@@YAXPAUbot_state_s@@@Z 203460f0 f   ai_main.obj
 0002:001f53c0       ?BotAILoadMap@@YAHH@Z      203463c0 f   ai_main.obj
 0002:001f5480       ?OrgVisible@@YAHQAM0H@Z    20346480 f   ai_main.obj
 0002:001f5550       ?WPOrgVisible@@YAHPAUgentity_s@@QAM1H@Z 20346550 f   ai_main.obj
 0002:001f5720       ?OrgVisibleBox@@YAHQAM000H@Z 20346720 f   ai_main.obj
 0002:001f5840       ?CheckForFunc@@YAHQAMH@Z   20346840 f   ai_main.obj
 0002:001f59a0       ?BotPVSCheck@@YA?AW4qboolean@@QBM0@Z 203469a0 f   ai_main.obj
 0002:001f5b50       ?GetNearestVisibleWP@@YAHQAMH@Z 20346b50 f   ai_main.obj
 0002:001f5dc0       ?PassWayCheck@@YAHPAUbot_state_s@@H@Z 20346dc0 f   ai_main.obj
 0002:001f5f50       ?TotalTrailDistance@@YAMHHPAUbot_state_s@@@Z 20346f50 f   ai_main.obj
 0002:001f6090       ?CheckForShorterRoutes@@YAXPAUbot_state_s@@H@Z 20347090 f   ai_main.obj
 0002:001f6380       ?WPConstantRoutine@@YAXPAUbot_state_s@@@Z 20347380 f   ai_main.obj
 0002:001f6720       ?BotCTFGuardDuty@@YA?AW4qboolean@@PAUbot_state_s@@@Z 20347720 f   ai_main.obj
 0002:001f6790       ?WPTouchRoutine@@YAXPAUbot_state_s@@@Z 20347790 f   ai_main.obj
 0002:001f6bd0       ?MoveTowardIdealAngles@@YAXPAUbot_state_s@@@Z 20347bd0 f   ai_main.obj
 0002:001f6c50       ?BotTrace_Strafe@@YAHPAUbot_state_s@@QAM@Z 20347c50 f   ai_main.obj
 0002:001f7200       ?BotTrace_Jump@@YAHPAUbot_state_s@@QAM@Z 20348200 f   ai_main.obj
 0002:001f7620       ?BotTrace_Duck@@YAHPAUbot_state_s@@QAM@Z 20348620 f   ai_main.obj
 0002:001f7980       ?PassStandardEnemyChecks@@YAHPAUbot_state_s@@PAUgentity_s@@@Z 20348980 f   ai_main.obj
 0002:001f7e80       ?BotDamageNotification@@YAXPAUgclient_s@@PAUgentity_s@@@Z 20348e80 f   ai_main.obj
 0002:001f8100       ?BotCanHear@@YAHPAUbot_state_s@@PAUgentity_s@@M@Z 20349100 f   ai_main.obj
 0002:001f83a0       ?UpdateEventTracker@@YAXXZ 203493a0 f   ai_main.obj
 0002:001f84e0       ?InFieldOfVision@@YAHQAMM0@Z 203494e0 f   ai_main.obj
 0002:001f8660       ?PassLovedOneCheck@@YAHPAUbot_state_s@@PAUgentity_s@@@Z 20349660 f   ai_main.obj
 0002:001f8850       ?ScanForEnemies@@YAHPAUbot_state_s@@@Z 20349850 f   ai_main.obj
 0002:001f8d80       ?WaitingForNow@@YAHPAUbot_state_s@@QAM@Z 20349d80 f   ai_main.obj
 0002:001f9050       ?BotGetWeaponRange@@YAHPAUbot_state_s@@@Z 2034a050 f   ai_main.obj
 0002:001f92b0       ?BotIsAChickenWuss@@YAHPAUbot_state_s@@@Z 2034a2b0 f   ai_main.obj
 0002:001f95f0       ?GetNearestBadThing@@YAPAUgentity_s@@PAUbot_state_s@@@Z 2034a5f0 f   ai_main.obj
 0002:001f9cb0       ?BotDefendFlag@@YAHPAUbot_state_s@@@Z 2034acb0 f   ai_main.obj
 0002:001f9e20       ?BotGetEnemyFlag@@YAHPAUbot_state_s@@@Z 2034ae20 f   ai_main.obj
 0002:001f9f90       ?BotGetFlagBack@@YAHPAUbot_state_s@@@Z 2034af90 f   ai_main.obj
 0002:001fa270       ?BotGuardFlagCarrier@@YAHPAUbot_state_s@@@Z 2034b270 f   ai_main.obj
 0002:001fa550       ?BotGetFlagHome@@YAHPAUbot_state_s@@@Z 2034b550 f   ai_main.obj
 0002:001fa6c0       ?GetNewFlagPoint@@YAXPAUwpobject_s@@PAUgentity_s@@H@Z 2034b6c0 f   ai_main.obj
 0002:001fa9e0       ?CTFTakesPriority@@YAHPAUbot_state_s@@@Z 2034b9e0 f   ai_main.obj
 0002:001fb0c0       ?EntityVisibleBox@@YAHQAM000HH@Z 2034c0c0 f   ai_main.obj
 0002:001fb1d0       ?Siege_TargetClosestObjective@@YAHPAUbot_state_s@@H@Z 2034c1d0 f   ai_main.obj
 0002:001fb780       ?Siege_DefendFromAttackers@@YAXPAUbot_state_s@@@Z 2034c780 f   ai_main.obj
 0002:001fba20       ?Siege_CountDefenders@@YAHPAUbot_state_s@@@Z 2034ca20 f   ai_main.obj
 0002:001fbb20       ?Siege_CountTeammates@@YAHPAUbot_state_s@@@Z 2034cb20 f   ai_main.obj
 0002:001fbbe0       ?SiegeTakesPriority@@YAHPAUbot_state_s@@@Z 2034cbe0 f   ai_main.obj
 0002:001fc370       ?JMTakesPriority@@YAHPAUbot_state_s@@@Z 2034d370 f   ai_main.obj
 0002:001fc5c0       ?BotHasAssociated@@YAHPAUbot_state_s@@PAUwpobject_s@@@Z 2034d5c0 f   ai_main.obj
 0002:001fc760       ?GetBestIdleGoal@@YAHPAUbot_state_s@@@Z 2034d760 f   ai_main.obj
 0002:001fc9c0       ?GetIdealDestination@@YAXPAUbot_state_s@@@Z 2034d9c0 f   ai_main.obj
 0002:001fd880       ?CommanderBotCTFAI@@YAXPAUbot_state_s@@@Z 2034e880 f   ai_main.obj
 0002:001fdf60       ?CommanderBotSiegeAI@@YAXPAUbot_state_s@@@Z 2034ef60 f   ai_main.obj
 0002:001fe260       ?BotDoTeamplayAI@@YAXPAUbot_state_s@@@Z 2034f260 f   ai_main.obj
 0002:001fe2f0       ?CommanderBotTeamplayAI@@YAXPAUbot_state_s@@@Z 2034f2f0 f   ai_main.obj
 0002:001fe770       ?CommanderBotAI@@YAXPAUbot_state_s@@@Z 2034f770 f   ai_main.obj
 0002:001fe810       ?MeleeCombatHandling@@YAXPAUbot_state_s@@@Z 2034f810 f   ai_main.obj
 0002:001fed60       ?SaberCombatHandling@@YAXPAUbot_state_s@@@Z 2034fd60 f   ai_main.obj
 0002:001ffaa0       ?BotWeaponCanLead@@YAMPAUbot_state_s@@@Z 20350aa0 f   ai_main.obj
 0002:001ffb60       ?BotAimLeading@@YAXPAUbot_state_s@@QAMM@Z 20350b60 f   ai_main.obj
 0002:001fff60       ?BotAimOffsetGoalAngles@@YAXPAUbot_state_s@@@Z 20350f60 f   ai_main.obj
 0002:002004a0       ?ShouldSecondaryFire@@YAHPAUbot_state_s@@@Z 203514a0 f   ai_main.obj
 0002:002007d0       ?CombatBotAI@@YAHPAUbot_state_s@@M@Z 203517d0 f   ai_main.obj
 0002:00200d30       ?BotFallbackNavigation@@YAHPAUbot_state_s@@@Z 20351d30 f   ai_main.obj
 0002:00201000       ?BotTryAnotherWeapon@@YAHPAUbot_state_s@@@Z 20352000 f   ai_main.obj
 0002:00201130       ?BotWeaponSelectable@@YA?AW4qboolean@@PAUbot_state_s@@H@Z 20352130 f   ai_main.obj
 0002:002011c0       ?BotSelectIdealWeapon@@YAHPAUbot_state_s@@@Z 203521c0 f   ai_main.obj
 0002:00201560       ?BotSelectChoiceWeapon@@YAHPAUbot_state_s@@HH@Z 20352560 f   ai_main.obj
 0002:002016a0       ?GetLoveLevel@@YAHPAUbot_state_s@@0@Z 203526a0 f   ai_main.obj
 0002:00201800       ?BotLovedOneDied@@YAXPAUbot_state_s@@0H@Z 20352800 f   ai_main.obj
 0002:00201af0       ?BotDeathNotify@@YAXPAUbot_state_s@@@Z 20352af0 f   ai_main.obj
 0002:00201c50       ?StrafeTracing@@YAXPAUbot_state_s@@@Z 20352c50 f   ai_main.obj
 0002:00201f90       ?PrimFiring@@YAHPAUbot_state_s@@@Z 20352f90 f   ai_main.obj
 0002:00202010       ?KeepPrimFromFiring@@YAHPAUbot_state_s@@@Z 20353010 f   ai_main.obj
 0002:002020a0       ?AltFiring@@YAHPAUbot_state_s@@@Z 203530a0 f   ai_main.obj
 0002:00202140       ?KeepAltFromFiring@@YAHPAUbot_state_s@@@Z 20353140 f   ai_main.obj
 0002:00202200       ?CheckForFriendInLOF@@YAPAUgentity_s@@PAUbot_state_s@@@Z 20353200 f   ai_main.obj
 0002:002024d0       ?BotScanForLeader@@YAXPAUbot_state_s@@@Z 203534d0 f   ai_main.obj
 0002:00202640       ?BotReplyGreetings@@YAXPAUbot_state_s@@@Z 20353640 f   ai_main.obj
 0002:00202770       ?CTFFlagMovement@@YAXPAUbot_state_s@@@Z 20353770 f   ai_main.obj
 0002:00202d00       ?BotCheckDetPacks@@YAXPAUbot_state_s@@@Z 20353d00 f   ai_main.obj
 0002:00202fe0       ?BotUseInventoryItem@@YAHPAUbot_state_s@@@Z 20353fe0 f   ai_main.obj
 0002:00203200       ?BotSurfaceNear@@YAHPAUbot_state_s@@@Z 20354200 f   ai_main.obj
 0002:00203360       ?BotWeaponBlockable@@YAHH@Z 20354360 f   ai_main.obj
 0002:00203440       ?Bot_SetForcedMovement@@YAXHHHH@Z 20354440 f   ai_main.obj
 0002:00203540       ?StandardBotAI@@YAXPAUbot_state_s@@M@Z 20354540 f   ai_main.obj
 0002:00209330       ?BotAIStartFrame@@YAHH@Z   2035a330 f   ai_main.obj
 0002:00209690       ?BotAISetup@@YAHH@Z        2035a690 f   ai_main.obj
 0002:00209930       ?BotAIShutdown@@YAHH@Z     2035a930 f   ai_main.obj
 0002:002099f0       ?ForceJumpNeeded@@YAHQAM0@Z 2035a9f0 f   ai_tab.obj
 0002:00209d30       ?GetNearestWP@@YAHPAUbot_state_s@@QAMH@Z 2035ad30 f   ai_tab.obj
 0002:0020a000       ?OpenListEmpty@@YA?AW4qboolean@@XZ 2035b000 f   ai_tab.obj
 0002:0020a050       ?FindOpenList@@YAHH@Z      2035b050 f   ai_tab.obj
 0002:0020a0e0       ?FindCloseList@@YAHH@Z     2035b0e0 f   ai_tab.obj
 0002:0020a170       ?AddOpenList@@YAXPAUbot_state_s@@HHH@Z 2035b170 f   ai_tab.obj
 0002:0020a740       ?RouteRandomize@@YAMPAUbot_state_s@@M@Z 2035b740 f i ai_tab.obj
 0002:0020a7f0       ?RemoveFirstOpenList@@YAXXZ 2035b7f0 f   ai_tab.obj
 0002:0020ae10       ?AddCloseList@@YAXH@Z      2035be10 f   ai_tab.obj
 0002:0020af70       ?ClearRoute@@YAXQAH@Z      2035bf70 f   ai_tab.obj
 0002:0020afe0       ?AddtoRoute@@YAXHQAH@Z     2035bfe0 f   ai_tab.obj
 0002:0020b0c0       ?FindOnRoute@@YAHHQAH@Z    2035c0c0 f   ai_tab.obj
 0002:0020b180       ?CopyRoute@@YAXQAH0@Z      2035c180 f   ai_tab.obj
 0002:0020b1f0       ?FindIdealPathtoWP@@YAMPAUbot_state_s@@HHHQAH@Z 2035c1f0 f   ai_tab.obj
 0002:0020b700       ?TAB_BotOrder@@YAXPAUgentity_s@@0H0@Z 2035c700 f   ai_tab.obj
 0002:0020b930       ?TAB_BotKneelBeforeZod@@YAXPAUbot_state_s@@@Z 2035c930 f   ai_tab.obj
 0002:0020bd60       ?TAB_BotBeStill@@YAXPAUbot_state_s@@@Z 2035cd60 f   ai_tab.obj
 0002:0020be50       ?TAB_TraceJump@@YAHPAUbot_state_s@@QAM@Z 2035ce50 f   ai_tab.obj
 0002:0020c1e0       ?TAB_TraceJumpCrouchFall@@YAHPAUbot_state_s@@QAMH1@Z 2035d1e0 f   ai_tab.obj
 0002:0020c920       ?FindMovementQuad@@YAHPAUplayerState_s@@QAM@Z 2035d920 f   ai_tab.obj
 0002:0020cba0       ?TAB_AdjustMoveDirection@@YAXPAUbot_state_s@@QAMH@Z 2035dba0 f   ai_tab.obj
 0002:0020cf80       ?TAB_MovementCommand@@YAXPAUbot_state_s@@HQAM@Z 2035df80 f   ai_tab.obj
 0002:0020d070       ?TAB_AdjustQuad@@YAHH@Z    2035e070 f   ai_tab.obj
 0002:0020d0e0       ?TAB_TraceMove@@YAXPAUbot_state_s@@QAMH@Z 2035e0e0 f   ai_tab.obj
 0002:0020d740       ?HaveHeavyWeapon@@YA?AW4qboolean@@H@Z 2035e740 f   ai_tab.obj
 0002:0020d7d0       ?IsHeavyWeapon@@YA?AW4qboolean@@PAUbot_state_s@@H@Z 2035e7d0 f   ai_tab.obj
 0002:0020d8b0       ?UseForceonLocal@@YA?AW4qboolean@@PAUbot_state_s@@QAMW41@@Z 2035e8b0 f   ai_tab.obj
 0002:0020e680       ?AttackLocalBreakable@@YA?AW4qboolean@@PAUbot_state_s@@QAM@Z 2035f680 f   ai_tab.obj
 0002:0020ea20       ?CalculateJump@@YA?AW4qboolean@@PAUbot_state_s@@QAM1@Z 2035fa20 f   ai_tab.obj
 0002:0020eb70       ?WPVisibleUpdate@@YAXPAUbot_state_s@@@Z 2035fb70 f   ai_tab.obj
 0002:0020ec10       ?TAB_BotMove@@YAXPAUbot_state_s@@QAMW4qboolean@@2@Z 2035fc10 f   ai_tab.obj
 0002:0020fa20       ?TAB_WPTouch@@YAXPAUbot_state_s@@@Z 20360a20 f   ai_tab.obj
 0002:0020fcd0       ?ResetWPTimers@@YAXPAUbot_state_s@@@Z 20360cd0 f   ai_tab.obj
 0002:0020fef0       ?TAB_GetNearestVisibleWP@@YAHPAUbot_state_s@@QAMHH@Z 20360ef0 f   ai_tab.obj
 0002:00210280       ?TAB_BotMoveto@@YAXPAUbot_state_s@@W4qboolean@@@Z 20361280 f   ai_tab.obj
 0002:002108a0       ?TAB_AdjustforStrafe@@YAXPAUbot_state_s@@QAM@Z 203618a0 f   ai_tab.obj
 0002:00210a30       ?AI_CanLunge@@YA?AW4qboolean@@PAUbot_state_s@@@Z 20361a30 f   ai_tab.obj
 0002:00210cc0       ?FindWeaponforRange@@YAHPAUbot_state_s@@M@Z 20361cc0 f   ai_tab.obj
 0002:00210e00       ?TAB_BotBehave_AttackMove@@YAXPAUbot_state_s@@@Z 20361e00 f   ai_tab.obj
 0002:002111a0       ?TargetDistance@@YAMPAUbot_state_s@@PAUgentity_s@@QAM@Z 203621a0 f   ai_tab.obj
 0002:002115e0       ?TAB_BotBehave_DefendBasic@@YAXPAUbot_state_s@@QAM@Z 203625e0 f   ai_tab.obj
 0002:00211720       ?TAB_MoveforAttackQuad@@YAXPAUbot_state_s@@QAMH@Z 20362720 f   ai_tab.obj
 0002:00211b40       ?TAB_BotBehave_AttackBasic@@YAXPAUbot_state_s@@PAUgentity_s@@@Z 20362b40 f   ai_tab.obj
 0002:00212190       ?TAB_BotBehave_Attack@@YAXPAUbot_state_s@@@Z 20363190 f   ai_tab.obj
 0002:00212340       ?TAB_BotTrackAttack@@YAXPAUbot_state_s@@@Z 20363340 f   ai_tab.obj
 0002:002125a0       ?TAB_BotSearchAndDestroy@@YAXPAUbot_state_s@@@Z 203635a0 f   ai_tab.obj
 0002:00212890       ?DontBlockAllies@@YA?AW4qboolean@@PAUbot_state_s@@@Z 20363890 f   ai_tab.obj
 0002:00212b50       ?TAB_BotDefend@@YAXPAUbot_state_s@@PAUgentity_s@@@Z 20363b50 f   ai_tab.obj
 0002:00212e30       ?TAB_EnemyVisualUpdate@@YAXPAUbot_state_s@@@Z 20363e30 f   ai_tab.obj
 0002:00213180       ?TAB_ScanforEnemies@@YAXPAUbot_state_s@@@Z 20364180 f   ai_tab.obj
 0002:00213780       ?TAB_BotBehave_VisualScan@@YAXPAUbot_state_s@@@Z 20364780 f   ai_tab.obj
 0002:00213810       ?FindHeavyWeaponClass@@YAHHHW4qboolean@@@Z 20364810 f   ai_tab.obj
 0002:00213980       ?RequestSiegeAssistance@@YAXPAUbot_state_s@@H@Z 20364980 f   ai_tab.obj
 0002:00213a90       ?SwitchSiegeIdealClass@@YA?AW4qboolean@@PAUbot_state_s@@PAD@Z 20364a90 f   ai_tab.obj
 0002:00213ca0       ?ShouldSwitchSiegeClasses@@YAXPAUbot_state_s@@W4qboolean@@@Z 20364ca0 f   ai_tab.obj
 0002:00213e80       ?NumberofSiegeSpecificClass@@YAHHPBD@Z 20364e80 f   ai_tab.obj
 0002:00213fa0       ?NumberofSiegeBasicClass@@YAHHH@Z 20364fa0 f   ai_tab.obj
 0002:002140e0       ?SelectBestSiegeClass@@YAXHW4qboolean@@@Z 203650e0 f   ai_tab.obj
 0002:00214250       ?DetermineCTFGoal@@YAXPAUbot_state_s@@@Z 20365250 f   ai_tab.obj
 0002:002143c0       ?ClosestItemforAmmo@@YAPAUgentity_s@@PAUbot_state_s@@H@Z 203653c0 f   ai_tab.obj
 0002:00214740       ?ClosestItemforWeapon@@YAPAUgentity_s@@PAUbot_state_s@@H@Z 20365740 f   ai_tab.obj
 0002:00214960       ?TAB_WantWeapon@@YAPAUgentity_s@@PAUbot_state_s@@W4qboolean@@H@Z 20365960 f   ai_tab.obj
 0002:00214ab0       ?TAB_WantAmmo@@YAPAUgentity_s@@PAUbot_state_s@@W4qboolean@@H@Z 20365ab0 f   ai_tab.obj
 0002:00214c50       ?TAB_HigherBotAI@@YAXPAUbot_state_s@@@Z 20365c50 f   ai_tab.obj
 0002:00214ee0       ?TAB_StandardBotAI@@YAXPAUbot_state_s@@M@Z 20365ee0 f   ai_tab.obj
 0002:00215d20       ?FavoriteWeapon@@YAHPAUbot_state_s@@PAUgentity_s@@W4qboolean@@2H@Z 20366d20 f   ai_tab.obj
 0002:00215fe0       ?ObjectiveStillActive@@YA?AW4qboolean@@H@Z 20366fe0 f   ai_tab.obj
 0002:002160c0       ?FindValidObjective@@YAHH@Z 203670c0 f   ai_tab.obj
 0002:002161e0       ?DetermineObjectiveType@@YAPAUgentity_s@@HHPAHPAU1@H@Z 203671e0 f   ai_tab.obj
 0002:00216970       ?objectiveType_Touch@@YAXPAUbot_state_s@@@Z 20367970 f   ai_tab.obj
 0002:00216b70       ?objectiveType_Attack@@YAXPAUbot_state_s@@PAUgentity_s@@@Z 20367b70 f   ai_tab.obj
 0002:00217230       ?FlagColorforObjective@@YAHPAUbot_state_s@@@Z 20368230 f   ai_tab.obj
 0002:002172d0       ?CapObjectiveIsCarried@@YA?AW4qboolean@@PAUbot_state_s@@@Z 203682d0 f   ai_tab.obj
 0002:002173c0       ?CapObjectiveCarrier@@YAPAUgentity_s@@PAUbot_state_s@@@Z 203683c0 f   ai_tab.obj
 0002:002174d0       ?CarryingCapObjective@@YA?AW4qboolean@@PAUbot_state_s@@@Z 203684d0 f   ai_tab.obj
 0002:00217590       ?FindGoalPointEnt@@YAPAUgentity_s@@PAUbot_state_s@@@Z 20368590 f   ai_tab.obj
 0002:00217660       ?TAB_BotGrabNearByItems@@YAXPAUbot_state_s@@@Z 20368660 f   ai_tab.obj
 0002:002178e0       ?objectiveType_Capture@@YAXPAUbot_state_s@@@Z 203688e0 f   ai_tab.obj
 0002:00217c50       ?FindFlag@@YAPAUgentity_s@@PAUbot_state_s@@@Z 20368c50 f   ai_tab.obj
 0002:00217cc0       ?objectiveType_DefendCapture@@YAXPAUbot_state_s@@@Z 20368cc0 f   ai_tab.obj
 0002:00217e90       ?objectiveType_Vehicle@@YAXPAUbot_state_s@@@Z 20368e90 f   ai_tab.obj
 0002:00218130       ?TAB_BotObjective@@YAXPAUbot_state_s@@@Z 20369130 f   ai_tab.obj
 0002:002183b0       ?FindOrigin@@YAXPAUgentity_s@@QAM@Z 203693b0 f   ai_tab.obj
 0002:002185c0       ?FindAngles@@YAXPAUgentity_s@@QAM@Z 203695c0 f   ai_tab.obj
 0002:00218680       ?BotWeapon_Detpack@@YAHPAUbot_state_s@@PAUgentity_s@@@Z 20369680 f   ai_tab.obj
 0002:00218840       ?TAB_BotAimLeading@@YAXPAUbot_state_s@@QAMM@Z 20369840 f   ai_tab.obj
 0002:00218b90       ?TAB_ForcePowersThink@@YA?AW4qboolean@@PAUbot_state_s@@@Z 20369b90 f   ai_tab.obj
 0002:00218dd0       ?TAB_BotJediMaster@@YAXPAUbot_state_s@@@Z 20369dd0 f   ai_tab.obj
 0002:00218fb0       ?TryMoveAroundObsticle@@YA?AW4qboolean@@PAUbot_state_s@@QAMH1HW41@@Z 20369fb0 f   ai_tab.obj
 0002:00219360       ?TAB_BotSaberDuelChallenged@@YAXPAUgentity_s@@0@Z 2036a360 f   ai_tab.obj
 0002:00219450       ?TAB_BotSaberDuel@@YAXPAUbot_state_s@@@Z 2036a450 f   ai_tab.obj
 0002:00219850       ?TAB_BotResupply@@YAXPAUbot_state_s@@PAUgentity_s@@@Z 2036a850 f   ai_tab.obj
 0002:00219cf0       ?OJP_PassStandardEnemyChecks@@YAHPAUbot_state_s@@PAUgentity_s@@@Z 2036acf0 f   ai_tab.obj
 0002:0021a110       ?B_TempAlloc@@YAPAXH@Z     2036b110 f   ai_util.obj
 0002:0021a160       ?B_TempFree@@YAXH@Z        2036b160 f   ai_util.obj
 0002:0021a1b0       ?B_Alloc@@YAPAXH@Z         2036b1b0 f   ai_util.obj
 0002:0021a200       ?B_Free@@YAXPAX@Z          2036b200 f   ai_util.obj
 0002:0021a230       ?B_InitAlloc@@YAXXZ        2036b230 f   ai_util.obj
 0002:0021a290       ?B_CleanupAlloc@@YAXXZ     2036b290 f   ai_util.obj
 0002:0021a2c0       ?GetValueGroup@@YAHPAD00@Z 2036b2c0 f   ai_util.obj
 0002:0021a4d0       ?GetPairedValue@@YAHPAD00@Z 2036b4d0 f   ai_util.obj
 0002:0021a840       ?BotDoChat@@YAHPAUbot_state_s@@PADH@Z 2036b840 f   ai_util.obj
 0002:0021ae40       ?ParseEmotionalAttachments@@YAXPAUbot_state_s@@PAD@Z 2036be40 f   ai_util.obj
 0002:0021b1b0       ?ReadChatGroups@@YAHPAUbot_state_s@@PAD@Z 2036c1b0 f   ai_util.obj
 0002:0021b300       ?BotUtilizePersonality@@YAXPAUbot_state_s@@@Z 2036c300 f   ai_util.obj
 0002:0021c110       ?FindBotType@@YAHH@Z       2036d110 f   ai_util.obj
 0002:0021c180       ?FindClosestHumanPlayer@@YAPAUgentity_s@@QAMH@Z 2036d180 f   ai_util.obj
 0002:0021c430       ?GetFlagStr@@YAPADH@Z      2036d430 f   ai_wpnav.obj
 0002:0021ca90       ?G_TestLine@@YAXQAM0HH@Z   2036da90 f   ai_wpnav.obj
 0002:0021cb70       ?BotWaypointRender@@YAXXZ  2036db70 f   ai_wpnav.obj
 0002:0021d1b0       ?TransferWPData@@YAXHH@Z   2036e1b0 f   ai_wpnav.obj
 0002:0021d380       ?CreateNewWP@@YAXQAMH@Z    2036e380 f   ai_wpnav.obj
 0002:0021d550       ?CreateNewWP_FromObject@@YAXPAUwpobject_s@@@Z 2036e550 f   ai_wpnav.obj
 0002:0021d820       ?RemoveWP@@YAXXZ           2036e820 f   ai_wpnav.obj
 0002:0021d910       ?RemoveAllWP@@YAXXZ        2036e910 f   ai_wpnav.obj
 0002:0021d970       ?RemoveWP_InTrail@@YAXH@Z  2036e970 f   ai_wpnav.obj
 0002:0021dba0       ?CreateNewWP_InTrail@@YAHQAMHH@Z 2036eba0 f   ai_wpnav.obj
 0002:0021def0       ?CreateNewWP_InsertUnder@@YAHQAMHH@Z 2036eef0 f   ai_wpnav.obj
 0002:0021e240       ?TeleportToWP@@YAXPAUgentity_s@@H@Z 2036f240 f   ai_wpnav.obj
 0002:0021e3d0       ?WPFlagsModify@@YAXHH@Z    2036f3d0 f   ai_wpnav.obj
 0002:0021e480       ?NodeHere@@YAHQAM@Z        2036f480 f   ai_wpnav.obj
 0002:0021e640       ?CanGetToVector@@YAHQAM000@Z 2036f640 f   ai_wpnav.obj
 0002:0021e730       ?CanGetToVectorTravel@@YAHQAM000@Z 2036f730 f   ai_wpnav.obj
 0002:0021eee0       ?ConnectTrail@@YAHHHW4qboolean@@@Z 2036fee0 f   ai_wpnav.obj
 0002:00220780       ?OpposingEnds@@YAHHH@Z     20371780 f   ai_wpnav.obj
 0002:00220840       ?DoorBlockingSection@@YAHHH@Z 20371840 f   ai_wpnav.obj
 0002:00220a30       ?RepairPaths@@YAHW4qboolean@@@Z 20371a30 f   ai_wpnav.obj
 0002:00220d70       ?OrgVisibleCurve@@YAHQAM000H@Z 20371d70 f   ai_wpnav.obj
 0002:00220f00       ?CanForceJumpTo@@YAHHHM@Z  20371f00 f   ai_wpnav.obj
 0002:00221230       ?CalculatePaths@@YAXXZ     20372230 f   ai_wpnav.obj
 0002:002217f0       ?GetObjectThatTargets@@YAPAUgentity_s@@PAU1@@Z 203727f0 f   ai_wpnav.obj
 0002:00221890       ?CalculateSiegeGoals@@YAXXZ 20372890 f   ai_wpnav.obj
 0002:00221b90       ?GetNearestVisibleWPToItem@@YAHQAMH@Z 20372b90 f   ai_wpnav.obj
 0002:00221e30       ?CalculateWeightGoals@@YAXXZ 20372e30 f   ai_wpnav.obj
 0002:00222270       ?CalculateJumpRoutes@@YAXXZ 20373270 f   ai_wpnav.obj
 0002:002224f0       ?LoadPathData@@YAHPBD@Z    203734f0 f   ai_wpnav.obj
 0002:00223020       ?FlagObjects@@YAXXZ        20374020 f   ai_wpnav.obj
 0002:002235f0       ?SavePathData@@YAHPBD@Z    203745f0 f   ai_wpnav.obj
 0002:00223ec0       ?G_NearestNodeToPoint@@YAHQAM@Z 20374ec0 f   ai_wpnav.obj
 0002:00224040       ?G_NodeClearForNext@@YAXXZ 20375040 f   ai_wpnav.obj
 0002:002240c0       ?G_NodeClearFlags@@YAXXZ   203750c0 f   ai_wpnav.obj
 0002:00224130       ?G_NodeMatchingXY@@YAHMM@Z 20375130 f   ai_wpnav.obj
 0002:002241e0       ?G_NodeMatchingXY_BA@@YAHHHH@Z 203751e0 f   ai_wpnav.obj
 0002:00224300       ?G_RecursiveConnection@@YAHHHHW4qboolean@@M@Z 20375300 f   ai_wpnav.obj
 0002:002246c0       ?G_BackwardAttachment@@YA?AW4qboolean@@HHH@Z 203756c0 f   ai_wpnav.obj
 0002:00224aa0       ?G_RMGPathing@@YAXXZ       20375aa0 f   ai_wpnav.obj
 0002:002251f0       ?BeginAutoPathRoutine@@YAXXZ 203761f0 f   ai_wpnav.obj
 0002:00225500       ?LoadPath_ThisLevel@@YAXXZ 20376500 f   ai_wpnav.obj
 0002:002256e0       ?GetClosestSpawn@@YAPAUgentity_s@@PAU1@@Z 203766e0 f   ai_wpnav.obj
 0002:002258e0       ?GetNextSpawnInIndex@@YAPAUgentity_s@@PAU1@@Z 203768e0 f   ai_wpnav.obj
 0002:00225a80       ?UpdateEditorMode@@YAXXZ   20376a80 f   ai_wpnav.obj
 0002:00225ad0       ?AcceptBotCommand@@YAHPADPAUgentity_s@@@Z 20376ad0 f   ai_wpnav.obj
 0002:002267b0       ?Init_Holocron_Table@@YAXXZ 203777b0 f   aotctc_holocron.obj
 0002:00226810       ?AOTCTC_Holocron_Add@@YAXPAUgentity_s@@@Z 20377810 f   aotctc_holocron.obj
 0002:00226970       ?AOTCTC_Holocron_Loadpositions@@YAXXZ 20377970 f   aotctc_holocron.obj
 0002:00226d60       ?AOTCTC_Holocron_Savepositions@@YAXXZ 20377d60 f   aotctc_holocron.obj
 0002:00227000       ?AOTCTC_Create_Holocron@@YAXHQAM@Z 20378000 f   aotctc_holocron.obj
 0002:00227170       ?AOTCTC_Create_Holocrons@@YAXXZ 20378170 f   aotctc_holocron.obj
 0002:002272b0       ?W_TraceSetStart@@YAXPAUgentity_s@@QAM11@Z 203782b0 f   g_weapon.obj
 0002:00227530       ?WP_FireTurretMissile@@YAXPAUgentity_s@@QAM1W4qboolean@@HHH0@Z 20378530 f   g_weapon.obj
 0002:00227630       ?WP_FireGenericBlasterMissile@@YAXPAUgentity_s@@QAM1W4qboolean@@HHH@Z 20378630 f   g_weapon.obj
 0002:00227710       ?WP_FireTurboLaserMissile@@YAXPAUgentity_s@@QAM1@Z 20378710 f   g_weapon.obj
 0002:002278b0       ?WP_TraceSetStart@@YAXPAUgentity_s@@QAM11@Z 203788b0 f   g_weapon.obj
 0002:00227ad0       ?SnapVectorTowards@@YAXQAM0@Z 20378ad0 f   g_weapon.obj
 0002:00227bb0       ?LogAccuracyHit@@YA?AW4qboolean@@PAUgentity_s@@0@Z 20378bb0 f   g_weapon.obj
 0002:00227c90       ?CalcMuzzlePoint@@YAXPAUgentity_s@@QAM111@Z 20378c90 f   g_weapon.obj
 0002:00227f80       ?CalcMuzzlePoint2@@YAXPAUgentity_s@@QAM111@Z 20378f80 f   g_weapon.obj
 0002:00228190       ?CalcMuzzlePointOrigin@@YAXPAUgentity_s@@QAM1111@Z 20379190 f   g_weapon.obj
 0002:00228290       ?WP_TouchVehMissile@@YAXPAUgentity_s@@0PAUtrace_t@@@Z 20379290 f   g_weapon.obj
 0002:00228370       ?WP_CalcVehMuzzle@@YAXPAUgentity_s@@H@Z 20379370 f   g_weapon.obj
 0002:002287c0       ?WP_VehWeapSetSolidToOwner@@YAXPAUgentity_s@@@Z 203797c0 f   g_weapon.obj
 0002:00228870       ?WP_FireVehicleWeapon@@YAPAUgentity_s@@PAU1@QAM1PAUvehWeaponInfo_t@@W4qboolean@@3@Z 20379870 f   g_weapon.obj
 0002:00229120       ?G_VehMuzzleFireFX@@YAXPAUgentity_s@@0H@Z 2037a120 f   g_weapon.obj
 0002:002291f0       ?G_EstimateCamPos@@YAXQAM0MMMMMH0@Z 2037a1f0 f   g_weapon.obj
 0002:00229850       ?WP_GetVehicleCamPos@@YAXPAUgentity_s@@0QAM@Z 2037a850 f   g_weapon.obj
 0002:00229ba0       ?WP_VehLeadCrosshairVeh@@YAXPAUgentity_s@@QAMQBM21@Z 2037aba0 f   g_weapon.obj
 0002:00229f50       ?WP_VehCheckTraceFromCamPos@@YA?AW4qboolean@@PAUgentity_s@@QBMQAM@Z 2037af50 f   g_weapon.obj
 0002:0022a460       ?FireVehicleWeapon@@YAXPAUgentity_s@@W4qboolean@@@Z 2037b460 f   g_weapon.obj
 0002:0022b2e0       ?SkillLevelforWeapon@@YAHPAUgentity_s@@H@Z 2037c2e0 f   g_weapon.obj
 0002:0022b430       ?FireWeapon@@YAXPAUgentity_s@@W4qboolean@@@Z 2037c430 f   g_weapon.obj
 0002:0022c000       ?WP_FireBlaster@@YAXPAUgentity_s@@W4qboolean@@@Z 2037d000 f   WP_Blaster.obj
 0002:0022c060       ?WP_FireBlasterMissile@@YAXPAUgentity_s@@QAM1W4qboolean@@@Z 2037d060 f   WP_Blaster.obj
 0002:0022c170       ?WP_BowcasterAltFire@@YAXPAUgentity_s@@@Z 2037d170 f   WP_Bowcaster.obj
 0002:0022c310       ?WP_BowcasterMainFire@@YAXPAUgentity_s@@@Z 2037d310 f   WP_Bowcaster.obj
 0002:0022c6a0       ?WP_FireBowcaster@@YAXPAUgentity_s@@W4qboolean@@@Z 2037d6a0 f   WP_Bowcaster.obj
 0002:0022c6f0       ?WP_FireBryarPistolMain@@YAXPAUgentity_s@@@Z 2037d6f0 f   WP_BryarPistol.obj
 0002:0022c8b0       ?WP_FireBryarPistolAlt@@YAXPAUgentity_s@@@Z 2037d8b0 f   WP_BryarPistol.obj
 0002:0022cc80       ?WP_FireBryarPistol@@YAXPAUgentity_s@@W4qboolean@@@Z 2037dc80 f   WP_BryarPistol.obj
 0002:0022ccf0       ?WP_FireConcussionAlt@@YAXPAUgentity_s@@@Z 2037dcf0 f   WP_Concussion.obj
 0002:0022da00       ?WP_FireConcussion@@YAXPAUgentity_s@@@Z 2037ea00 f   WP_Concussion.obj
 0002:0022dc70       ?DEMP2_AltRadiusDamage@@YAXPAUgentity_s@@@Z 2037ec70 f   WP_Demp2.obj
 0002:0022e580       ?DEMP2_AltDetonate@@YAXPAUgentity_s@@@Z 2037f580 f   WP_Demp2.obj
 0002:0022e6d0       ?WP_DEMP2_AltFire@@YAXPAUgentity_s@@@Z 2037f6d0 f   WP_Demp2.obj
 0002:0022ea50       ?WP_FireDEMP2@@YAXPAUgentity_s@@W4qboolean@@@Z 2037fa50 f   WP_Demp2.obj
 0002:0022ec50       ?VectorNPos@@YAXQAM0@Z     2037fc50 f   WP_Detpack.obj
 0002:0022ed30       ?charge_stick@@YAXPAUgentity_s@@0PAUtrace_t@@@Z 2037fd30 f   WP_Detpack.obj
 0002:0022f480       ?DetPackBlow@@YAXPAUgentity_s@@@Z 20380480 f   WP_Detpack.obj
 0002:0022f680       ?DetPackPain@@YAXPAUgentity_s@@0H@Z 20380680 f   WP_Detpack.obj
 0002:0022f700       ?DetPackDie@@YAXPAUgentity_s@@00HH@Z 20380700 f   WP_Detpack.obj
 0002:0022f780       ?drop_charge@@YAXPAUgentity_s@@QAM1@Z 20380780 f   WP_Detpack.obj
 0002:0022fc60       ?BlowDetpacks@@YAXPAUgentity_s@@@Z 20380c60 f   WP_Detpack.obj
 0002:0022fe80       ?CheatsOn@@YA?AW4qboolean@@XZ 20380e80 f   WP_Detpack.obj
 0002:0022fed0       ?WP_DropDetPack@@YAXPAUgentity_s@@W4qboolean@@@Z 20380ed0 f   WP_Detpack.obj
 0002:002302b0       ?WP_DisruptorMainFire@@YAXPAUgentity_s@@@Z 203812b0 f   WP_Disruptor.obj
 0002:00230b80       ?G_CanDisruptify@@YA?AW4qboolean@@PAUgentity_s@@@Z 20381b80 f   WP_Disruptor.obj
 0002:00230c30       ?DetermineDisruptorCharge@@YAHPAUgentity_s@@@Z 20381c30 f   WP_Disruptor.obj
 0002:00230d30       ?WP_DisruptorAltFire@@YAXPAUgentity_s@@@Z 20381d30 f   WP_Disruptor.obj
 0002:002319c0       ?WP_FireDisruptor@@YAXPAUgentity_s@@W4qboolean@@@Z 203829c0 f   WP_Disruptor.obj
 0002:00231a90       ?WP_FireEmplacedMissile@@YAXPAUgentity_s@@QAM1W4qboolean@@0@Z 20382a90 f   WP_Emplaced.obj
 0002:00231bb0       ?WP_FireEmplaced@@YAXPAUgentity_s@@W4qboolean@@@Z 20382bb0 f   WP_Emplaced.obj
 0002:00231e70       ?emplaced_gun_use@@YAXPAUgentity_s@@0PAUtrace_t@@@Z 20382e70 f   WP_Emplaced.obj
 0002:00232400       ?emplaced_gun_realuse@@YAXPAUgentity_s@@00@Z 20383400 f   WP_Emplaced.obj
 0002:00232460       ?emplaced_gun_pain@@YAXPAUgentity_s@@0H@Z 20383460 f   WP_Emplaced.obj
 0002:002324e0       ?emplaced_gun_update@@YAXPAUgentity_s@@@Z 203834e0 f   WP_Emplaced.obj
 0002:00232d70       ?emplaced_gun_die@@YAXPAUgentity_s@@00HH@Z 20383d70 f   WP_Emplaced.obj
 0002:00232df0       ?SP_emplaced_gun@@YAXPAUgentity_s@@@Z 20383df0 f   WP_Emplaced.obj
 0002:002332d0       ?SP_emplaced_eweb@@YAXPAUgentity_s@@@Z 203842d0 f   WP_Emplaced.obj
 0002:00233320       ?WP_FireMelee@@YAXPAUgentity_s@@W4qboolean@@@Z 20384320 f   WP_Melee.obj
 0002:00233880       ?WP_RepeaterMainFire@@YAXPAUgentity_s@@@Z 20384880 f   WP_Repeater.obj
 0002:00233a20       ?WP_RepeaterAltFire@@YAXPAUgentity_s@@@Z 20384a20 f   WP_Repeater.obj
 0002:00233c10       ?WP_FireRepeater@@YAXPAUgentity_s@@W4qboolean@@@Z 20384c10 f   WP_Repeater.obj
 0002:00233d20       ?rocketThink@@YAXPAUgentity_s@@@Z 20384d20 f   WP_Rocket_Launcher.obj
 0002:002349d0       ?RocketDie@@YAXPAUgentity_s@@00HH@Z 203859d0 f   WP_Rocket_Launcher.obj
 0002:00234a70       ?WP_FireRocket@@YAXPAUgentity_s@@W4qboolean@@@Z 20385a70 f   WP_Rocket_Launcher.obj
 0002:00234f50       ?WP_T21MainFire@@YAXPAUgentity_s@@QAM@Z 20385f50 f   WP_T21.obj
 0002:00235040       ?WP_T21AltFire@@YAXPAUgentity_s@@@Z 20386040 f   WP_T21.obj
 0002:00235350       ?WP_FireT21@@YAXPAUgentity_s@@W4qboolean@@@Z 20386350 f   WP_T21.obj
 0002:00235470       ?Thermal_Touch@@YAXPAUgentity_s@@0PAUtrace_t@@@Z 20386470 f   WP_Thermal.obj
 0002:002354a0       ?thermalDetonatorExplode@@YAXPAUgentity_s@@@Z 203864a0 f   WP_Thermal.obj
 0002:002357d0       ?thermalThinkStandard@@YAXPAUgentity_s@@@Z 203867d0 f   WP_Thermal.obj
 0002:00235870       ?WP_FireThermalDetonator@@YAPAUgentity_s@@PAU1@W4qboolean@@@Z 20386870 f   WP_Thermal.obj
 0002:00235d40       ?WP_DropThermal@@YAPAUgentity_s@@PAU1@@Z 20386d40 f   WP_Thermal.obj
 0002:00235dc0       ?WP_GrenadeBlow@@YAXPAUgentity_s@@@Z 20386dc0 f   WP_Thermal.obj
 0002:00236980       ?WP_GrenadeThink@@YAXPAUgentity_s@@@Z 20387980 f   WP_Thermal.obj
 0002:00236a20       ?WP_ThrowGrenade@@YAXPAUgentity_s@@W4qboolean@@@Z 20387a20 f   WP_Thermal.obj
 0002:00236f90       ?laserTrapExplode@@YAXPAUgentity_s@@@Z 20387f90 f   WP_Trip_Mine.obj
 0002:00237160       ?laserTrapDelayedExplode@@YAXPAUgentity_s@@00HH@Z 20388160 f   WP_Trip_Mine.obj
 0002:00237230       ?touchLaserTrap@@YAXPAUgentity_s@@0PAUtrace_t@@@Z 20388230 f   WP_Trip_Mine.obj
 0002:00237370       ?proxMineThink@@YAXPAUgentity_s@@@Z 20388370 f   WP_Trip_Mine.obj
 0002:002376e0       ?laserTrapThink@@YAXPAUgentity_s@@@Z 203886e0 f   WP_Trip_Mine.obj
 0002:00237900       ?Laser_Touch@@YAXPAUgentity_s@@0PAUtrace_t@@@Z 20388900 f   WP_Trip_Mine.obj
 0002:00237930       ?laserTrapStick@@YAXPAUgentity_s@@QAM1@Z 20388930 f   WP_Trip_Mine.obj
 0002:00237e10       ?TrapThink@@YAXPAUgentity_s@@@Z 20388e10 f   WP_Trip_Mine.obj
 0002:00237e80       ?CreateLaserTrap@@YAXPAUgentity_s@@QAM0@Z 20388e80 f   WP_Trip_Mine.obj
 0002:00238390       ?WP_PlaceLaserTrap@@YAXPAUgentity_s@@W4qboolean@@@Z 20389390 f   WP_Trip_Mine.obj
 0002:002385b0       ?WP_FireTuskenRifle@@YAXPAUgentity_s@@W4qboolean@@@Z 203895b0 f   WP_TuskenRifle.obj
 0002:002386a0       ?ForceAbsorb@@YAXPAUgentity_s@@@Z 203896a0 f   FP_Absorb.obj
 0002:00238830       ?ForceDrain@@YAXPAUgentity_s@@@Z 20389830 f   FP_Drain.obj
 0002:00238980       ?RunForceLift@@YAXPAUgentity_s@@@Z 20389980 f   FP_Force_Lift.obj
 0002:00238f50       ?ForceLift@@YAXPAUgentity_s@@@Z 20389f50 f   FP_Force_Lift.obj
 0002:00239540       ?ValidGripEnt@@YA?AW4qboolean@@PAUgentity_s@@0@Z 2038a540 f   FP_Grip.obj
 0002:00239610       ?DoGripAction@@YAXPAUgentity_s@@H@Z 2038a610 f   FP_Grip.obj
 0002:00239f10       ?ForceGrip@@YAXPAUgentity_s@@@Z 2038af10 f   FP_Grip.obj
 0002:0023a540       ?StopGrip@@YAXPAUgentity_s@@@Z 2038b540 f   FP_Grip.obj
 0002:0023a810       ?ForceHeal@@YAXPAUgentity_s@@@Z 2038b810 f   FP_Heal.obj
 0002:0023aa90       ?WP_GetVelocityForForceJump@@YAHPAUgentity_s@@QAMPAUusercmd_s@@@Z 2038ba90 f   FP_Jump.obj
 0002:0023af70       ?ForceJump@@YAXPAUgentity_s@@PAUusercmd_s@@@Z 2038bf70 f   FP_Jump.obj
 0002:0023b1b0       ?ForceJumpCharge@@YAXPAUgentity_s@@PAUusercmd_s@@@Z 2038c1b0 f   FP_Jump.obj
 0002:0023b4f0       ?OJP_BlockLightning@@YA?AW4qboolean@@PAUgentity_s@@0QAMH@Z 2038c4f0 f   FP_Lightning.obj
 0002:0023b6f0       ?ForceLightning@@YAXPAUgentity_s@@@Z 2038c6f0 f   FP_Lightning.obj
 0002:0023b920       ?ForceLightningDamage@@YAXPAUgentity_s@@0QAM1@Z 2038c920 f   FP_Lightning.obj
 0002:0023bde0       ?ForceShootLightning@@YAXPAUgentity_s@@@Z 2038cde0 f   FP_Lightning.obj
 0002:0023c7c0       ?ValidManipulateEnt@@YA?AW4qboolean@@PAUgentity_s@@0@Z 2038d7c0 f   FP_Manipulate.obj
 0002:0023c8c0       ?DoManipulateAction@@YAXPAUgentity_s@@@Z 2038d8c0 f   FP_Manipulate.obj
 0002:0023d720       ?ForceManipulate@@YAXPAUgentity_s@@@Z 2038e720 f   FP_Manipulate.obj
 0002:0023dd80       ?WP_AddAsMindtricked@@YAXPAUforcedata_s@@H@Z 2038ed80 f   FP_Mindtrick.obj
 0002:0023de80       ?ForceTelepathyCheckDirectNPCTarget@@YA?AW4qboolean@@PAUgentity_s@@PAUtrace_t@@PAW41@@Z 2038ee80 f   FP_Mindtrick.obj
 0002:0023e7b0       ?ForceTelepathy@@YAXPAUgentity_s@@@Z 2038f7b0 f   FP_Mindtrick.obj
 0002:0023f1f0       ?G_IsMindTricked@@YA?AW4qboolean@@PAUforcedata_s@@H@Z 203901f0 f   FP_Mindtrick.obj
 0002:0023f2f0       ?WP_UpdateMindtrickEnts@@YAXPAUgentity_s@@@Z 203902f0 f   FP_Mindtrick.obj
 0002:0023f6c0       ?ForceProtect@@YAXPAUgentity_s@@@Z 203906c0 f   FP_Protect.obj
 0002:0023f850       ?CanCounterThrow@@YA?AW4qboolean@@PAUgentity_s@@0W41@@Z 20390850 f   FP_PushPull.obj
 0002:0023f940       ?GEntity_UseFunc@@YAXPAUgentity_s@@00@Z 20390940 f   FP_PushPull.obj
 0002:0023f9a0       ?ForceThrow@@YAXPAUgentity_s@@W4qboolean@@@Z 203909a0 f   FP_PushPull.obj
 0002:002439f0       ?ForceRage@@YAXPAUgentity_s@@@Z 203949f0 f   FP_Rage.obj
 0002:00243bc0       ?ForceSeeing@@YAXPAUgentity_s@@@Z 20394bc0 f   FP_Sense.obj
 0002:00243cf0       ?ForceSpeed@@YAXPAUgentity_s@@H@Z 20394cf0 f   FP_Speed.obj
 0002:00243ed0       ?WP_AddToClientBitflags@@YAXPAUgentity_s@@H@Z 20394ed0 f   FP_Team_Heal.obj
 0002:00243fd0       ?ForceTeamHeal@@YAXPAUgentity_s@@@Z 20394fd0 f   FP_Team_Heal.obj
 0002:00244620       ?G_PreDefSound@@YAPAUgentity_s@@QAMH@Z 20395620 f   w_force.obj
 0002:002446c0       ?WP_InitForcePowers@@YAXPAUgentity_s@@@Z 203956c0 f   w_force.obj
 0002:002455e0       ?WP_SpawnInitForcePowers@@YAXPAUgentity_s@@@Z 203965e0 f   w_force.obj
 0002:00245c90       ?IsGunSkill@@YA?AW4qboolean@@H@Z 20396c90 f   w_force.obj
 0002:00245d40       ?IsMerc@@YA?AW4qboolean@@PAUgentity_s@@@Z 20396d40 f   w_force.obj
 0002:00245e00       ?ForcePowerUsableOn@@YAHPAUgentity_s@@0H@Z 20396e00 f   w_force.obj
 0002:00246280       ?WP_ForcePowerAvailable@@YA?AW4qboolean@@PAUgentity_s@@HH@Z 20397280 f   w_force.obj
 0002:00246370       ?WP_ForcePowerInUse@@YA?AW4qboolean@@PAUgentity_s@@H@Z 20397370 f   w_force.obj
 0002:002463d0       ?WP_ForcePowerUsable@@YA?AW4qboolean@@PAUgentity_s@@H@Z 203973d0 f   w_force.obj
 0002:00246800       ?WP_ForcePowerRegenerate@@YAXPAUgentity_s@@H@Z 20397800 f   w_force.obj
 0002:002468f0       ?WP_ForcePowerStart@@YAXPAUgentity_s@@HH@Z 203978f0 f   w_force.obj
 0002:00247100       ?IsHybrid@@YA?AW4qboolean@@PAUgentity_s@@@Z 20398100 f   w_force.obj
 0002:00247190       ?OJP_CounterForce@@YA?AW4qboolean@@PAUgentity_s@@0H@Z 20398190 f   w_force.obj
 0002:002474b0       ?G_InGetUpAnim@@YA?AW4qboolean@@PAUplayerState_s@@@Z 203984b0 f   w_force.obj
 0002:002475e0       ?G_LetGoOfWall@@YAXPAUgentity_s@@@Z 203985e0 f   w_force.obj
 0002:00247710       ?WP_ForcePowerStop@@YAXPAUgentity_s@@H@Z 20398710 f   w_force.obj
 0002:00247b70       ?WP_DoSpecificPower@@YAHPAUgentity_s@@PAUusercmd_s@@H@Z 20398b70 f   w_force.obj
 0002:002480e0       ?FindGenericEnemyIndex@@YAXPAUgentity_s@@@Z 203990e0 f   w_force.obj
 0002:00248420       ?SeekerDroneUpdate@@YAXPAUgentity_s@@@Z 20399420 f   w_force.obj
 0002:00248f50       ?HolocronUpdate@@YAXPAUgentity_s@@@Z 20399f50 f   w_force.obj
 0002:00249420       ?JediMasterUpdate@@YAXPAUgentity_s@@@Z 2039a420 f   w_force.obj
 0002:00249670       ?WP_HasForcePowers@@YA?AW4qboolean@@PBUplayerState_s@@@Z 2039a670 f   w_force.obj
 0002:00249710       ?G_SpecialRollGetup@@YA?AW4qboolean@@PAUgentity_s@@@Z 2039a710 f   w_force.obj
 0002:002499c0       ?WP_ForcePowersUpdate@@YAXPAUgentity_s@@PAUusercmd_s@@@Z 2039a9c0 f   w_force.obj
 0002:0024c4e0       ?Jedi_DodgeEvasion@@YA?AW4qboolean@@PAUgentity_s@@0PAUtrace_t@@H@Z 2039d4e0 f   w_force.obj
 0002:0024c860       ?RemoveDuelDrawLoser@@YAXXZ 2039d860 f   GT_Duel.obj
 0002:0024ca20       ?DuelLimitHit@@YA?AW4qboolean@@XZ 2039da20 f   GT_Duel.obj
 0002:0024cad0       ?G_RemoveDuelist@@YAXH@Z   2039dad0 f   GT_Duel.obj
 0002:0024cbb0       ?DuelResetWinsLosses@@YAXXZ 2039dbb0 f   GT_Duel.obj
 0002:0024cc50       ?G_GetDuelWinner@@YAPAUgentity_s@@PAUgclient_s@@@Z 2039dc50 f   GT_Duel.obj
 0002:0024cd10       _GetCurrentProcess@0       2039dd10 f   kernel32:KERNEL32.dll
 0002:0024cd16       _GlobalFree@4              2039dd16 f   kernel32:KERNEL32.dll
 0002:0024cd1c       _GetModuleFileNameA@12     2039dd1c f   kernel32:KERNEL32.dll
 0002:0024cd22       _GetCurrentThread@0        2039dd22 f   kernel32:KERNEL32.dll
 0002:0024cd28       _GlobalAlloc@8             2039dd28 f   kernel32:KERNEL32.dll
 0002:0024cd2e       _SetUnhandledExceptionFilter@4 2039dd2e f   kernel32:KERNEL32.dll
 0002:0024cd34       _FreeLibrary@4             2039dd34 f   kernel32:KERNEL32.dll
 0002:0024cd3a       _GetProcAddress@8          2039dd3a f   kernel32:KERNEL32.dll
 0002:0024cd40       _LoadLibraryA@4            2039dd40 f   kernel32:KERNEL32.dll
 0002:0024cd50       __fpmath                   2039dd50 f   LIBCMTD:_fpinit_.obj
 0002:0024cd70       __cfltcvt_init             2039dd70 f   LIBCMTD:_fpinit_.obj
 0002:0024ce00       ___setfflag                2039de00 f   LIBCMTD:_fpinit_.obj
 0002:0024ce30       __RTC_CheckEsp             2039de30 f   LIBCMTD:_stack_.obj
 0002:0024ce60       @_RTC_CheckStackVars@8     2039de60 f   LIBCMTD:_stack_.obj
 0002:0024cee0       @_RTC_AllocaHelper@12      2039dee0 f   LIBCMTD:_stack_.obj
 0002:0024cf20       @_RTC_CheckStackVars2@12   2039df20 f   LIBCMTD:_stack_.obj
 0002:0024d030       @__security_check_cookie@4 2039e030 f   LIBCMTD:secchk.obj
 0002:0024d050       __RTC_InitBase             2039e050 f   LIBCMTD:_init_.obj
 0002:0024d090       __RTC_Shutdown             2039e090 f   LIBCMTD:_init_.obj
 0002:0024d0b0       __atof_l                   2039e0b0 f   LIBCMTD:atof.obj
 0002:0024d230       ??0_LocaleUpdate@@QAE@PAUlocaleinfo_struct@@@Z 2039e230 f i LIBCMTD:atof.obj
 0002:0024d340       ??1_LocaleUpdate@@QAE@XZ   2039e340 f i LIBCMTD:atof.obj
 0002:0024d380       ?GetLocaleT@_LocaleUpdate@@QAEPAUlocaleinfo_struct@@XZ 2039e380 f i LIBCMTD:atof.obj
 0002:0024d3a0       _atof                      2039e3a0 f   LIBCMTD:atof.obj
 0002:0024d3c0       ___strgtold12              2039e3c0 f   LIBCMTD:atof.obj
 0002:0024d430       ___STRINGTOLD              2039e430 f   LIBCMTD:atof.obj
 0002:0024d490       _atol                      2039e490 f   LIBCMTD:atox.obj
 0002:0024d4b0       __atol_l                   2039e4b0 f   LIBCMTD:atox.obj
 0002:0024d4e0       _atoi                      2039e4e0 f   LIBCMTD:atox.obj
 0002:0024d500       __atoi_l                   2039e500 f   LIBCMTD:atox.obj
 0002:0024d520       __atoi64                   2039e520 f   LIBCMTD:atox.obj
 0002:0024d540       __atoi64_l                 2039e540 f   LIBCMTD:atox.obj
 0002:0024d570       _sscanf                    2039e570 f   LIBCMTD:sscanf.obj
 0002:0024d760       __sscanf_l                 2039e760 f   LIBCMTD:sscanf.obj
 0002:0024d7a0       _sscanf_s                  2039e7a0 f   LIBCMTD:sscanf.obj
 0002:0024d7e0       __sscanf_s_l               2039e7e0 f   LIBCMTD:sscanf.obj
 0002:0024d820       _strcpy                    2039e820 f   LIBCMTD:strcat.obj
 0002:0024d830       _strcat                    2039e830 f   LIBCMTD:strcat.obj
 0002:0024d960       _memset                    2039e960 f   LIBCMTD:memset.obj
 0002:0024da00       _strlen                    2039ea00 f   LIBCMTD:strlen.obj
 0002:0024dab0       _atan2                     2039eab0 f   LIBCMTD:_87ctriga_.obj
 0002:0024daba       __CIatan2                  2039eaba f   LIBCMTD:_87ctriga_.obj
 0002:0024dad0       _cos                       2039ead0 f   LIBCMTD:_cos_.obj
 0002:0024db10       __CIcos                    2039eb10 f   LIBCMTD:_cos_.obj
 0002:0024db4b       __CIcos_default            2039eb4b f   LIBCMTD:_cos_.obj
 0002:0024db5f       __cos_default              2039eb5f     LIBCMTD:_cos_.obj
 0002:0024dc50       _sin                       2039ec50 f   LIBCMTD:_sin_.obj
 0002:0024dc90       __CIsin                    2039ec90 f   LIBCMTD:_sin_.obj
 0002:0024dccb       __CIsin_default            2039eccb f   LIBCMTD:_sin_.obj
 0002:0024dcdf       __sin_default              2039ecdf     LIBCMTD:_sin_.obj
 0002:0024ddd0       _fabs                      2039edd0 f   LIBCMTD:_fabs_.obj
 0002:0024df20       _strchr                    2039ef20 f   LIBCMTD:strchr.obj
 0002:0024df26       ___from_strstr_to_strchr   2039ef26     LIBCMTD:strchr.obj
 0002:0024e020       __wassert                  2039f020 f   LIBCMTD:wassert.obj
 0002:0024ee90       __invoke_watson_if_error   2039fe90 f i LIBCMTD:wassert.obj
 0002:0024ef20       __ftol2_sse                2039ff20 f   LIBCMTD:ftol2.obj
 0002:0024ef29       __ftol2_pentium4           2039ff29 f   LIBCMTD:ftol2.obj
 0002:0024ef3c       __ftol2_sse_excpt          2039ff3c f   LIBCMTD:ftol2.obj
 0002:0024ef56       __ftol2                    2039ff56 f   LIBCMTD:ftol2.obj
 0002:0024f000       _strstr                    203a0000 f   LIBCMTD:strstr.obj
 0002:0024f0b0       __alloca_probe             203a00b0     LIBCMTD:chkstk.obj
 0002:0024f0b0       __chkstk                   203a00b0 f   LIBCMTD:chkstk.obj
 0002:0024f0f0       _ceil                      203a00f0 f   LIBCMTD:_ceil_pentium4_.obj
 0002:0024f130       __ceil_pentium4            203a0130 f   LIBCMTD:_ceil_pentium4_.obj
 0002:0024f260       _floor                     203a0260 f   LIBCMTD:_floor_pentium4_.obj
 0002:0024f2a0       __floor_pentium4           203a02a0 f   LIBCMTD:_floor_pentium4_.obj
 0002:0024f3d0       __CIsqrt                   203a03d0 f   LIBCMTD:_sqrt_.obj
 0002:0024f3e4       _sqrt                      203a03e4     LIBCMTD:_sqrt_.obj
 0002:0024f4c0       _memcpy                    203a04c0 f   LIBCMTD:memcpy.obj
 0002:0024f900       _abs                       203a0900 f   LIBCMTD:abs.obj
 0002:0024f930       __abs64                    203a0930 f   LIBCMTD:abs.obj
 0002:0024f990       _srand                     203a0990 f   LIBCMTD:rand.obj
 0002:0024f9b0       _rand                      203a09b0 f   LIBCMTD:rand.obj
 0002:0024fa00       _strcmp                    203a0a00 f   LIBCMTD:strcmp.obj
 0002:0024fab0       _strncpy                   203a0ab0 f   LIBCMTD:strncpy.obj
 0002:0024fc20       __tolower                  203a0c20 f   LIBCMTD:tolower.obj
 0002:0024fc30       __tolower_l                203a0c30 f   LIBCMTD:tolower.obj
 0002:0024fe80       _tolower                   203a0e80 f   LIBCMTD:tolower.obj
 0002:0024fee0       _strrchr                   203a0ee0 f   LIBCMTD:strrchr.obj
 0002:0024ff20       __vsprintf_l               203a0f20 f   LIBCMTD:vsprintf.obj
 0002:00250120       _vsprintf                  203a1120 f   LIBCMTD:vsprintf.obj
 0002:00250150       __vscprintf_helper         203a1150 f   LIBCMTD:vsprintf.obj
 0002:00250260       __vscprintf                203a1260 f   LIBCMTD:vsprintf.obj
 0002:00250290       __vscprintf_l              203a1290 f   LIBCMTD:vsprintf.obj
 0002:002502c0       __vscprintf_p              203a12c0 f   LIBCMTD:vsprintf.obj
 0002:002502f0       __vscprintf_p_l            203a12f0 f   LIBCMTD:vsprintf.obj
 0002:00250320       _qsort                     203a1320 f   LIBCMTD:qsort.obj
 0002:00250a40       _acos                      203a1a40 f   LIBCMTD:_acos_.obj
 0002:00250a80       __CIacos                   203a1a80 f   LIBCMTD:_acos_.obj
 0002:00250abb       __CIacos_default           203a1abb f   LIBCMTD:_acos_.obj
 0002:00250acf       __acos_default             203a1acf     LIBCMTD:_acos_.obj
 0002:00250be0       _sprintf                   203a1be0 f   LIBCMTD:sprintf.obj
 0002:00250de0       __sprintf_l                203a1de0 f   LIBCMTD:sprintf.obj
 0002:00250e20       _sprintf_s                 203a1e20 f   LIBCMTD:sprintf.obj
 0002:00250e60       __sprintf_s_l              203a1e60 f   LIBCMTD:sprintf.obj
 0002:00250ea0       __snprintf_s               203a1ea0 f   LIBCMTD:sprintf.obj
 0002:00250ee0       __snprintf_s_l             203a1ee0 f   LIBCMTD:sprintf.obj
 0002:00250f20       __sprintf_p                203a1f20 f   LIBCMTD:sprintf.obj
 0002:00250f60       __sprintf_p_l              203a1f60 f   LIBCMTD:sprintf.obj
 0002:00250fa0       __scprintf                 203a1fa0 f   LIBCMTD:sprintf.obj
 0002:00250fd0       __scprintf_p               203a1fd0 f   LIBCMTD:sprintf.obj
 0002:00251000       __scprintf_l               203a2000 f   LIBCMTD:sprintf.obj
 0002:00251030       __scprintf_p_l             203a2030 f   LIBCMTD:sprintf.obj
 0002:00251060       _strncmp                   203a2060 f   LIBCMTD:strncmp.obj
 0002:00251230       _fmod                      203a2230 f   LIBCMTD:_87fmod_.obj
 0002:0025123a       __CIfmod                   203a223a f   LIBCMTD:_87fmod_.obj
 0002:00251260       __toupper                  203a2260 f   LIBCMTD:toupper.obj
 0002:00251270       __toupper_l                203a2270 f   LIBCMTD:toupper.obj
 0002:002514c0       _toupper                   203a24c0 f   LIBCMTD:toupper.obj
 0002:00251520       __vsnprintf_l              203a2520 f   LIBCMTD:vsnprint.obj
 0002:00251750       __vsnprintf                203a2750 f   LIBCMTD:vsnprint.obj
 0002:00251780       ?_RTC_Failure@@YAXPAXH@Z   203a2780 f   LIBCMTD:_error_.obj
 0002:00251c10       ?_RTC_StackFailure@@YAXPAXPBD@Z 203a2c10 f   LIBCMTD:_error_.obj
 0002:00251d50       ?_RTC_AllocaFailure@@YAXPAXPAU_RTC_ALLOCA_NODE@@H@Z 203a2d50 f   LIBCMTD:_error_.obj
 0002:00251f60       __RTC_UninitUse            203a2f60 f   LIBCMTD:_error_.obj
 0002:00252090       _tan                       203a3090 f   LIBCMTD:_tan_.obj
 0002:002520d0       __CItan                    203a30d0 f   LIBCMTD:_tan_.obj
 0002:0025210b       __CItan_default            203a310b f   LIBCMTD:_tan_.obj
 0002:0025211f       __tan_default              203a311f     LIBCMTD:_tan_.obj
 0002:00252210       _memmove                   203a3210 f   LIBCMTD:memmove.obj
 0002:00252650       __CRT_INIT@12              203a3650 f   LIBCMTD:dllcrt0.obj
 0002:002528f0       __DllMainCRTStartup@12     203a38f0 f   LIBCMTD:dllcrt0.obj
 0002:00252b50       __setdefaultprecision      203a3b50 f   LIBCMTD:fp8.obj
 0002:00252ba0       __forcdecpt                203a3ba0 f   LIBCMTD:cvt.obj
 0002:00252bc0       __forcdecpt_l              203a3bc0 f   LIBCMTD:cvt.obj
 0002:00252cb0       __cropzeros                203a3cb0 f   LIBCMTD:cvt.obj
 0002:00252cd0       __cropzeros_l              203a3cd0 f   LIBCMTD:cvt.obj
 0002:00252e20       __positive                 203a3e20 f   LIBCMTD:cvt.obj
 0002:00252e60       __fassign_l                203a3e60 f   LIBCMTD:cvt.obj
 0002:00252ed0       __fassign                  203a3ed0 f   LIBCMTD:cvt.obj
 0002:00252f00       __cftoe_l                  203a3f00 f   LIBCMTD:cvt.obj
 0002:002535a0       __cftoe                    203a45a0 f   LIBCMTD:cvt.obj
 0002:002535d0       __cftoa_l                  203a45d0 f   LIBCMTD:cvt.obj
 0002:00253fa0       __cftoa                    203a4fa0 f   LIBCMTD:cvt.obj
 0002:00253fd0       __cftof_l                  203a4fd0 f   LIBCMTD:cvt.obj
 0002:002544d0       __cftof                    203a54d0 f   LIBCMTD:cvt.obj
 0002:00254500       __cftog_l                  203a5500 f   LIBCMTD:cvt.obj
 0002:002547c0       __cftog                    203a57c0 f   LIBCMTD:cvt.obj
 0002:002547f0       __cfltcvt_l                203a57f0 f   LIBCMTD:cvt.obj
 0002:002548e0       __cfltcvt                  203a58e0 f   LIBCMTD:cvt.obj
 0002:00254960       __initp_misc_cfltcvt_tab   203a5960 f   LIBCMTD:cmiscdat.obj
 0002:002549b0       ___report_gsfailure        203a59b0 f   LIBCMTD:gs_report.obj
 0002:00254b10       __RTC_NumErrors            203a5b10 f   LIBCMTD:_userapi_.obj
 0002:00254b20       __RTC_GetErrDesc           203a5b20 f   LIBCMTD:_userapi_.obj
 0002:00254b40       __RTC_SetErrorType         203a5b40 f   LIBCMTD:_userapi_.obj
 0002:00254b70       __RTC_SetErrorFunc         203a5b70 f   LIBCMTD:_userapi_.obj
 0002:00254ba0       __RTC_SetErrorFuncW        203a5ba0 f   LIBCMTD:_userapi_.obj
 0002:00254bd0       ?_RTC_GetErrorFunc@@YAP6AHHPBDH00ZZPBX@Z 203a5bd0 f   LIBCMTD:_userapi_.obj
 0002:00254be0       ?_RTC_GetErrorFuncW@@YAP6AHHPB_WH00ZZPBX@Z 203a5be0 f   LIBCMTD:_userapi_.obj
 0002:00254bf0       __chkesp                   203a5bf0 f   LIBCMTD:chkesp.obj
 0002:00254c40       __CRT_RTC_INIT             203a5c40 f   LIBCMTD:chkesp.obj
 0002:00254c50       __CRT_RTC_INITW            203a5c50 f   LIBCMTD:chkesp.obj
 0002:00254c60       __fltin2                   203a5c60 f   LIBCMTD:_cfin_.obj
 0002:00254d70       __chvalidator              203a5d70 f   LIBCMTD:isctype.obj
 0002:00254dd0       __chvalidator_l            203a5dd0 f   LIBCMTD:isctype.obj
 0002:00254eb0       __isctype_l                203a5eb0 f   LIBCMTD:isctype.obj
 0002:00255010       __isctype                  203a6010 f   LIBCMTD:isctype.obj
 0002:00255060       __initp_misc_invarg        203a6060 f   LIBCMTD:invarg.obj
 0002:00255080       __invalid_parameter        203a6080 f   LIBCMTD:invarg.obj
 0002:002550f0       __invoke_watson            203a60f0 f   LIBCMTD:invarg.obj
 0002:00255130       __call_reportfault         203a6130 f   LIBCMTD:invarg.obj
 0002:002552e0       __set_invalid_parameter_handler 203a62e0 f   LIBCMTD:invarg.obj
 0002:00255330       __get_invalid_parameter_handler 203a6330 f   LIBCMTD:invarg.obj
 0002:00255370       ?_invalid_parameter@@YAXPBG00II@Z 203a6370 f   LIBCMTD:invarg.obj
 0002:002553a0       ?_invoke_watson@@YAXPBG00II@Z 203a63a0 f   LIBCMTD:invarg.obj
 0002:002553d0       __dosmaperr                203a63d0 f   LIBCMTD:dosmap.obj
 0002:00255410       __get_errno_from_oserr     203a6410 f   LIBCMTD:dosmap.obj
 0002:002554b0       __set_errno                203a64b0 f   LIBCMTD:dosmap.obj
 0002:002554f0       __get_errno                203a64f0 f   LIBCMTD:dosmap.obj
 0002:00255590       __set_doserrno             203a6590 f   LIBCMTD:dosmap.obj
 0002:002555d0       __get_doserrno             203a65d0 f   LIBCMTD:dosmap.obj
 0002:00255670       __errno                    203a6670 f   LIBCMTD:dosmap.obj
 0002:002556a0       ___doserrno                203a66a0 f   LIBCMTD:dosmap.obj
 0002:002556d0       __CrtSetReportHookW2       203a66d0 f   LIBCMTD:dbgrptw.obj
 0002:00255ac0       __CrtDbgReportW            203a6ac0 f   LIBCMTD:dbgrptw.obj
 0002:00255b10       __CrtDbgReportWV           203a6b10 f i LIBCMTD:dbgrptw.obj
 0002:00255b40       ___crtMessageWindowW       203a6b40 f   LIBCMTD:dbgrptw.obj
 0002:00256040       __invoke_watson_if_oneof   203a7040 f i LIBCMTD:dbgrptw.obj
 0002:00256090       ?_CrtDbgReportW@@YAHHPBGH00ZZ 203a7090 f   LIBCMTD:dbgrptw.obj
 0002:002560e0       ___updatetmbcinfo          203a70e0 f   LIBCMTD:mbctype.obj
 0002:00256230       __setmbcp                  203a7230 f   LIBCMTD:mbctype.obj
 0002:002566c0       __setmbcp_nolock           203a76c0 f   LIBCMTD:mbctype.obj
 0002:002570a0       __getmbcp                  203a80a0 f   LIBCMTD:mbctype.obj
 0002:00257130       ___initmbctable            203a8130 f   LIBCMTD:mbctype.obj
 0002:00257160       ___addlocaleref            203a8160 f   LIBCMTD:localref.obj
 0002:002572d0       ___removelocaleref         203a82d0 f   LIBCMTD:localref.obj
 0002:00257450       ___freetlocinfo            203a8450 f   LIBCMTD:localref.obj
 0002:002577f0       __updatetlocinfoEx_nolock  203a87f0 f   LIBCMTD:localref.obj
 0002:00257890       ___updatetlocinfo          203a8890 f   LIBCMTD:localref.obj
 0002:00257990       __encoded_null             203a8990 f   LIBCMTD:tidtable.obj
 0002:002579b0       ___crtTlsAlloc@4           203a89b0 f   LIBCMTD:tidtable.obj
 0002:002579d0       ___fls_getvalue@4          203a89d0 f   LIBCMTD:tidtable.obj
 0002:00257a00       ___get_flsindex            203a8a00 f   LIBCMTD:tidtable.obj
 0002:00257a10       ___set_flsgetvalue         203a8a10 f   LIBCMTD:tidtable.obj
 0002:00257a70       ___fls_setvalue@8          203a8a70 f   LIBCMTD:tidtable.obj
 0002:00257aa0       __mtinit                   203a8aa0 f   LIBCMTD:tidtable.obj
 0002:00257d20       __mtterm                   203a8d20 f   LIBCMTD:tidtable.obj
 0002:00257d90       __initptd                  203a8d90 f   LIBCMTD:tidtable.obj
 0002:00257f00       __getptd_noexit            203a8f00 f   LIBCMTD:tidtable.obj
 0002:00257ff0       __getptd                   203a8ff0 f   LIBCMTD:tidtable.obj
 0002:00258020       __freefls@4                203a9020 f   LIBCMTD:tidtable.obj
 0002:002582b0       __freeptd                  203a92b0 f   LIBCMTD:tidtable.obj
 0002:00258350       ___threadid                203a9350 f   LIBCMTD:tidtable.obj
 0002:00258360       ___threadhandle            203a9360 f   LIBCMTD:tidtable.obj
 0002:00258370       ___strgtold12_l            203a9370 f   LIBCMTD:_strgtold_.obj
 0002:002590d0       ___multtenpow12            203aa0d0 f i LIBCMTD:_strgtold_.obj
 0002:002591e0       ___ld12mul                 203aa1e0 f i LIBCMTD:_strgtold_.obj
 0002:002596e0       ___addl                    203aa6e0 f i LIBCMTD:_strgtold_.obj
 0002:00259730       ___shl_12                  203aa730 f i LIBCMTD:_strgtold_.obj
 0002:002597b0       ___shr_12                  203aa7b0 f i LIBCMTD:_strgtold_.obj
 0002:00259830       ___STRINGTOLD_L            203aa830 f   LIBCMTD:_strgtold_.obj
 0002:002598c0       _strtol                    203aa8c0 f   LIBCMTD:strtol.obj
 0002:00259f40       __strtol_l                 203aaf40 f   LIBCMTD:strtol.obj
 0002:00259f70       _strtoul                   203aaf70 f   LIBCMTD:strtol.obj
 0002:00259fd0       __strtoul_l                203aafd0 f   LIBCMTD:strtol.obj
 0002:0025a000       __strtoi64                 203ab000 f   LIBCMTD:strtoq.obj
 0002:0025a6d0       __strtoi64_l               203ab6d0 f   LIBCMTD:strtoq.obj
 0002:0025a700       __strtoui64                203ab700 f   LIBCMTD:strtoq.obj
 0002:0025a760       __strtoui64_l              203ab760 f   LIBCMTD:strtoq.obj
 0002:0025a790       __input_l                  203ab790 f   LIBCMTD:input.obj
 0002:0025c620       __INTRN_LOCALE_CONV        203ad620 f i LIBCMTD:input.obj
 0002:0025c790       __input_s_l                203ad790 f   LIBCMTD:inputs.obj
 0002:0025ec00       __VEC_memzero              203afc00 f   LIBCMTD:p4_memset.obj
 0002:0025ecf0       ___sse2_available_init     203afcf0 f   LIBCMTD:cpu_disp.obj
 0002:0025ed2c       __fFATN2                   203afd2c     LIBCMTD:_87triga_.obj
 0002:0025ed7c       __rtpiby2                  203afd7c     LIBCMTD:_87triga_.obj
 0002:0025edf0       __cintrindisp2             203afdf0 f   LIBCMTD:_87cdisp_.obj
 0002:0025ee2e       __cintrindisp1             203afe2e f   LIBCMTD:_87cdisp_.obj
 0002:0025ee6b       __ctrandisp2               203afe6b f   LIBCMTD:_87cdisp_.obj
 0002:0025effa       __ctrandisp1               203afffa f   LIBCMTD:_87cdisp_.obj
 0002:0025f02d       __fload                    203b002d f   LIBCMTD:_87cdisp_.obj
 0002:0025f110       __set_SSE2_enable          203b0110 f   LIBCMTD:_mathfcns_.obj
 0002:0025f140       __sse2_mathfcns_init       203b0140 f   LIBCMTD:_mathfcns_.obj
 0002:0025f160       __CIcos_pentium4           203b0160 f   LIBCMTD:_cos_pentium4_.obj
 0002:0025f178       __cos_pentium4             203b0178     LIBCMTD:_cos_pentium4_.obj
 0002:0025f380       __trandisp1                203b0380 f   LIBCMTD:_87disp_.obj
 0002:0025f3e7       __trandisp2                203b03e7 f   LIBCMTD:_87disp_.obj
 0002:0025f473       __rttospopde               203b0473     LIBCMTD:_87disp_.obj
 0002:0025f478       __rttospop                 203b0478     LIBCMTD:_87disp_.obj
 0002:0025f47a       __rtnospop                 203b047a     LIBCMTD:_87disp_.obj
 0002:0025f47c       __rttosnpop                203b047c     LIBCMTD:_87disp_.obj
 0002:0025f47d       __rtnospopde               203b047d     LIBCMTD:_87disp_.obj
 0002:0025f484       __rtzeropop                203b0484     LIBCMTD:_87disp_.obj
 0002:0025f486       __rtzeronpop               203b0486     LIBCMTD:_87disp_.obj
 0002:0025f48b       __rtonepop                 203b048b     LIBCMTD:_87disp_.obj
 0002:0025f48d       __rtonenpop                203b048d     LIBCMTD:_87disp_.obj
 0002:0025f492       __tosnan1                  203b0492     LIBCMTD:_87disp_.obj
 0002:0025f4bd       __nosnan2                  203b04bd     LIBCMTD:_87disp_.obj
 0002:0025f4bf       __tosnan2                  203b04bf     LIBCMTD:_87disp_.obj
 0002:0025f4e7       __nan2                     203b04e7     LIBCMTD:_87disp_.obj
 0002:0025f526       __rtindfpop                203b0526     LIBCMTD:_87disp_.obj
 0002:0025f528       __rtindfnpop               203b0528     LIBCMTD:_87disp_.obj
 0002:0025f539       __rttosnpopde              203b0539     LIBCMTD:_87disp_.obj
 0002:0025f543       __rtchsifneg               203b0543     LIBCMTD:_87disp_.obj
 0002:0025f5c0       __twoToTOS                 203b05c0 f   LIBCMTD:_common_.obj
 0002:0025f5d5       __load_CW                  203b05d5 f   LIBCMTD:_common_.obj
 0002:0025f5ec       __convertTOStoQNaN         203b05ec f   LIBCMTD:_common_.obj
 0002:0025f605       __fload_withFB             203b0605 f   LIBCMTD:_common_.obj
 0002:0025f648       __checkTOS_withFB          203b0648 f   LIBCMTD:_common_.obj
 0002:0025f65e       __fast_exit                203b065e f   LIBCMTD:_common_.obj
 0002:0025f66b       __math_exit                203b066b f   LIBCMTD:_common_.obj
 0002:0025f695       __check_overflow_exit      203b0695 f   LIBCMTD:_common_.obj
 0002:0025f6a9       __check_range_exit         203b06a9 f   LIBCMTD:_common_.obj
 0002:0025f7b0       __startTwoArgErrorHandling 203b07b0 f   LIBCMTD:_genexcep_.obj
 0002:0025f7c7       __startOneArgErrorHandling 203b07c7 f   LIBCMTD:_genexcep_.obj
 0002:0025f820       __CIsin_pentium4           203b0820 f   LIBCMTD:_sin_pentium4_.obj
 0002:0025f838       __sin_pentium4             203b0838     LIBCMTD:_sin_pentium4_.obj
 0002:0025fa60       __handle_qnan1             203b0a60 f   LIBCMTD:_fpexcept_.obj
 0002:0025fae0       __handle_qnan2             203b0ae0 f   LIBCMTD:_fpexcept_.obj
 0002:0025fb70       __except1                  203b0b70 f   LIBCMTD:_fpexcept_.obj
 0002:0025fcb0       __except2                  203b0cb0 f   LIBCMTD:_fpexcept_.obj
 0002:0025fe00       __raise_exc_ex             203b0e00 f   LIBCMTD:_fpexcept_.obj
 0002:00260480       __raise_exc                203b1480 f   LIBCMTD:_fpexcept_.obj
 0002:002604c0       __raise_excf               203b14c0 f   LIBCMTD:_fpexcept_.obj
 0002:00260500       __handle_exc               203b1500 f   LIBCMTD:_fpexcept_.obj
 0002:002608d0       __umatherr                 203b18d0 f   LIBCMTD:_fpexcept_.obj
 0002:002609a0       __set_errno_from_matherr   203b19a0 f   LIBCMTD:_fpexcept_.obj
 0002:00260a50       __errcode                  203b1a50 f   LIBCMTD:_fpexcept_.obj
 0002:00260ae0       __set_exp                  203b1ae0 f   LIBCMTD:_util_.obj
 0002:00260b30       __get_exp                  203b1b30 f   LIBCMTD:_util_.obj
 0002:00260b70       __add_exp                  203b1b70 f   LIBCMTD:_util_.obj
 0002:00260bb0       __set_bexp                 203b1bb0 f   LIBCMTD:_util_.obj
 0002:00260bf0       __sptype                   203b1bf0 f   LIBCMTD:_util_.obj
 0002:00260c90       __decomp                   203b1c90 f   LIBCMTD:_util_.obj
 0002:00260e00       __statfp                   203b1e00 f   LIBCMTD:_fpctrl_.obj
 0002:00260e20       __clrfp                    203b1e20 f   LIBCMTD:_fpctrl_.obj
 0002:00260e40       __ctrlfp                   203b1e40 f   LIBCMTD:_fpctrl_.obj
 0002:00260e80       __set_statfp               203b1e80 f   LIBCMTD:_fpctrl_.obj
 0002:00260f00       ___get_fpsr_sse2           203b1f00 f   LIBCMTD:_fpctrl_.obj
 0002:00260f30       ___set_fpsr_sse2           203b1f30 f   LIBCMTD:_fpctrl_.obj
 0002:00261040       ___fclrf_sse2              203b2040 f   LIBCMTD:_fpctrl_.obj
 0002:00261070       ___statfp_sse2             203b2070 f   LIBCMTD:_fpctrl_.obj
 0002:002610b0       ___clrfp_sse2              203b20b0 f   LIBCMTD:_fpctrl_.obj
 0002:00261100       ___ctrlfp_sse2             203b2100 f   LIBCMTD:_fpctrl_.obj
 0002:00261170       ___set_statfp_sse2         203b2170 f   LIBCMTD:_fpctrl_.obj
 0002:002611b0       __cinit                    203b21b0 f   LIBCMTD:crt0dat.obj
 0002:00261280       _exit                      203b2280 f   LIBCMTD:crt0dat.obj
 0002:002612a0       __exit                     203b22a0 f   LIBCMTD:crt0dat.obj
 0002:002612c0       __cexit                    203b22c0 f   LIBCMTD:crt0dat.obj
 0002:002612e0       __c_exit                   203b22e0 f   LIBCMTD:crt0dat.obj
 0002:00261300       __amsg_exit                203b2300 f   LIBCMTD:crt0dat.obj
 0002:00261330       ___freeCrtMemory           203b2330 f   LIBCMTD:crt0dat.obj
 0002:00261740       ___crtCorExitProcess       203b2740 f   LIBCMTD:crt0dat.obj
 0002:00261790       ___crtExitProcess          203b2790 f   LIBCMTD:crt0dat.obj
 0002:002617c0       __lockexit                 203b27c0 f   LIBCMTD:crt0dat.obj
 0002:002617e0       __unlockexit               203b27e0 f   LIBCMTD:crt0dat.obj
 0002:00261800       __init_pointers            203b2800 f   LIBCMTD:crt0dat.obj
 0002:002618b0       __initterm_e               203b28b0 f   LIBCMTD:crt0dat.obj
 0002:00261900       __get_wpgmptr              203b2900 f   LIBCMTD:crt0dat.obj
 0002:00261a30       __get_pgmptr               203b2a30 f   LIBCMTD:crt0dat.obj
 0002:00261b60       __initp_misc_winsig        203b2b60 f   LIBCMTD:winsig.obj
 0002:00261ba0       _signal                    203b2ba0 f   LIBCMTD:winsig.obj
 0002:00262150       _raise                     203b3150 f   LIBCMTD:winsig.obj
 0002:002625a0       ___get_sigabrt             203b35a0 f   LIBCMTD:winsig.obj
 0002:002625c0       ___fpecode                 203b35c0 f   LIBCMTD:winsig.obj
 0002:002625e0       ___pxcptinfoptrs           203b35e0 f   LIBCMTD:winsig.obj
 0002:00262600       ___crtMessageBoxW          203b3600 f   LIBCMTD:crtmboxw.obj
 0002:002628b0       __itow_s                   203b38b0 f   LIBCMTD:xtows.obj
 0002:00262d80       __ltow_s                   203b3d80 f   LIBCMTD:xtows.obj
 0002:00262dd0       __ultow_s                  203b3dd0 f   LIBCMTD:xtows.obj
 0002:00262e00       __i64tow_s                 203b3e00 f   LIBCMTD:xtows.obj
 0002:00263320       __ui64tow_s                203b4320 f   LIBCMTD:xtows.obj
 0002:00263350       _wcsncat_s                 203b4350 f   LIBCMTD:wcsncat_s.obj
 0002:00263930       _wcsncpy_s                 203b4930 f   LIBCMTD:wcsncpy_s.obj
 0002:00263e40       _wcscat_s                  203b4e40 f   LIBCMTD:wcscat_s.obj
 0002:00264320       _wcscpy_s                  203b5320 f   LIBCMTD:wcscpy_s.obj
 0002:002646c0       _fflush                    203b56c0 f   LIBCMTD:fflush.obj
 0002:00264780       __fflush_nolock            203b5780 f   LIBCMTD:fflush.obj
 0002:002647f0       __flush                    203b57f0 f   LIBCMTD:fflush.obj
 0002:002648e0       __flushall                 203b58e0 f   LIBCMTD:fflush.obj
 0002:00264b10       _fwprintf                  203b5b10 f   LIBCMTD:fwprintf.obj
 0002:00264cf0       __fwprintf_l               203b5cf0 f   LIBCMTD:fwprintf.obj
 0002:00264d30       __fwprintf_s_l             203b5d30 f   LIBCMTD:fwprintf.obj
 0002:00264d70       _fwprintf_s                203b5d70 f   LIBCMTD:fwprintf.obj
 0002:00264da0       __fwprintf_p_l             203b5da0 f   LIBCMTD:fwprintf.obj
 0002:00264de0       __fwprintf_p               203b5de0 f   LIBCMTD:fwprintf.obj
 0002:00264e10       _setvbuf                   203b5e10 f   LIBCMTD:setvbuf.obj
 0002:002651a0       ___iob_func                203b61a0 f   LIBCMTD:_file.obj
 0002:002651b0       ___initstdio               203b61b0 f   LIBCMTD:_file.obj
 0002:00265350       ___endstdio                203b6350 f   LIBCMTD:_file.obj
 0002:00265390       __lock_file                203b6390 f   LIBCMTD:_file.obj
 0002:00265400       __lock_file2               203b6400 f   LIBCMTD:_file.obj
 0002:00265450       __unlock_file              203b6450 f   LIBCMTD:_file.obj
 0002:002654c0       __unlock_file2             203b64c0 f   LIBCMTD:_file.obj
 0002:00265510       _abort                     203b6510 f   LIBCMTD:abort.obj
 0002:00265590       __set_abort_behavior       203b6590 f   LIBCMTD:abort.obj
 0002:002655d0       _wcslen                    203b65d0 f   LIBCMTD:wcslen.obj
 0002:00265610       __set_error_mode           203b6610 f   LIBCMTD:errmode.obj
 0002:00265700       ___set_app_type            203b6700 f   LIBCMTD:errmode.obj
 0002:00265720       __vswprintf_helper         203b6720 f   LIBCMTD:vswprnc.obj
 0002:00265a10       __vswprintf_c              203b6a10 f   LIBCMTD:vswprnc.obj
 0002:00265a70       __vswprintf_c_l            203b6a70 f   LIBCMTD:vswprnc.obj
 0002:00265ad0       __vswprintf_s_l            203b6ad0 f   LIBCMTD:vswprnc.obj
 0002:00265dd0       _vswprintf_s               203b6dd0 f   LIBCMTD:vswprnc.obj
 0002:00265e00       __vsnwprintf_s_l           203b6e00 f   LIBCMTD:vswprnc.obj
 0002:002662a0       __vsnwprintf_s             203b72a0 f   LIBCMTD:vswprnc.obj
 0002:002662d0       __vswprintf_p              203b72d0 f   LIBCMTD:vswprnc.obj
 0002:00266330       __vswprintf_p_l            203b7330 f   LIBCMTD:vswprnc.obj
 0002:00266390       ___libm_setusermatherr     203b7390 f   LIBCMTD:_libm_error_.obj
 0002:002663d0       ___libm_error_support      203b73d0 f   LIBCMTD:_libm_error_.obj
 0002:002671d0       __ceil_default             203b81d0 f   LIBCMTD:_ceil_.obj
 0002:00267360       __floor_default            203b8360 f   LIBCMTD:_floor_.obj
 0002:002674f0       __VEC_memcpy               203b84f0 f   LIBCMTD:p4_memcpy.obj
 0002:00267640       ___crtLCMapStringA         203b8640 f   LIBCMTD:a_map.obj
 0002:002679f0       __MarkAllocaS              203b89f0 f i LIBCMTD:a_map.obj
 0002:00267a20       __freea                    203b8a20 f i LIBCMTD:a_map.obj
 0002:00267b00       __isleadbyte_l             203b8b00 f i LIBCMTD:_wctype.obj
 0002:00267b60       _isleadbyte                203b8b60 f i LIBCMTD:_wctype.obj
 0002:00267b80       __iswalpha_l               203b8b80 f i LIBCMTD:_wctype.obj
 0002:00267ba0       _iswalpha                  203b8ba0 f i LIBCMTD:_wctype.obj
 0002:00267bc0       __iswupper_l               203b8bc0 f i LIBCMTD:_wctype.obj
 0002:00267be0       _iswupper                  203b8be0 f i LIBCMTD:_wctype.obj
 0002:00267c00       __iswlower_l               203b8c00 f i LIBCMTD:_wctype.obj
 0002:00267c20       _iswlower                  203b8c20 f i LIBCMTD:_wctype.obj
 0002:00267c40       __iswdigit_l               203b8c40 f i LIBCMTD:_wctype.obj
 0002:00267c60       _iswdigit                  203b8c60 f i LIBCMTD:_wctype.obj
 0002:00267c80       __iswxdigit_l              203b8c80 f i LIBCMTD:_wctype.obj
 0002:00267ca0       _iswxdigit                 203b8ca0 f i LIBCMTD:_wctype.obj
 0002:00267cc0       __iswspace_l               203b8cc0 f i LIBCMTD:_wctype.obj
 0002:00267ce0       _iswspace                  203b8ce0 f i LIBCMTD:_wctype.obj
 0002:00267d00       __iswpunct_l               203b8d00 f i LIBCMTD:_wctype.obj
 0002:00267d20       _iswpunct                  203b8d20 f i LIBCMTD:_wctype.obj
 0002:00267d40       __iswalnum_l               203b8d40 f i LIBCMTD:_wctype.obj
 0002:00267d60       _iswalnum                  203b8d60 f i LIBCMTD:_wctype.obj
 0002:00267d80       __iswprint_l               203b8d80 f i LIBCMTD:_wctype.obj
 0002:00267da0       _iswprint                  203b8da0 f i LIBCMTD:_wctype.obj
 0002:00267dc0       __iswgraph_l               203b8dc0 f i LIBCMTD:_wctype.obj
 0002:00267de0       _iswgraph                  203b8de0 f i LIBCMTD:_wctype.obj
 0002:00267e00       __iswcntrl_l               203b8e00 f i LIBCMTD:_wctype.obj
 0002:00267e20       _iswcntrl                  203b8e20 f i LIBCMTD:_wctype.obj
 0002:00267e40       _iswascii                  203b8e40 f i LIBCMTD:_wctype.obj
 0002:00267e60       __iswcsym_l                203b8e60 f i LIBCMTD:_wctype.obj
 0002:00267eb0       ___iswcsym                 203b8eb0 f i LIBCMTD:_wctype.obj
 0002:00267f00       __iswcsymf_l               203b8f00 f i LIBCMTD:_wctype.obj
 0002:00267f50       ___iswcsymf                203b8f50 f i LIBCMTD:_wctype.obj
 0002:00267fa0       ____setlc_active_func      203b8fa0 f   LIBCMTD:setlocal.obj
 0002:00267fb0       ____unguarded_readlc_active_add_func 203b8fb0 f   LIBCMTD:setlocal.obj
 0002:00267fc0       __configthreadlocale       203b8fc0 f   LIBCMTD:setlocal.obj
 0002:00268110       __locterm                  203b9110 f   LIBCMTD:setlocal.obj
 0002:002681d0       __free_locale              203b91d0 f   LIBCMTD:setlocal.obj
 0002:00268360       ___free_locale             203b9360 f   LIBCMTD:setlocal.obj
 0002:00268380       __create_locale            203b9380 f   LIBCMTD:setlocal.obj
 0002:00268640       ___create_locale           203b9640 f   LIBCMTD:setlocal.obj
 0002:00268660       __get_current_locale       203b9660 f   LIBCMTD:setlocal.obj
 0002:002687c0       ___get_current_locale      203b97c0 f   LIBCMTD:setlocal.obj
 0002:002687d0       _setlocale                 203b97d0 f   LIBCMTD:setlocal.obj
 0002:00269a30       __expandlocale             203baa30 f   LIBCMTD:setlocal.obj
 0002:00269d80       ___init_dummy              203bad80 f   LIBCMTD:setlocal.obj
 0002:00269d90       __strcats                  203bad90 f   LIBCMTD:setlocal.obj
 0002:00269e30       ___lc_strtolc              203bae30 f   LIBCMTD:setlocal.obj
 0002:0026a0b0       ___lc_lctostr              203bb0b0 f   LIBCMTD:setlocal.obj
 0002:0026a170       __flsbuf                   203bb170 f   LIBCMTD:_flsbuf.obj
 0002:0026a4e0       __output_l                 203bb4e0 f   LIBCMTD:output.obj
 0002:0026be60       _get_int_arg               203bce60 f i LIBCMTD:output.obj
 0002:0026be90       _get_int64_arg             203bce90 f i LIBCMTD:output.obj
 0002:0026bec0       _get_short_arg             203bcec0 f i LIBCMTD:output.obj
 0002:0026bef0       __validate_param_reuseA    203bcef0 f   LIBCMTD:outputp.obj
 0002:0026c200       __output_p_l               203bd200 f   LIBCMTD:outputp.obj
 0002:00270cf0       _get_crtdouble_arg         203c1cf0 f i LIBCMTD:outputp.obj
 0002:00270d20       __CIacos_pentium4          203c1d20 f   LIBCMTD:_acos_pentium4_.obj
 0002:00270d38       __acos_pentium4            203c1d38     LIBCMTD:_acos_pentium4_.obj
 0002:002713d0       __vsnprintf_helper         203c23d0 f   LIBCMTD:vsnprnc.obj
 0002:00271630       __vsnprintf_c              203c2630 f   LIBCMTD:vsnprnc.obj
 0002:00271690       __vsnprintf_c_l            203c2690 f   LIBCMTD:vsnprnc.obj
 0002:002716f0       __vsprintf_s_l             203c26f0 f   LIBCMTD:vsnprnc.obj
 0002:002719f0       _vsprintf_s                203c29f0 f   LIBCMTD:vsnprnc.obj
 0002:00271a20       __vsnprintf_s_l            203c2a20 f   LIBCMTD:vsnprnc.obj
 0002:00271ea0       __vsnprintf_s              203c2ea0 f   LIBCMTD:vsnprnc.obj
 0002:00271ed0       __vsprintf_p               203c2ed0 f   LIBCMTD:vsnprnc.obj
 0002:00271f30       __vsprintf_p_l             203c2f30 f   LIBCMTD:vsnprnc.obj
 0002:00271f90       ?_RTC_GetSrcLine@@YAHPAEPA_WKPAH1K@Z 203c2f90 f   LIBCMTD:_pdblkup_.obj
 0002:00272570       __except_handler4          203c3570 f   LIBCMTD:chandler4.obj
 0002:00272820       __CItan_pentium4           203c3820 f   LIBCMTD:_tan_pentium4_.obj
 0002:00272838       __tan_pentium4             203c3838     LIBCMTD:_tan_pentium4_.obj
 0002:00272b20       __malloc_dbg               203c3b20 f   LIBCMTD:dbgheap.obj
 0002:00272b60       __nh_malloc                203c3b60 f   LIBCMTD:dbgheap.obj
 0002:00272b90       __nh_malloc_dbg            203c3b90 f   LIBCMTD:dbgheap.obj
 0002:00272c90       __heap_alloc               203c3c90 f   LIBCMTD:dbgheap.obj
 0002:00273160       __heap_alloc_dbg           203c4160 f   LIBCMTD:dbgheap.obj
 0002:002731d0       __calloc_dbg_impl          203c41d0 f   LIBCMTD:dbgheap.obj
 0002:00273270       __calloc_dbg               203c4270 f   LIBCMTD:dbgheap.obj
 0002:002732e0       __recalloc                 203c42e0 f   LIBCMTD:dbgheap.obj
 0002:00273320       __realloc_dbg              203c4320 f   LIBCMTD:dbgheap.obj
 0002:00273b60       __recalloc_dbg             203c4b60 f   LIBCMTD:dbgheap.obj
 0002:00273c40       __expand                   203c4c40 f   LIBCMTD:dbgheap.obj
 0002:00273c70       __expand_dbg               203c4c70 f   LIBCMTD:dbgheap.obj
 0002:00273dc0       __free_nolock              203c4dc0 f   LIBCMTD:dbgheap.obj
 0002:00273de0       __free_dbg                 203c4de0 f   LIBCMTD:dbgheap.obj
 0002:00273e80       __free_dbg_nolock          203c4e80 f   LIBCMTD:dbgheap.obj
 0002:002744a0       __msize                    203c54a0 f   LIBCMTD:dbgheap.obj
 0002:002744c0       __msize_dbg                203c54c0 f   LIBCMTD:dbgheap.obj
 0002:00274720       __CrtSetBreakAlloc         203c5720 f   LIBCMTD:dbgheap.obj
 0002:00274750       __CrtSetDbgBlockType       203c5750 f   LIBCMTD:dbgheap.obj
 0002:00274870       __CrtSetAllocHook          203c5870 f   LIBCMTD:dbgheap.obj
 0002:002748a0       __CrtGetAllocHook          203c58a0 f   LIBCMTD:dbgheap.obj
 0002:00274900       __CrtCheckMemory           203c5900 f   LIBCMTD:dbgheap.obj
 0002:00274e70       __CrtSetDbgFlag            203c5e70 f   LIBCMTD:dbgheap.obj
 0002:00275010       __CrtDoForAllClientObjects 203c6010 f   LIBCMTD:dbgheap.obj
 0002:00275180       __CrtIsValidPointer        203c6180 f   LIBCMTD:dbgheap.obj
 0002:002751a0       __CrtIsValidHeapPointer    203c61a0 f   LIBCMTD:dbgheap.obj
 0002:00275200       __CrtIsMemoryBlock         203c6200 f   LIBCMTD:dbgheap.obj
 0002:002753d0       __CrtReportBlockType       203c63d0 f   LIBCMTD:dbgheap.obj
 0002:00275410       __CrtSetDumpClient         203c6410 f   LIBCMTD:dbgheap.obj
 0002:00275440       __CrtGetDumpClient         203c6440 f   LIBCMTD:dbgheap.obj
 0002:00275450       __CrtMemCheckpoint         203c6450 f   LIBCMTD:dbgheap.obj
 0002:002756f0       __CrtMemDifference         203c66f0 f   LIBCMTD:dbgheap.obj
 0002:00275990       __CrtMemDumpAllObjectsSince 203c6990 f   LIBCMTD:dbgheap.obj
 0002:00275fc0       __CrtDumpMemoryLeaks       203c6fc0 f   LIBCMTD:dbgheap.obj
 0002:00276060       __CrtMemDumpStatistics     203c7060 f   LIBCMTD:dbgheap.obj
 0002:002761b0       __aligned_malloc           203c71b0 f   LIBCMTD:dbgheap.obj
 0002:002761e0       __aligned_malloc_dbg       203c71e0 f   LIBCMTD:dbgheap.obj
 0002:00276210       __aligned_realloc          203c7210 f   LIBCMTD:dbgheap.obj
 0002:00276240       __aligned_recalloc         203c7240 f   LIBCMTD:dbgheap.obj
 0002:00276270       __aligned_realloc_dbg      203c7270 f   LIBCMTD:dbgheap.obj
 0002:002762a0       __aligned_recalloc_dbg     203c72a0 f   LIBCMTD:dbgheap.obj
 0002:002762e0       __aligned_offset_malloc    203c72e0 f   LIBCMTD:dbgheap.obj
 0002:00276310       __aligned_offset_malloc_dbg 203c7310 f   LIBCMTD:dbgheap.obj
 0002:00276540       __aligned_offset_realloc   203c7540 f   LIBCMTD:dbgheap.obj
 0002:00276570       __aligned_offset_recalloc  203c7570 f   LIBCMTD:dbgheap.obj
 0002:002765a0       __aligned_offset_realloc_dbg 203c75a0 f   LIBCMTD:dbgheap.obj
 0002:00276950       __aligned_offset_recalloc_dbg 203c7950 f   LIBCMTD:dbgheap.obj
 0002:00276a40       __aligned_free             203c7a40 f   LIBCMTD:dbgheap.obj
 0002:00276a60       __aligned_free_dbg         203c7a60 f   LIBCMTD:dbgheap.obj
 0002:00276b40       __CrtSetDebugFillThreshold 203c7b40 f   LIBCMTD:dbgheap.obj
 0002:00276b70       __CrtSetCheckCount         203c7b70 f   LIBCMTD:dbgheap.obj
 0002:00276b90       __CrtGetCheckCount         203c7b90 f   LIBCMTD:dbgheap.obj
 0002:00276ba0       __aligned_msize            203c7ba0 f   LIBCMTD:dbgheap.obj
 0002:00276bd0       __aligned_msize_dbg        203c7bd0 f   LIBCMTD:dbgheap.obj
 0002:00276d20       __ioinit                   203c7d20 f   LIBCMTD:ioinit.obj
 0002:00277240       __ioterm                   203c8240 f   LIBCMTD:ioinit.obj
 0002:00277310       __setenvp                  203c8310 f   LIBCMTD:stdenvp.obj
 0002:00277520       __setargv                  203c8520 f   LIBCMTD:stdargv.obj
 0002:00277680       __set_pgmptr               203c8680 f i LIBCMTD:stdargv.obj
 0002:00277ae0       ___crtGetEnvironmentStringsA 203c8ae0 f   LIBCMTD:a_env.obj
 0002:00277c20       __RTC_Initialize           203c8c20 f   LIBCMTD:_initsect_.obj
 0002:00277c50       __RTC_Terminate            203c8c50 f   LIBCMTD:_initsect_.obj
 0002:00277c80       __heap_init                203c8c80 f   LIBCMTD:heapinit.obj
 0002:00277cd0       __heap_term                203c8cd0 f   LIBCMTD:heapinit.obj
 0002:00277d00       __get_heap_handle          203c8d00 f   LIBCMTD:heapinit.obj
 0002:00277d40       ___security_init_cookie    203c8d40 f   LIBCMTD:gs_support.obj
 0002:00277e60       ___CppXcptFilter           203c8e60 f   LIBCMTD:winxfltr.obj
 0002:00277e90       __XcptFilter               203c8e90 f   LIBCMTD:winxfltr.obj
 0002:00278180       _DllMain@12                203c9180 f   LIBCMTD:dllmain.obj
 0002:002781a0       __controlfp_s              203c91a0 f   LIBCMTD:_contrlfp_.obj
 0002:002782c0       __isalpha_l                203c92c0 f i LIBCMTD:_ctype.obj
 0002:00278370       _isalpha                   203c9370 f i LIBCMTD:_ctype.obj
 0002:002783b0       __isupper_l                203c93b0 f i LIBCMTD:_ctype.obj
 0002:00278450       _isupper                   203c9450 f i LIBCMTD:_ctype.obj
 0002:00278490       __islower_l                203c9490 f i LIBCMTD:_ctype.obj
 0002:00278530       _islower                   203c9530 f i LIBCMTD:_ctype.obj
 0002:00278570       __isdigit_l                203c9570 f i LIBCMTD:_ctype.obj
 0002:00278610       _isdigit                   203c9610 f i LIBCMTD:_ctype.obj
 0002:00278650       __isxdigit_l               203c9650 f i LIBCMTD:_ctype.obj
 0002:00278700       _isxdigit                  203c9700 f i LIBCMTD:_ctype.obj
 0002:00278740       __isspace_l                203c9740 f i LIBCMTD:_ctype.obj
 0002:002787e0       _isspace                   203c97e0 f i LIBCMTD:_ctype.obj
 0002:00278820       __ispunct_l                203c9820 f i LIBCMTD:_ctype.obj
 0002:002788c0       _ispunct                   203c98c0 f i LIBCMTD:_ctype.obj
 0002:00278900       __isalnum_l                203c9900 f i LIBCMTD:_ctype.obj
 0002:002789b0       _isalnum                   203c99b0 f i LIBCMTD:_ctype.obj
 0002:002789f0       __isprint_l                203c99f0 f i LIBCMTD:_ctype.obj
 0002:00278aa0       _isprint                   203c9aa0 f i LIBCMTD:_ctype.obj
 0002:00278ae0       __isgraph_l                203c9ae0 f i LIBCMTD:_ctype.obj
 0002:00278b90       _isgraph                   203c9b90 f i LIBCMTD:_ctype.obj
 0002:00278bd0       __iscntrl_l                203c9bd0 f i LIBCMTD:_ctype.obj
 0002:00278c70       _iscntrl                   203c9c70 f i LIBCMTD:_ctype.obj
 0002:00278cb0       ___isascii                 203c9cb0 f i LIBCMTD:_ctype.obj
 0002:00278cd0       ___toascii                 203c9cd0 f i LIBCMTD:_ctype.obj
 0002:00278ce0       __iscsymf_l                203c9ce0 f i LIBCMTD:_ctype.obj
 0002:00278d30       ___iscsymf                 203c9d30 f i LIBCMTD:_ctype.obj
 0002:00278d70       __iscsym_l                 203c9d70 f i LIBCMTD:_ctype.obj
 0002:00278dc0       ___iscsym                  203c9dc0 f i LIBCMTD:_ctype.obj
 0002:00278e10       __atodbl_l                 203c9e10 f   LIBCMTD:atodbl.obj
 0002:00278f60       __atodbl                   203c9f60 f   LIBCMTD:atodbl.obj
 0002:00278f80       __atoldbl_l                203c9f80 f   LIBCMTD:atodbl.obj
 0002:002790d0       __atoldbl                  203ca0d0 f   LIBCMTD:atodbl.obj
 0002:002790f0       __atoflt_l                 203ca0f0 f   LIBCMTD:atodbl.obj
 0002:00279240       __atoflt                   203ca240 f   LIBCMTD:atodbl.obj
 0002:00279260       __fptostr                  203ca260 f   LIBCMTD:_fptostr.obj
 0002:002795b0       __fltout2                  203ca5b0 f   LIBCMTD:_cfout_.obj
 0002:00279690       ___dtold                   203ca690 f   LIBCMTD:_cfout_.obj
 0002:00279840       __set_output_format        203ca840 f   LIBCMTD:outputformat.obj
 0002:002798e0       __get_output_format        203ca8e0 f   LIBCMTD:outputformat.obj
 0002:002798f0       _strcpy_s                  203ca8f0 f   LIBCMTD:strcpy_s.obj
 0002:00279c80       __allrem                   203cac80 f   LIBCMTD:llrem.obj
 0002:00279d60       __alldiv                   203cad60 f   LIBCMTD:lldiv.obj
 0002:00279e40       __allshl                   203cae40 f   LIBCMTD:llshl.obj
 0002:00279e70       __aullshr                  203cae70 f   LIBCMTD:ullshr.obj
 0002:00279ea0       __fptrap                   203caea0 f   LIBCMTD:crt0fp.obj
 0002:00279ec0       __CrtDefaultAllocHook      203caec0 f   LIBCMTD:dbghook.obj
 0002:00279ed0       __crt_debugger_hook        203caed0 f   LIBCMTD:dbghook.obj
 0002:00279ef0       __CrtSetReportHook2        203caef0 f   LIBCMTD:dbgrpt.obj
 0002:0027a2e0       __CrtDbgReport             203cb2e0 f   LIBCMTD:dbgrpt.obj
 0002:0027a330       __CrtDbgReportV            203cb330 f i LIBCMTD:dbgrpt.obj
 0002:0027a360       ___crtMessageWindowA       203cb360 f   LIBCMTD:dbgrpt.obj
 0002:0027a860       __ld12tod                  203cb860 f   LIBCMTD:_intrncvt_.obj
 0002:0027a890       __ld12cvt                  203cb890 f i LIBCMTD:_intrncvt_.obj
 0002:0027ab90       __RoundMan                 203cbb90 f i LIBCMTD:_intrncvt_.obj
 0002:0027aca0       __ZeroTail                 203cbca0 f i LIBCMTD:_intrncvt_.obj
 0002:0027ad50       __IncMan                   203cbd50 f i LIBCMTD:_intrncvt_.obj
 0002:0027ae30       __CopyMan                  203cbe30 f i LIBCMTD:_intrncvt_.obj
 0002:0027aea0       __FillZeroMan              203cbea0 f i LIBCMTD:_intrncvt_.obj
 0002:0027aee0       __IsZeroMan                203cbee0 f i LIBCMTD:_intrncvt_.obj
 0002:0027af30       __ShrMan                   203cbf30 f i LIBCMTD:_intrncvt_.obj
 0002:0027b060       __ld12tof                  203cc060 f   LIBCMTD:_intrncvt_.obj
 0002:0027b090       __ld12told                 203cc090 f   LIBCMTD:_intrncvt_.obj
 0002:0027b190       ___crtGetStringTypeA       203cc190 f   LIBCMTD:a_str.obj
 0002:0027b350       __mtinitlocks              203cc350 f   LIBCMTD:mlock.obj
 0002:0027b400       __mtdeletelocks            203cc400 f   LIBCMTD:mlock.obj
 0002:0027b4f0       __mtinitlocknum            203cc4f0 f   LIBCMTD:mlock.obj
 0002:0027b690       __lock                     203cc690 f   LIBCMTD:mlock.obj
 0002:0027b6e0       __unlock                   203cc6e0 f   LIBCMTD:mlock.obj
 0002:0027b700       __lockerr_exit             203cc700 f   LIBCMTD:mlock.obj
 0002:0027b730       __CrtDbgBreak              203cc730 f   LIBCMTD:dbgrptt.obj
 0002:0027b740       __CrtSetReportMode         203cc740 f   LIBCMTD:dbgrptt.obj
 0002:0027b8d0       __CrtSetReportFile         203cc8d0 f   LIBCMTD:dbgrptt.obj
 0002:0027ba00       __CrtSetReportHook         203cca00 f   LIBCMTD:dbgrptt.obj
 0002:0027ba30       __CrtGetReportHook         203cca30 f   LIBCMTD:dbgrptt.obj
 0002:0027ba40       __VCrtDbgReportA           203cca40 f   LIBCMTD:dbgrptt.obj
 0002:0027c470       __VCrtDbgReportW           203cd470 f   LIBCMTD:dbgrptt.obj
 0002:0027cff0       __swprintf                 203cdff0 f   LIBCMTD:swprintf.obj
 0002:0027d270       ___swprintf_l              203ce270 f   LIBCMTD:swprintf.obj
 0002:0027d2b0       _swprintf_s                203ce2b0 f   LIBCMTD:swprintf.obj
 0002:0027d2f0       __snwprintf_s              203ce2f0 f   LIBCMTD:swprintf.obj
 0002:0027d330       __swprintf_p               203ce330 f   LIBCMTD:swprintf.obj
 0002:0027d370       __swprintf_s_l             203ce370 f   LIBCMTD:swprintf.obj
 0002:0027d3b0       __snwprintf_s_l            203ce3b0 f   LIBCMTD:swprintf.obj
 0002:0027d3f0       __swprintf_p_l             203ce3f0 f   LIBCMTD:swprintf.obj
 0002:0027d430       __scwprintf                203ce430 f   LIBCMTD:swprintf.obj
 0002:0027d460       __scwprintf_p              203ce460 f   LIBCMTD:swprintf.obj
 0002:0027d490       __scwprintf_l              203ce490 f   LIBCMTD:swprintf.obj
 0002:0027d4c0       __scwprintf_p_l            203ce4c0 f   LIBCMTD:swprintf.obj
 0002:0027d4f0       _memcpy_s                  203ce4f0 f   LIBCMTD:memcpy_s.obj
 0002:0027d6e0       ?_JumpToContinuation@@YGXPAXPAUEHRegistrationNode@@@Z 203ce6e0 f   LIBCMTD:_trnsctrl_.obj
 0002:0027d730       ?_CallMemberFunction0@@YGXPAX0@Z 203ce730 f   LIBCMTD:_trnsctrl_.obj
 0002:0027d740       ?_CallMemberFunction1@@YGXPAX00@Z 203ce740 f   LIBCMTD:_trnsctrl_.obj
 0002:0027d750       ?_CallMemberFunction2@@YGXPAX00H@Z 203ce750 f   LIBCMTD:_trnsctrl_.obj
 0002:0027d760       ?_UnwindNestedFrames@@YGXPAUEHRegistrationNode@@PAUEHExceptionRecord@@@Z 203ce760 f   LIBCMTD:_trnsctrl_.obj
 0002:0027d7d0       ___CxxFrameHandler         203ce7d0 f   LIBCMTD:_trnsctrl_.obj
 0002:0027d820       ___CxxFrameHandler3        203ce820 f   LIBCMTD:_trnsctrl_.obj
 0002:0027d870       ___CxxFrameHandler2        203ce870 f   LIBCMTD:_trnsctrl_.obj
 0002:0027d8c0       ___CxxLongjmpUnwind@4      203ce8c0 f   LIBCMTD:_trnsctrl_.obj
 0002:0027d900       ?_CallCatchBlock2@@YAPAXPAUEHRegistrationNode@@PBU_s_FuncInfo@@PAXHK@Z 203ce900 f   LIBCMTD:_trnsctrl_.obj
 0002:0027d9f0       ?_CallSETranslator@@YAHPAUEHExceptionRecord@@PAUEHRegistrationNode@@PAX2PBU_s_FuncInfo@@H1@Z 203ce9f0 f   LIBCMTD:_trnsctrl_.obj
 0002:0027dc00       ?_GetRangeOfTrysToCheck@@YAPBU_s_TryBlockMapEntry@@PBU_s_FuncInfo@@HHPAI1@Z 203cec00 f   LIBCMTD:_trnsctrl_.obj
 0002:0027dca0       __CreateFrameInfo          203ceca0 f   LIBCMTD:_trnsctrl_.obj
 0002:0027dce0       __IsExceptionObjectToBeDestroyed 203cece0 f   LIBCMTD:_trnsctrl_.obj
 0002:0027dd20       __FindAndUnlinkFrame       203ced20 f   LIBCMTD:_trnsctrl_.obj
 0002:0027dd90       ___init_time               203ced90 f   LIBCMTD:inittime.obj
 0002:0027ee00       ___free_lc_time            203cfe00 f   LIBCMTD:inittime.obj
 0002:0027f610       ___init_numeric            203d0610 f   LIBCMTD:initnum.obj
 0002:0027fab0       ___free_lconv_num          203d0ab0 f   LIBCMTD:initnum.obj
 0002:0027fb90       ___init_monetary           203d0b90 f   LIBCMTD:initmon.obj
 0002:002802f0       ___free_lconv_mon          203d12f0 f   LIBCMTD:initmon.obj
 0002:00280500       _localeconv                203d1500 f   LIBCMTD:lconv.obj
 0002:00280560       ___pwctype_func            203d1560 f   LIBCMTD:ctype.obj
 0002:00280570       ___pctype_func             203d1570 f   LIBCMTD:ctype.obj
 0002:002805d0       ___mtold12                 203d15d0 f   LIBCMTD:_mantold_.obj
 0002:00280780       ___add_12                  203d1780 f i LIBCMTD:_mantold_.obj
 0002:00280860       __allmul                   203d1860 f   LIBCMTD:llmul.obj
 0002:002808b0       __aullrem                  203d18b0 f   LIBCMTD:ullrem.obj
 0002:00280950       __aulldiv                  203d1950 f   LIBCMTD:ulldiv.obj
 0002:002809e0       __mbtowc_l                 203d19e0 f   LIBCMTD:mbtowc.obj
 0002:00280c80       _mbtowc                    203d1c80 f   LIBCMTD:mbtowc.obj
 0002:00280cb0       __fileno                   203d1cb0 f   LIBCMTD:fileno.obj
 0002:00280d40       __filbuf                   203d1d40 f   LIBCMTD:_filbuf.obj
 0002:00281020       _ungetc                    203d2020 f   LIBCMTD:ungetc.obj
 0002:00281150       __ungetc_nolock            203d2150 f   LIBCMTD:ungetc.obj
 0002:00281400       __87except                 203d2400 f   LIBCMTD:_87except_.obj
 0002:00281620       __matherr                  203d2620 f   LIBCMTD:_matherr_.obj
 0002:00281630       __onexit                   203d2630 f   LIBCMTD:onexit.obj
 0002:00281870       _atexit                    203d2870 f   LIBCMTD:onexit.obj
 0002:002818a0       ___onexitinit              203d28a0 f   LIBCMTD:onexit.obj
 0002:00281910       __ValidateImageBase        203d2910 f   LIBCMTD:pesect.obj
 0002:00281990       __FindPESection            203d2990 f   LIBCMTD:pesect.obj
 0002:00281a30       __IsNonwritableInCurrentImage 203d2a30 f   LIBCMTD:pesect.obj
 0002:00281b90       __FF_MSGBANNER             203d2b90 f   LIBCMTD:crt0msg.obj
 0002:00281bf0       __GET_RTERRMSG             203d2bf0 f   LIBCMTD:crt0msg.obj
 0002:00281c50       __NMSG_WRITE               203d2c50 f   LIBCMTD:crt0msg.obj
 0002:00282050       __initp_eh_hooks           203d3050 f   LIBCMTD:hooks.obj
 0002:00282070       ?terminate@@YAXXZ          203d3070 f   LIBCMTD:hooks.obj
 0002:00282110       ?unexpected@@YAXXZ         203d3110 f   LIBCMTD:hooks.obj
 0002:00282140       ?_inconsistency@@YAXXZ     203d3140 f   LIBCMTD:hooks.obj
 0002:002821f0       __initp_misc_rand_s        203d31f0 f   LIBCMTD:rand_s.obj
 0002:00282210       _rand_s                    203d3210 f   LIBCMTD:rand_s.obj
 0002:002824b0       ___getlocaleinfo           203d34b0 f   LIBCMTD:inithelp.obj
 0002:00282840       __initp_misc_purevirt      203d3840 f   LIBCMTD:inithelp.obj
 0002:00282860       __initp_heap_handler       203d3860 f   LIBCMTD:handler.obj
 0002:00282880       ?_set_new_handler@@YAP6AHI@ZP6AHI@Z@Z 203d3880 f   LIBCMTD:handler.obj
 0002:002828d0       ?_set_new_handler@@YAP6AHI@ZH@Z 203d38d0 f   LIBCMTD:handler.obj
 0002:00282920       ?_query_new_handler@@YAP6AHI@ZXZ 203d3920 f   LIBCMTD:handler.obj
 0002:00282940       __callnewh                 203d3940 f   LIBCMTD:handler.obj
 0002:00282990       __commit                   203d3990 f   LIBCMTD:commit.obj
 0002:00282c30       __write                    203d3c30 f   LIBCMTD:write.obj
 0002:00282ee0       __write_nolock             203d3ee0 f   LIBCMTD:write.obj
 0002:00283cf0       __stbuf                    203d4cf0 f   LIBCMTD:_sftbuf.obj
 0002:00283ea0       __ftbuf                    203d4ea0 f   LIBCMTD:_sftbuf.obj
 0002:00283f50       __woutput_l                203d4f50 f   LIBCMTD:woutput.obj
 0002:002855d0       _vfwprintf_helper          203d65d0 f   LIBCMTD:vfwprint.obj
 0002:002857b0       __vfwprintf_l              203d67b0 f   LIBCMTD:vfwprint.obj
 0002:002857e0       __vfwprintf_s_l            203d67e0 f   LIBCMTD:vfwprint.obj
 0002:00285810       __vfwprintf_p_l            203d6810 f   LIBCMTD:vfwprint.obj
 0002:00285840       _vfwprintf                 203d6840 f   LIBCMTD:vfwprint.obj
 0002:00285870       _vfwprintf_s               203d6870 f   LIBCMTD:vfwprint.obj
 0002:002858a0       __vfwprintf_p              203d68a0 f   LIBCMTD:vfwprint.obj
 0002:002858d0       __freebuf                  203d68d0 f   LIBCMTD:_freebuf.obj
 0002:00285980       __fcloseall                203d6980 f   LIBCMTD:closeall.obj
 0002:00285b00       __woutput_s_l              203d6b00 f   LIBCMTD:woutputs.obj
 0002:00287330       __validate_param_reuseW    203d8330 f   LIBCMTD:woutputp.obj
 0002:00287640       __woutput_p_l              203d8640 f   LIBCMTD:woutputp.obj
 0002:0028bbb0       __frnd                     203dcbb0 f   LIBCMTD:_frnd_.obj
 0002:0028bbd0       _malloc                    203dcbd0 f   LIBCMTD:dbgmalloc.obj
 0002:0028bc10       _free                      203dcc10 f   LIBCMTD:dbgfree.obj
 0002:0028bc30       __iswctype_l               203dcc30 f   LIBCMTD:iswctype.obj
 0002:0028bc50       _iswctype                  203dcc50 f   LIBCMTD:iswctype.obj
 0002:0028bcd0       _is_wctype                 203dccd0 f   LIBCMTD:iswctype.obj
 0002:0028bcf0       ___init_ctype              203dccf0 f   LIBCMTD:initctyp.obj
 0002:0028c410       ____mb_cur_max_func        203dd410 f   LIBCMTD:initctyp.obj
 0002:0028c470       ____mb_cur_max_l_func      203dd470 f   LIBCMTD:initctyp.obj
 0002:0028c4b0       ____lc_codepage_func       203dd4b0 f   LIBCMTD:initctyp.obj
 0002:0028c510       ____lc_collate_cp_func     203dd510 f   LIBCMTD:initctyp.obj
 0002:0028c570       ____lc_handle_func         203dd570 f   LIBCMTD:initctyp.obj
 0002:0028c5d0       ___init_collate            203dd5d0 f   LIBCMTD:initcoll.obj
 0002:0028c5e0       _strncpy_s                 203dd5e0 f   LIBCMTD:strncpy_s.obj
 0002:0028cad0       _strcspn                   203ddad0 f   LIBCMTD:strcspn.obj
 0002:0028cb30       _strpbrk                   203ddb30 f   LIBCMTD:strpbrk.obj
 0002:0028cb80       _memcmp                    203ddb80 f   LIBCMTD:memcmp.obj
 0002:0028d8a0       _strcat_s                  203de8a0 f   LIBCMTD:strcat_s.obj
 0002:0028dd70       ___get_qualified_locale    203ded70 f   LIBCMTD:getqloc.obj
 0002:0028ef40       __lseeki64                 203dff40 f   LIBCMTD:lseeki64.obj
 0002:0028f220       __lseeki64_nolock          203e0220 f   LIBCMTD:lseeki64.obj
 0002:0028f350       __getbuf                   203e0350 f   LIBCMTD:_getbuf.obj
 0002:0028f450       __isatty                   203e0450 f   LIBCMTD:isatty.obj
 0002:0028f540       _printf                    203e0540 f   LIBCMTD:printf.obj
 0002:0028f6d0       __printf_l                 203e06d0 f   LIBCMTD:printf.obj
 0002:0028f700       __printf_s_l               203e0700 f   LIBCMTD:printf.obj
 0002:0028f730       _printf_s                  203e0730 f   LIBCMTD:printf.obj
 0002:0028f760       __printf_p_l               203e0760 f   LIBCMTD:printf.obj
 0002:0028f790       __printf_p                 203e0790 f   LIBCMTD:printf.obj
 0002:0028f7c0       __set_printf_count_output  203e07c0 f   LIBCMTD:printf.obj
 0002:0028f820       __get_printf_count_output  203e0820 f   LIBCMTD:printf.obj
 0002:0028f850       __wctomb_s_l               203e0850 f   LIBCMTD:wctomb.obj
 0002:0028fc10       _wctomb_s                  203e0c10 f   LIBCMTD:wctomb.obj
 0002:0028fc40       __wctomb_l                 203e0c40 f   LIBCMTD:wctomb.obj
 0002:0028fce0       _wctomb                    203e0ce0 f   LIBCMTD:wctomb.obj
 0002:0028fd40       __output_s_l               203e0d40 f   LIBCMTD:outputs.obj
 0002:00291870       __local_unwind4            203e2870 f   LIBCMTD:exsup4.obj
 0002:00291946       __seh_longjmp_unwind4@4    203e2946 f   LIBCMTD:exsup4.obj
 0002:00291962       @_EH4_CallFilterFunc@8     203e2962 f   LIBCMTD:exsup4.obj
 0002:00291979       @_EH4_TransferToHandler@8  203e2979 f   LIBCMTD:exsup4.obj
 0002:00291992       @_EH4_GlobalUnwind2@8      203e2992 f   LIBCMTD:exsup4.obj
 0002:002919ab       @_EH4_LocalUnwind@16       203e29ab f   LIBCMTD:exsup4.obj
 0002:00291a20       __malloc_base              203e2a20 f   LIBCMTD:malloc.obj
 0002:00291ad0       __heap_alloc_base          203e2ad0 f i LIBCMTD:malloc.obj
 0002:00291b40       __expand_base              203e2b40 f   LIBCMTD:expand.obj
 0002:00291cf0       __realloc_base             203e2cf0 f   LIBCMTD:realloc.obj
 0002:00291e30       __free_base                203e2e30 f   LIBCMTD:free.obj
 0002:00291ea0       __heapchk                  203e2ea0 f   LIBCMTD:heapchk.obj
 0002:00291ee0       __heapset                  203e2ee0 f   LIBCMTD:heapchk.obj
 0002:00291ef0       __ismbbkalnum_l            203e2ef0 f   LIBCMTD:ismbbyte.obj
 0002:00291f20       __ismbbkalnum              203e2f20 f   LIBCMTD:ismbbyte.obj
 0002:00291f40       __ismbbkprint_l            203e2f40 f   LIBCMTD:ismbbyte.obj
 0002:00291f70       __ismbbkprint              203e2f70 f   LIBCMTD:ismbbyte.obj
 0002:00291f90       __ismbbkpunct_l            203e2f90 f   LIBCMTD:ismbbyte.obj
 0002:00291fc0       __ismbbkpunct              203e2fc0 f   LIBCMTD:ismbbyte.obj
 0002:00291fe0       __ismbbalnum_l             203e2fe0 f   LIBCMTD:ismbbyte.obj
 0002:00292010       __ismbbalnum               203e3010 f   LIBCMTD:ismbbyte.obj
 0002:00292040       __ismbbalpha_l             203e3040 f   LIBCMTD:ismbbyte.obj
 0002:00292070       __ismbbalpha               203e3070 f   LIBCMTD:ismbbyte.obj
 0002:002920a0       __ismbbgraph_l             203e30a0 f   LIBCMTD:ismbbyte.obj
 0002:002920d0       __ismbbgraph               203e30d0 f   LIBCMTD:ismbbyte.obj
 0002:00292100       __ismbbprint_l             203e3100 f   LIBCMTD:ismbbyte.obj
 0002:00292130       __ismbbprint               203e3130 f   LIBCMTD:ismbbyte.obj
 0002:00292160       __ismbbpunct_l             203e3160 f   LIBCMTD:ismbbyte.obj
 0002:00292190       __ismbbpunct               203e3190 f   LIBCMTD:ismbbyte.obj
 0002:002921b0       __ismbblead_l              203e31b0 f   LIBCMTD:ismbbyte.obj
 0002:002921e0       __ismbblead                203e31e0 f   LIBCMTD:ismbbyte.obj
 0002:00292200       __ismbbtrail_l             203e3200 f   LIBCMTD:ismbbyte.obj
 0002:00292230       __ismbbtrail               203e3230 f   LIBCMTD:ismbbyte.obj
 0002:00292250       __ismbbkana_l              203e3250 f   LIBCMTD:ismbbyte.obj
 0002:002922e0       __ismbbkana                203e32e0 f   LIBCMTD:ismbbyte.obj
 0002:00292400       __statusfp2                203e3400 f   LIBCMTD:_ieee87_.obj
 0002:00292450       __statusfp                 203e3450 f   LIBCMTD:_ieee87_.obj
 0002:002924b0       __clearfp                  203e34b0 f   LIBCMTD:_ieee87_.obj
 0002:00292510       ___control87_2             203e3510 f   LIBCMTD:_ieee87_.obj
 0002:002925e0       __controlfp                203e35e0 f   LIBCMTD:_ieee87_.obj
 0002:00292610       __control87                203e3610 f i LIBCMTD:_ieee87_.obj
 0002:002926f0       __set_controlfp            203e36f0 f   LIBCMTD:_ieee87_.obj
 0002:002927a0       __fpreset                  203e37a0 f   LIBCMTD:_ieee87_.obj
 0002:00293140       _$I10_OUTPUT               203e4140 f   LIBCMTD:_x10fout_.obj
 0002:00293850       ___crtMessageBoxA          203e4850 f   LIBCMTD:crtmbox.obj
 0002:00293b00       __mbstowcs_l_helper        203e4b00 f   LIBCMTD:mbstowcs.obj
 0002:00293f30       __mbstowcs_l               203e4f30 f   LIBCMTD:mbstowcs.obj
 0002:00293f60       _mbstowcs                  203e4f60 f   LIBCMTD:mbstowcs.obj
 0002:00293fc0       __mbstowcs_s_l             203e4fc0 f   LIBCMTD:mbstowcs.obj
 0002:00294420       _mbstowcs_s                203e5420 f   LIBCMTD:mbstowcs.obj
 0002:00294450       __itoa_s                   203e5450 f   LIBCMTD:xtoas.obj
 0002:00294900       __ltoa_s                   203e5900 f   LIBCMTD:xtoas.obj
 0002:00294950       __ultoa_s                  203e5950 f   LIBCMTD:xtoas.obj
 0002:00294980       __i64toa_s                 203e5980 f   LIBCMTD:xtoas.obj
 0002:00294e80       __ui64toa_s                203e5e80 f   LIBCMTD:xtoas.obj
 0002:00294eb0       __wcstombs_l_helper        203e5eb0 f   LIBCMTD:wcstombs.obj
 0002:00295550       __wcstombs_l               203e6550 f   LIBCMTD:wcstombs.obj
 0002:00295580       _wcstombs                  203e6580 f   LIBCMTD:wcstombs.obj
 0002:002955b0       __wcstombs_s_l             203e65b0 f   LIBCMTD:wcstombs.obj
 0002:002959a0       _wcstombs_s                203e69a0 f   LIBCMTD:wcstombs.obj
 0002:002959d0       __vswprintf_l              203e69d0 f   LIBCMTD:vswprint.obj
 0002:00295c40       __vswprintf                203e6c40 f   LIBCMTD:vswprint.obj
 0002:00295c70       ___vswprintf_l             203e6c70 f   LIBCMTD:vswprint.obj
 0002:00295ca0       __vscwprintf_helper        203e6ca0 f   LIBCMTD:vswprint.obj
 0002:00295db0       __vscwprintf               203e6db0 f   LIBCMTD:vswprint.obj
 0002:00295de0       __vscwprintf_l             203e6de0 f   LIBCMTD:vswprint.obj
 0002:00295e10       __vscwprintf_p             203e6e10 f   LIBCMTD:vswprint.obj
 0002:00295e40       __vscwprintf_p_l           203e6e40 f   LIBCMTD:vswprint.obj
 0002:00295e70       ___InternalCxxFrameHandler 203e6e70 f   LIBCMTD:frame.obj
 0002:002965e0       ??0bad_exception@std@@QAE@PBD@Z 203e75e0 f i LIBCMTD:frame.obj
 0002:00296610       ??1bad_exception@std@@UAE@XZ 203e7610 f i LIBCMTD:frame.obj
 0002:00296640       ??_Ebad_exception@std@@UAEPAXI@Z 203e7640 f i LIBCMTD:frame.obj
 0002:00296640       ??_Gbad_exception@std@@UAEPAXI@Z 203e7640 f i LIBCMTD:frame.obj
 0002:00296680       ??0bad_exception@std@@QAE@ABV01@@Z 203e7680 f i LIBCMTD:frame.obj
 0002:002968a0       ___TypeMatch               203e78a0 f   LIBCMTD:frame.obj
 0002:00296980       ___FrameUnwindFilter       203e7980 f   LIBCMTD:frame.obj
 0002:00296a20       ___FrameUnwindToState      203e7a20 f   LIBCMTD:frame.obj
 0002:002970b0       ___BuildCatchObjectHelper  203e80b0 f   LIBCMTD:frame.obj
 0002:002973c0       ___BuildCatchObject        203e83c0 f   LIBCMTD:frame.obj
 0002:00297510       ___DestructExceptionObject 203e8510 f   LIBCMTD:frame.obj
 0002:002975f0       ___AdjustPointer           203e85f0 f   LIBCMTD:frame.obj
 0002:00297650       ?__uncaught_exception@@YA_NXZ 203e8650 f   LIBCMTD:frame.obj
 0002:00297670       ___CxxExceptionFilter      203e8670 f   LIBCMTD:frame.obj
 0002:002978e0       ___CxxRegisterExceptionObject 203e88e0 f   LIBCMTD:frame.obj
 0002:00297a60       ___CxxDetectRethrow        203e8a60 f   LIBCMTD:frame.obj
 0002:00297b10       ___CxxUnregisterExceptionObject 203e8b10 f   LIBCMTD:frame.obj
 0002:00297cf0       ___CxxQueryExceptionSize   203e8cf0 f   LIBCMTD:frame.obj
 0002:00297d00       ___CxxCallUnwindDtor       203e8d00 f   LIBCMTD:frame.obj
 0002:00297da0       ___CxxCallUnwindDelDtor    203e8da0 f   LIBCMTD:frame.obj
 0002:00297e40       ___CxxCallUnwindStdDelDtor 203e8e40 f   LIBCMTD:frame.obj
 0002:00297ee0       ___CxxCallUnwindVecDtor    203e8ee0 f   LIBCMTD:frame.obj
 0002:002981b0       ?_is_exception_typeof@@YAHABVtype_info@@PAU_EXCEPTION_POINTERS@@@Z 203e91b0 f   LIBCMTD:frame.obj
 0002:002982c0       __CallSettingFrame@12      203e92c0 f   LIBCMTD:lowhelpr.obj
 0002:002982e7       __NLG_Return               203e92e7     LIBCMTD:lowhelpr.obj
 0002:00298320       __read                     203e9320 f   LIBCMTD:read.obj
 0002:00298660       __read_nolock              203e9660 f   LIBCMTD:read.obj
 0002:00299980       ___crtGetLocaleInfoA       203ea980 f   LIBCMTD:a_loc.obj
 0002:00299b30       __alloc_osfhnd             203eab30 f   LIBCMTD:osfinfo.obj
 0002:00299e90       __set_osfhnd               203eae90 f   LIBCMTD:osfinfo.obj
 0002:00299f90       __free_osfhnd              203eaf90 f   LIBCMTD:osfinfo.obj
 0002:0029a0b0       __get_osfhandle            203eb0b0 f   LIBCMTD:osfinfo.obj
 0002:0029a270       __open_osfhandle           203eb270 f   LIBCMTD:osfinfo.obj
 0002:0029a530       ___lock_fhandle            203eb530 f   LIBCMTD:osfinfo.obj
 0002:0029a670       __unlock_fhandle           203eb670 f   LIBCMTD:osfinfo.obj
 0002:0029a6b0       __putwch                   203eb6b0 f   LIBCMTD:putwch.obj
 0002:0029a760       __putwch_nolock            203eb760 f   LIBCMTD:putwch.obj
 0002:0029a7d0       _fputwc                    203eb7d0 f   LIBCMTD:fputwc.obj
 0002:0029a910       __fputwc_nolock            203eb910 f   LIBCMTD:fputwc.obj
 0002:0029acc0       _putwc                     203ebcc0 f   LIBCMTD:fputwc.obj
 0002:0029ace0       _fclose                    203ebce0 f   LIBCMTD:fclose.obj
 0002:0029ae30       __fclose_nolock            203ebe30 f   LIBCMTD:fclose.obj
 0002:0029af70       _wcstol                    203ebf70 f   LIBCMTD:wcstol.obj
 0002:0029b430       __wcstol_l                 203ec430 f   LIBCMTD:wcstol.obj
 0002:0029b460       _wcstoul                   203ec460 f   LIBCMTD:wcstol.obj
 0002:0029b490       __wcstoul_l                203ec490 f   LIBCMTD:wcstol.obj
 0002:0029b4c0       __stricmp_l                203ec4c0 f   LIBCMTD:stricmp.obj
 0002:0029b6d0       ___ascii_stricmp           203ec6d0 f   LIBCMTD:stricmp.obj
 0002:0029b760       _stricmp                   203ec760 f   LIBCMTD:stricmp.obj
 0002:0029b760       __stricmp                  203ec760 f   LIBCMTD:stricmp.obj
 0002:0029b8b0       __strnicmp_l               203ec8b0 f   LIBCMTD:strnicmp.obj
 0002:0029bb80       __strnicmp                 203ecb80 f   LIBCMTD:strnicmp.obj
 0002:0029bd70       _vprintf_helper            203ecd70 f   LIBCMTD:vprintf.obj
 0002:0029bed0       __vprintf_l                203eced0 f   LIBCMTD:vprintf.obj
 0002:0029bf00       __vprintf_s_l              203ecf00 f   LIBCMTD:vprintf.obj
 0002:0029bf30       __vprintf_p_l              203ecf30 f   LIBCMTD:vprintf.obj
 0002:0029bf60       _vprintf                   203ecf60 f   LIBCMTD:vprintf.obj
 0002:0029bf90       _vprintf_s                 203ecf90 f   LIBCMTD:vprintf.obj
 0002:0029bfc0       __vprintf_p                203ecfc0 f   LIBCMTD:vprintf.obj
 0002:0029bff0       __global_unwind2           203ecff0 f   LIBCMTD:exsup.obj
 0002:0029c055       __local_unwind2            203ed055 f   LIBCMTD:exsup.obj
 0002:0029c0d9       __abnormal_termination     203ed0d9 f   LIBCMTD:exsup.obj
 0002:0029c0fc       __NLG_Notify1              203ed0fc f   LIBCMTD:exsup.obj
 0002:0029c105       __NLG_Notify               203ed105 f   LIBCMTD:exsup.obj
 0002:0029c11c       __NLG_Dispatch2            203ed11c     LIBCMTD:exsup.obj
 0002:0029c11c       __NLG_Dispatch             203ed11c     LIBCMTD:exsup.obj
 0002:0029c124       __NLG_Call                 203ed124 f   LIBCMTD:exsup.obj
 0002:0029c126       __NLG_Return2              203ed126     LIBCMTD:exsup.obj
 0002:0029c180       ?_ValidateRead@@YAHPBXI@Z  203ed180 f   LIBCMTD:validate.obj
 0002:0029c1b0       ?_ValidateWrite@@YAHPAXI@Z 203ed1b0 f   LIBCMTD:validate.obj
 0002:0029c1e0       ?_ValidateExecute@@YAHP6GHXZ@Z 203ed1e0 f   LIBCMTD:validate.obj
 0002:0029c210       __CxxThrowException@8      203ed210 f   LIBCMTD:throw.obj
 0002:0029c280       ?name@type_info@@QBEPBDPAU__type_info_node@@@Z 203ed280 f   LIBCMTD:typinfo.obj
 0002:0029c2b0       ??1type_info@@UAE@XZ       203ed2b0 f   LIBCMTD:typinfo.obj
 0002:0029c2e0       ??_Gtype_info@@UAEPAXI@Z   203ed2e0 f i LIBCMTD:typinfo.obj
 0002:0029c2e0       ??_Etype_info@@UAEPAXI@Z   203ed2e0 f i LIBCMTD:typinfo.obj
 0002:0029c320       ?_name_internal_method@type_info@@QBEPBDPAU__type_info_node@@@Z 203ed320 f   LIBCMTD:typinfo.obj
 0002:0029c350       ?_type_info_dtor_internal_method@type_info@@QAEXXZ 203ed350 f   LIBCMTD:typinfo.obj
 0002:0029c370       ??8type_info@@QBE_NABV0@@Z 203ed370 f   LIBCMTD:typinfo.obj
 0002:0029c3b0       ??9type_info@@QBE_NABV0@@Z 203ed3b0 f   LIBCMTD:typinfo.obj
 0002:0029c3f0       ?before@type_info@@QBEHABV1@@Z 203ed3f0 f   LIBCMTD:typinfo.obj
 0002:0029c430       ?raw_name@type_info@@QBEPBDXZ 203ed430 f   LIBCMTD:typinfo.obj
 0002:0029c450       ??0type_info@@AAE@ABV0@@Z  203ed450 f   LIBCMTD:typinfo.obj
 0002:0029c480       ??4type_info@@AAEAAV0@ABV0@@Z 203ed480 f   LIBCMTD:typinfo.obj
 0002:0029c4a0       ??0exception@std@@QAE@XZ   203ed4a0 f   LIBCMTD:stdexcpt.obj
 0002:0029c4e0       ??_Eexception@std@@UAEPAXI@Z 203ed4e0 f i LIBCMTD:stdexcpt.obj
 0002:0029c4e0       ??_Gexception@std@@UAEPAXI@Z 203ed4e0 f i LIBCMTD:stdexcpt.obj
 0002:0029c520       ??0exception@std@@QAE@ABQBD@Z 203ed520 f   LIBCMTD:stdexcpt.obj
 0002:0029c570       ??0exception@std@@QAE@ABQBDH@Z 203ed570 f   LIBCMTD:stdexcpt.obj
 0002:0029c5b0       ??0exception@std@@QAE@ABV01@@Z 203ed5b0 f   LIBCMTD:stdexcpt.obj
 0002:0029c600       ??4exception@std@@QAEAAV01@ABV01@@Z 203ed600 f   LIBCMTD:stdexcpt.obj
 0002:0029c660       ??1exception@std@@UAE@XZ   203ed660 f   LIBCMTD:stdexcpt.obj
 0002:0029c690       ?what@exception@std@@UBEPBDXZ 203ed690 f   LIBCMTD:stdexcpt.obj
 0002:0029c6d0       ?_Copy_str@exception@std@@AAEXPBD@Z 203ed6d0 f   LIBCMTD:stdexcpt.obj
 0002:0029c750       ?_Tidy@exception@std@@AAEXXZ 203ed750 f   LIBCMTD:stdexcpt.obj
 0002:0029c7a0       ??0bad_cast@std@@QAE@PBD@Z 203ed7a0 f   LIBCMTD:stdexcpt.obj
 0002:0029c7d0       ??_Ebad_cast@std@@UAEPAXI@Z 203ed7d0 f i LIBCMTD:stdexcpt.obj
 0002:0029c7d0       ??_Gbad_cast@std@@UAEPAXI@Z 203ed7d0 f i LIBCMTD:stdexcpt.obj
 0002:0029c810       ??0bad_cast@std@@QAE@ABV01@@Z 203ed810 f   LIBCMTD:stdexcpt.obj
 0002:0029c840       ??1bad_cast@std@@UAE@XZ    203ed840 f   LIBCMTD:stdexcpt.obj
 0002:0029c870       ??0bad_typeid@std@@QAE@PBD@Z 203ed870 f   LIBCMTD:stdexcpt.obj
 0002:0029c8a0       ??_Gbad_typeid@std@@UAEPAXI@Z 203ed8a0 f i LIBCMTD:stdexcpt.obj
 0002:0029c8a0       ??_Ebad_typeid@std@@UAEPAXI@Z 203ed8a0 f i LIBCMTD:stdexcpt.obj
 0002:0029c8e0       ??0bad_typeid@std@@QAE@ABV01@@Z 203ed8e0 f   LIBCMTD:stdexcpt.obj
 0002:0029c910       ??1bad_typeid@std@@UAE@XZ  203ed910 f   LIBCMTD:stdexcpt.obj
 0002:0029c940       ??0__non_rtti_object@std@@QAE@PBD@Z 203ed940 f   LIBCMTD:stdexcpt.obj
 0002:0029c970       ??_E__non_rtti_object@std@@UAEPAXI@Z 203ed970 f i LIBCMTD:stdexcpt.obj
 0002:0029c970       ??_G__non_rtti_object@std@@UAEPAXI@Z 203ed970 f i LIBCMTD:stdexcpt.obj
 0002:0029c9b0       ??0__non_rtti_object@std@@QAE@ABV01@@Z 203ed9b0 f   LIBCMTD:stdexcpt.obj
 0002:0029c9e0       ??1__non_rtti_object@std@@UAE@XZ 203ed9e0 f   LIBCMTD:stdexcpt.obj
 0002:0029ca10       ??3@YAXPAX@Z               203eda10 f   LIBCMTD:dbgdel.obj
 0002:0029cb30       ___initconout              203edb30 f   LIBCMTD:initcon.obj
 0002:0029cb60       ___termconout              203edb60 f   LIBCMTD:initcon.obj
 0002:0029cb90       __flswbuf                  203edb90 f   LIBCMTD:_flswbuf.obj
 0002:0029cf20       __close                    203edf20 f   LIBCMTD:close.obj
 0002:0029d1c0       __close_nolock             203ee1c0 f   LIBCMTD:close.obj
 0002:0029d2c0       __wchartodigit             203ee2c0 f   LIBCMTD:wchtodig.obj
 0002:0029d6b0       ___ascii_strnicmp          203ee6b0 f   LIBCMTD:_strnicm.obj
 0002:0029d730       ?_Type_info_dtor@type_info@@CAXPAV1@@Z 203ee730 f   LIBCMTD:typname.obj
 0002:0029d880       ?_Name_base@type_info@@CAPBDPBV1@PAU__type_info_node@@@Z 203ee880 f   LIBCMTD:typname.obj
 0002:0029da90       ?_Type_info_dtor_internal@type_info@@CAXPAV1@@Z 203eea90 f   LIBCMTD:typname.obj
 0002:0029dbe0       ___unDNameHelper           203eebe0 f   LIBCMTD:typname.obj
 0002:0029dc30       ?_Name_base_internal@type_info@@CAPBDPBV1@PAU__type_info_node@@@Z 203eec30 f   LIBCMTD:typname.obj
 0002:0029de60       ___clean_type_info_names_internal 203eee60 f   LIBCMTD:typname.obj
 0002:0029df40       ___unDName                 203eef40 f   LIBCMTD:undname.obj
 0002:0029e050       ?Constructor@_HeapManager@@QAEXP6APAXI@ZP6AXPAX@Z@Z 203ef050 f i LIBCMTD:undname.obj
 0002:0029e0a0       ?Destructor@_HeapManager@@QAEXXZ 203ef0a0 f i LIBCMTD:undname.obj
 0002:0029e100       ___unDNameEx               203ef100 f   LIBCMTD:undname.obj
 0002:0029e210       ??0UnDecorator@@QAE@PADPBDHP6APADJ@ZK@Z 203ef210 f i LIBCMTD:undname.obj
 0002:0029e2d0       ??BUnDecorator@@QAEPADXZ   203ef2d0 f i LIBCMTD:undname.obj
 0002:0029e590       ?dbGetString@DName@@QBEPADXZ 203ef590 f   LIBCMTD:undname.obj
 0002:0029e5c0       ?getDecoratedName@UnDecorator@@CA?AVDName@@XZ 203ef5c0 f   LIBCMTD:undname.obj
 0002:0029e9a0       ?getSymbolName@UnDecorator@@CA?AVDName@@XZ 203ef9a0 f i LIBCMTD:undname.obj
 0002:0029ea30       ?getZName@UnDecorator@@CA?AVDName@@_N0@Z 203efa30 f   LIBCMTD:undname.obj
 0002:0029ed80       ?getOperatorName@UnDecorator@@CA?AVDName@@_NPA_N@Z 203efd80 f i LIBCMTD:undname.obj
 0002:0029f940       ?getStringEncoding@UnDecorator@@CA?AVDName@@PADH@Z 203f0940 f   LIBCMTD:undname.obj
 0002:0029fa80       ?getScope@UnDecorator@@CA?AVDName@@XZ 203f0a80 f   LIBCMTD:undname.obj
 0002:0029ff50       ?getSignedDimension@UnDecorator@@CA?AVDName@@XZ 203f0f50 f   LIBCMTD:undname.obj
 0002:0029fff0       ?getDimension@UnDecorator@@CA?AVDName@@_N@Z 203f0ff0 f   LIBCMTD:undname.obj
 0002:002a0350       ?getNumberOfDimensions@UnDecorator@@CAHXZ 203f1350 f   LIBCMTD:undname.obj
 0002:002a0490       ?getTemplateName@UnDecorator@@CA?AVDName@@_N@Z 203f1490 f   LIBCMTD:undname.obj
 0002:002a06c0       ?getTemplateArgumentList@UnDecorator@@CA?AVDName@@XZ 203f16c0 f   LIBCMTD:undname.obj
 0002:002a09e0       ?getTemplateConstant@UnDecorator@@CA?AVDName@@XZ 203f19e0 f   LIBCMTD:undname.obj
 0002:002a0f90       ?composeDeclaration@UnDecorator@@CA?AVDName@@ABV2@@Z 203f1f90 f i LIBCMTD:undname.obj
 0002:002a2b00       ?getTypeEncoding@UnDecorator@@CAHXZ 203f3b00 f i LIBCMTD:undname.obj
 0002:002a37d0       ?getBasedType@UnDecorator@@CA?AVDName@@XZ 203f47d0 f   LIBCMTD:undname.obj
 0002:002a38c0       ?getScopedName@UnDecorator@@CA?AVDName@@XZ 203f48c0 f   LIBCMTD:undname.obj
 0002:002a3a20       ?getCallingConvention@UnDecorator@@CA?AVDName@@XZ 203f4a20 f   LIBCMTD:undname.obj
 0002:002a3bf0       ?getReturnType@UnDecorator@@CA?AVDName@@PAV2@@Z 203f4bf0 f   LIBCMTD:undname.obj
 0002:002a3c50       ?getDataType@UnDecorator@@CA?AVDName@@PAV2@@Z 203f4c50 f   LIBCMTD:undname.obj
 0002:002a3db0       ?getPrimaryDataType@UnDecorator@@CA?AVDName@@ABV2@@Z 203f4db0 f   LIBCMTD:undname.obj
 0002:002a4230       ?getArgumentTypes@UnDecorator@@CA?AVDName@@XZ 203f5230 f   LIBCMTD:undname.obj
 0002:002a43e0       ?getArgumentList@UnDecorator@@CA?AVDName@@XZ 203f53e0 f   LIBCMTD:undname.obj
 0002:002a4580       ?getThrowTypes@UnDecorator@@CA?AVDName@@XZ 203f5580 f   LIBCMTD:undname.obj
 0002:002a4660       ?getBasicDataType@UnDecorator@@CA?AVDName@@ABV2@@Z 203f5660 f   LIBCMTD:undname.obj
 0002:002a4d90       ?getECSUDataType@UnDecorator@@CA?AVDName@@XZ 203f5d90 f   LIBCMTD:undname.obj
 0002:002a4fe0       ?getECSUName@UnDecorator@@CA?AVDName@@XZ 203f5fe0 f i LIBCMTD:undname.obj
 0002:002a5000       ?getEnumType@UnDecorator@@CA?AVDName@@XZ 203f6000 f i LIBCMTD:undname.obj
 0002:002a51a0       ?getFunctionIndirectType@UnDecorator@@CA?AVDName@@ABV2@@Z 203f61a0 f   LIBCMTD:undname.obj
 0002:002a56f0       ?getPtrRefType@UnDecorator@@CA?AVDName@@ABV2@0PBD@Z 203f66f0 f   LIBCMTD:undname.obj
 0002:002a58b0       ?getExtendedDataIndirectType@UnDecorator@@CA?AVDName@@AAPBDAA_NH@Z 203f68b0 f   LIBCMTD:undname.obj
 0002:002a5b60       ?getDataIndirectType@UnDecorator@@CA?AVDName@@ABV2@PBD0H@Z 203f6b60 f   LIBCMTD:undname.obj
 0002:002a6420       ?getPtrRefDataType@UnDecorator@@CA?AVDName@@ABV2@H@Z 203f7420 f i LIBCMTD:undname.obj
 0002:002a65b0       ?getArrayType@UnDecorator@@CA?AVDName@@ABV2@@Z 203f75b0 f i LIBCMTD:undname.obj
 0002:002a6870       ?getLexicalFrame@UnDecorator@@CA?AVDName@@XZ 203f7870 f i LIBCMTD:undname.obj
 0002:002a68c0       ?getThisType@UnDecorator@@CA?AVDName@@XZ 203f78c0 f i LIBCMTD:undname.obj
 0002:002a6910       ?getPointerType@UnDecorator@@CA?AVDName@@ABV2@0@Z 203f7910 f i LIBCMTD:undname.obj
 0002:002a6950       ?getPointerTypeArray@UnDecorator@@CA?AVDName@@ABV2@0@Z 203f7950 f i LIBCMTD:undname.obj
 0002:002a6990       ?getReferenceType@UnDecorator@@CA?AVDName@@ABV2@0PBD@Z 203f7990 f i LIBCMTD:undname.obj
 0002:002a69c0       ?getDisplacement@UnDecorator@@CA?AVDName@@XZ 203f79c0 f i LIBCMTD:undname.obj
 0002:002a69e0       ?getCallIndex@UnDecorator@@CA?AVDName@@XZ 203f79e0 f i LIBCMTD:undname.obj
 0002:002a6a00       ?getGuardNumber@UnDecorator@@CA?AVDName@@XZ 203f7a00 f i LIBCMTD:undname.obj
 0002:002a6a20       ?getVbTableType@UnDecorator@@CA?AVDName@@ABV2@@Z 203f7a20 f i LIBCMTD:undname.obj
 0002:002a6a40       ?getVCallThunkType@UnDecorator@@CA?AVDName@@XZ 203f7a40 f i LIBCMTD:undname.obj
 0002:002a6ac0       ?getVfTableType@UnDecorator@@CA?AVDName@@ABV2@@Z 203f7ac0 f i LIBCMTD:undname.obj
 0002:002a6cf0       ?getStorageConvention@UnDecorator@@CA?AVDName@@XZ 203f7cf0 f i LIBCMTD:undname.obj
 0002:002a6d10       ?getDataIndirectType@UnDecorator@@CA?AVDName@@XZ 203f7d10 f i LIBCMTD:undname.obj
 0002:002a6d60       ?getVdispMapType@UnDecorator@@CA?AVDName@@ABV2@@Z 203f7d60 f i LIBCMTD:undname.obj
 0002:002a6df0       ?getExternalDataType@UnDecorator@@CA?AVDName@@ABV2@@Z 203f7df0 f i LIBCMTD:undname.obj
 0002:002a6eb0       ?doMSKeywords@UnDecorator@@SAHXZ 203f7eb0 f i LIBCMTD:undname.obj
 0002:002a6ed0       ?doPtr64@UnDecorator@@SAHXZ 203f7ed0 f i LIBCMTD:undname.obj
 0002:002a6ef0       ?doFunctionReturns@UnDecorator@@SAHXZ 203f7ef0 f i LIBCMTD:undname.obj
 0002:002a6f10       ?doAllocationModel@UnDecorator@@SAHXZ 203f7f10 f i LIBCMTD:undname.obj
 0002:002a6f30       ?doAllocationLanguage@UnDecorator@@SAHXZ 203f7f30 f i LIBCMTD:undname.obj
 0002:002a6f50       ?doThisTypes@UnDecorator@@SAHXZ 203f7f50 f i LIBCMTD:undname.obj
 0002:002a6f70       ?doAccessSpecifiers@UnDecorator@@SAHXZ 203f7f70 f i LIBCMTD:undname.obj
 0002:002a6f90       ?doThrowTypes@UnDecorator@@SAHXZ 203f7f90 f i LIBCMTD:undname.obj
 0002:002a6fb0       ?doMemberTypes@UnDecorator@@SAHXZ 203f7fb0 f i LIBCMTD:undname.obj
 0002:002a6fd0       ?doNameOnly@UnDecorator@@SAHXZ 203f7fd0 f i LIBCMTD:undname.obj
 0002:002a6ff0       ?doTypeOnly@UnDecorator@@SAHXZ 203f7ff0 f i LIBCMTD:undname.obj
 0002:002a7010       ?haveTemplateParameters@UnDecorator@@SAHXZ 203f8010 f i LIBCMTD:undname.obj
 0002:002a7030       ?doEcsu@UnDecorator@@SAHXZ 203f8030 f i LIBCMTD:undname.obj
 0002:002a7050       ?doEllipsis@UnDecorator@@SAHXZ 203f8050 f i LIBCMTD:undname.obj
 0002:002a7070       ?UScore@UnDecorator@@SAPBDW4Tokens@@@Z 203f8070 f   LIBCMTD:undname.obj
 0002:002a70b0       ?doUnderScore@UnDecorator@@SAHXZ 203f80b0 f i LIBCMTD:undname.obj
 0002:002a70d0       ??2@YAPAXIAAV_HeapManager@@H@Z 203f80d0 f i LIBCMTD:undname.obj
 0002:002a70f0       ?getMemory@_HeapManager@@QAEPAXIH@Z 203f80f0 f   LIBCMTD:undname.obj
 0002:002a7240       ??0Block@_HeapManager@@QAE@XZ 203f8240 f i LIBCMTD:undname.obj
 0002:002a7260       ??H@YA?AVDName@@DABV0@@Z   203f8260 f i LIBCMTD:undname.obj
 0002:002a72a0       ??H@YA?AVDName@@W4DNameStatus@@ABV0@@Z 203f82a0 f i LIBCMTD:undname.obj
 0002:002a72e0       ??H@YA?AVDName@@PBDABV0@@Z 203f82e0 f i LIBCMTD:undname.obj
 0002:002a7320       ??0DName@@QAE@XZ           203f8320 f i LIBCMTD:undname.obj
 0002:002a7410       ??0DName@@QAE@D@Z          203f8410 f   LIBCMTD:undname.obj
 0002:002a7520       ??0DName@@QAE@ABV0@@Z      203f8520 f i LIBCMTD:undname.obj
 0002:002a7550       ??0DName@@QAE@PAV0@@Z      203f8550 f   LIBCMTD:undname.obj
 0002:002a76d0       ??0DName@@QAE@PBD@Z        203f86d0 f   LIBCMTD:undname.obj
 0002:002a7800       ??0DName@@QAE@AAPBDD@Z     203f8800 f   LIBCMTD:undname.obj
 0002:002a7b70       ?doNoIdentCharCheck@UnDecorator@@SAHXZ 203f8b70 f i LIBCMTD:undname.obj
 0002:002a7b90       ??0DName@@QAE@_K@Z         203f8b90 f   LIBCMTD:undname.obj
 0002:002a7d20       ??0DName@@QAE@_J@Z         203f8d20 f   LIBCMTD:undname.obj
 0002:002a7f00       ??0DName@@QAE@W4DNameStatus@@@Z 203f8f00 f   LIBCMTD:undname.obj
 0002:002a8060       ?isValid@DName@@QBEHXZ     203f9060 f i LIBCMTD:undname.obj
 0002:002a8090       ?isEmpty@DName@@QBEHXZ     203f9090 f i LIBCMTD:undname.obj
 0002:002a80b0       ?status@DName@@QBE?AW4DNameStatus@@XZ 203f90b0 f i LIBCMTD:undname.obj
 0002:002a80d0       ?setPtrRef@DName@@QAEAAV1@XZ 203f90d0 f i LIBCMTD:undname.obj
 0002:002a8100       ?isPtrRef@DName@@QBEHXZ    203f9100 f i LIBCMTD:undname.obj
 0002:002a8120       ?isUDC@DName@@QBEHXZ       203f9120 f i LIBCMTD:undname.obj
 0002:002a8170       ?setIsUDC@DName@@QAEXXZ    203f9170 f i LIBCMTD:undname.obj
 0002:002a81b0       ?isUDTThunk@DName@@QBEHXZ  203f91b0 f i LIBCMTD:undname.obj
 0002:002a8200       ?setIsArray@DName@@QAEXXZ  203f9200 f i LIBCMTD:undname.obj
 0002:002a8230       ?isArray@DName@@QBEHXZ     203f9230 f i LIBCMTD:undname.obj
 0002:002a8250       ?isNoTE@DName@@QBEHXZ      203f9250 f i LIBCMTD:undname.obj
 0002:002a8270       ?setIsNoTE@DName@@QAEXXZ   203f9270 f i LIBCMTD:undname.obj
 0002:002a82a0       ?isPinPtr@DName@@QBEHXZ    203f92a0 f i LIBCMTD:undname.obj
 0002:002a82c0       ?setIsPinPtr@DName@@QAEXXZ 203f92c0 f i LIBCMTD:undname.obj
 0002:002a82f0       ?isComArray@DName@@QBEHXZ  203f92f0 f i LIBCMTD:undname.obj
 0002:002a8310       ?setIsComArray@DName@@QAEXXZ 203f9310 f i LIBCMTD:undname.obj
 0002:002a8340       ?isVCallThunk@DName@@QBEHXZ 203f9340 f i LIBCMTD:undname.obj
 0002:002a8360       ?setIsVCallThunk@DName@@QAEXXZ 203f9360 f i LIBCMTD:undname.obj
 0002:002a8390       ?length@DName@@QBEHXZ      203f9390 f i LIBCMTD:undname.obj
 0002:002a83d0       ?getLastChar@DName@@QBEDXZ 203f93d0 f i LIBCMTD:undname.obj
 0002:002a8410       ?getString@DName@@QBEPADPADH@Z 203f9410 f i LIBCMTD:undname.obj
 0002:002a84c0       ?getString@DName@@QBEPADPAD0@Z 203f94c0 f i LIBCMTD:undname.obj
 0002:002a8510       ??HDName@@QBE?AV0@D@Z      203f9510 f   LIBCMTD:undname.obj
 0002:002a8560       ??HDName@@QBE?AV0@PBD@Z    203f9560 f   LIBCMTD:undname.obj
 0002:002a85b0       ??HDName@@QBE?AV0@ABV0@@Z  203f95b0 f   LIBCMTD:undname.obj
 0002:002a8600       ??HDName@@QBE?AV0@PAV0@@Z  203f9600 f   LIBCMTD:undname.obj
 0002:002a8650       ??HDName@@QBE?AV0@W4DNameStatus@@@Z 203f9650 f   LIBCMTD:undname.obj
 0002:002a86a0       ?append@DName@@AAEXPAVDNameNode@@@Z 203f96a0 f   LIBCMTD:undname.obj
 0002:002a8750       ??YDName@@QAEAAV0@D@Z      203f9750 f   LIBCMTD:undname.obj
 0002:002a8800       ??YDName@@QAEAAV0@PBD@Z    203f9800 f   LIBCMTD:undname.obj
 0002:002a88c0       ??YDName@@QAEAAV0@ABV0@@Z  203f98c0 f   LIBCMTD:undname.obj
 0002:002a8940       ??YDName@@QAEAAV0@PAV0@@Z  203f9940 f   LIBCMTD:undname.obj
 0002:002a8a20       ??YDName@@QAEAAV0@W4DNameStatus@@@Z 203f9a20 f   LIBCMTD:undname.obj
 0002:002a8aa0       ??_5DName@@QAEAAV0@ABV0@@Z 203f9aa0 f   LIBCMTD:undname.obj
 0002:002a8b10       ??4DName@@QAEAAV0@D@Z      203f9b10 f i LIBCMTD:undname.obj
 0002:002a8c20       ??4DName@@QAEAAV0@PBD@Z    203f9c20 f   LIBCMTD:undname.obj
 0002:002a8d30       ??4DName@@QAEAAV0@ABV0@@Z  203f9d30 f   LIBCMTD:undname.obj
 0002:002a8d60       ??4DName@@QAEAAV0@PAV0@@Z  203f9d60 f   LIBCMTD:undname.obj
 0002:002a8ee0       ??4DName@@QAEAAV0@W4DNameStatus@@@Z 203f9ee0 f   LIBCMTD:undname.obj
 0002:002a9020       ?doPchar@DName@@AAEXPBDH@Z 203fa020 f   LIBCMTD:undname.obj
 0002:002a91b0       ?isFull@Replicator@@QBEHXZ 203fa1b0 f i LIBCMTD:undname.obj
 0002:002a91d0       ??0Replicator@@QAE@XZ      203fa1d0 f i LIBCMTD:undname.obj
 0002:002a91f0       ??YReplicator@@QAEAAV0@ABVDName@@@Z 203fa1f0 f   LIBCMTD:undname.obj
 0002:002a92a0       ??AReplicator@@QBE?AVDName@@H@Z 203fa2a0 f   LIBCMTD:undname.obj
 0002:002a9320       ??0DNameNode@@IAE@XZ       203fa320 f   LIBCMTD:undname.obj
 0002:002a9340       ??0charNode@@QAE@D@Z       203fa340 f   LIBCMTD:undname.obj
 0002:002a9380       ?length@charNode@@UBEHXZ   203fa380 f i LIBCMTD:undname.obj
 0002:002a93a0       ?getLastChar@charNode@@UBEDXZ 203fa3a0 f i LIBCMTD:undname.obj
 0002:002a93c0       ?getString@charNode@@UBEPADPAD0@Z 203fa3c0 f i LIBCMTD:undname.obj
 0002:002a9400       ??0pcharNode@@QAE@PBDH@Z   203fa400 f   LIBCMTD:undname.obj
 0002:002a94c0       ?length@pcharNode@@UBEHXZ  203fa4c0 f i LIBCMTD:undname.obj
 0002:002a94e0       ?getLastChar@pcharNode@@UBEDXZ 203fa4e0 f i LIBCMTD:undname.obj
 0002:002a9530       ?getString@pcharNode@@UBEPADPAD0@Z 203fa530 f i LIBCMTD:undname.obj
 0002:002a9570       ?getStringHelper@@YAPADPAD00H@Z 203fa570 f i LIBCMTD:undname.obj
 0002:002a95c0       ??0pDNameNode@@QAE@PAVDName@@@Z 203fa5c0 f   LIBCMTD:undname.obj
 0002:002a9640       ?length@pDNameNode@@UBEHXZ 203fa640 f i LIBCMTD:undname.obj
 0002:002a9680       ?getLastChar@pDNameNode@@UBEDXZ 203fa680 f i LIBCMTD:undname.obj
 0002:002a96c0       ?getString@pDNameNode@@UBEPADPAD0@Z 203fa6c0 f i LIBCMTD:undname.obj
 0002:002a9710       ??0DNameStatusNode@@AAE@W4DNameStatus@@@Z 203fa710 f   LIBCMTD:undname.obj
 0002:002a9770       ?length@DNameStatusNode@@UBEHXZ 203fa770 f i LIBCMTD:undname.obj
 0002:002a9790       ?getLastChar@DNameStatusNode@@UBEDXZ 203fa790 f i LIBCMTD:undname.obj
 0002:002a97c0       ?getString@DNameStatusNode@@UBEPADPAD0@Z 203fa7c0 f i LIBCMTD:undname.obj
 0002:002a9810       ?make@DNameStatusNode@@SAPAV1@W4DNameStatus@@@Z 203fa810 f i LIBCMTD:undname.obj
 0002:002a98f0       ??0pairNode@@QAE@PAVDNameNode@@0@Z 203fa8f0 f   LIBCMTD:undname.obj
 0002:002a9940       ?length@pairNode@@UBEHXZ   203fa940 f i LIBCMTD:undname.obj
 0002:002a99a0       ?getLastChar@pairNode@@UBEDXZ 203fa9a0 f i LIBCMTD:undname.obj
 0002:002a9a00       ?getString@pairNode@@UBEPADPAD0@Z 203faa00 f i LIBCMTD:undname.obj
 0002:002a9b80       __purecall                 203fab80 f   LIBCMTD:purevirt.obj
 0002:002a9bd0       __set_purecall_handler     203fabd0 f   LIBCMTD:purevirt.obj
 0002:002a9c10       __get_purecall_handler     203fac10 f   LIBCMTD:purevirt.obj
 0002:002a9c28       _GetModuleFileNameW@12     203fac28 f   kernel32:KERNEL32.dll
 0002:002a9c2e       _WriteConsoleW@20          203fac2e f   kernel32:KERNEL32.dll
 0002:002a9c34       _GetFileType@4             203fac34 f   kernel32:KERNEL32.dll
 0002:002a9c3a       _GetStdHandle@4            203fac3a f   kernel32:KERNEL32.dll
 0002:002a9c40       _WideCharToMultiByte@32    203fac40 f   kernel32:KERNEL32.dll
 0002:002a9c46       _IsDebuggerPresent@0       203fac46 f   kernel32:KERNEL32.dll
 0002:002a9c4c       _MultiByteToWideChar@24    203fac4c f   kernel32:KERNEL32.dll
 0002:002a9c52       _RaiseException@16         203fac52 f   kernel32:KERNEL32.dll
 0002:002a9c58       _lstrlenA@4                203fac58 f   kernel32:KERNEL32.dll
 0002:002a9c5e       _LoadLibraryW@4            203fac5e f   kernel32:KERNEL32.dll
 0002:002a9c64       _GetCurrentThreadId@0      203fac64 f   kernel32:KERNEL32.dll
 0002:002a9c6a       _DecodePointer@4           203fac6a f   kernel32:KERNEL32.dll
 0002:002a9c70       _GetCommandLineA@0         203fac70 f   kernel32:KERNEL32.dll
 0002:002a9c76       _EncodePointer@4           203fac76 f   kernel32:KERNEL32.dll
 0002:002a9c7c       _TerminateProcess@8        203fac7c f   kernel32:KERNEL32.dll
 0002:002a9c82       _UnhandledExceptionFilter@4 203fac82 f   kernel32:KERNEL32.dll
 0002:002a9c88       _InterlockedIncrement@4    203fac88 f   kernel32:KERNEL32.dll
 0002:002a9c8e       _InterlockedDecrement@4    203fac8e f   kernel32:KERNEL32.dll
 0002:002a9c94       _GetACP@0                  203fac94 f   kernel32:KERNEL32.dll
 0002:002a9c9a       _GetOEMCP@0                203fac9a f   kernel32:KERNEL32.dll
 0002:002a9ca0       _GetCPInfo@8               203faca0 f   kernel32:KERNEL32.dll
 0002:002a9ca6       _IsValidCodePage@4         203faca6 f   kernel32:KERNEL32.dll
 0002:002a9cac       _TlsAlloc@0                203facac f   kernel32:KERNEL32.dll
 0002:002a9cb2       _TlsGetValue@4             203facb2 f   kernel32:KERNEL32.dll
 0002:002a9cb8       _TlsSetValue@8             203facb8 f   kernel32:KERNEL32.dll
 0002:002a9cbe       _TlsFree@4                 203facbe f   kernel32:KERNEL32.dll
 0002:002a9cc4       _GetModuleHandleW@4        203facc4 f   kernel32:KERNEL32.dll
 0002:002a9cca       _SetLastError@4            203facca f   kernel32:KERNEL32.dll
 0002:002a9cd0       _GetLastError@0            203facd0 f   kernel32:KERNEL32.dll
 0002:002a9cd6       _IsProcessorFeaturePresent@4 203facd6 f   kernel32:KERNEL32.dll
 0002:002a9cdc       _ExitProcess@4             203facdc f   kernel32:KERNEL32.dll
 0002:002a9ce2       _SetConsoleCtrlHandler@8   203face2 f   kernel32:KERNEL32.dll
 0002:002a9ce8       _EnterCriticalSection@4    203face8 f   kernel32:KERNEL32.dll
 0002:002a9cee       _LeaveCriticalSection@4    203facee f   kernel32:KERNEL32.dll
 0002:002a9cf4       _LCMapStringW@24           203facf4 f   kernel32:KERNEL32.dll
 0002:002a9cfa       _HeapFree@12               203facfa f   kernel32:KERNEL32.dll
 0002:002a9d00       _HeapAlloc@12              203fad00 f   kernel32:KERNEL32.dll
 0002:002a9d06       _GetProcessHeap@0          203fad06 f   kernel32:KERNEL32.dll
 0002:002a9d0c       _VirtualQuery@12           203fad0c f   kernel32:KERNEL32.dll
 0002:002a9d12       _HeapValidate@12           203fad12 f   kernel32:KERNEL32.dll
 0002:002a9d18       _IsBadReadPtr@8            203fad18 f   kernel32:KERNEL32.dll
 0002:002a9d1e       _SetHandleCount@4          203fad1e f   kernel32:KERNEL32.dll
 0002:002a9d24       _InitializeCriticalSectionAndSpinCount@8 203fad24 f   kernel32:KERNEL32.dll
 0002:002a9d2a       _GetStartupInfoW@4         203fad2a f   kernel32:KERNEL32.dll
 0002:002a9d30       _DeleteCriticalSection@4   203fad30 f   kernel32:KERNEL32.dll
 0002:002a9d36       _FreeEnvironmentStringsW@4 203fad36 f   kernel32:KERNEL32.dll
 0002:002a9d3c       _GetEnvironmentStringsW@0  203fad3c f   kernel32:KERNEL32.dll
 0002:002a9d42       _HeapCreate@12             203fad42 f   kernel32:KERNEL32.dll
 0002:002a9d48       _HeapDestroy@4             203fad48 f   kernel32:KERNEL32.dll
 0002:002a9d4e       _QueryPerformanceCounter@4 203fad4e f   kernel32:KERNEL32.dll
 0002:002a9d54       _GetTickCount@0            203fad54 f   kernel32:KERNEL32.dll
 0002:002a9d5a       _GetCurrentProcessId@0     203fad5a f   kernel32:KERNEL32.dll
 0002:002a9d60       _GetSystemTimeAsFileTime@4 203fad60 f   kernel32:KERNEL32.dll
 0002:002a9d66       _GetStringTypeW@16         203fad66 f   kernel32:KERNEL32.dll
 0002:002a9d6c       _FatalAppExitA@8           203fad6c f   kernel32:KERNEL32.dll
 0002:002a9d72       _WriteFile@20              203fad72 f   kernel32:KERNEL32.dll
 0002:002a9d78       _OutputDebugStringA@4      203fad78 f   kernel32:KERNEL32.dll
 0002:002a9d7e       _OutputDebugStringW@4      203fad7e f   kernel32:KERNEL32.dll
 0002:002a9d84       _RtlUnwind@16              203fad84 f   kernel32:KERNEL32.dll
 0002:002a9d8a       _InterlockedExchange@8     203fad8a f   kernel32:KERNEL32.dll
 0002:002a9d90       _GetLocaleInfoW@16         203fad90 f   kernel32:KERNEL32.dll
 0002:002a9d96       _FlushFileBuffers@4        203fad96 f   kernel32:KERNEL32.dll
 0002:002a9d9c       _GetConsoleCP@0            203fad9c f   kernel32:KERNEL32.dll
 0002:002a9da2       _GetConsoleMode@8          203fada2 f   kernel32:KERNEL32.dll
 0002:002a9da8       _GetLocaleInfoA@16         203fada8 f   kernel32:KERNEL32.dll
 0002:002a9dae       _IsValidLocale@8           203fadae f   kernel32:KERNEL32.dll
 0002:002a9db4       _EnumSystemLocalesA@8      203fadb4 f   kernel32:KERNEL32.dll
 0002:002a9dba       _GetUserDefaultLCID@0      203fadba f   kernel32:KERNEL32.dll
 0002:002a9dc0       _SetFilePointer@16         203fadc0 f   kernel32:KERNEL32.dll
 0002:002a9dc6       _HeapReAlloc@16            203fadc6 f   kernel32:KERNEL32.dll
 0002:002a9dcc       _HeapSize@12               203fadcc f   kernel32:KERNEL32.dll
 0002:002a9dd2       _HeapQueryInformation@20   203fadd2 f   kernel32:KERNEL32.dll
 0002:002a9dd8       _ReadFile@20               203fadd8 f   kernel32:KERNEL32.dll
 0002:002a9dde       _SetStdHandle@8            203fadde f   kernel32:KERNEL32.dll
 0002:002a9de4       _CreateFileW@28            203fade4 f   kernel32:KERNEL32.dll
 0002:002a9dea       _CloseHandle@4             203fadea f   kernel32:KERNEL32.dll
 0003:00000000       ___xc_a                    203fc000     LIBCMTD:crt0init.obj
 0003:00000104       ___xc_z                    203fc104     LIBCMTD:crt0init.obj
 0003:00000208       ___xi_a                    203fc208     LIBCMTD:crt0init.obj
 0003:00000424       ___xi_z                    203fc424     LIBCMTD:crt0init.obj
 0003:00000528       ___xp_a                    203fc528     LIBCMTD:crt0init.obj
 0003:0000083c       ___xp_z                    203fc83c     LIBCMTD:crt0init.obj
 0003:00000940       ___xt_a                    203fc940     LIBCMTD:crt0init.obj
 0003:00000a44       ___xt_z                    203fca44     LIBCMTD:crt0init.obj
 0003:00000b6c       __real@00000000            203fcb6c     bg_g2_utils.obj
 0003:00000b70       ??_C@_07BNEEMBEL@?$CKr_hand?$AA@ 203fcb70     bg_g2_utils.obj
 0003:00000b7c       ??_C@_08MCJJKOHJ@jaw_bone?$AA@ 203fcb7c     bg_g2_utils.obj
 0003:00000b88       ??_C@_06EGLMLMG@?$CKmouth?$AA@ 203fcb88     bg_g2_utils.obj
 0003:00000b90       ??_C@_04DJCABLIL@?$CFs?$CFc?$AA@ 203fcb90     bg_g2_utils.obj
 0003:00000b98       ??_C@_0BG@LLNBCDKB@EV_PLAY_EFFECT_BOLTED?$AA@ 203fcb98     bg_misc.obj
 0003:00000bb4       ??_C@_08GBKLDCBE@EV_TAUNT?$AA@ 203fcbb4     bg_misc.obj
 0003:00000bc0       ??_C@_0BF@EAHNFOOG@EV_STARTLOOPINGSOUND?$AA@ 203fcbc0     bg_misc.obj
 0003:00000bdc       ??_C@_0BE@OHJHDFJH@EV_STOPLOOPINGSOUND?$AA@ 203fcbdc     bg_misc.obj
 0003:00000bf4       ??_C@_0M@LDAKOPJP@EV_TESTLINE?$AA@ 203fcbf4     bg_misc.obj
 0003:00000c04       ??_C@_0O@PBPAKHP@EV_DEBUG_LINE?$AA@ 203fcc04     bg_misc.obj
 0003:00000c14       ??_C@_0O@CBLOOGHB@EV_SHIELD_HIT?$AA@ 203fcc14     bg_misc.obj
 0003:00000c24       ??_C@_0BF@LLJHJACN@EV_WEAPON_CHARGE_ALT?$AA@ 203fcc24     bg_misc.obj
 0003:00000c40       ??_C@_0BB@HAHOHAKJ@EV_WEAPON_CHARGE?$AA@ 203fcc40     bg_misc.obj
 0003:00000c54       ??_C@_0BF@KFICFFCM@EV_SET_FORCE_DISABLE?$AA@ 203fcc54     bg_misc.obj
 0003:00000c70       ??_C@_0BC@DDJADHAK@EV_SET_FREE_SABER?$AA@ 203fcc70     bg_misc.obj
 0003:00000c88       ??_C@_0BB@JIHOLMBD@EV_GIVE_NEW_RANK?$AA@ 203fcc88     bg_misc.obj
 0003:00000c9c       ??_C@_0BI@CEGPCIEH@EV_DESTROY_WEAPON_MODEL?$AA@ 203fcc9c     bg_misc.obj
 0003:00000cb8       ??_C@_0BL@DNICLAEN@EV_DESTROY_GHOUL2_INSTANCE?$AA@ 203fccb8     bg_misc.obj
 0003:00000cd8       ??_C@_0BL@CGBBFEIE@EV_SIEGE_OBJECTIVECOMPLETE?$AA@ 203fccd8     bg_misc.obj
 0003:00000cf8       ??_C@_0BD@LACADBAO@EV_SIEGE_ROUNDOVER?$AA@ 203fccf8     bg_misc.obj
 0003:00000d10       ??_C@_0M@GBGEMMKK@EV_BODYFADE?$AA@ 203fcd10     bg_misc.obj
 0003:00000d20       ??_C@_0O@NEHCEMNJ@EV_CTFMESSAGE?$AA@ 203fcd20     bg_misc.obj
 0003:00000d30       ??_C@_0N@GAJBP@EV_SCOREPLUM?$AA@ 203fcd30     bg_misc.obj
 0003:00000d40       ??_C@_0O@JLGFLKBE@EV_GIB_PLAYER?$AA@ 203fcd40     bg_misc.obj
 0003:00000d50       ??_C@_0BB@KGMADNKO@EV_FORCE_DRAINED?$AA@ 203fcd50     bg_misc.obj
 0003:00000d64       ??_C@_0BG@CHAMNADK@EV_POWERUP_BATTLESUIT?$AA@ 203fcd64     bg_misc.obj
 0003:00000d80       ??_C@_0BA@HLHGHIIE@EV_POWERUP_QUAD?$AA@ 203fcd80     bg_misc.obj
 0003:00000d94       ??_C@_0M@PPLCDPP@EV_OBITUARY?$AA@ 203fcd94     bg_misc.obj
 0003:00000da4       ??_C@_09KNGHBIAK@EV_DEATH3?$AA@ 203fcda4     bg_misc.obj
 0003:00000db0       ??_C@_09LEHMCJEL@EV_DEATH2?$AA@ 203fcdb0     bg_misc.obj
 0003:00000dbc       ??_C@_09JPFBHKII@EV_DEATH1?$AA@ 203fcdbc     bg_misc.obj
 0003:00000dc8       ??_C@_07EMHHKOOH@EV_PAIN?$AA@ 203fcdc8     bg_misc.obj
 0003:00000dd4       ??_C@_09ICDIPKFJ@EV_BULLET?$AA@ 203fcdd4     bg_misc.obj
 0003:00000de0       ??_C@_0BG@LPAHEABB@EV_MISSILE_MISS_METAL?$AA@ 203fcde0     bg_misc.obj
 0003:00000dfc       ??_C@_0BA@CAHALNAE@EV_MISSILE_MISS?$AA@ 203fcdfc     bg_misc.obj
 0003:00000e10       ??_C@_0P@JFMFNBMO@EV_MISSILE_HIT?$AA@ 203fce10     bg_misc.obj
 0003:00000e24       ??_C@_0BD@PIOAMKHB@EV_CONC_ALT_IMPACT?$AA@ 203fce24     bg_misc.obj
 0003:00000e3c       ??_C@_0BC@MLGOBNCG@EV_MISC_MODEL_EXP?$AA@ 203fce3c     bg_misc.obj
 0003:00000e54       ??_C@_09KLJDDMJG@EV_DEBRIS?$AA@ 203fce54     bg_misc.obj
 0003:00000e60       ??_C@_0BB@HHFJBAND@EV_GLASS_SHATTER?$AA@ 203fce60     bg_misc.obj
 0003:00000e74       ??_C@_0N@BEKJCCJE@EV_PLAY_ROFF?$AA@ 203fce74     bg_misc.obj
 0003:00000e84       ??_C@_0BA@LLJGBFCE@EV_ENTITY_SOUND?$AA@ 203fce84     bg_misc.obj
 0003:00000e98       ??_C@_0BF@DDOIKLHD@EV_GLOBAL_TEAM_SOUND?$AA@ 203fce98     bg_misc.obj
 0003:00000eb4       ??_C@_0BA@JAMKLOPJ@EV_GLOBAL_SOUND?$AA@ 203fceb4     bg_misc.obj
 0003:00000ec8       ??_C@_0BB@LJGGMAII@EV_GENERAL_SOUND?$AA@ 203fcec8     bg_misc.obj
 0003:00000edc       ??_C@_0BC@GMNGJAOD@EV_VOICECMD_SOUND?$AA@ 203fcedc     bg_misc.obj
 0003:00000ef4       ??_C@_0O@JHBKAOKG@EV_MUTE_SOUND?$AA@ 203fcef4     bg_misc.obj
 0003:00000f04       ??_C@_0BA@EGLCGAMO@EV_BMODEL_SOUND?$AA@ 203fcf04     bg_misc.obj
 0003:00000f18       ??_C@_0BF@BLAPJAMF@EV_PLAYDOORLOOPSOUND?$AA@ 203fcf18     bg_misc.obj
 0003:00000f34       ??_C@_0BB@OGNONJKP@EV_PLAYDOORSOUND?$AA@ 203fcf34     bg_misc.obj
 0003:00000f48       ??_C@_0BJ@CGDHKBCK@EV_PLAY_PORTAL_EFFECT_ID?$AA@ 203fcf48     bg_misc.obj
 0003:00000f68       ??_C@_0BC@LCOMFDPL@EV_PLAY_EFFECT_ID?$AA@ 203fcf68     bg_misc.obj
 0003:00000f80       ??_C@_0P@PLIFONPM@EV_PLAY_EFFECT?$AA@ 203fcf80     bg_misc.obj
 0003:00000f94       ??_C@_0BB@JGOOAGDJ@EV_MISSILE_STICK?$AA@ 203fcf94     bg_misc.obj
 0003:00000fa8       ??_C@_0BC@ECIIAFLJ@EV_GRENADE_BOUNCE?$AA@ 203fcfa8     bg_misc.obj
 0003:00000fc0       ??_C@_0BH@FNNILPIN@EV_PLAYER_TELEPORT_OUT?$AA@ 203fcfc0     bg_misc.obj
 0003:00000fdc       ??_C@_0BG@HBBJKNDP@EV_PLAYER_TELEPORT_IN?$AA@ 203fcfdc     bg_misc.obj
 0003:00000ff8       ??_C@_0M@ECGFPIMP@EV_ITEM_POP?$AA@ 203fcff8     bg_misc.obj
 0003:00001008       ??_C@_0BA@GJNCODNG@EV_ITEM_RESPAWN?$AA@ 203fd008     bg_misc.obj
 0003:0000101c       ??_C@_0P@JFHCOBFC@EV_ITEMUSEFAIL?$AA@ 203fd01c     bg_misc.obj
 0003:00001030       ??_C@_0O@HHGOLJPJ@EV_USE_ITEM15?$AA@ 203fd030     bg_misc.obj
 0003:00001040       ??_C@_0O@GOHFIILI@EV_USE_ITEM14?$AA@ 203fd040     bg_misc.obj
 0003:00001050       ??_C@_0O@CBDEBOHP@EV_USE_ITEM13?$AA@ 203fd050     bg_misc.obj
 0003:00001060       ??_C@_0O@DICPCPDO@EV_USE_ITEM12?$AA@ 203fd060     bg_misc.obj
 0003:00001070       ??_C@_0O@BDACHMPN@EV_USE_ITEM11?$AA@ 203fd070     bg_misc.obj
 0003:00001080       ??_C@_0O@KBJENLM@EV_USE_ITEM10?$AA@ 203fd080     bg_misc.obj
 0003:00001090       ??_C@_0N@PHODCBCK@EV_USE_ITEM9?$AA@ 203fd090     bg_misc.obj
 0003:000010a0       ??_C@_0N@OOPIBAGL@EV_USE_ITEM8?$AA@ 203fd0a0     bg_misc.obj
 0003:000010b0       ??_C@_0N@GJGAAMKE@EV_USE_ITEM7?$AA@ 203fd0b0     bg_misc.obj
 0003:000010c0       ??_C@_0N@HAHLDNOF@EV_USE_ITEM6?$AA@ 203fd0c0     bg_misc.obj
 0003:000010d0       ??_C@_0N@FLFGGOCG@EV_USE_ITEM5?$AA@ 203fd0d0     bg_misc.obj
 0003:000010e0       ??_C@_0N@ECENFPGH@EV_USE_ITEM4?$AA@ 203fd0e0     bg_misc.obj
 0003:000010f0       ??_C@_0N@NAMMJKA@EV_USE_ITEM3?$AA@ 203fd0f0     bg_misc.obj
 0003:00001100       ??_C@_0N@BEBHPIOB@EV_USE_ITEM2?$AA@ 203fd100     bg_misc.obj
 0003:00001110       ??_C@_0N@DPDKKLCC@EV_USE_ITEM1?$AA@ 203fd110     bg_misc.obj
 0003:00001120       ??_C@_0N@CGCBJKGD@EV_USE_ITEM0?$AA@ 203fd120     bg_misc.obj
 0003:00001130       ??_C@_06LBDBNJG@EV_USE?$AA@ 203fd130     bg_misc.obj
 0003:00001138       ??_C@_0O@GLOAIHAI@EV_LOCALTIMER?$AA@ 203fd138     bg_misc.obj
 0003:00001148       ??_C@_0P@EIHBPBOL@EV_SCREENSHAKE?$AA@ 203fd148     bg_misc.obj
 0003:0000115c       ??_C@_0O@GMONIJJI@EV_TEAM_POWER?$AA@ 203fd15c     bg_misc.obj
 0003:0000116c       ??_C@_0P@MDPKBHNH@EV_PREDEFSOUND?$AA@ 203fd16c     bg_misc.obj
 0003:00001180       ??_C@_0BH@GCPNKPAL@EV_DISRUPTOR_ZOOMSOUND?$AA@ 203fd180     bg_misc.obj
 0003:0000119c       ??_C@_0BB@JNGCFFFI@EV_DISRUPTOR_HIT?$AA@ 203fd19c     bg_misc.obj
 0003:000011b0       ??_C@_0BJ@POMLOPMI@EV_DISRUPTOR_SNIPER_MISS?$AA@ 203fd1b0     bg_misc.obj
 0003:000011d0       ??_C@_0BJ@MDNKGNJN@EV_DISRUPTOR_SNIPER_SHOT?$AA@ 203fd1d0     bg_misc.obj
 0003:000011f0       ??_C@_0BH@KDGLLAMO@EV_DISRUPTOR_MAIN_SHOT?$AA@ 203fd1f0     bg_misc.obj
 0003:0000120c       ??_C@_0BF@MBILLJJH@EV_BECOME_JEDIMASTER?$AA@ 203fd20c     bg_misc.obj
 0003:00001228       ??_C@_0BD@FFJMPGGA@EV_SABER_UNHOLSTER?$AA@ 203fd228     bg_misc.obj
 0003:00001240       ??_C@_0BE@HNEOPGEL@EV_SABER_CLASHFLARE?$AA@ 203fd240     bg_misc.obj
 0003:00001258       ??_C@_0P@MNCBBKHB@EV_SABER_BLOCK?$AA@ 203fd258     bg_misc.obj
 0003:0000126c       ??_C@_0N@IKFBFHKB@EV_SABER_HIT?$AA@ 203fd26c     bg_misc.obj
 0003:0000127c       ??_C@_0BA@FJAFFDLF@EV_SABER_ATTACK?$AA@ 203fd27c     bg_misc.obj
 0003:00001290       ??_C@_0M@LKPOHPHC@EV_ALT_FIRE?$AA@ 203fd290     bg_misc.obj
 0003:000012a0       ??_C@_0P@PFJPAFGH@EV_FIRE_WEAPON?$AA@ 203fd2a0     bg_misc.obj
 0003:000012b4       ??_C@_0BB@ENKPHJLP@EV_CHANGE_WEAPON?$AA@ 203fd2b4     bg_misc.obj
 0003:000012c8       ??_C@_09NMIICG@EV_NOAMMO?$AA@ 203fd2c8     bg_misc.obj
 0003:000012d4       ??_C@_0M@MNGOLNFL@EV_VEH_FIRE?$AA@ 203fd2d4     bg_misc.obj
 0003:000012e4       ??_C@_0BG@KFILGAMN@EV_GLOBAL_ITEM_PICKUP?$AA@ 203fd2e4     bg_misc.obj
 0003:00001300       ??_C@_0P@BGIOEPCB@EV_ITEM_PICKUP?$AA@ 203fd300     bg_misc.obj
 0003:00001314       ??_C@_0P@NIPCJOBG@EV_WATER_CLEAR?$AA@ 203fd314     bg_misc.obj
 0003:00001328       ??_C@_0P@MIAIODEJ@EV_WATER_UNDER?$AA@ 203fd328     bg_misc.obj
 0003:0000133c       ??_C@_0P@LHDMOIIG@EV_WATER_LEAVE?$AA@ 203fd33c     bg_misc.obj
 0003:00001350       ??_C@_0P@GCDBKPMP@EV_WATER_TOUCH?$AA@ 203fd350     bg_misc.obj
 0003:00001364       ??_C@_07OCJFCKNN@EV_ROLL?$AA@ 203fd364     bg_misc.obj
 0003:00001370       ??_C@_07GKBEHGAP@EV_JUMP?$AA@ 203fd370     bg_misc.obj
 0003:0000137c       ??_C@_0BA@NCAJLGNF@EV_PRIVATE_DUEL?$AA@ 203fd37c     bg_misc.obj
 0003:00001390       ??_C@_0P@MHGGNABN@EV_GLOBAL_DUEL?$AA@ 203fd390     bg_misc.obj
 0003:000013a4       ??_C@_0P@BMAPLDAL@EV_GHOUL2_MARK?$AA@ 203fd3a4     bg_misc.obj
 0003:000013b8       ??_C@_0N@PAALAJAC@EV_SABERLOCK?$AA@ 203fd3b8     bg_misc.obj
 0003:000013c8       ??_C@_07JHCKGMKM@EV_FALL?$AA@ 203fd3c8     bg_misc.obj
 0003:000013d4       ??_C@_0L@HOOIOPKF@EV_STEP_16?$AA@ 203fd3d4     bg_misc.obj
 0003:000013e4       ??_C@_0L@BKIECKKB@EV_STEP_12?$AA@ 203fd3e4     bg_misc.obj
 0003:000013f4       ??_C@_09EHOLDGNN@EV_STEP_8?$AA@ 203fd3f4     bg_misc.obj
 0003:00001400       ??_C@_09OLFOHJNB@EV_STEP_4?$AA@ 203fd400     bg_misc.obj
 0003:0000140c       ??_C@_07FFIIIPLH@EV_SWIM?$AA@ 203fd40c     bg_misc.obj
 0003:00001418       ??_C@_0M@NPJBGELA@EV_FOOTWADE?$AA@ 203fd418     bg_misc.obj
 0003:00001428       ??_C@_0O@HLJHKIDH@EV_FOOTSPLASH?$AA@ 203fd428     bg_misc.obj
 0003:00001438       ??_C@_0BC@DIJMAMMI@EV_FOOTSTEP_METAL?$AA@ 203fd438     bg_misc.obj
 0003:00001450       ??_C@_0M@HLKBOJPO@EV_FOOTSTEP?$AA@ 203fd450     bg_misc.obj
 0003:00001460       ??_C@_0O@JHBAELOC@EV_CLIENTJOIN?$AA@ 203fd460     bg_misc.obj
 0003:00001470       ??_C@_07JFMDDPHJ@EV_NONE?$AA@ 203fd470     bg_misc.obj
 0003:0000147c       ??_C@_0N@EFNACPEM@Tusken?5Rifle?$AA@ 203fd47c     bg_misc.obj
 0003:0000148c       ??_C@_0CO@CJLJGOME@models?1weapons2?1tusken_rifle?1tus@ 203fd48c     bg_misc.obj
 0003:000014c4       ??_C@_0DA@CKHMHCHN@models?1weapons2?1tusken_rifle?1tus@ 203fd4c4     bg_misc.obj
 0003:00001500       ??_C@_0BE@JFFHIOON@weapon_tusken_rifle?$AA@ 203fd500     bg_misc.obj
 0003:00001518       ??_C@_0BB@JKNLMJAB@icons?1iconh_borb?$AA@ 203fd518     bg_misc.obj
 0003:0000152c       ??_C@_0BO@CMJEFEFK@models?1powerups?1orb?1b_orb?4md3?$AA@ 203fd52c     bg_misc.obj
 0003:00001550       ??_C@_0O@NHDOFNIN@item_bluecube?$AA@ 203fd550     bg_misc.obj
 0003:00001560       ??_C@_0BB@PKDLFOID@icons?1iconh_rorb?$AA@ 203fd560     bg_misc.obj
 0003:00001574       ??_C@_0BO@LDKNFLC@models?1powerups?1orb?1r_orb?4md3?$AA@ 203fd574     bg_misc.obj
 0003:00001598       ??_C@_0N@IDOEINCB@item_redcube?$AA@ 203fd598     bg_misc.obj
 0003:000015a8       ??_C@_0BF@OGGGKBMJ@icons?1iconf_neutral1?$AA@ 203fd5a8     bg_misc.obj
 0003:000015c4       ??_C@_0BI@FAJILPEC@models?1flags?1n_flag?4md3?$AA@ 203fd5c4     bg_misc.obj
 0003:000015e0       ??_C@_0BF@NFGOPKAE@team_CTF_neutralflag?$AA@ 203fd5e0     bg_misc.obj
 0003:000015fc       ??_C@_0BC@JDBDOHJA@gfx?1hud?1mpi_bflag?$AA@ 203fd5fc     bg_misc.obj
 0003:00001614       ??_C@_0BN@NABGHIBA@models?1flags?1b_flag_ysal?4md3?$AA@ 203fd614     bg_misc.obj
 0003:00001638       ??_C@_0BI@FKICCNIF@models?1flags?1b_flag?4md3?$AA@ 203fd638     bg_misc.obj
 0003:00001654       ??_C@_0BC@NLKCOFAB@team_CTF_blueflag?$AA@ 203fd654     bg_misc.obj
 0003:0000166c       ??_C@_0BC@JAMFOFAL@gfx?1hud?1mpi_rflag?$AA@ 203fd66c     bg_misc.obj
 0003:00001684       ??_C@_0BN@DGDBEGIO@models?1flags?1r_flag_ysal?4md3?$AA@ 203fd684     bg_misc.obj
 0003:000016a8       ??_C@_0BI@PEHEOJEO@models?1flags?1r_flag?4md3?$AA@ 203fd6a8     bg_misc.obj
 0003:000016c4       ??_C@_0BB@JNMMCIHG@team_CTF_redflag?$AA@ 203fd6c4     bg_misc.obj
 0003:000016d8       ??_C@_0BJ@DIDDNCPE@models?1items?1battery?4md3?$AA@ 203fd6d8     bg_misc.obj
 0003:000016f8       ??_C@_08LLJPIFOF@ammo_all?$AA@ 203fd6f8     bg_misc.obj
 0003:00001704       ??_C@_0BE@IIEBFJHN@gfx?1mp?1ammo_rockets?$AA@ 203fd704     bg_misc.obj
 0003:0000171c       ??_C@_0BJ@BCBNBFGD@models?1items?1rockets?4md3?$AA@ 203fd71c     bg_misc.obj
 0003:0000173c       ??_C@_0N@CLEPKBOE@ammo_rockets?$AA@ 203fd73c     bg_misc.obj
 0003:0000174c       ??_C@_0BL@IPLJCMOM@gfx?1mp?1ammo_metallic_bolts?$AA@ 203fd74c     bg_misc.obj
 0003:0000176c       ??_C@_0CA@POKDMLNN@models?1items?1metallic_bolts?4md3?$AA@ 203fd76c     bg_misc.obj
 0003:00001794       ??_C@_0BE@OMMGIMPN@ammo_metallic_bolts?$AA@ 203fd794     bg_misc.obj
 0003:000017ac       ??_C@_0BH@KBMOAFPH@gfx?1mp?1ammo_power_cell?$AA@ 203fd7ac     bg_misc.obj
 0003:000017c8       ??_C@_0BM@GDMBBHDI@models?1items?1power_cell?4md3?$AA@ 203fd7c8     bg_misc.obj
 0003:000017ec       ??_C@_0P@GBMHNHF@ammo_powercell?$AA@ 203fd7ec     bg_misc.obj
 0003:00001800       ??_C@_0BH@MFDMPLPM@gfx?1hud?1i_icon_battery?$AA@ 203fd800     bg_misc.obj
 0003:0000181c       ??_C@_0N@JHBODPOG@ammo_blaster?$AA@ 203fd81c     bg_misc.obj
 0003:0000182c       ??_C@_0BN@BKBHFNLE@models?1items?1energy_cell?4md3?$AA@ 203fd82c     bg_misc.obj
 0003:00001850       ??_C@_0BO@EBHMDMMM@sound?1player?1pickupenergy?4wav?$AA@ 203fd850     bg_misc.obj
 0003:00001874       ??_C@_0L@GKDELMG@ammo_force?$AA@ 203fd874     bg_misc.obj
 0003:00001884       ??_C@_0BA@EENDCNMH@weapon_turretwp?$AA@ 203fd884     bg_misc.obj
 0003:00001898       ??_C@_0BA@PHDHEKAE@weapon_emplaced?$AA@ 203fd898     bg_misc.obj
 0003:000018ac       ??_C@_0BA@DBJEACCG@weapon_det_pack?$AA@ 203fd8ac     bg_misc.obj
 0003:000018c0       ??_C@_0BB@KBIODFKP@weapon_trip_mine?$AA@ 203fd8c0     bg_misc.obj
 0003:000018d4       ??_C@_0P@OJLAIIJD@weapon_thermal?$AA@ 203fd8d4     bg_misc.obj
 0003:000018e8       ??_C@_0BM@MOLHJNKH@?$EAMENUS_A_DETONATION_PACK_IS?$AA@ 203fd8e8     bg_misc.obj
 0003:0000190c       ??_C@_0BH@EBPPNJFB@gfx?1hud?1w_icon_detpack?$AA@ 203fd90c     bg_misc.obj
 0003:00001928       ??_C@_0CF@NONMEFGL@models?1weapons2?1detpack?1det_pack@ 203fd928     bg_misc.obj
 0003:00001954       ??_C@_0CH@KPFPNMHO@models?1weapons2?1detpack?1det_pack@ 203fd954     bg_misc.obj
 0003:00001984       ??_C@_0CK@CDFEGPDE@models?1weapons2?1detpack?1det_pack@ 203fd984     bg_misc.obj
 0003:000019b8       ??_C@_0CI@CBJMGLP@models?1weapons2?1detpack?1det_pack@ 203fd9b8     bg_misc.obj
 0003:000019e8       ??_C@_0N@CIBIOIEN@ammo_detpack?$AA@ 203fd9e8     bg_misc.obj
 0003:000019f8       ??_C@_0BN@CMMDBNGF@?$EAMENUS_TRIP_MINES_CONSIST_OF?$AA@ 203fd9f8     bg_misc.obj
 0003:00001a1c       ??_C@_0BI@HEJGEJJK@gfx?1hud?1w_icon_tripmine?$AA@ 203fda1c     bg_misc.obj
 0003:00001a38       ??_C@_0CK@BPCANEAG@models?1weapons2?1laser_trap?1laser@ 203fda38     bg_misc.obj
 0003:00001a6c       ??_C@_0CM@PIAEKLLK@models?1weapons2?1laser_trap?1laser@ 203fda6c     bg_misc.obj
 0003:00001aa0       ??_C@_0CN@JOEHJLGB@models?1weapons2?1laser_trap?1laser@ 203fdaa0     bg_misc.obj
 0003:00001ad8       ??_C@_0O@GAPOPCOE@ammo_tripmine?$AA@ 203fdad8     bg_misc.obj
 0003:00001ae8       ??_C@_0BN@FMFLLCGL@?$EAMENUS_THE_THERMAL_DETONATOR?$AA@ 203fdae8     bg_misc.obj
 0003:00001b0c       ??_C@_0BH@OIMKPGPF@gfx?1hud?1w_icon_thermal?$AA@ 203fdb0c     bg_misc.obj
 0003:00001b28       ??_C@_0CE@PJGNCPEG@models?1weapons2?1thermal?1thermal?4@ 203fdb28     bg_misc.obj
 0003:00001b54       ??_C@_0CG@CCBCCJGG@models?1weapons2?1thermal?1thermal_@ 203fdb54     bg_misc.obj
 0003:00001b84       ??_C@_0CH@BBPIBDBM@models?1weapons2?1thermal?1thermal_@ 203fdb84     bg_misc.obj
 0003:00001bb4       ??_C@_0N@IBCNMHOJ@ammo_thermal?$AA@ 203fdbb4     bg_misc.obj
 0003:00001bc4       ??_C@_0CC@EJOKBHDJ@?$EAMENUS_THE_PLX_2M_IS_AN_EXTREMEL@ 203fdbc4     bg_misc.obj
 0003:00001bec       ??_C@_0BI@DDNFEDEJ@gfx?1hud?1w_icon_merrsonn?$AA@ 203fdbec     bg_misc.obj
 0003:00001c08       ??_C@_0CI@CPIMDKHH@models?1weapons2?1merr_sonn?1merr_s@ 203fdc08     bg_misc.obj
 0003:00001c38       ??_C@_0CK@IJJCBMNO@models?1weapons2?1merr_sonn?1merr_s@ 203fdc38     bg_misc.obj
 0003:00001c6c       ??_C@_0BH@CFPMIEJH@weapon_rocket_launcher?$AA@ 203fdc6c     bg_misc.obj
 0003:00001c88       ??_C@_0CE@HHDMNMLP@?$EAMENUS_WIDELY_USED_BY_THE_CORPOR@ 203fdc88     bg_misc.obj
 0003:00001cb4       ??_C@_0BJ@PJJJCKNF@gfx?1hud?1w_icon_flechette?$AA@ 203fdcb4     bg_misc.obj
 0003:00001cd4       ??_C@_0CK@CNAHGKMH@models?1weapons2?1golan_arms?1golan@ 203fdcd4     bg_misc.obj
 0003:00001d08       ??_C@_0CM@GDMOBBJ@models?1weapons2?1golan_arms?1golan@ 203fdd08     bg_misc.obj
 0003:00001d3c       ??_C@_0BB@HNIDLLLF@weapon_flechette?$AA@ 203fdd3c     bg_misc.obj
 0003:00001d50       ??_C@_0BM@BCDPDFEB@?$EAMENUS_COMMONLY_REFERRED_TO?$AA@ 203fdd50     bg_misc.obj
 0003:00001d74       ??_C@_0BF@BPEBOIFE@gfx?1hud?1w_icon_demp2?$AA@ 203fdd74     bg_misc.obj
 0003:00001d90       ??_C@_0CA@PKACJAPI@models?1weapons2?1demp2?1demp2?4md3?$AA@ 203fdd90     bg_misc.obj
 0003:00001db8       ??_C@_0CC@DIKAHCC@models?1weapons2?1demp2?1demp2_w?4gl@ 203fddb8     bg_misc.obj
 0003:00001de0       ??_C@_0N@MBLCNHPF@weapon_demp2?$AA@ 203fdde0     bg_misc.obj
 0003:00001df0       ??_C@_0CD@FCKGGFFG@?$EAMENUS_THIS_DESTRUCTIVE_PROJECTI@ 203fddf0     bg_misc.obj
 0003:00001e1c       ??_C@_0BI@LOPKELCD@gfx?1hud?1w_icon_repeater?$AA@ 203fde1c     bg_misc.obj
 0003:00001e38       ??_C@_0DC@FAHGABEB@models?1weapons2?1heavy_repeater?1h@ 203fde38     bg_misc.obj
 0003:00001e74       ??_C@_0DE@LBIFBLHF@models?1weapons2?1heavy_repeater?1h@ 203fde74     bg_misc.obj
 0003:00001eb4       ??_C@_0BA@BKCKPFDA@weapon_repeater?$AA@ 203fdeb4     bg_misc.obj
 0003:00001ec8       ??_C@_0BM@MHHBLDA@?$EAMENUS_THIS_ARCHAIC_LOOKING?$AA@ 203fdec8     bg_misc.obj
 0003:00001eec       ??_C@_0BJ@CHKJPOAH@gfx?1hud?1w_icon_bowcaster?$AA@ 203fdeec     bg_misc.obj
 0003:00001f0c       ??_C@_0CI@MANABGJH@models?1weapons2?1bowcaster?1bowcas@ 203fdf0c     bg_misc.obj
 0003:00001f3c       ??_C@_0CK@OFDEGMIN@models?1weapons2?1bowcaster?1bowcas@ 203fdf3c     bg_misc.obj
 0003:00001f70       ??_C@_0BB@KDLDGPGH@weapon_bowcaster?$AA@ 203fdf70     bg_misc.obj
 0003:00001f84       ??_C@_0BN@PDALGMFE@?$EAMENUS_THIS_NEFARIOUS_WEAPON?$AA@ 203fdf84     bg_misc.obj
 0003:00001fa8       ??_C@_0BJ@MODONBMB@gfx?1hud?1w_icon_disruptor?$AA@ 203fdfa8     bg_misc.obj
 0003:00001fc8       ??_C@_0CI@KNAINLEF@models?1weapons2?1disruptor?1disrup@ 203fdfc8     bg_misc.obj
 0003:00001ff8       ??_C@_0CK@LDOPBIMF@models?1weapons2?1disruptor?1disrup@ 203fdff8     bg_misc.obj
 0003:0000202c       ??_C@_0BB@EKCEEAKB@weapon_disruptor?$AA@ 203fe02c     bg_misc.obj
 0003:00002040       ??_C@_0BN@KLDCJACF@?$EAMENUS_THE_PRIMARY_WEAPON_OF?$AA@ 203fe040     bg_misc.obj
 0003:00002064       ??_C@_0BH@POPJAOPK@gfx?1hud?1w_icon_blaster?$AA@ 203fe064     bg_misc.obj
 0003:00002080       ??_C@_0CG@IJILPHPH@models?1weapons2?1blaster_r?1blaste@ 203fe080     bg_misc.obj
 0003:000020b0       ??_C@_0CI@FHMEJMJP@models?1weapons2?1blaster_r?1blaste@ 203fe0b0     bg_misc.obj
 0003:000020e0       ??_C@_0P@PPIDHAJM@weapon_blaster?$AA@ 203fe0e0     bg_misc.obj
 0003:000020f4       ??_C@_0BK@JHPMONHL@?$EASP_INGAME_BLASTER_PISTOL?$AA@ 203fe0f4     bg_misc.obj
 0003:00002114       ??_C@_0BF@HJCHFBMO@gfx?1hud?1w_icon_briar?$AA@ 203fe114     bg_misc.obj
 0003:00002130       ??_C@_0CO@LMBDAEMJ@models?1weapons2?1briar_pistol?1bri@ 203fe130     bg_misc.obj
 0003:00002168       ??_C@_0DA@DCLFBBNM@models?1weapons2?1briar_pistol?1bri@ 203fe168     bg_misc.obj
 0003:000021a4       ??_C@_0BE@NCEGAEHJ@weapon_bryar_pistol?$AA@ 203fe1a4     bg_misc.obj
 0003:000021bc       ??_C@_0BH@OEFKMKID@?$EAMENUS_CONC_RIFLE_DESC?$AA@ 203fe1bc     bg_misc.obj
 0003:000021d8       ??_C@_0BH@PEIIGOLA@gfx?1hud?1w_icon_c_rifle?$AA@ 203fe1d8     bg_misc.obj
 0003:000021f4       ??_C@_0CH@PIBGBJPN@models?1weapons2?1concussion?1c_rif@ 203fe1f4     bg_misc.obj
 0003:00002224       ??_C@_0CJ@OKJJMKPH@models?1weapons2?1concussion?1c_rif@ 203fe224     bg_misc.obj
 0003:00002258       ??_C@_0BI@JFLEEDJH@weapon_concussion_rifle?$AA@ 203fe258     bg_misc.obj
 0003:00002274       ??_C@_0BL@EJPJHBLO@?$EAMENUS_BLASTER_PISTOL_DESC?$AA@ 203fe274     bg_misc.obj
 0003:00002294       ??_C@_0BO@EGOADNOO@gfx?1hud?1w_icon_blaster_pistol?$AA@ 203fe294     bg_misc.obj
 0003:000022b8       ??_C@_0DC@EGNBDNKO@models?1weapons2?1blaster_pistol?1b@ 203fe2b8     bg_misc.obj
 0003:000022f4       ??_C@_0DE@EHAMJOHG@models?1weapons2?1blaster_pistol?1b@ 203fe2f4     bg_misc.obj
 0003:00002334       ??_C@_0BG@JEHALHIL@weapon_blaster_pistol?$AA@ 203fe334     bg_misc.obj
 0003:00002350       ??_C@_0BN@GPMHMMHO@?$EAMENUS_AN_ELEGANT_WEAPON_FOR?$AA@ 203fe350     bg_misc.obj
 0003:00002374       ??_C@_0BK@DENAAEJI@gfx?1hud?1w_icon_lightsaber?$AA@ 203fe374     bg_misc.obj
 0003:00002394       ??_C@_0CC@LELHOPDH@models?1weapons2?1saber?1saber_w?4md@ 203fe394     bg_misc.obj
 0003:000023bc       ??_C@_0CC@PBCBCODB@models?1weapons2?1saber?1saber_w?4gl@ 203fe3bc     bg_misc.obj
 0003:000023e4       ??_C@_0N@JIBGHNNO@weapon_saber?$AA@ 203fe3e4     bg_misc.obj
 0003:000023f4       ??_C@_0BC@CEFBGLCB@?$EAMENUS_MELEE_DESC?$AA@ 203fe3f4     bg_misc.obj
 0003:0000240c       ??_C@_0BF@GPOFHEPB@gfx?1hud?1w_icon_melee?$AA@ 203fe40c     bg_misc.obj
 0003:00002428       ??_C@_0CF@INEBKGM@models?1weapons2?1stun_baton?1baton@ 203fe428     bg_misc.obj
 0003:00002454       ??_C@_0CH@BLMKNANE@models?1weapons2?1stun_baton?1baton@ 203fe454     bg_misc.obj
 0003:00002484       ??_C@_0N@LBBGELFA@weapon_melee?$AA@ 203fe484     bg_misc.obj
 0003:00002494       ??_C@_0BE@OEFHDNBF@gfx?1hud?1mpi_ysamari?$AA@ 203fe494     bg_misc.obj
 0003:000024ac       ??_C@_0CE@KCIGBHIN@models?1map_objects?1mp?1ysalimari?4@ 203fe4ac     bg_misc.obj
 0003:000024d8       ??_C@_0BL@LEFKKCEP@sound?1player?1ysalimari?4wav?$AA@ 203fe4d8     bg_misc.obj
 0003:000024f8       ??_C@_0P@BMGIHJKN@item_ysalimari?$AA@ 203fe4f8     bg_misc.obj
 0003:0000250c       ??_C@_0BC@DEOLDKOL@gfx?1hud?1mpi_fboon?$AA@ 203fe50c     bg_misc.obj
 0003:00002524       ??_C@_0CF@JPDLAKMB@models?1map_objects?1mp?1force_boon@ 203fe524     bg_misc.obj
 0003:00002550       ??_C@_0BG@GFIPDGIH@sound?1player?1boon?4wav?$AA@ 203fe550     bg_misc.obj
 0003:0000256c       ??_C@_0BA@HALIIJIE@item_force_boon?$AA@ 203fe56c     bg_misc.obj
 0003:00002580       ??_C@_0BE@NFHAGLDO@gfx?1hud?1mpi_dklight?$AA@ 203fe580     bg_misc.obj
 0003:00002598       ??_C@_0CL@IJLGBCPL@models?1map_objects?1mp?1dk_enlight@ 203fe598     bg_misc.obj
 0003:000025cc       ??_C@_0BK@JFKBFAGB@item_force_enlighten_dark?$AA@ 203fe5cc     bg_misc.obj
 0003:000025ec       ??_C@_0BD@MPGMMGMB@gfx?1hud?1mpi_jlight?$AA@ 203fe5ec     bg_misc.obj
 0003:00002604       ??_C@_0CN@DIMKCGKC@models?1map_objects?1mp?1jedi_enlig@ 203fe604     bg_misc.obj
 0003:0000263c       ??_C@_0BP@GFNNPIJO@sound?1player?1enlightenment?4wav?$AA@ 203fe63c     bg_misc.obj
 0003:00002664       ??_C@_0BL@MINBJMDE@item_force_enlighten_light?$AA@ 203fe664     bg_misc.obj
 0003:00002684       ??_C@_0N@LDKIPHF@Flamethrower?$AA@ 203fe684     bg_misc.obj
 0003:00002694       ??_C@_0BC@FEOIGMFL@item_flamethrower?$AA@ 203fe694     bg_misc.obj
 0003:000026ac       ??_C@_0BC@GHMKCCIP@?$EAMENUS_CLOAK_DESC?$AA@ 203fe6ac     bg_misc.obj
 0003:000026c4       ??_C@_0BF@JNCBPHCG@gfx?1hud?1i_icon_cloak?$AA@ 203fe6c4     bg_misc.obj
 0003:000026e0       ??_C@_0L@LGDPDIAF@item_cloak?$AA@ 203fe6e0     bg_misc.obj
 0003:000026f0       ??_C@_0BB@BOLMLFOH@?$EAMENUS_EWEB_DESC?$AA@ 203fe6f0     bg_misc.obj
 0003:00002704       ??_C@_0BE@HACMCHO@gfx?1hud?1i_icon_eweb?$AA@ 203fe704     bg_misc.obj
 0003:0000271c       ??_C@_0CH@FJBCGPDI@models?1map_objects?1hoth?1eweb_mod@ 203fe71c     bg_misc.obj
 0003:0000274c       ??_C@_0CA@PCDIFNM@sound?1interface?1shieldcon_empty?$AA@ 203fe74c     bg_misc.obj
 0003:00002774       ??_C@_0BD@FNDPGFNF@item_eweb_holdable?$AA@ 203fe774     bg_misc.obj
 0003:0000278c       ??_C@_0BI@NJGLIFAN@gfx?1hud?1i_icon_ammodisp?$AA@ 203fe78c     bg_misc.obj
 0003:000027a8       ??_C@_0O@FFANILHN@item_ammodisp?$AA@ 203fe7a8     bg_misc.obj
 0003:000027b8       ??_C@_0BK@CIGOJBM@gfx?1hud?1i_icon_healthdisp?$AA@ 203fe7b8     bg_misc.obj
 0003:000027d8       ??_C@_0BA@MKABDBIL@item_healthdisp?$AA@ 203fe7d8     bg_misc.obj
 0003:000027ec       ??_C@_0BE@JOMGFMAF@?$EAMENUS_JETPACK_DESC?$AA@ 203fe7ec     bg_misc.obj
 0003:00002808       ??_C@_0FD@EDGCAKBF@sound?1chars?1boba?1JETON?4wav?5sound@ 203fe808     bg_misc.obj
 0003:0000286c       ??_C@_0BF@CHFBNMLA@effects?1boba?1jet?4efx?$AA@ 203fe86c     bg_misc.obj
 0003:00002888       ??_C@_0BH@PNGEEMFJ@gfx?1hud?1i_icon_jetpack?$AA@ 203fe888     bg_misc.obj
 0003:000028a4       ??_C@_0N@EIBGMPAH@item_jetpack?$AA@ 203fe8a4     bg_misc.obj
 0003:000028b4       ??_C@_0BN@MFHKBDDJ@?$EAMENUS_THIS_DEADLY_WEAPON_IS?$AA@ 203fe8b4     bg_misc.obj
 0003:000028d8       ??_C@_0BJ@JKBMBJCM@gfx?1hud?1i_icon_sentrygun?$AA@ 203fe8d8     bg_misc.obj
 0003:000028f8       ??_C@_0BH@PFALJFOC@models?1items?1psgun?4glm?$AA@ 203fe8f8     bg_misc.obj
 0003:00002914       ??_C@_0BA@HKIJMOIG@item_sentry_gun?$AA@ 203fe914     bg_misc.obj
 0003:00002928       ??_C@_0BL@PADDACKM@?$EASP_INGAME_LA_GOGGLES_DESC?$AA@ 203fe928     bg_misc.obj
 0003:00002948       ??_C@_0BE@PKBACEEE@gfx?1hud?1i_icon_zoom?$AA@ 203fe948     bg_misc.obj
 0003:00002960       ??_C@_0BM@HNHCIOH@models?1items?1binoculars?4md3?$AA@ 203fe960     bg_misc.obj
 0003:00002984       ??_C@_0BA@KBLOKIGM@item_binoculars?$AA@ 203fe984     bg_misc.obj
 0003:00002998       ??_C@_0BJ@DMMPEJNE@gfx?1hud?1i_icon_big_bacta?$AA@ 203fe998     bg_misc.obj
 0003:000029b8       ??_C@_0BL@HEJMELJJ@models?1items?1big_bacta?4md3?$AA@ 203fe9b8     bg_misc.obj
 0003:000029d8       ??_C@_0BA@JADGBDOO@item_medpac_big?$AA@ 203fe9d8     bg_misc.obj
 0003:000029ec       ??_C@_0BG@BFJBNBGL@?$EASP_INGAME_BACTA_DESC?$AA@ 203fe9ec     bg_misc.obj
 0003:00002a08       ??_C@_0BF@EDJNGJL@gfx?1hud?1i_icon_bacta?$AA@ 203fea08     bg_misc.obj
 0003:00002a24       ??_C@_0CA@COCFAODK@models?1map_objects?1mp?1bacta?4md3?$AA@ 203fea24     bg_misc.obj
 0003:00002a4c       ??_C@_0M@NLNOFNHL@item_medpac?$AA@ 203fea4c     bg_misc.obj
 0003:00002a5c       ??_C@_0BO@HHEDFEHB@?$EAMENUS_THIS_STATIONARY_ENERGY?$AA@ 203fea5c     bg_misc.obj
 0003:00002a80       ??_C@_0KM@PHBHELNF@sound?1weapons?1detpack?1stick?4wav?5@ 203fea80     bg_misc.obj
 0003:00002b50       ??_C@_0BK@OODCPGGP@gfx?1hud?1i_icon_shieldwall?$AA@ 203feb50     bg_misc.obj
 0003:00002b70       ??_C@_0CB@EAKHAPIK@models?1map_objects?1mp?1shield?4md3@ 203feb70     bg_misc.obj
 0003:00002b98       ??_C@_0M@IIGPMPLO@item_shield?$AA@ 203feb98     bg_misc.obj
 0003:00002ba8       ??_C@_0BP@JJMOPAPI@?$EAMENUS_AN_ATTACK_DRONE_SIMILAR?$AA@ 203feba8     bg_misc.obj
 0003:00002bd0       ??_C@_0BG@KANLKHLH@gfx?1hud?1i_icon_seeker?$AA@ 203febd0     bg_misc.obj
 0003:00002bec       ??_C@_0BI@PEKMFNBP@models?1items?1remote?4md3?$AA@ 203febec     bg_misc.obj
 0003:00002c08       ??_C@_0BJ@IBMECGJM@sound?1weapons?1w_pkup?4wav?$AA@ 203fec08     bg_misc.obj
 0003:00002c28       ??_C@_0M@CJHMIAK@item_seeker?$AA@ 203fec28     bg_misc.obj
 0003:00002c38       ??_C@_0BG@PFBKDHHG@gfx?1hud?1i_icon_medkit?$AA@ 203fec38     bg_misc.obj
 0003:00002c54       ??_C@_0CB@PABPOCJH@models?1map_objects?1mp?1medpac?4md3@ 203fec54     bg_misc.obj
 0003:00002c7c       ??_C@_0BO@NIGJKPEE@sound?1player?1pickuphealth?4wav?$AA@ 203fec7c     bg_misc.obj
 0003:00002ca0       ??_C@_0BE@MEFMIHAD@item_medpak_instant?$AA@ 203feca0     bg_misc.obj
 0003:00002cb8       ??_C@_0BE@JKBNBKPH@gfx?1mp?1large_shield?$AA@ 203fecb8     bg_misc.obj
 0003:00002cd0       ??_C@_0BO@JPJCNECL@models?1map_objects?1mp?1psd?4md3?$AA@ 203fecd0     bg_misc.obj
 0003:00002cf4       ??_C@_0BI@HGJKGJEB@item_shield_lrg_instant?$AA@ 203fecf4     bg_misc.obj
 0003:00002d10       ??_C@_0BE@GPDHMLPP@gfx?1mp?1small_shield?$AA@ 203fed10     bg_misc.obj
 0003:00002d28       ??_C@_0CB@FFNAAGJJ@models?1map_objects?1mp?1psd_sm?4md3@ 203fed28     bg_misc.obj
 0003:00002d50       ??_C@_0BO@CHCEMMJK@sound?1player?1pickupshield?4wav?$AA@ 203fed50     bg_misc.obj
 0003:00002d74       ??_C@_0BH@DINJFPKN@item_shield_sm_instant?$AA@ 203fed74     bg_misc.obj
 0003:00002d8f       ??_C@_00CNPNBAHC@?$AA@     203fed8f     bg_misc.obj
 0003:00002d90       ??_C@_08FEEDNBKC@MASTERY7?$AA@ 203fed90     bg_misc.obj
 0003:00002d9c       ??_C@_08ENFIOAOD@MASTERY6?$AA@ 203fed9c     bg_misc.obj
 0003:00002da8       ??_C@_08GGHFLDCA@MASTERY5?$AA@ 203feda8     bg_misc.obj
 0003:00002db4       ??_C@_08HPGOICGB@MASTERY4?$AA@ 203fedb4     bg_misc.obj
 0003:00002dc0       ??_C@_08DACPBEKG@MASTERY3?$AA@ 203fedc0     bg_misc.obj
 0003:00002dcc       ??_C@_08CJDECFOH@MASTERY2?$AA@ 203fedcc     bg_misc.obj
 0003:00002dd8       ??_C@_08CBJHGCE@MASTERY1?$AA@ 203fedd8     bg_misc.obj
 0003:00002de4       ??_C@_08BLACEHGF@MASTERY0?$AA@ 203fede4     bg_misc.obj
 0003:00002df0       ??_C@_0O@GKPNHIOC@?$CKtac_together?$AA@ 203fedf0     bg_misc.obj
 0003:00002e00       ??_C@_0L@MGMJIMAF@?$CKtac_split?$AA@ 203fee00     bg_misc.obj
 0003:00002e10       ??_C@_09DINJJNAI@?$CKtac_hold?$AA@ 203fee10     bg_misc.obj
 0003:00002e1c       ??_C@_0M@PABJGNLG@?$CKtac_follow?$AA@ 203fee1c     bg_misc.obj
 0003:00002e2c       ??_C@_0O@NFGMPNBH@?$CKtac_fallback?$AA@ 203fee2c     bg_misc.obj
 0003:00002e3c       ??_C@_0L@EHELGHNE@?$CKtac_cover?$AA@ 203fee3c     bg_misc.obj
 0003:00002e4c       ??_C@_0N@KDPAKEEJ@?$CKspot_troops?$AA@ 203fee4c     bg_misc.obj
 0003:00002e5c       ??_C@_0N@JGIPLKJE@?$CKspot_sniper?$AA@ 203fee5c     bg_misc.obj
 0003:00002e6c       ??_C@_0P@LLDGJFLE@?$CKspot_emplaced?$AA@ 203fee6c     bg_misc.obj
 0003:00002e80       ??_C@_0P@ILGDCGKG@?$CKspot_defenses?$AA@ 203fee80     bg_misc.obj
 0003:00002e94       ??_C@_09KPOPDKGM@?$CKspot_air?$AA@ 203fee94     bg_misc.obj
 0003:00002ea0       ??_C@_09FCIMPFEJ@?$CKreq_tech?$AA@ 203feea0     bg_misc.obj
 0003:00002eac       ??_C@_08EHGAEMIC@?$CKreq_sup?$AA@ 203feeac     bg_misc.obj
 0003:00002eb8       ??_C@_0L@PJEOEMHI@?$CKreq_medic?$AA@ 203feeb8     bg_misc.obj
 0003:00002ec8       ??_C@_08BDPMJJAM@?$CKreq_hvy?$AA@ 203feec8     bg_misc.obj
 0003:00002ed4       ??_C@_09HHLDNJAG@?$CKreq_demo?$AA@ 203feed4     bg_misc.obj
 0003:00002ee0       ??_C@_0M@MJLNGIKA@?$CKreq_assist?$AA@ 203feee0     bg_misc.obj
 0003:00002ef0       ??_C@_0L@DOBCHHPE@?$CKreply_yes?$AA@ 203feef0     bg_misc.obj
 0003:00002f00       ??_C@_0M@PJKELJII@?$CKreply_stay?$AA@ 203fef00     bg_misc.obj
 0003:00002f10       ??_C@_09FGIKFCBO@?$CKreply_no?$AA@ 203fef10     bg_misc.obj
 0003:00002f1c       ??_C@_09FJFLGJJB@?$CKreply_go?$AA@ 203fef1c     bg_misc.obj
 0003:00002f28       ??_C@_0O@LCDECPIN@?$CKreply_coming?$AA@ 203fef28     bg_misc.obj
 0003:00002f38       ??_C@_0M@HJCGMPNN@?$CKdef_second?$AA@ 203fef38     bg_misc.obj
 0003:00002f48       ??_C@_0N@LBIDFACI@?$CKdef_primary?$AA@ 203fef48     bg_misc.obj
 0003:00002f58       ??_C@_0O@EGEINPEB@?$CKdef_position?$AA@ 203fef58     bg_misc.obj
 0003:00002f68       ??_C@_09PJJIIOPG@?$CKdef_guns?$AA@ 203fef68     bg_misc.obj
 0003:00002f74       ??_C@_0M@ECCLODLO@?$CKatt_second?$AA@ 203fef74     bg_misc.obj
 0003:00002f84       ??_C@_0N@GFADGNOG@?$CKatt_primary?$AA@ 203fef84     bg_misc.obj
 0003:00002f94       ??_C@_0M@MHLPAMFK@?$CKatt_attack?$AA@ 203fef94     bg_misc.obj
 0003:00002fa4       ??_C@_0N@ODJGPHCM@force_shield?$AA@ 203fefa4     bg_misc.obj
 0003:00002fb4       ??_C@_0BI@KPCBHBOL@head_light_blaster_cann?$AA@ 203fefb4     bg_misc.obj
 0003:00002fd0       ??_C@_0BI@FPANAMDK@head_concussion_charger?$AA@ 203fefd0     bg_misc.obj
 0003:00002fec       ??_C@_04NEODDMOL@head?$AA@ 203fefec     bg_misc.obj
 0003:00002ff4       ??_C@_06BCDCLMEB@helmet?$AA@ 203feff4     bg_misc.obj
 0003:00002ffc       ??_C@_06INLMLPMC@r_hand?$AA@ 203feffc     bg_misc.obj
 0003:00003004       ??_C@_06LKFNFIFB@l_hand?$AA@ 203ff004     bg_misc.obj
 0003:0000300c       ??_C@_05DAKMKCAJ@blah5?$AA@ 203ff00c     bg_misc.obj
 0003:00003014       ??_C@_05CJLHJDEI@blah4?$AA@ 203ff014     bg_misc.obj
 0003:0000301c       ??_C@_04DCKHGPHA@nose?$AA@ 203ff01c     bg_misc.obj
 0003:00003024       ??_C@_06KAKLKKDN@l_gear?$AA@ 203ff024     bg_misc.obj
 0003:0000302c       ??_C@_06JHEKENKO@r_gear?$AA@ 203ff02c     bg_misc.obj
 0003:00003034       ??_C@_07DBBACNJN@l_wing2?$AA@ 203ff034     bg_misc.obj
 0003:00003040       ??_C@_07BKDNHOFO@l_wing1?$AA@ 203ff040     bg_misc.obj
 0003:0000304c       ??_C@_07FICBAOIE@r_wing2?$AA@ 203ff04c     bg_misc.obj
 0003:00003058       ??_C@_07HDAMFNEH@r_wing1?$AA@ 203ff058     bg_misc.obj
 0003:00003064       ??_C@_0N@FODOKFMD@torso_collar?$AA@ 203ff064     bg_misc.obj
 0003:00003074       ??_C@_0BB@FPOHHKLE@torso_galaktorso?$AA@ 203ff074     bg_misc.obj
 0003:00003088       ??_C@_0N@IFENOPML@torso_shield?$AA@ 203ff088     bg_misc.obj
 0003:00003098       ??_C@_05IPPEPANF@l_arm?$AA@ 203ff098     bg_misc.obj
 0003:000030a0       ??_C@_05LGCIJDDO@r_arm?$AA@ 203ff0a0     bg_misc.obj
 0003:000030a8       ??_C@_0M@HACAOHEH@torso_tube6?$AA@ 203ff0a8     bg_misc.obj
 0003:000030b8       ??_C@_0M@FLANLEIE@torso_tube5?$AA@ 203ff0b8     bg_misc.obj
 0003:000030c8       ??_C@_0M@ECBGIFMF@torso_tube4?$AA@ 203ff0c8     bg_misc.obj
 0003:000030d8       ??_C@_0M@NFHBDAC@torso_tube3?$AA@ 203ff0d8     bg_misc.obj
 0003:000030e8       ??_C@_0M@BEEMCCED@torso_tube2?$AA@ 203ff0e8     bg_misc.obj
 0003:000030f8       ??_C@_0M@DPGBHBIA@torso_tube1?$AA@ 203ff0f8     bg_misc.obj
 0003:00003108       ??_C@_0BA@DHJPAGAH@torso_canister3?$AA@ 203ff108     bg_misc.obj
 0003:0000311c       ??_C@_0BA@COIEDHEG@torso_canister2?$AA@ 203ff11c     bg_misc.obj
 0003:00003130       ??_C@_0BA@FKJGEIF@torso_canister1?$AA@ 203ff130     bg_misc.obj
 0003:00003144       ??_C@_09EPBMGDBP@l_arm_key?$AA@ 203ff144     bg_misc.obj
 0003:00003150       ?bgToggleableSurfaceDebris@@3QBHB 203ff150     bg_misc.obj
 0003:000031e4       ??_C@_08OEKJENGB@?$CFf?5?$CFf?5?$CFf?$AA@ 203ff1e4     bg_misc.obj
 0003:000031f0       ??_C@_02IKAHHCAI@?$CFi?$AA@ 203ff1f0     bg_misc.obj
 0003:000031f4       ??_C@_03COHLNFKP@?$CFi?9?$AA@ 203ff1f4     bg_misc.obj
 0003:000031f8       ??_C@_0CI@GINMDDBF@5?91?90000000000000000000000000000@ 203ff1f8     bg_misc.obj
 0003:00003228       __real@4076800000000000    203ff228     bg_misc.obj
 0003:00003234       __real@43870000            203ff234     bg_misc.obj
 0003:00003238       __real@42b40000            203ff238     bg_misc.obj
 0003:00003240       __real@400921fb60000000    203ff240     bg_misc.obj
 0003:00003250       __real@4066800000000000    203ff250     bg_misc.obj
 0003:00003260       __real@0000000000000000    203ff260     bg_misc.obj
 0003:0000326c       ??_C@_0BH@MFGKJDLM@HoldableItem?5not?5found?$AA@ 203ff26c     bg_misc.obj
 0003:00003288       ??_C@_0CB@DEACFJO@Couldn?8t?5find?5item?5for?5weapon?5?$CFi@ 203ff288     bg_misc.obj
 0003:000032b0       ??_C@_0BP@LHPKGFBO@Couldn?8t?5find?5item?5for?5ammo?5?$CFi?$AA@ 203ff2b0     bg_misc.obj
 0003:000032d8       __real@c042000000000000    203ff2d8     bg_misc.obj
 0003:000032e8       __real@4042000000000000    203ff2e8     bg_misc.obj
 0003:000032f8       __real@c049000000000000    203ff2f8     bg_misc.obj
 0003:00003308       __real@4046000000000000    203ff308     bg_misc.obj
 0003:00003314       ??_C@_0CG@HNLFCMEK@BG_CanItemBeGrabbed?3?5unknown?5enu@ 203ff314     bg_misc.obj
 0003:00003344       ??_C@_0BM@NECGLAIF@BG_CanItemBeGrabbed?3?5IT_BAD?$AA@ 203ff344     bg_misc.obj
 0003:00003368       ??_C@_0CI@MFONMA@BG_CanItemBeGrabbed?3?5index?5out?5o@ 203ff368     bg_misc.obj
 0003:00003398       ??_C@_0DG@OJMFOFAA@BG_EvaluateTrajectory?3?5?$FLGAME?5SID@ 203ff398     bg_misc.obj
 0003:000033d8       __real@4079000000000000    203ff3d8     bg_misc.obj
 0003:000033e8       __real@4056800000000000    203ff3e8     bg_misc.obj
 0003:000033f8       __real@3f50624de0000000    203ff3f8     bg_misc.obj
 0003:00003408       __real@3f50624dd2f1a9fc    203ff408     bg_misc.obj
 0003:00003414       ??_C@_0CP@MCFPOIMF@BG_EvaluateTrajectoryDelta?3?5unkn@ 203ff414     bg_misc.obj
 0003:00003450       __real@4089000000000000    203ff450     bg_misc.obj
 0003:00003460       __real@3fe0000000000000    203ff460     bg_misc.obj
 0003:0000346c       ??_C@_0DA@FPFAACDM@?5game?5event?5svt?5?$CF5d?5?9?$DO?5?$CF5d?3?5num?5@ 203ff46c     bg_misc.obj
 0003:000034a8       ??_C@_0L@MNPDPHLD@showevents?$AA@ 203ff4a8     bg_misc.obj
 0003:000034b8       ??_C@_01GBGANLPD@0?$AA@    203ff4b8     bg_misc.obj
 0003:000034c0       __real@4046800000000000    203ff4c0     bg_misc.obj
 0003:000034d0       __real@bff0000000000000    203ff4d0     bg_misc.obj
 0003:000034e0       __real@3ff0000000000000    203ff4e0     bg_misc.obj
 0003:000034ec       ??_C@_05LKGOKJFG@fpls3?$AA@ 203ff4ec     bg_misc.obj
 0003:000034f4       ??_C@_05KDHFJIBH@fpls2?$AA@ 203ff4f4     bg_misc.obj
 0003:000034fc       ??_C@_04BEPDCOC@fpls?$AA@  203ff4fc     bg_misc.obj
 0003:00003504       ??_C@_04JIEPAMAO@kyle?$AA@ 203ff504     bg_misc.obj
 0003:0000350c       ??_C@_04EEIGNHLG@menu?$AA@ 203ff50c     bg_misc.obj
 0003:00003514       ??_C@_05GLFHLNLB@_blue?$AA@ 203ff514     bg_misc.obj
 0003:0000351c       ??_C@_0CA@ODGGEHPP@models?1players?1?$CFs?1model_?$CFs?4skin?$AA@ 203ff51c     bg_misc.obj
 0003:00003544       ??_C@_04NCFJPIH@_red?$AA@  203ff544     bg_misc.obj
 0003:0000354c       ??_C@_07DLHCIBDH@default?$AA@ 203ff54c     bg_misc.obj
 0003:00003558       ??_C@_04OBGPFBCN@blue?$AA@ 203ff558     bg_misc.obj
 0003:00003560       ??_C@_03FAAAOPJM@red?$AA@  203ff560     bg_misc.obj
 0003:00003564       __real@3f800000            203ff564     bg_misc.obj
 0003:00003568       ??_C@_05HIOBFLDN@jedi_?$AA@ 203ff568     bg_misc.obj
 0003:00003570       ??_C@_0CJ@BDGLLNGN@BG_Alloc?3?5buffer?5exceeded?5tail?5?$CI@ 203ff570     bg_misc.obj
 0003:000035a4       ??_C@_0DC@MINDOIGG@BG_AllocUnaligned?3?5buffer?5exceed@ 203ff5a4     bg_misc.obj
 0003:000035e0       ??_C@_0CN@JLGNNLBK@BG_TempAlloc?3?5buffer?5exceeded?5he@ 203ff5e0     bg_misc.obj
 0003:00003618       ??_C@_0CO@IIHBNEDD@BG_TempFree?3?5tail?5greater?5than?5s@ 203ff618     bg_misc.obj
 0003:00003650       ??_C@_15DMJFFMOP@?$AAp?$AAs?$AA?$AA@ 203ff650     bg_misc.obj
 0003:00003658       ??_C@_1FA@KLMFIENC@?$AAd?$AA?3?$AA?2?$AAo?$AAj?$AAp?$AA?2?$AAe?$AAn?$AAh?$AAa?$AAn?$AAc?$AAe?$AAd?$AA?2?$AAs?$AAo?$AAu?$AAr?$AAc?$AAe?$AA?2?$AAg?$AAa?$AAm?$AAe?$AA?2?$AAb?$AAg?$AA_?$AAm@ 203ff658     bg_misc.obj
 0003:000036b8       ??_C@_0BB@DLIIJLPK@BOTH_SWEEPKICKED?$AA@ 203ff6b8     bg_panimate.obj
 0003:000036cc       ??_C@_0P@NONIJEBE@BOTH_SWEEPKICK?$AA@ 203ff6cc     bg_panimate.obj
 0003:000036e0       ??_C@_0O@OMEINLAE@BOTH_P7_S1_B_?$AA@ 203ff6e0     bg_panimate.obj
 0003:000036f0       ??_C@_0O@CAOCNLJK@BOTH_P6_S1_B_?$AA@ 203ff6f0     bg_panimate.obj
 0003:00003700       ??_C@_0O@CKCHNCID@BOTH_P1_S1_B_?$AA@ 203ff700     bg_panimate.obj
 0003:00003710       ??_C@_0M@JAIOEHIF@BOTH_CIN_50?$AA@ 203ff710     bg_panimate.obj
 0003:00003720       ??_C@_0M@EAIOJGPL@BOTH_CIN_49?$AA@ 203ff720     bg_panimate.obj
 0003:00003730       ??_C@_0M@FJJFKHLK@BOTH_CIN_48?$AA@ 203ff730     bg_panimate.obj
 0003:00003740       ??_C@_0M@NOANLLHF@BOTH_CIN_47?$AA@ 203ff740     bg_panimate.obj
 0003:00003750       ??_C@_0M@MHBGIKDE@BOTH_CIN_46?$AA@ 203ff750     bg_panimate.obj
 0003:00003760       ??_C@_0M@OMDLNJPH@BOTH_CIN_45?$AA@ 203ff760     bg_panimate.obj
 0003:00003770       ??_C@_0M@PFCAOILG@BOTH_CIN_44?$AA@ 203ff770     bg_panimate.obj
 0003:00003780       ??_C@_0M@LKGBHOHB@BOTH_CIN_43?$AA@ 203ff780     bg_panimate.obj
 0003:00003790       ??_C@_0M@KDHKEPDA@BOTH_CIN_42?$AA@ 203ff790     bg_panimate.obj
 0003:000037a0       ??_C@_0M@IIFHBMPD@BOTH_CIN_41?$AA@ 203ff7a0     bg_panimate.obj
 0003:000037b0       ??_C@_0M@JBEMCNLC@BOTH_CIN_40?$AA@ 203ff7b0     bg_panimate.obj
 0003:000037c0       ??_C@_0M@EFMBIAHO@BOTH_CIN_39?$AA@ 203ff7c0     bg_panimate.obj
 0003:000037d0       ??_C@_0M@FMNKLBDP@BOTH_CIN_38?$AA@ 203ff7d0     bg_panimate.obj
 0003:000037e0       ??_C@_0M@NLECKNPA@BOTH_CIN_37?$AA@ 203ff7e0     bg_panimate.obj
 0003:000037f0       ??_C@_0M@MCFJJMLB@BOTH_CIN_36?$AA@ 203ff7f0     bg_panimate.obj
 0003:00003800       ??_C@_0M@OJHEMPHC@BOTH_CIN_35?$AA@ 203ff800     bg_panimate.obj
 0003:00003810       ??_C@_0M@PAGPPODD@BOTH_CIN_34?$AA@ 203ff810     bg_panimate.obj
 0003:00003820       ??_C@_0M@LPCOGIPE@BOTH_CIN_33?$AA@ 203ff820     bg_panimate.obj
 0003:00003830       ??_C@_0M@KGDFFJLF@BOTH_CIN_32?$AA@ 203ff830     bg_panimate.obj
 0003:00003840       ??_C@_0M@INBIAKHG@BOTH_CIN_31?$AA@ 203ff840     bg_panimate.obj
 0003:00003850       ??_C@_0M@JEADDLDH@BOTH_CIN_30?$AA@ 203ff850     bg_panimate.obj
 0003:00003860       ??_C@_0M@EEADOKEJ@BOTH_CIN_29?$AA@ 203ff860     bg_panimate.obj
 0003:00003870       ??_C@_0M@FNBINLAI@BOTH_CIN_28?$AA@ 203ff870     bg_panimate.obj
 0003:00003880       ??_C@_0M@NKIAMHMH@BOTH_CIN_27?$AA@ 203ff880     bg_panimate.obj
 0003:00003890       ??_C@_0M@MDJLPGIG@BOTH_CIN_26?$AA@ 203ff890     bg_panimate.obj
 0003:000038a0       ??_C@_0M@OILGKFEF@BOTH_CIN_25?$AA@ 203ff8a0     bg_panimate.obj
 0003:000038b0       ??_C@_0M@PBKNJEAE@BOTH_CIN_24?$AA@ 203ff8b0     bg_panimate.obj
 0003:000038c0       ??_C@_0M@LOOMACMD@BOTH_CIN_23?$AA@ 203ff8c0     bg_panimate.obj
 0003:000038d0       ??_C@_0M@KHPHDDIC@BOTH_CIN_22?$AA@ 203ff8d0     bg_panimate.obj
 0003:000038e0       ??_C@_0M@IMNKGAEB@BOTH_CIN_21?$AA@ 203ff8e0     bg_panimate.obj
 0003:000038f0       ??_C@_0M@JFMBFBAA@BOTH_CIN_20?$AA@ 203ff8f0     bg_panimate.obj
 0003:00003900       ??_C@_0M@EGEFFEBA@BOTH_CIN_19?$AA@ 203ff900     bg_panimate.obj
 0003:00003910       ??_C@_0M@FPFOGFFB@BOTH_CIN_18?$AA@ 203ff910     bg_panimate.obj
 0003:00003920       ??_C@_0M@NIMGHJJO@BOTH_CIN_17?$AA@ 203ff920     bg_panimate.obj
 0003:00003930       ??_C@_0M@MBNNEINP@BOTH_CIN_16?$AA@ 203ff930     bg_panimate.obj
 0003:00003940       ??_C@_0M@OKPABLBM@BOTH_CIN_15?$AA@ 203ff940     bg_panimate.obj
 0003:00003950       ??_C@_0M@PDOLCKFN@BOTH_CIN_14?$AA@ 203ff950     bg_panimate.obj
 0003:00003960       ??_C@_0M@LMKKLMJK@BOTH_CIN_13?$AA@ 203ff960     bg_panimate.obj
 0003:00003970       ??_C@_0M@KFLBINNL@BOTH_CIN_12?$AA@ 203ff970     bg_panimate.obj
 0003:00003980       ??_C@_0M@IOJMNOBI@BOTH_CIN_11?$AA@ 203ff980     bg_panimate.obj
 0003:00003990       ??_C@_0M@JHIHOPFJ@BOTH_CIN_10?$AA@ 203ff990     bg_panimate.obj
 0003:000039a0       ??_C@_0L@LLDGGLKP@BOTH_CIN_9?$AA@ 203ff9a0     bg_panimate.obj
 0003:000039b0       ??_C@_0L@KCCNFKOO@BOTH_CIN_8?$AA@ 203ff9b0     bg_panimate.obj
 0003:000039c0       ??_C@_0L@CFLFEGCB@BOTH_CIN_7?$AA@ 203ff9c0     bg_panimate.obj
 0003:000039d0       ??_C@_0L@DMKOHHGA@BOTH_CIN_6?$AA@ 203ff9d0     bg_panimate.obj
 0003:000039e0       ??_C@_0L@BHIDCEKD@BOTH_CIN_5?$AA@ 203ff9e0     bg_panimate.obj
 0003:000039f0       ??_C@_0L@OJIBFOC@BOTH_CIN_4?$AA@ 203ff9f0     bg_panimate.obj
 0003:00003a00       ??_C@_0L@EBNJIDCF@BOTH_CIN_3?$AA@ 203ffa00     bg_panimate.obj
 0003:00003a10       ??_C@_0L@FIMCLCGE@BOTH_CIN_2?$AA@ 203ffa10     bg_panimate.obj
 0003:00003a20       ??_C@_0L@HDOPOBKH@BOTH_CIN_1?$AA@ 203ffa20     bg_panimate.obj
 0003:00003a30       ??_C@_0BI@BOCBGNDA@BOTH_SABERDESANN_STANCE?$AA@ 203ffa30     bg_panimate.obj
 0003:00003a4c       ??_C@_0BI@HFIIMGKB@BOTH_SABERTAVION_STANCE?$AA@ 203ffa4c     bg_panimate.obj
 0003:00003a68       ??_C@_0BE@GNJJNMBI@BOTH_LEDGE_MERCPULL?$AA@ 203ffa68     bg_panimate.obj
 0003:00003a80       ??_C@_0BB@POANIEBE@BOTH_LEDGE_RIGHT?$AA@ 203ffa80     bg_panimate.obj
 0003:00003a94       ??_C@_0BA@MHCKFGEE@BOTH_LEDGE_LEFT?$AA@ 203ffa94     bg_panimate.obj
 0003:00003aa8       ??_C@_0BA@BKECIHGH@BOTH_LEDGE_HOLD?$AA@ 203ffaa8     bg_panimate.obj
 0003:00003abc       ??_C@_0BA@GEODKLCB@BOTH_LEDGE_GRAB?$AA@ 203ffabc     bg_panimate.obj
 0003:00003ad0       ??_C@_0N@MEGKIHKK@LEGS_TURN180?$AA@ 203ffad0     bg_panimate.obj
 0003:00003ae0       ??_C@_0N@EEPPLEKL@LEGS_S7_RUP5?$AA@ 203ffae0     bg_panimate.obj
 0003:00003af0       ??_C@_0N@FNOEIFOK@LEGS_S7_RUP4?$AA@ 203ffaf0     bg_panimate.obj
 0003:00003b00       ??_C@_0N@BCKFBDCN@LEGS_S7_RUP3?$AA@ 203ffb00     bg_panimate.obj
 0003:00003b10       ??_C@_0N@LLOCCGM@LEGS_S7_RUP2?$AA@ 203ffb10     bg_panimate.obj
 0003:00003b20       ??_C@_0N@CAJDHBKP@LEGS_S7_RUP1?$AA@ 203ffb20     bg_panimate.obj
 0003:00003b30       ??_C@_0N@JLCPJNEI@LEGS_S7_LUP5?$AA@ 203ffb30     bg_panimate.obj
 0003:00003b40       ??_C@_0N@ICDEKMAJ@LEGS_S7_LUP4?$AA@ 203ffb40     bg_panimate.obj
 0003:00003b50       ??_C@_0N@MNHFDKMO@LEGS_S7_LUP3?$AA@ 203ffb50     bg_panimate.obj
 0003:00003b60       ??_C@_0N@NEGOALIP@LEGS_S7_LUP2?$AA@ 203ffb60     bg_panimate.obj
 0003:00003b70       ??_C@_0N@PPEDFIEM@LEGS_S7_LUP1?$AA@ 203ffb70     bg_panimate.obj
 0003:00003b80       ??_C@_0N@OCIILPBP@LEGS_S6_RUP5?$AA@ 203ffb80     bg_panimate.obj
 0003:00003b90       ??_C@_0N@PLJDIOFO@LEGS_S6_RUP4?$AA@ 203ffb90     bg_panimate.obj
 0003:00003ba0       ??_C@_0N@LENCBIJJ@LEGS_S6_RUP3?$AA@ 203ffba0     bg_panimate.obj
 0003:00003bb0       ??_C@_0N@KNMJCJNI@LEGS_S6_RUP2?$AA@ 203ffbb0     bg_panimate.obj
 0003:00003bc0       ??_C@_0N@IGOEHKBL@LEGS_S6_RUP1?$AA@ 203ffbc0     bg_panimate.obj
 0003:00003bd0       ??_C@_0N@DNFIJGPM@LEGS_S6_LUP5?$AA@ 203ffbd0     bg_panimate.obj
 0003:00003be0       ??_C@_0N@CEEDKHLN@LEGS_S6_LUP4?$AA@ 203ffbe0     bg_panimate.obj
 0003:00003bf0       ??_C@_0N@GLACDBHK@LEGS_S6_LUP3?$AA@ 203ffbf0     bg_panimate.obj
 0003:00003c00       ??_C@_0N@HCBJAADL@LEGS_S6_LUP2?$AA@ 203ffc00     bg_panimate.obj
 0003:00003c10       ??_C@_0N@FJDEFDPI@LEGS_S6_LUP1?$AA@ 203ffc10     bg_panimate.obj
 0003:00003c20       ??_C@_0N@NDGAKFIC@LEGS_S5_RUP5?$AA@ 203ffc20     bg_panimate.obj
 0003:00003c30       ??_C@_0N@MKHLJEMD@LEGS_S5_RUP4?$AA@ 203ffc30     bg_panimate.obj
 0003:00003c40       ??_C@_0N@IFDKACAE@LEGS_S5_RUP3?$AA@ 203ffc40     bg_panimate.obj
 0003:00003c50       ??_C@_0N@JMCBDDEF@LEGS_S5_RUP2?$AA@ 203ffc50     bg_panimate.obj
 0003:00003c60       ??_C@_0N@LHAMGAIG@LEGS_S5_RUP1?$AA@ 203ffc60     bg_panimate.obj
 0003:00003c70       ??_C@_0N@MLAIMGB@LEGS_S5_LUP5?$AA@ 203ffc70     bg_panimate.obj
 0003:00003c80       ??_C@_0N@BFKLLNCA@LEGS_S5_LUP4?$AA@ 203ffc80     bg_panimate.obj
 0003:00003c90       ??_C@_0N@FKOKCLOH@LEGS_S5_LUP3?$AA@ 203ffc90     bg_panimate.obj
 0003:00003ca0       ??_C@_0N@EDPBBKKG@LEGS_S5_LUP2?$AA@ 203ffca0     bg_panimate.obj
 0003:00003cb0       ??_C@_0N@GINMEJGF@LEGS_S5_LUP1?$AA@ 203ffcb0     bg_panimate.obj
 0003:00003cc0       ??_C@_0N@HFBHKODG@LEGS_S4_RUP5?$AA@ 203ffcc0     bg_panimate.obj
 0003:00003cd0       ??_C@_0N@GMAMJPHH@LEGS_S4_RUP4?$AA@ 203ffcd0     bg_panimate.obj
 0003:00003ce0       ??_C@_0N@CDENAJLA@LEGS_S4_RUP3?$AA@ 203ffce0     bg_panimate.obj
 0003:00003cf0       ??_C@_0N@DKFGDIPB@LEGS_S4_RUP2?$AA@ 203ffcf0     bg_panimate.obj
 0003:00003d00       ??_C@_0N@BBHLGLDC@LEGS_S4_RUP1?$AA@ 203ffd00     bg_panimate.obj
 0003:00003d10       ??_C@_0N@KKMHIHNF@LEGS_S4_LUP5?$AA@ 203ffd10     bg_panimate.obj
 0003:00003d20       ??_C@_0N@LDNMLGJE@LEGS_S4_LUP4?$AA@ 203ffd20     bg_panimate.obj
 0003:00003d30       ??_C@_0N@PMJNCAFD@LEGS_S4_LUP3?$AA@ 203ffd30     bg_panimate.obj
 0003:00003d40       ??_C@_0N@OFIGBBBC@LEGS_S4_LUP2?$AA@ 203ffd40     bg_panimate.obj
 0003:00003d50       ??_C@_0N@MOKLECNB@LEGS_S4_LUP1?$AA@ 203ffd50     bg_panimate.obj
 0003:00003d60       ??_C@_0N@LALAJALI@LEGS_S3_RUP5?$AA@ 203ffd60     bg_panimate.obj
 0003:00003d70       ??_C@_0N@KJKLKBPJ@LEGS_S3_RUP4?$AA@ 203ffd70     bg_panimate.obj
 0003:00003d80       ??_C@_0N@OGOKDHDO@LEGS_S3_RUP3?$AA@ 203ffd80     bg_panimate.obj
 0003:00003d90       ??_C@_0N@PPPBAGHP@LEGS_S3_RUP2?$AA@ 203ffd90     bg_panimate.obj
 0003:00003da0       ??_C@_0N@NENMFFLM@LEGS_S3_RUP1?$AA@ 203ffda0     bg_panimate.obj
 0003:00003db0       ??_C@_0N@GPGALJFL@LEGS_S3_LUP5?$AA@ 203ffdb0     bg_panimate.obj
 0003:00003dc0       ??_C@_0N@HGHLIIBK@LEGS_S3_LUP4?$AA@ 203ffdc0     bg_panimate.obj
 0003:00003dd0       ??_C@_0N@DJDKBONN@LEGS_S3_LUP3?$AA@ 203ffdd0     bg_panimate.obj
 0003:00003de0       ??_C@_0N@CACBCPJM@LEGS_S3_LUP2?$AA@ 203ffde0     bg_panimate.obj
 0003:00003df0       ??_C@_0N@LAMHMFP@LEGS_S3_LUP1?$AA@ 203ffdf0     bg_panimate.obj
 0003:00003e00       ??_C@_0N@CHCPIBJB@LEGS_S1_RUP5?$AA@ 203ffe00     bg_panimate.obj
 0003:00003e10       ??_C@_0N@DODELANA@LEGS_S1_RUP4?$AA@ 203ffe10     bg_panimate.obj
 0003:00003e20       ??_C@_0N@HBHFCGBH@LEGS_S1_RUP3?$AA@ 203ffe20     bg_panimate.obj
 0003:00003e30       ??_C@_0N@GIGOBHFG@LEGS_S1_RUP2?$AA@ 203ffe30     bg_panimate.obj
 0003:00003e40       ??_C@_0N@EDEDEEJF@LEGS_S1_RUP1?$AA@ 203ffe40     bg_panimate.obj
 0003:00003e50       ??_C@_0N@PIPPKIHC@LEGS_S1_LUP5?$AA@ 203ffe50     bg_panimate.obj
 0003:00003e60       ??_C@_0N@OBOEJJDD@LEGS_S1_LUP4?$AA@ 203ffe60     bg_panimate.obj
 0003:00003e70       ??_C@_0N@KOKFAPPE@LEGS_S1_LUP3?$AA@ 203ffe70     bg_panimate.obj
 0003:00003e80       ??_C@_0N@LHLODOLF@LEGS_S1_LUP2?$AA@ 203ffe80     bg_panimate.obj
 0003:00003e90       ??_C@_0N@JMJDGNHG@LEGS_S1_LUP1?$AA@ 203ffe90     bg_panimate.obj
 0003:00003ea0       ??_C@_0O@PPAOPDJO@LEGS_RIGHTUP5?$AA@ 203ffea0     bg_panimate.obj
 0003:00003eb0       ??_C@_0O@OGBFMCNP@LEGS_RIGHTUP4?$AA@ 203ffeb0     bg_panimate.obj
 0003:00003ec0       ??_C@_0O@KJFEFEBI@LEGS_RIGHTUP3?$AA@ 203ffec0     bg_panimate.obj
 0003:00003ed0       ??_C@_0O@LAEPGFFJ@LEGS_RIGHTUP2?$AA@ 203ffed0     bg_panimate.obj
 0003:00003ee0       ??_C@_0O@JLGCDGJK@LEGS_RIGHTUP1?$AA@ 203ffee0     bg_panimate.obj
 0003:00003ef0       ??_C@_0N@DBAKPANN@LEGS_LEFTUP5?$AA@ 203ffef0     bg_panimate.obj
 0003:00003f00       ??_C@_0N@CIBBMBJM@LEGS_LEFTUP4?$AA@ 203fff00     bg_panimate.obj
 0003:00003f10       ??_C@_0N@GHFAFHFL@LEGS_LEFTUP3?$AA@ 203fff10     bg_panimate.obj
 0003:00003f20       ??_C@_0N@HOELGGBK@LEGS_LEFTUP2?$AA@ 203fff20     bg_panimate.obj
 0003:00003f30       ??_C@_0N@FFGGDFNJ@LEGS_LEFTUP1?$AA@ 203fff30     bg_panimate.obj
 0003:00003f40       ??_C@_0O@FPAJGKKH@LEGS_CHOKING1?$AA@ 203fff40     bg_panimate.obj
 0003:00003f50       ??_C@_0BB@HCNNJMLM@LEGS_LEAN_RIGHT1?$AA@ 203fff50     bg_panimate.obj
 0003:00003f64       ??_C@_0BA@MCADBFIF@LEGS_LEAN_LEFT1?$AA@ 203fff64     bg_panimate.obj
 0003:00003f78       ??_C@_0L@BFOCDDKC@LEGS_TURN2?$AA@ 203fff78     bg_panimate.obj
 0003:00003f88       ??_C@_0L@DOMPGAGB@LEGS_TURN1?$AA@ 203fff88     bg_panimate.obj
 0003:00003f98       ??_C@_0BC@FAHFKMOC@TORSO_HANDSIGNAL5?$AA@ 203fff98     bg_panimate.obj
 0003:00003fb0       ??_C@_0BC@EJGOJNKD@TORSO_HANDSIGNAL4?$AA@ 203fffb0     bg_panimate.obj
 0003:00003fc8       ??_C@_0BC@GCPALGE@TORSO_HANDSIGNAL3?$AA@ 203fffc8     bg_panimate.obj
 0003:00003fe0       ??_C@_0BC@BPDEDKCF@TORSO_HANDSIGNAL2?$AA@ 203fffe0     bg_panimate.obj
 0003:00003ff8       ??_C@_0BC@DEBJGJOG@TORSO_HANDSIGNAL1?$AA@ 203ffff8     bg_panimate.obj
 0003:00004010       ??_C@_0P@EDGDJEAA@TORSO_CHOKING1?$AA@ 20400010     bg_panimate.obj
 0003:00004024       ??_C@_0BF@CAMHOBIG@TORSO_SURRENDER_STOP?$AA@ 20400024     bg_panimate.obj
 0003:00004040       ??_C@_0BG@DJHHNKPJ@TORSO_SURRENDER_START?$AA@ 20400040     bg_panimate.obj
 0003:0000405c       ??_C@_0BD@IPNKJOGP@TORSO_WEAPONIDLE10?$AA@ 2040005c     bg_panimate.obj
 0003:00004074       ??_C@_0BC@OEKOFEDF@TORSO_WEAPONIDLE4?$AA@ 20400074     bg_panimate.obj
 0003:0000408c       ??_C@_0BC@KLOPMCPC@TORSO_WEAPONIDLE3?$AA@ 2040008c     bg_panimate.obj
 0003:000040a4       ??_C@_0BC@LCPEPDLD@TORSO_WEAPONIDLE2?$AA@ 204000a4     bg_panimate.obj
 0003:000040bc       ??_C@_0BE@PLMMDJNI@TORSO_WEAPONREADY10?$AA@ 204000bc     bg_panimate.obj
 0003:000040d4       ??_C@_0BD@EDNLHJLG@TORSO_WEAPONREADY4?$AA@ 204000d4     bg_panimate.obj
 0003:000040ec       ??_C@_0BD@MJKOPHB@TORSO_WEAPONREADY3?$AA@ 204000ec     bg_panimate.obj
 0003:00004104       ??_C@_0BD@BFIBNODA@TORSO_WEAPONREADY2?$AA@ 20400104     bg_panimate.obj
 0003:0000411c       ??_C@_0BD@DOKMINPD@TORSO_WEAPONREADY1?$AA@ 2040011c     bg_panimate.obj
 0003:00004134       ??_C@_0BB@JNFLGAHH@TORSO_RAISEWEAP4?$AA@ 20400134     bg_panimate.obj
 0003:00004148       ??_C@_0BB@OACMJEDC@TORSO_RAISEWEAP1?$AA@ 20400148     bg_panimate.obj
 0003:0000415c       ??_C@_0BA@CHPACHPA@TORSO_DROPWEAP4?$AA@ 2040015c     bg_panimate.obj
 0003:00004170       ??_C@_0BA@FKIHNDLF@TORSO_DROPWEAP1?$AA@ 20400170     bg_panimate.obj
 0003:00004184       ??_C@_09LOFMHEDG@BOTH_SIT7?$AA@ 20400184     bg_panimate.obj
 0003:00004190       ??_C@_09KHEHEFHH@BOTH_SIT6?$AA@ 20400190     bg_panimate.obj
 0003:0000419c       ??_C@_0BA@KMDIIEBA@BOTH_SIT5_TALK3?$AA@ 2040019c     bg_panimate.obj
 0003:000041b0       ??_C@_0BA@LFCDLFFB@BOTH_SIT5_TALK2?$AA@ 204001b0     bg_panimate.obj
 0003:000041c4       ??_C@_0BA@JOAOOGJC@BOTH_SIT5_TALK1?$AA@ 204001c4     bg_panimate.obj
 0003:000041d8       ??_C@_09IMGKBGLE@BOTH_SIT5?$AA@ 204001d8     bg_panimate.obj
 0003:000041e4       ??_C@_09JFHBCHPF@BOTH_SIT4?$AA@ 204001e4     bg_panimate.obj
 0003:000041f0       ??_C@_0BC@HMBKLJMI@BOTH_STAND1_TALK3?$AA@ 204001f0     bg_panimate.obj
 0003:00004208       ??_C@_0BC@GFABIIIJ@BOTH_STAND1_TALK2?$AA@ 20400208     bg_panimate.obj
 0003:00004220       ??_C@_0BC@EOCMNLEK@BOTH_STAND1_TALK1?$AA@ 20400220     bg_panimate.obj
 0003:00004238       ??_C@_0BF@EILOIEKG@BOTH_STAND10TOSTAND1?$AA@ 20400238     bg_panimate.obj
 0003:00004254       ??_C@_0BD@BPMBLEGP@BOTH_STAND10_TALK2?$AA@ 20400254     bg_panimate.obj
 0003:0000426c       ??_C@_0BD@DEOMOHKM@BOTH_STAND10_TALK1?$AA@ 2040026c     bg_panimate.obj
 0003:00004284       ??_C@_0N@EGCBKCBH@BOTH_STAND10?$AA@ 20400284     bg_panimate.obj
 0003:00004294       ??_C@_0BD@KFKLMKIP@BOTH_SONICPAIN_END?$AA@ 20400294     bg_panimate.obj
 0003:000042ac       ??_C@_0BE@KHIIENBG@BOTH_SONICPAIN_HOLD?$AA@ 204002ac     bg_panimate.obj
 0003:000042c4       ??_C@_0BF@LOEEPGJI@BOTH_SONICPAIN_START?$AA@ 204002c4     bg_panimate.obj
 0003:000042e0       ??_C@_0BB@JEOPOJAL@BOTH_COWER1_STOP?$AA@ 204002e0     bg_panimate.obj
 0003:000042f4       ??_C@_0M@EAAAAKHE@BOTH_COWER1?$AA@ 204002f4     bg_panimate.obj
 0003:00004304       ??_C@_0BC@KKMKANGM@BOTH_COWER1_START?$AA@ 20400304     bg_panimate.obj
 0003:0000431c       ??_C@_0BC@KDENGKBK@BOTH_TUSKENTAUNT1?$AA@ 2040031c     bg_panimate.obj
 0003:00004334       ??_C@_0BC@BIOHNIGA@BOTH_TUSKENLUNGE1?$AA@ 20400334     bg_panimate.obj
 0003:0000434c       ??_C@_0BD@NFLDJLNC@BOTH_TUSKENATTACK3?$AA@ 2040034c     bg_panimate.obj
 0003:00004364       ??_C@_0BD@MMKIKKJD@BOTH_TUSKENATTACK2?$AA@ 20400364     bg_panimate.obj
 0003:0000437c       ??_C@_0BD@OHIFPJFA@BOTH_TUSKENATTACK1?$AA@ 2040037c     bg_panimate.obj
 0003:00004394       ??_C@_0BE@OBEECCKH@BOTH_KNEEL_TO_STAND?$AA@ 20400394     bg_panimate.obj
 0003:000043ac       ??_C@_0BE@FLPJEFCO@BOTH_STAND_TO_KNEEL?$AA@ 204003ac     bg_panimate.obj
 0003:000043c4       ??_C@_09FOHPNOGF@BOTH_WIND?$AA@ 204003c4     bg_panimate.obj
 0003:000043d0       ??_C@_0BI@GLAHPFBH@BOTH_FORCE_PROTECT_FAST?$AA@ 204003d0     bg_panimate.obj
 0003:000043ec       ??_C@_0BD@FFPOEFNG@BOTH_FORCE_PROTECT?$AA@ 204003ec     bg_panimate.obj
 0003:00004404       ??_C@_0BG@CBNCOJEH@BOTH_FORCE_ABSORB_END?$AA@ 20400404     bg_panimate.obj
 0003:00004420       ??_C@_0BI@BPAAFONF@BOTH_FORCE_ABSORB_START?$AA@ 20400420     bg_panimate.obj
 0003:0000443c       ??_C@_0BC@HHGANHBC@BOTH_FORCE_ABSORB?$AA@ 2040043c     bg_panimate.obj
 0003:00004454       ??_C@_0BJ@GKPDEPNJ@BOTH_FORCE_DRAIN_GRABBED?$AA@ 20400454     bg_panimate.obj
 0003:00004474       ??_C@_0BK@POJHMFNL@BOTH_FORCE_DRAIN_GRAB_END?$AA@ 20400474     bg_panimate.obj
 0003:00004494       ??_C@_0BL@MLNFOEPE@BOTH_FORCE_DRAIN_GRAB_HOLD?$AA@ 20400494     bg_panimate.obj
 0003:000044b4       ??_C@_0BM@PACMCIGF@BOTH_FORCE_DRAIN_GRAB_START?$AA@ 204004b4     bg_panimate.obj
 0003:000044d8       ??_C@_0BJ@OBGKFMHF@BOTH_FORCE_DRAIN_RELEASE?$AA@ 204004d8     bg_panimate.obj
 0003:000044f8       ??_C@_0BG@JCLNDPPK@BOTH_FORCE_DRAIN_HOLD?$AA@ 204004f8     bg_panimate.obj
 0003:00004514       ??_C@_0BH@BHMNGNLJ@BOTH_FORCE_DRAIN_START?$AA@ 20400514     bg_panimate.obj
 0003:00004530       ??_C@_0BB@NHPCBMHH@BOTH_FORCE_DRAIN?$AA@ 20400530     bg_panimate.obj
 0003:00004544       ??_C@_0CE@NFLNPDNI@BOTH_FORCE_2HANDEDLIGHTNING_RELE@ 20400544     bg_panimate.obj
 0003:00004570       ??_C@_0CB@MNKHBDGA@BOTH_FORCE_2HANDEDLIGHTNING_HOLD@ 20400570     bg_panimate.obj
 0003:00004598       ??_C@_0CC@HEIANMP@BOTH_FORCE_2HANDEDLIGHTNING_STAR@ 20400598     bg_panimate.obj
 0003:000045c0       ??_C@_0BM@OPHDEJED@BOTH_FORCE_2HANDEDLIGHTNING?$AA@ 204005c0     bg_panimate.obj
 0003:000045e4       ??_C@_0BA@GLJOFMJL@BOTH_FORCE_RAGE?$AA@ 204005e4     bg_panimate.obj
 0003:000045f8       ??_C@_0L@GCDIADMB@BOTH_TOSS2?$AA@ 204005f8     bg_panimate.obj
 0003:00004608       ??_C@_0L@EJBFFAAC@BOTH_TOSS1?$AA@ 20400608     bg_panimate.obj
 0003:00004618       ??_C@_0BH@JFCMGCAP@BOTH_FORCEGRIP_RELEASE?$AA@ 20400618     bg_panimate.obj
 0003:00004634       ??_C@_0BE@JLIMFCGH@BOTH_FORCEGRIP_HOLD?$AA@ 20400634     bg_panimate.obj
 0003:0000464c       ??_C@_0BF@BAAGEEBG@BOTH_FORCEGRIP3THROW?$AA@ 2040064c     bg_panimate.obj
 0003:00004668       ??_C@_0BA@CBKDJPAH@BOTH_FORCEGRIP3?$AA@ 20400668     bg_panimate.obj
 0003:0000467c       ??_C@_0BA@BDJFPNIF@BOTH_FORCEGRIP1?$AA@ 2040067c     bg_panimate.obj
 0003:00004690       ??_C@_0P@PONJILD@BOTH_SABERPULL?$AA@ 20400690     bg_panimate.obj
 0003:000046a4       ??_C@_0BF@DKJODMIL@BOTH_FORCEHEAL_QUICK?$AA@ 204006a4     bg_panimate.obj
 0003:000046c0       ??_C@_0BE@GNHNNEFM@BOTH_FORCEHEAL_STOP?$AA@ 204006c0     bg_panimate.obj
 0003:000046d8       ??_C@_0BF@FPDMFLAG@BOTH_FORCEHEAL_START?$AA@ 204006d8     bg_panimate.obj
 0003:000046f4       ??_C@_0BM@GCBAKCPL@BOTH_FORCELIGHTNING_RELEASE?$AA@ 204006f4     bg_panimate.obj
 0003:00004718       ??_C@_0BJ@KCFBGHIB@BOTH_FORCELIGHTNING_HOLD?$AA@ 20400718     bg_panimate.obj
 0003:00004738       ??_C@_0BK@NACKCJFF@BOTH_FORCELIGHTNING_START?$AA@ 20400738     bg_panimate.obj
 0003:00004758       ??_C@_0BE@OEAHGILF@BOTH_FORCELIGHTNING?$AA@ 20400758     bg_panimate.obj
 0003:00004770       ??_C@_0BA@KMPKOPAN@BOTH_MINDTRICK2?$AA@ 20400770     bg_panimate.obj
 0003:00004784       ??_C@_0BA@IHNHLMMO@BOTH_MINDTRICK1?$AA@ 20400784     bg_panimate.obj
 0003:00004798       ??_C@_0P@HBADPLP@BOTH_FORCEPULL?$AA@ 20400798     bg_panimate.obj
 0003:000047ac       ??_C@_0P@HEAGBOPG@BOTH_FORCEPUSH?$AA@ 204007ac     bg_panimate.obj
 0003:000047c0       ??_C@_0BA@IBNLMMOO@BOTH_RESISTPUSH?$AA@ 204007c0     bg_panimate.obj
 0003:000047d4       ??_C@_0BE@BFLOBGOL@BOTH_BUTTON_RELEASE?$AA@ 204007d4     bg_panimate.obj
 0003:000047ec       ??_C@_0BB@FCMBEPCD@BOTH_BUTTON_HOLD?$AA@ 204007ec     bg_panimate.obj
 0003:00004800       ??_C@_0N@JDJGEOPD@BOTH_BUTTON2?$AA@ 20400800     bg_panimate.obj
 0003:00004810       ??_C@_0N@LILLBNDA@BOTH_BUTTON1?$AA@ 20400810     bg_panimate.obj
 0003:00004820       ??_C@_0N@JAALPHCL@BOTH_TURNOFF?$AA@ 20400820     bg_panimate.obj
 0003:00004830       ??_C@_0M@ODIMNEKC@BOTH_TURNON?$AA@ 20400830     bg_panimate.obj
 0003:00004840       ??_C@_0O@CAGOCCAO@BOTH_POWERUP1?$AA@ 20400840     bg_panimate.obj
 0003:00004850       ??_C@_0M@MGBFEGML@BOTH_CHOKE3?$AA@ 20400850     bg_panimate.obj
 0003:00004860       ??_C@_0M@NPAOHHIK@BOTH_CHOKE2?$AA@ 20400860     bg_panimate.obj
 0003:00004870       ??_C@_0M@PECDCEEJ@BOTH_CHOKE1?$AA@ 20400870     bg_panimate.obj
 0003:00004880       ??_C@_0BF@ICMFFJIF@BOTH_CHOKE1STARTHOLD?$AA@ 20400880     bg_panimate.obj
 0003:0000489c       ??_C@_0BB@OFKGJANF@BOTH_CHOKE1START?$AA@ 2040089c     bg_panimate.obj
 0003:000048b0       ??_C@_0BC@NPNJMHGC@BOTH_SLEEP1GETUP2?$AA@ 204008b0     bg_panimate.obj
 0003:000048c8       ??_C@_0BB@HBPPPACM@BOTH_SLEEP1GETUP?$AA@ 204008c8     bg_panimate.obj
 0003:000048dc       ??_C@_0BA@CINKHNGE@BOTH_SLEEP6STOP?$AA@ 204008dc     bg_panimate.obj
 0003:000048f0       ??_C@_0BB@HHHLEEDB@BOTH_SLEEP6START?$AA@ 204008f0     bg_panimate.obj
 0003:00004904       ??_C@_0M@LIOOPEJI@BOTH_SLEEP1?$AA@ 20400904     bg_panimate.obj
 0003:00004914       ??_C@_0BC@LJIHFCKB@BOTH_SWIMBACKWARD?$AA@ 20400914     bg_panimate.obj
 0003:0000492c       ??_C@_0BB@FOFCFDFI@BOTH_SWIMFORWARD?$AA@ 2040092c     bg_panimate.obj
 0003:00004940       ??_C@_0BA@PIGFMLPF@BOTH_SWIM_IDLE1?$AA@ 20400940     bg_panimate.obj
 0003:00004954       ??_C@_0BC@ODIBALPH@BOTH_FLY_SHIELDED?$AA@ 20400954     bg_panimate.obj
 0003:0000496c       ??_C@_0BB@OMHFJNGP@BOTH_LADDER_IDLE?$AA@ 2040096c     bg_panimate.obj
 0003:00004980       ??_C@_0BB@BOJOMJDD@BOTH_LADDER_DWN1?$AA@ 20400980     bg_panimate.obj
 0003:00004994       ??_C@_0BA@ILKIBIOO@BOTH_LADDER_UP1?$AA@ 20400994     bg_panimate.obj
 0003:000049a8       ??_C@_09PPDGHFCD@BOTH_HIT1?$AA@ 204009a8     bg_panimate.obj
 0003:000049b4       ??_C@_0P@EHILJFLF@BOTH_HANG_PAIN?$AA@ 204009b4     bg_panimate.obj
 0003:000049c8       ??_C@_0BB@CKCHJINN@BOTH_HANG_ATTACK?$AA@ 204009c8     bg_panimate.obj
 0003:000049dc       ??_C@_0P@PIJKILFE@BOTH_HANG_IDLE?$AA@ 204009dc     bg_panimate.obj
 0003:000049f0       ??_C@_0O@LAAPIANC@BOTH_RELEASED?$AA@ 204009f0     bg_panimate.obj
 0003:00004a00       ??_C@_0N@CFDAGGFP@BOTH_GRABBED?$AA@ 20400a00     bg_panimate.obj
 0003:00004a10       ??_C@_0P@PLIENJJJ@BOTH_HOLD_DROP?$AA@ 20400a10     bg_panimate.obj
 0003:00004a24       ??_C@_0BA@KJAIIPAE@BOTH_HOLD_SNIFF?$AA@ 20400a24     bg_panimate.obj
 0003:00004a38       ??_C@_0BB@EFCJFPCD@BOTH_HOLD_ATTACK?$AA@ 20400a38     bg_panimate.obj
 0003:00004a4c       ??_C@_0O@HFIKEJBB@BOTH_HOLD_END?$AA@ 20400a4c     bg_panimate.obj
 0003:00004a5c       ??_C@_0P@EDJFENCG@BOTH_HOLD_IDLE?$AA@ 20400a5c     bg_panimate.obj
 0003:00004a70       ??_C@_0P@EPJNGCKB@BOTH_HOLD_MISS?$AA@ 20400a70     bg_panimate.obj
 0003:00004a84       ??_C@_0BA@CFDHFDLH@BOTH_HOLD_START?$AA@ 20400a84     bg_panimate.obj
 0003:00004a98       ??_C@_0BA@NKEMKFLI@BOTH_BUCK_RIDER?$AA@ 20400a98     bg_panimate.obj
 0003:00004aac       ??_C@_0BF@HCPCIHAG@BOTH_PLAYER_PA_3_FLY?$AA@ 20400aac     bg_panimate.obj
 0003:00004ac8       ??_C@_0BB@KIHONIOP@BOTH_PLAYER_PA_3?$AA@ 20400ac8     bg_panimate.obj
 0003:00004adc       ??_C@_0P@OMCEAAPC@BOTH_KYLE_PA_3?$AA@ 20400adc     bg_panimate.obj
 0003:00004af0       ??_C@_0BD@BPPGNPKM@BOTH_PLAYER_PA_FLY?$AA@ 20400af0     bg_panimate.obj
 0003:00004b08       ??_C@_0BB@LBGFOJKO@BOTH_PLAYER_PA_2?$AA@ 20400b08     bg_panimate.obj
 0003:00004b1c       ??_C@_0P@PFDPDBLD@BOTH_KYLE_PA_2?$AA@ 20400b1c     bg_panimate.obj
 0003:00004b30       ??_C@_0BB@JKEILKGN@BOTH_PLAYER_PA_1?$AA@ 20400b30     bg_panimate.obj
 0003:00004b44       ??_C@_0P@NOBCGCHA@BOTH_KYLE_PA_1?$AA@ 20400b44     bg_panimate.obj
 0003:00004b58       ??_C@_0P@NNAHOJON@BOTH_KYLE_MISS?$AA@ 20400b58     bg_panimate.obj
 0003:00004b6c       ??_C@_0P@FMNEHFNM@BOTH_KYLE_GRAB?$AA@ 20400b6c     bg_panimate.obj
 0003:00004b80       ??_C@_0BC@MELKBIFA@BOTH_SCEPTER_STOP?$AA@ 20400b80     bg_panimate.obj
 0003:00004b98       ??_C@_0BC@HIHKAHFB@BOTH_SCEPTER_HOLD?$AA@ 20400b98     bg_panimate.obj
 0003:00004bb0       ??_C@_0BD@FGCDNAOB@BOTH_SCEPTER_START?$AA@ 20400bb0     bg_panimate.obj
 0003:00004bc8       ??_C@_0BH@HFIAAKKL@BOTH_TAVION_SWORDPOWER?$AA@ 20400bc8     bg_panimate.obj
 0003:00004be4       ??_C@_0BK@NBGHMOBL@BOTH_TAVION_SCEPTERGROUND?$AA@ 20400be4     bg_panimate.obj
 0003:00004c04       ??_C@_0P@ENOEHDDL@BOTH_ROSH_HEAL?$AA@ 20400c04     bg_panimate.obj
 0003:00004c18       ??_C@_0P@KODDALBF@BOTH_ROSH_PAIN?$AA@ 20400c18     bg_panimate.obj
 0003:00004c2c       ??_C@_0BB@JJKGACDG@BOTH_ALORA_TAUNT?$AA@ 20400c2c     bg_panimate.obj
 0003:00004c40       ??_C@_0BG@DCFBCKEL@BOTH_ALORA_SPIN_SLASH?$AA@ 20400c40     bg_panimate.obj
 0003:00004c5c       ??_C@_0BG@EABOBAMI@BOTH_ALORA_SPIN_THROW?$AA@ 20400c5c     bg_panimate.obj
 0003:00004c78       ??_C@_0BC@FIDADFOL@BOTH_ALORA_FLIP_B?$AA@ 20400c78     bg_panimate.obj
 0003:00004c90       ??_C@_0BC@GOBEHNFM@BOTH_ALORA_FLIP_3?$AA@ 20400c90     bg_panimate.obj
 0003:00004ca8       ??_C@_0BC@HHAPEMBN@BOTH_ALORA_FLIP_2?$AA@ 20400ca8     bg_panimate.obj
 0003:00004cc0       ??_C@_0BC@FMCCBPNO@BOTH_ALORA_FLIP_1?$AA@ 20400cc0     bg_panimate.obj
 0003:00004cd8       ??_C@_0BA@IMOMKPBA@BOTH_ALORA_SPIN?$AA@ 20400cd8     bg_panimate.obj
 0003:00004cec       ??_C@_0N@NLKPNJAP@BOTH_A7_HILT?$AA@ 20400cec     bg_panimate.obj
 0003:00004cfc       ??_C@_0L@PNLACCAF@BOTH_A6_LR?$AA@ 20400cfc     bg_panimate.obj
 0003:00004d0c       ??_C@_0L@LKOFLFIC@BOTH_A6_FB?$AA@ 20400d0c     bg_panimate.obj
 0003:00004d1c       ??_C@_0BA@ECEJJOCF@BOTH_DUAL_TAUNT?$AA@ 20400d1c     bg_panimate.obj
 0003:00004d30       ??_C@_0BB@IIJAHOAM@BOTH_STAFF_TAUNT?$AA@ 20400d30     bg_panimate.obj
 0003:00004d44       ??_C@_0BA@NPLLAIGE@BOTH_LOSE_SABER?$AA@ 20400d44     bg_panimate.obj
 0003:00004d58       ??_C@_0BC@BJEPANJA@BOTH_BACK_FLIP_UP?$AA@ 20400d58     bg_panimate.obj
 0003:00004d70       ??_C@_0BD@HFLMOBFH@BOTH_BUTTERFLY_FL1?$AA@ 20400d70     bg_panimate.obj
 0003:00004d88       ??_C@_0BD@GDAEGPCN@BOTH_BUTTERFLY_FR1?$AA@ 20400d88     bg_panimate.obj
 0003:00004da0       ??_C@_0O@HINNODAG@BOTH_ARIAL_F1?$AA@ 20400da0     bg_panimate.obj
 0003:00004db0       ??_C@_0N@PBBFIKGE@BOTH_BASHED1?$AA@ 20400db0     bg_panimate.obj
 0003:00004dc0       ??_C@_0BM@ELFFAKLF@BOTH_DEFLECTSLASH__R__L_FIN?$AA@ 20400dc0     bg_panimate.obj
 0003:00004de4       ??_C@_0BJ@PHBNOEEM@BOTH_RIGHTHANDCHOPPEDOFF?$AA@ 20400de4     bg_panimate.obj
 0003:00004e04       ??_C@_0BA@CDEAMOMG@BOTH_FJSS_TL_BR?$AA@ 20400e04     bg_panimate.obj
 0003:00004e18       ??_C@_0BA@CINBNIPK@BOTH_FJSS_TR_BL?$AA@ 20400e18     bg_panimate.obj
 0003:00004e2c       ??_C@_0BC@GKKAPGJM@BOTH_CEILING_DROP?$AA@ 20400e2c     bg_panimate.obj
 0003:00004e44       ??_C@_0BD@LHONGOKG@BOTH_CEILING_CLING?$AA@ 20400e44     bg_panimate.obj
 0003:00004e5c       ??_C@_0L@JNPKOHDB@BOTH_SPIN1?$AA@ 20400e5c     bg_panimate.obj
 0003:00004e6c       ??_C@_0BF@ECAKIGBB@BOTH_WALL_FLIP_BACK2?$AA@ 20400e6c     bg_panimate.obj
 0003:00004e88       ??_C@_0BF@GJCHNFNC@BOTH_WALL_FLIP_BACK1?$AA@ 20400e88     bg_panimate.obj
 0003:00004ea4       ??_C@_0BD@EOHNHFLF@BOTH_GETUP_FROLL_R?$AA@ 20400ea4     bg_panimate.obj
 0003:00004ebc       ??_C@_0BD@JKDMEKGK@BOTH_GETUP_FROLL_L?$AA@ 20400ebc     bg_panimate.obj
 0003:00004ed4       ??_C@_0BD@GANDKCOA@BOTH_GETUP_FROLL_F?$AA@ 20400ed4     bg_panimate.obj
 0003:00004eec       ??_C@_0BD@ELPGHOE@BOTH_GETUP_FROLL_B?$AA@ 20400eec     bg_panimate.obj
 0003:00004f04       ??_C@_0BD@MKDHHLEP@BOTH_GETUP_BROLL_R?$AA@ 20400f04     bg_panimate.obj
 0003:00004f1c       ??_C@_0BD@BOHGEEJA@BOTH_GETUP_BROLL_L?$AA@ 20400f1c     bg_panimate.obj
 0003:00004f34       ??_C@_0BD@OEJJKMBK@BOTH_GETUP_BROLL_F?$AA@ 20400f34     bg_panimate.obj
 0003:00004f4c       ??_C@_0BD@IAPFGJBO@BOTH_GETUP_BROLL_B?$AA@ 20400f4c     bg_panimate.obj
 0003:00004f64       ??_C@_0BE@FMMHDLNN@BOTH_FORCE_GETUP_B6?$AA@ 20400f64     bg_panimate.obj
 0003:00004f7c       ??_C@_0BE@HHOKGIBO@BOTH_FORCE_GETUP_B5?$AA@ 20400f7c     bg_panimate.obj
 0003:00004f94       ??_C@_0BE@GOPBFJFP@BOTH_FORCE_GETUP_B4?$AA@ 20400f94     bg_panimate.obj
 0003:00004fac       ??_C@_0BE@CBLAMPJI@BOTH_FORCE_GETUP_B3?$AA@ 20400fac     bg_panimate.obj
 0003:00004fc4       ??_C@_0BE@DIKLPONJ@BOTH_FORCE_GETUP_B2?$AA@ 20400fc4     bg_panimate.obj
 0003:00004fdc       ??_C@_0BE@BDIGKNBK@BOTH_FORCE_GETUP_B1?$AA@ 20400fdc     bg_panimate.obj
 0003:00004ff4       ??_C@_0BE@DPKCFGAF@BOTH_FORCE_GETUP_F2?$AA@ 20400ff4     bg_panimate.obj
 0003:0000500c       ??_C@_0BE@BEIPAFMG@BOTH_FORCE_GETUP_F1?$AA@ 2040100c     bg_panimate.obj
 0003:00005024       ??_C@_0BF@MJANPMOM@BOTH_GETUP_CROUCH_B1?$AA@ 20401024     bg_panimate.obj
 0003:00005040       ??_C@_0BF@MOAEFEDA@BOTH_GETUP_CROUCH_F1?$AA@ 20401040     bg_panimate.obj
 0003:0000505c       ??_C@_0M@GFIFDBCE@BOTH_GETUP5?$AA@ 2040105c     bg_panimate.obj
 0003:0000506c       ??_C@_0M@HMJOAAGF@BOTH_GETUP4?$AA@ 2040106c     bg_panimate.obj
 0003:0000507c       ??_C@_0M@DDNPJGKC@BOTH_GETUP3?$AA@ 2040107c     bg_panimate.obj
 0003:0000508c       ??_C@_0M@CKMEKHOD@BOTH_GETUP2?$AA@ 2040108c     bg_panimate.obj
 0003:0000509c       ??_C@_0M@BOJPECA@BOTH_GETUP1?$AA@ 2040109c     bg_panimate.obj
 0003:000050ac       ??_C@_0BA@OGIFEPII@BOTH_KNOCKDOWN5?$AA@ 204010ac     bg_panimate.obj
 0003:000050c0       ??_C@_0BA@PPJOHOMJ@BOTH_KNOCKDOWN4?$AA@ 204010c0     bg_panimate.obj
 0003:000050d4       ??_C@_0BA@LANPOIAO@BOTH_KNOCKDOWN3?$AA@ 204010d4     bg_panimate.obj
 0003:000050e8       ??_C@_0BA@KJMENJEP@BOTH_KNOCKDOWN2?$AA@ 204010e8     bg_panimate.obj
 0003:000050fc       ??_C@_0BA@ICOJIKIM@BOTH_KNOCKDOWN1?$AA@ 204010fc     bg_panimate.obj
 0003:00005110       ??_C@_0BE@ILAKMJOK@BOTH_WALL_FLIP_LEFT?$AA@ 20401110     bg_panimate.obj
 0003:00005128       ??_C@_0BF@MPCPCKGE@BOTH_WALL_FLIP_RIGHT?$AA@ 20401128     bg_panimate.obj
 0003:00005144       ??_C@_0BI@ICEHPAIN@BOTH_WALL_RUN_LEFT_STOP?$AA@ 20401144     bg_panimate.obj
 0003:00005160       ??_C@_0BI@LLGHOLLN@BOTH_WALL_RUN_LEFT_FLIP?$AA@ 20401160     bg_panimate.obj
 0003:0000517c       ??_C@_0BD@FOKEEMMD@BOTH_WALL_RUN_LEFT?$AA@ 2040117c     bg_panimate.obj
 0003:00005194       ??_C@_0BJ@KEGEKGBP@BOTH_WALL_RUN_RIGHT_STOP?$AA@ 20401194     bg_panimate.obj
 0003:000051b4       ??_C@_0BJ@JNEELNCP@BOTH_WALL_RUN_RIGHT_FLIP?$AA@ 204011b4     bg_panimate.obj
 0003:000051d4       ??_C@_0BE@INEIBMIN@BOTH_WALL_RUN_RIGHT?$AA@ 204011d4     bg_panimate.obj
 0003:000051ec       ??_C@_0BF@JMFKBIFE@BOTH_BUTTERFLY_RIGHT?$AA@ 204011ec     bg_panimate.obj
 0003:00005208       ??_C@_0BE@ENKLMJBI@BOTH_BUTTERFLY_LEFT?$AA@ 20401208     bg_panimate.obj
 0003:00005220       ??_C@_0BA@NNNINNPE@BOTH_FLIP_BACK3?$AA@ 20401220     bg_panimate.obj
 0003:00005234       ??_C@_0BA@MEMDOMLF@BOTH_FLIP_BACK2?$AA@ 20401234     bg_panimate.obj
 0003:00005248       ??_C@_0BA@OPOOLPHG@BOTH_FLIP_BACK1?$AA@ 20401248     bg_panimate.obj
 0003:0000525c       ??_C@_0P@JBLCLJDK@BOTH_FLIP_LEFT?$AA@ 2040125c     bg_panimate.obj
 0003:00005270       ??_C@_0BF@NLFLOFGE@BOTH_CARTWHEEL_RIGHT?$AA@ 20401270     bg_panimate.obj
 0003:0000528c       ??_C@_0BE@POJJIGPG@BOTH_CARTWHEEL_LEFT?$AA@ 2040128c     bg_panimate.obj
 0003:000052a4       ??_C@_0BB@HOMELNKD@BOTH_ARIAL_RIGHT?$AA@ 204012a4     bg_panimate.obj
 0003:000052b8       ??_C@_0BA@GLHECKNB@BOTH_ARIAL_LEFT?$AA@ 204012b8     bg_panimate.obj
 0003:000052cc       ??_C@_0BD@JOGFDMEG@BOTH_VICTORY_STAFF?$AA@ 204012cc     bg_panimate.obj
 0003:000052e4       ??_C@_0BC@OIFMFNP@BOTH_VICTORY_DUAL?$AA@ 204012e4     bg_panimate.obj
 0003:000052fc       ??_C@_0BE@HEECKLDL@BOTH_VICTORY_STRONG?$AA@ 204012fc     bg_panimate.obj
 0003:00005314       ??_C@_0BE@KLHOAEHD@BOTH_VICTORY_MEDIUM?$AA@ 20401314     bg_panimate.obj
 0003:0000532c       ??_C@_0BC@DGIHLJDA@BOTH_VICTORY_FAST?$AA@ 2040132c     bg_panimate.obj
 0003:00005344       ??_C@_0BD@PAPJANE@BOTH_SHOWOFF_STAFF?$AA@ 20401344     bg_panimate.obj
 0003:0000535c       ??_C@_0BC@EFMAJB@BOTH_SHOWOFF_DUAL?$AA@ 2040135c     bg_panimate.obj
 0003:00005374       ??_C@_0BE@GKNCDDPP@BOTH_SHOWOFF_STRONG?$AA@ 20401374     bg_panimate.obj
 0003:0000538c       ??_C@_0BE@LFOOJMLH@BOTH_SHOWOFF_MEDIUM?$AA@ 2040138c     bg_panimate.obj
 0003:000053a4       ??_C@_0BC@DIEHLMHO@BOTH_SHOWOFF_FAST?$AA@ 204013a4     bg_panimate.obj
 0003:000053bc       ??_C@_0BC@DILNBIJM@BOTH_MEDITATE_END?$AA@ 204013bc     bg_panimate.obj
 0003:000053d4       ??_C@_0O@NBLEPMIO@BOTH_MEDITATE?$AA@ 204013d4     bg_panimate.obj
 0003:000053e4       ??_C@_08CINMJMPG@BOTH_BOW?$AA@ 204013e4     bg_panimate.obj
 0003:000053f0       ??_C@_0BB@EBJHHEMP@BOTH_ENGAGETAUNT?$AA@ 204013f0     bg_panimate.obj
 0003:00005404       ??_C@_0BC@GDJJMPG@BOTH_DODGE_HOLD_R?$AA@ 20401404     bg_panimate.obj
 0003:0000541c       ??_C@_0BC@NCHIKDCJ@BOTH_DODGE_HOLD_L?$AA@ 2040141c     bg_panimate.obj
 0003:00005434       ??_C@_0BD@MAHDPCBD@BOTH_DODGE_HOLD_BR?$AA@ 20401434     bg_panimate.obj
 0003:0000544c       ??_C@_0BD@BEDCMNMM@BOTH_DODGE_HOLD_BL?$AA@ 2040144c     bg_panimate.obj
 0003:00005464       ??_C@_0BD@MHHKFKMP@BOTH_DODGE_HOLD_FR?$AA@ 20401464     bg_panimate.obj
 0003:0000547c       ??_C@_0BD@BDDLGFBA@BOTH_DODGE_HOLD_FL?$AA@ 2040147c     bg_panimate.obj
 0003:00005494       ??_C@_0N@KFGFCJLJ@BOTH_DODGE_R?$AA@ 20401494     bg_panimate.obj
 0003:000054a4       ??_C@_0N@HBCEBGGG@BOTH_DODGE_L?$AA@ 204014a4     bg_panimate.obj
 0003:000054b4       ??_C@_0O@CGLDPCKH@BOTH_DODGE_BR?$AA@ 204014b4     bg_panimate.obj
 0003:000054c4       ??_C@_0O@PCPCMNHI@BOTH_DODGE_BL?$AA@ 204014c4     bg_panimate.obj
 0003:000054d4       ??_C@_0O@CBLKFKHL@BOTH_DODGE_FR?$AA@ 204014d4     bg_panimate.obj
 0003:000054e4       ??_C@_0O@PFPLGFKE@BOTH_DODGE_FL?$AA@ 204014e4     bg_panimate.obj
 0003:000054f4       ??_C@_0L@GIHOPMAM@BOTH_HOP_R?$AA@ 204014f4     bg_panimate.obj
 0003:00005504       ??_C@_0L@LMDPMDND@BOTH_HOP_L?$AA@ 20401504     bg_panimate.obj
 0003:00005514       ??_C@_0L@CCLMOOFN@BOTH_HOP_B?$AA@ 20401514     bg_panimate.obj
 0003:00005524       ??_C@_0L@EGNACLFJ@BOTH_HOP_F?$AA@ 20401524     bg_panimate.obj
 0003:00005534       ??_C@_0M@KNJJNPCA@BOTH_ROLL_R?$AA@ 20401534     bg_panimate.obj
 0003:00005544       ??_C@_0M@HJNIOAPP@BOTH_ROLL_L?$AA@ 20401544     bg_panimate.obj
 0003:00005554       ??_C@_0M@OHFLMNHB@BOTH_ROLL_B?$AA@ 20401554     bg_panimate.obj
 0003:00005564       ??_C@_0M@IDDHAIHF@BOTH_ROLL_F?$AA@ 20401564     bg_panimate.obj
 0003:00005574       ??_C@_0M@GKLDHCAE@BOTH_FLIP_R?$AA@ 20401574     bg_panimate.obj
 0003:00005584       ??_C@_0M@LOPCENNL@BOTH_FLIP_L?$AA@ 20401584     bg_panimate.obj
 0003:00005594       ??_C@_0M@CAHBGAFF@BOTH_FLIP_B?$AA@ 20401594     bg_panimate.obj
 0003:000055a4       ??_C@_0M@EEBNKFFB@BOTH_FLIP_F?$AA@ 204015a4     bg_panimate.obj
 0003:000055b4       ??_C@_0BF@GPIHFNCP@BOTH_FORCELANDRIGHT1?$AA@ 204015b4     bg_panimate.obj
 0003:000055d0       ??_C@_0BG@OPKMFNMD@BOTH_FORCEINAIRRIGHT1?$AA@ 204015d0     bg_panimate.obj
 0003:000055ec       ??_C@_0BF@GIALLFOK@BOTH_FORCEJUMPRIGHT1?$AA@ 204015ec     bg_panimate.obj
 0003:00005608       ??_C@_0BE@CPNCOCJF@BOTH_FORCELANDLEFT1?$AA@ 20401608     bg_panimate.obj
 0003:00005620       ??_C@_0BF@GBLFMFAA@BOTH_FORCEINAIRLEFT1?$AA@ 20401620     bg_panimate.obj
 0003:0000563c       ??_C@_0BE@MOPODOJB@BOTH_FORCEJUMPLEFT1?$AA@ 2040163c     bg_panimate.obj
 0003:00005654       ??_C@_0BE@MAPMDBFK@BOTH_FORCELANDBACK1?$AA@ 20401654     bg_panimate.obj
 0003:0000566c       ??_C@_0BF@IOJLBGMP@BOTH_FORCEINAIRBACK1?$AA@ 2040166c     bg_panimate.obj
 0003:00005688       ??_C@_0BE@CBNAONFO@BOTH_FORCEJUMPBACK1?$AA@ 20401688     bg_panimate.obj
 0003:000056a0       ??_C@_0BA@NIOKNDAB@BOTH_FORCELAND1?$AA@ 204016a0     bg_panimate.obj
 0003:000056b4       ??_C@_0BB@CIEHHKPA@BOTH_FORCEINAIR1?$AA@ 204016b4     bg_panimate.obj
 0003:000056c8       ??_C@_0BA@JCEJKFBM@BOTH_FORCEJUMP1?$AA@ 204016c8     bg_panimate.obj
 0003:000056dc       ??_C@_0BA@CAAEDJLF@BOTH_LANDRIGHT1?$AA@ 204016dc     bg_panimate.obj
 0003:000056f0       ??_C@_0BB@PPDJKEPN@BOTH_INAIRRIGHT1?$AA@ 204016f0     bg_panimate.obj
 0003:00005704       ??_C@_0BA@CHIINBHA@BOTH_JUMPRIGHT1?$AA@ 20401704     bg_panimate.obj
 0003:00005718       ??_C@_0P@HDEECKDG@BOTH_LANDLEFT1?$AA@ 20401718     bg_panimate.obj
 0003:0000572c       ??_C@_0BA@CODGKBJK@BOTH_INAIRLEFT1?$AA@ 2040172c     bg_panimate.obj
 0003:00005740       ??_C@_0P@JCGIPGDC@BOTH_JUMPLEFT1?$AA@ 20401740     bg_panimate.obj
 0003:00005754       ??_C@_0P@JMGKPJPJ@BOTH_LANDBACK1?$AA@ 20401754     bg_panimate.obj
 0003:00005768       ??_C@_0BA@MBBIHCFF@BOTH_INAIRBACK1?$AA@ 20401768     bg_panimate.obj
 0003:0000577c       ??_C@_0P@HNEGCFPN@BOTH_JUMPBACK1?$AA@ 2040177c     bg_panimate.obj
 0003:00005790       ??_C@_0L@IJJHAHOB@BOTH_LAND2?$AA@ 20401790     bg_panimate.obj
 0003:000057a0       ??_C@_0L@KCLKFECC@BOTH_LAND1?$AA@ 204017a0     bg_panimate.obj
 0003:000057b0       ??_C@_0M@IKFKFLAF@BOTH_INAIR1?$AA@ 204017b0     bg_panimate.obj
 0003:000057c0       ??_C@_0L@OIBJCCDP@BOTH_JUMP1?$AA@ 204017c0     bg_panimate.obj
 0003:000057d0       ??_C@_0O@GFMMDEIN@BOTH_RUNBACK2?$AA@ 204017d0     bg_panimate.obj
 0003:000057e0       ??_C@_0O@EOOBGHEO@BOTH_RUNBACK1?$AA@ 204017e0     bg_panimate.obj
 0003:000057f0       ??_C@_0P@NMGEKHLB@BOTH_WALKBACK2?$AA@ 204017f0     bg_panimate.obj
 0003:00005804       ??_C@_0P@PHEJPEHC@BOTH_WALKBACK1?$AA@ 20401804     bg_panimate.obj
 0003:00005818       ??_C@_0BB@PGPEJHBN@BOTH_TURNCROUCH1?$AA@ 20401818     bg_panimate.obj
 0003:0000582c       ??_C@_0BA@KBOEGPN@BOTH_TURNSTAND5?$AA@ 2040182c     bg_panimate.obj
 0003:00005840       ??_C@_0BA@BDAFHHLM@BOTH_TURNSTAND4?$AA@ 20401840     bg_panimate.obj
 0003:00005854       ??_C@_0BA@FMEEOBHL@BOTH_TURNSTAND3?$AA@ 20401854     bg_panimate.obj
 0003:00005868       ??_C@_0BA@EFFPNADK@BOTH_TURNSTAND2?$AA@ 20401868     bg_panimate.obj
 0003:0000587c       ??_C@_0BA@GOHCIDPJ@BOTH_TURNSTAND1?$AA@ 2040187c     bg_panimate.obj
 0003:00005890       ??_C@_0BB@NDKEEJJD@BOTH_TURN_RIGHT1?$AA@ 20401890     bg_panimate.obj
 0003:000058a4       ??_C@_0BA@GKEFEECE@BOTH_TURN_LEFT1?$AA@ 204018a4     bg_panimate.obj
 0003:000058b8       ??_C@_0BG@OGEKFCND@BOTH_RUNSTRAFE_RIGHT1?$AA@ 204018b8     bg_panimate.obj
 0003:000058d4       ??_C@_0BF@DBPGPOAM@BOTH_RUNSTRAFE_LEFT1?$AA@ 204018d4     bg_panimate.obj
 0003:000058f0       ??_C@_0BD@LFCECKKK@BOTH_STRAFE_RIGHT1?$AA@ 204018f0     bg_panimate.obj
 0003:00005908       ??_C@_0BC@OMBNLHPO@BOTH_STRAFE_LEFT1?$AA@ 20401908     bg_panimate.obj
 0003:00005920       ??_C@_0BC@KOJINEFM@BOTH_RUNBACK_DUAL?$AA@ 20401920     bg_panimate.obj
 0003:00005938       ??_C@_0O@NLDNHDFF@BOTH_RUN_DUAL?$AA@ 20401938     bg_panimate.obj
 0003:00005948       ??_C@_0BD@OKHEPDMN@BOTH_RUNBACK_STAFF?$AA@ 20401948     bg_panimate.obj
 0003:00005960       ??_C@_0P@JDNNOOMO@BOTH_RUN_STAFF?$AA@ 20401960     bg_panimate.obj
 0003:00005974       ??_C@_09KDGPMAME@BOTH_RUN4?$AA@ 20401974     bg_panimate.obj
 0003:00005980       ??_C@_0BA@DGLFAIMM@BOTH_RUN2TORUN1?$AA@ 20401980     bg_panimate.obj
 0003:00005994       ??_C@_0BA@JDBHFMOM@BOTH_RUN1TORUN2?$AA@ 20401994     bg_panimate.obj
 0003:000059a8       ??_C@_09PFDFGHEC@BOTH_RUN2?$AA@ 204019a8     bg_panimate.obj
 0003:000059b4       ??_C@_0O@GPFGEBNP@BOTH_RUN1STOP?$AA@ 204019b4     bg_panimate.obj
 0003:000059c4       ??_C@_0P@CLIPKCAJ@BOTH_RUN1START?$AA@ 204019c4     bg_panimate.obj
 0003:000059d8       ??_C@_09NOBIDEIB@BOTH_RUN1?$AA@ 204019d8     bg_panimate.obj
 0003:000059e4       ??_C@_0L@DMKEIOEK@BOTH_WALK7?$AA@ 204019e4     bg_panimate.obj
 0003:000059f4       ??_C@_0L@CFLPLPAL@BOTH_WALK6?$AA@ 204019f4     bg_panimate.obj
 0003:00005a04       ??_C@_0L@OJCOMMI@BOTH_WALK5?$AA@ 20401a04     bg_panimate.obj
 0003:00005a14       ??_C@_0BD@DPFDKICF@BOTH_WALKBACK_DUAL?$AA@ 20401a14     bg_panimate.obj
 0003:00005a2c       ??_C@_0P@GCJFOAGJ@BOTH_WALK_DUAL?$AA@ 20401a2c     bg_panimate.obj
 0003:00005a40       ??_C@_0BE@MDDMPBCJ@BOTH_WALKBACK_STAFF?$AA@ 20401a40     bg_panimate.obj
 0003:00005a58       ??_C@_0BA@LMALDKNK@BOTH_WALK_STAFF?$AA@ 20401a58     bg_panimate.obj
 0003:00005a6c       ??_C@_0L@EBNDHKAP@BOTH_WALK2?$AA@ 20401a6c     bg_panimate.obj
 0003:00005a7c       ??_C@_0L@GKPOCJMM@BOTH_WALK1?$AA@ 20401a7c     bg_panimate.obj
 0003:00005a8c       ??_C@_0P@OGCNLGGI@BOTH_KNEES2TO1?$AA@ 20401a8c     bg_panimate.obj
 0003:00005aa0       ??_C@_0M@IIHMGKKA@BOTH_KNEES2?$AA@ 20401aa0     bg_panimate.obj
 0003:00005ab0       ??_C@_0M@KDFBDJGD@BOTH_KNEES1?$AA@ 20401ab0     bg_panimate.obj
 0003:00005ac0       ??_C@_0BD@FOKLKMPB@BOTH_DEATH14_SITUP?$AA@ 20401ac0     bg_panimate.obj
 0003:00005ad8       ??_C@_0BE@KHOKHMOE@BOTH_DEATH14_UNGRIP?$AA@ 20401ad8     bg_panimate.obj
 0003:00005af0       ??_C@_0BB@KCBPOOGE@BOTH_WINGS_CLOSE?$AA@ 20401af0     bg_panimate.obj
 0003:00005b04       ??_C@_0BA@FDONEPNA@BOTH_WINGS_OPEN?$AA@ 20401b04     bg_panimate.obj
 0003:00005b18       ??_C@_0BB@LDEBMNOM@BOTH_GEARS_CLOSE?$AA@ 20401b18     bg_panimate.obj
 0003:00005b2c       ??_C@_0BA@MMFJLAL@BOTH_GEARS_OPEN?$AA@ 20401b2c     bg_panimate.obj
 0003:00005b40       ??_C@_0O@GFAOOOBE@BOTH_VT_ATF_G?$AA@ 20401b40     bg_panimate.obj
 0003:00005b50       ??_C@_0O@KLDAOHA@BOTH_VT_ATL_G?$AA@ 20401b50     bg_panimate.obj
 0003:00005b60       ??_C@_0O@LKHFCONM@BOTH_VT_ATR_G?$AA@ 20401b60     bg_panimate.obj
 0003:00005b70       ??_C@_0BD@KBPDPJPM@BOTH_VT_ATL_TO_R_S?$AA@ 20401b70     bg_panimate.obj
 0003:00005b88       ??_C@_0BD@HFDHEALD@BOTH_VT_ATR_TO_L_S?$AA@ 20401b88     bg_panimate.obj
 0003:00005ba0       ??_C@_0O@JENLPJIJ@BOTH_VT_ATR_S?$AA@ 20401ba0     bg_panimate.obj
 0003:00005bb0       ??_C@_0O@CEBNNJCF@BOTH_VT_ATL_S?$AA@ 20401bb0     bg_panimate.obj
 0003:00005bc0       ??_C@_0P@JDHAFDKN@BOTH_VT_IDLE_T?$AA@ 20401bc0     bg_panimate.obj
 0003:00005bd4       ??_C@_0P@PCJPBCDP@BOTH_VT_IDLE_G?$AA@ 20401bd4     bg_panimate.obj
 0003:00005be8       ??_C@_0P@NMDBMFGK@BOTH_VT_IDLE_S?$AA@ 20401be8     bg_panimate.obj
 0003:00005bfc       ??_C@_0O@OONEODEJ@BOTH_VT_IDLE1?$AA@ 20401bfc     bg_panimate.obj
 0003:00005c0c       ??_C@_0N@ILFMGFDI@BOTH_VT_IDLE?$AA@ 20401c0c     bg_panimate.obj
 0003:00005c1c       ??_C@_0BA@CFDGIGFF@BOTH_VT_IDLE_SR?$AA@ 20401c1c     bg_panimate.obj
 0003:00005c30       ??_C@_0BA@PBHHLJIK@BOTH_VT_IDLE_SL?$AA@ 20401c30     bg_panimate.obj
 0003:00005c44       ??_C@_0O@ICJCOGP@BOTH_VT_TURBO?$AA@ 20401c44     bg_panimate.obj
 0003:00005c54       ??_C@_0N@GOPNPPFF@BOTH_VT_LAND?$AA@ 20401c54     bg_panimate.obj
 0003:00005c64       ??_C@_0N@IBPGAOGA@BOTH_VT_BUCK?$AA@ 20401c64     bg_panimate.obj
 0003:00005c74       ??_C@_0O@IAAOOPLJ@BOTH_VT_STAND?$AA@ 20401c74     bg_panimate.obj
 0003:00005c84       ??_C@_0P@CICNDPJE@BOTH_VT_DEATH1?$AA@ 20401c84     bg_panimate.obj
 0003:00005c98       ??_C@_0O@DJGGCALJ@BOTH_VT_PAIN1?$AA@ 20401c98     bg_panimate.obj
 0003:00005ca8       ??_C@_0M@KDHKMBFE@BOTH_VT_ATB?$AA@ 20401ca8     bg_panimate.obj
 0003:00005cb8       ??_C@_0M@PNEGODCG@BOTH_VT_AIR?$AA@ 20401cb8     bg_panimate.obj
 0003:00005cc8       ??_C@_0P@KFJEKMCA@BOTH_VT_SLIDEF?$AA@ 20401cc8     bg_panimate.obj
 0003:00005cdc       ??_C@_0BC@GNCPOJGJ@BOTH_VT_RUN_FWD_R?$AA@ 20401cdc     bg_panimate.obj
 0003:00005cf4       ??_C@_0BC@LJGONGLG@BOTH_VT_RUN_FWD_L?$AA@ 20401cf4     bg_panimate.obj
 0003:00005d0c       ??_C@_0BA@CMHLNAGB@BOTH_VT_RUN_REV?$AA@ 20401d0c     bg_panimate.obj
 0003:00005d20       ??_C@_0BA@JEFGBHGE@BOTH_VT_RUN_FWD?$AA@ 20401d20     bg_panimate.obj
 0003:00005d34       ??_C@_0BD@KHNHPFPI@BOTH_VT_WALK_FWD_R?$AA@ 20401d34     bg_panimate.obj
 0003:00005d4c       ??_C@_0BD@HDJGMKCH@BOTH_VT_WALK_FWD_L?$AA@ 20401d4c     bg_panimate.obj
 0003:00005d64       ??_C@_0BB@EAPIENEI@BOTH_VT_WALK_REV?$AA@ 20401d64     bg_panimate.obj
 0003:00005d78       ??_C@_0BB@PINFIKEN@BOTH_VT_WALK_FWD?$AA@ 20401d78     bg_panimate.obj
 0003:00005d8c       ??_C@_0BD@OJHHNNHG@BOTH_VT_DISMOUNT_R?$AA@ 20401d8c     bg_panimate.obj
 0003:00005da4       ??_C@_0BD@DNDGOCKJ@BOTH_VT_DISMOUNT_L?$AA@ 20401da4     bg_panimate.obj
 0003:00005dbc       ??_C@_0BB@ICMLAFCL@BOTH_VT_DISMOUNT?$AA@ 20401dbc     bg_panimate.obj
 0003:00005dd0       ??_C@_0BA@GEKLNCCD@BOTH_VT_MOUNT_B?$AA@ 20401dd0     bg_panimate.obj
 0003:00005de4       ??_C@_0BA@COGJMAHC@BOTH_VT_MOUNT_R?$AA@ 20401de4     bg_panimate.obj
 0003:00005df8       ??_C@_0BA@PKCIPPKN@BOTH_VT_MOUNT_L?$AA@ 20401df8     bg_panimate.obj
 0003:00005e0c       ??_C@_0O@DDKDCJKA@BOTH_VS_PAIN1?$AA@ 20401e0c     bg_panimate.obj
 0003:00005e1c       ??_C@_0O@GPMLOHAN@BOTH_VS_ATF_G?$AA@ 20401e1c     bg_panimate.obj
 0003:00005e2c       ??_C@_0O@HGAHGJ@BOTH_VS_ATL_G?$AA@ 20401e2c     bg_panimate.obj
 0003:00005e3c       ??_C@_0O@LALACHMF@BOTH_VS_ATR_G?$AA@ 20401e3c     bg_panimate.obj
 0003:00005e4c       ??_C@_0BD@NMIAPPKE@BOTH_VS_ATL_TO_R_S?$AA@ 20401e4c     bg_panimate.obj
 0003:00005e64       ??_C@_0BD@IEEEGOL@BOTH_VS_ATR_TO_L_S?$AA@ 20401e64     bg_panimate.obj
 0003:00005e7c       ??_C@_0O@JOBOPAJA@BOTH_VS_ATR_S?$AA@ 20401e7c     bg_panimate.obj
 0003:00005e8c       ??_C@_0O@CONINADM@BOTH_VS_ATL_S?$AA@ 20401e8c     bg_panimate.obj
 0003:00005e9c       ??_C@_0BB@IEDLHMEE@BOTH_VS_LEANR_SR?$AA@ 20401e9c     bg_panimate.obj
 0003:00005eb0       ??_C@_0BB@FAHKEDJL@BOTH_VS_LEANR_SL?$AA@ 20401eb0     bg_panimate.obj
 0003:00005ec4       ??_C@_0BA@COPGHNJO@BOTH_VS_LEANR_G?$AA@ 20401ec4     bg_panimate.obj
 0003:00005ed8       ??_C@_0O@DJFDFNAL@BOTH_VS_LEANR?$AA@ 20401ed8     bg_panimate.obj
 0003:00005ee8       ??_C@_0BB@FLOLFFKH@BOTH_VS_LEANL_SR?$AA@ 20401ee8     bg_panimate.obj
 0003:00005efc       ??_C@_0BB@IPKKGKHI@BOTH_VS_LEANL_SL?$AA@ 20401efc     bg_panimate.obj
 0003:00005f10       ??_C@_0BA@JODAFNDC@BOTH_VS_LEANL_G?$AA@ 20401f10     bg_panimate.obj
 0003:00005f24       ??_C@_0O@ONBCGCNE@BOTH_VS_LEANL?$AA@ 20401f24     bg_panimate.obj
 0003:00005f34       ??_C@_0BA@MHOKJNCM@BOTH_VS_IDLE_SR?$AA@ 20401f34     bg_panimate.obj
 0003:00005f48       ??_C@_0BA@BDKLKCPD@BOTH_VS_IDLE_SL?$AA@ 20401f48     bg_panimate.obj
 0003:00005f5c       ??_C@_0P@JGPOHPPG@BOTH_VS_IDLE_G?$AA@ 20401f5c     bg_panimate.obj
 0003:00005f70       ??_C@_0N@EOPLFLLG@BOTH_VS_IDLE?$AA@ 20401f70     bg_panimate.obj
 0003:00005f80       ??_C@_0BA@KNJKDEFE@BOTH_VS_LAND_SR?$AA@ 20401f80     bg_panimate.obj
 0003:00005f94       ??_C@_0BA@HJNLALIL@BOTH_VS_LAND_SL?$AA@ 20401f94     bg_panimate.obj
 0003:00005fa8       ??_C@_0P@FGHHPFOH@BOTH_VS_LAND_G?$AA@ 20401fa8     bg_panimate.obj
 0003:00005fbc       ??_C@_0N@KLFKMBNL@BOTH_VS_LAND?$AA@ 20401fbc     bg_panimate.obj
 0003:00005fcc       ??_C@_0P@MHFEKDCH@BOTH_VS_AIR_SR?$AA@ 20401fcc     bg_panimate.obj
 0003:00005fe0       ??_C@_0P@BDBFJMPI@BOTH_VS_AIR_SL?$AA@ 20401fe0     bg_panimate.obj
 0003:00005ff4       ??_C@_0O@CIMAHEPG@BOTH_VS_AIR_G?$AA@ 20401ff4     bg_panimate.obj
 0003:00006004       ??_C@_0M@OAEDNDJO@BOTH_VS_AIR?$AA@ 20402004     bg_panimate.obj
 0003:00006014       ??_C@_0M@MPJJBHIP@BOTH_VS_REV?$AA@ 20402014     bg_panimate.obj
 0003:00006024       ??_C@_0O@COMCHHG@BOTH_VS_TURBO?$AA@ 20402024     bg_panimate.obj
 0003:00006034       ??_C@_0BC@FMBEBFOC@BOTH_VS_LOOKRIGHT?$AA@ 20402034     bg_panimate.obj
 0003:0000604c       ??_C@_0BB@LJMKNCGH@BOTH_VS_LOOKLEFT?$AA@ 2040204c     bg_panimate.obj
 0003:00006060       ??_C@_0BF@IKPLNBPC@BOTH_VS_MOUNTTHROWEE?$AA@ 20402060     bg_panimate.obj
 0003:0000607c       ??_C@_0BF@JOMJHDMC@BOTH_VS_MOUNTTHROW_R?$AA@ 2040207c     bg_panimate.obj
 0003:00006098       ??_C@_0BF@EKIIEMBN@BOTH_VS_MOUNTTHROW_L?$AA@ 20402098     bg_panimate.obj
 0003:000060b4       ??_C@_0BD@HKDNANFN@BOTH_VS_MOUNTTHROW?$AA@ 204020b4     bg_panimate.obj
 0003:000060cc       ??_C@_0BE@CFBMPALJ@BOTH_VS_MOUNTJUMP_L?$AA@ 204020cc     bg_panimate.obj
 0003:000060e4       ??_C@_0BD@JEAENLCO@BOTH_VS_DISMOUNT_R?$AA@ 204020e4     bg_panimate.obj
 0003:000060fc       ??_C@_0BA@MMLFNLAL@BOTH_VS_MOUNT_R?$AA@ 204020fc     bg_panimate.obj
 0003:00006110       ??_C@_0BD@EAEFOEPB@BOTH_VS_DISMOUNT_L?$AA@ 20402110     bg_panimate.obj
 0003:00006128       ??_C@_0BA@BIPEOENE@BOTH_VS_MOUNT_L?$AA@ 20402128     bg_panimate.obj
 0003:0000613c       ??_C@_0N@NEOMJHMD@BOTH_GUNSIT1?$AA@ 2040213c     bg_panimate.obj
 0003:0000614c       ??_C@_0P@FBKMEIKP@BOTH_UNCROUCH4?$AA@ 2040214c     bg_panimate.obj
 0003:00006160       ??_C@_0N@NGOLMPIH@BOTH_CROUCH4?$AA@ 20402160     bg_panimate.obj
 0003:00006170       ??_C@_0P@BOONNOGI@BOTH_UNCROUCH3?$AA@ 20402170     bg_panimate.obj
 0003:00006184       ??_C@_0N@JJKKFJEA@BOTH_CROUCH3?$AA@ 20402184     bg_panimate.obj
 0003:00006194       ??_C@_0BF@OBDEHHPH@BOTH_CROUCH2TOSTAND1?$AA@ 20402194     bg_panimate.obj
 0003:000061b0       ??_C@_0P@CMNLLMOK@BOTH_UNCROUCH1?$AA@ 204021b0     bg_panimate.obj
 0003:000061c4       ??_C@_0BF@IKEOFDBF@BOTH_CROUCH1WALKBACK?$AA@ 204021c4     bg_panimate.obj
 0003:000061e0       ??_C@_0BB@KLBMFNGD@BOTH_CROUCH1WALK?$AA@ 204021e0     bg_panimate.obj
 0003:000061f4       ??_C@_0BB@NNJBKJDM@BOTH_CROUCH1IDLE?$AA@ 204021f4     bg_panimate.obj
 0003:00006208       ??_C@_0N@KLJMDLMC@BOTH_CROUCH1?$AA@ 20402208     bg_panimate.obj
 0003:00006218       ??_C@_0BC@BHAOLAOM@BOTH_SIT3TOSTAND5?$AA@ 20402218     bg_panimate.obj
 0003:00006230       ??_C@_0BA@LICOGNPB@BOTH_SIT2TOSIT4?$AA@ 20402230     bg_panimate.obj
 0003:00006244       ??_C@_0BC@LANJPAEM@BOTH_STAND5TOSIT2?$AA@ 20402244     bg_panimate.obj
 0003:0000625c       ??_C@_0BC@PIMMNLNC@BOTH_SIT2TOSTAND5?$AA@ 2040225c     bg_panimate.obj
 0003:00006274       ??_C@_09NKDALBDC@BOTH_SIT3?$AA@ 20402274     bg_panimate.obj
 0003:00006280       ??_C@_09MDCLIAHD@BOTH_SIT2?$AA@ 20402280     bg_panimate.obj
 0003:0000628c       ??_C@_09OIAGNDLA@BOTH_SIT1?$AA@ 2040228c     bg_panimate.obj
 0003:00006298       ??_C@_0BF@IPAEPPNA@BOTH_SABERTHROW2STOP?$AA@ 20402298     bg_panimate.obj
 0003:000062b4       ??_C@_0BG@LLNAONCG@BOTH_SABERTHROW2START?$AA@ 204022b4     bg_panimate.obj
 0003:000062d0       ??_C@_0BF@JJAINHO@BOTH_SABERTHROW1STOP?$AA@ 204022d0     bg_panimate.obj
 0003:000062ec       ??_C@_0BG@IKDIPHLL@BOTH_SABERTHROW1START?$AA@ 204022ec     bg_panimate.obj
 0003:00006308       ??_C@_0BB@OHEDMGHA@BOTH_HUGGEESTOP1?$AA@ 20402308     bg_panimate.obj
 0003:0000631c       ??_C@_0N@OIJBJDBK@BOTH_HUGGEE1?$AA@ 2040231c     bg_panimate.obj
 0003:0000632c       ??_C@_0BB@EFDKGEDA@BOTH_HUGGERSTOP1?$AA@ 2040232c     bg_panimate.obj
 0003:00006340       ??_C@_0N@PBPICGOP@BOTH_HUGGER1?$AA@ 20402340     bg_panimate.obj
 0003:00006350       ??_C@_0BC@DNFCOFMA@BOTH_SABERKILLEE1?$AA@ 20402350     bg_panimate.obj
 0003:00006368       ??_C@_0BC@CEDLFADF@BOTH_SABERKILLER1?$AA@ 20402368     bg_panimate.obj
 0003:00006380       ??_C@_0BE@LPKJJENM@BOTH_REACHFORSABER1?$AA@ 20402380     bg_panimate.obj
 0003:00006398       ??_C@_0BF@HGBIDKLM@BOTH_SILENCEGESTURE1?$AA@ 20402398     bg_panimate.obj
 0003:000063b4       ??_C@_0BE@EEMNDGPF@BOTH_STEADYSELF1END?$AA@ 204023b4     bg_panimate.obj
 0003:000063cc       ??_C@_0BB@BHOCMBMP@BOTH_STEADYSELF1?$AA@ 204023cc     bg_panimate.obj
 0003:000063e0       ??_C@_0O@KHABGCAK@BOTH_COME_ON1?$AA@ 204023e0     bg_panimate.obj
 0003:000063f0       ??_C@_0BA@MHPGDDPE@BOTH_REACH1STOP?$AA@ 204023f0     bg_panimate.obj
 0003:00006404       ??_C@_0BB@IHJLPLDL@BOTH_REACH1START?$AA@ 20402404     bg_panimate.obj
 0003:00006418       ??_C@_0BH@KHIEGBCO@BOTH_SIT2HEADTILTLSTOP?$AA@ 20402418     bg_panimate.obj
 0003:00006434       ??_C@_0BI@OBPNLCKD@BOTH_SIT2HEADTILTLSTART?$AA@ 20402434     bg_panimate.obj
 0003:00006450       ??_C@_0P@DFINNNBF@BOTH_HEADSHAKE?$AA@ 20402450     bg_panimate.obj
 0003:00006464       ??_C@_0N@JGGIBJHN@BOTH_HEADNOD?$AA@ 20402464     bg_panimate.obj
 0003:00006474       ??_C@_0BD@CBEOFNED@BOTH_HEADTILTRSTOP?$AA@ 20402474     bg_panimate.obj
 0003:0000648c       ??_C@_0BE@NCHIGFHK@BOTH_HEADTILTRSTART?$AA@ 2040248c     bg_panimate.obj
 0003:000064a4       ??_C@_0BD@BIJCDOKI@BOTH_HEADTILTLSTOP?$AA@ 204024a4     bg_panimate.obj
 0003:000064bc       ??_C@_0BE@OFJJICOJ@BOTH_HEADTILTLSTART?$AA@ 204024bc     bg_panimate.obj
 0003:000064d4       ??_C@_0BC@HDFGDEIC@BOTH_TALKGESTURE1?$AA@ 204024d4     bg_panimate.obj
 0003:000064ec       ??_C@_0BD@KGADCINA@BOTH_TALKCOMM1STOP?$AA@ 204024ec     bg_panimate.obj
 0003:00006504       ??_C@_0P@IMEACJDE@BOTH_TALKCOMM1?$AA@ 20402504     bg_panimate.obj
 0003:00006518       ??_C@_0BE@LLPJOKPB@BOTH_TALKCOMM1START?$AA@ 20402518     bg_panimate.obj
 0003:00006530       ??_C@_0L@MHEHAIKB@BOTH_TALK2?$AA@ 20402530     bg_panimate.obj
 0003:00006540       ??_C@_0L@OMGKFLGC@BOTH_TALK1?$AA@ 20402540     bg_panimate.obj
 0003:00006550       ??_C@_0BE@OAMCANFF@BOTH_WALK1TALKCOMM1?$AA@ 20402550     bg_panimate.obj
 0003:00006568       ??_C@_0O@FLPNDCKC@BOTH_GESTURE2?$AA@ 20402568     bg_panimate.obj
 0003:00006578       ??_C@_0O@HANAGBGB@BOTH_GESTURE1?$AA@ 20402578     bg_panimate.obj
 0003:00006588       ??_C@_0BB@LLGPJFGM@BOTH_GUARD_IDLE1?$AA@ 20402588     bg_panimate.obj
 0003:0000659c       ??_C@_0BH@IIALJNIM@BOTH_GUARD_LOOKAROUND1?$AA@ 2040259c     bg_panimate.obj
 0003:000065b8       ??_C@_0BJ@PHBEHMKF@BOTH_CONSOLE2HOLDCOMSTOP?$AA@ 204025b8     bg_panimate.obj
 0003:000065d8       ??_C@_0BK@JLMHHIBG@BOTH_CONSOLE2HOLDCOMSTART?$AA@ 204025d8     bg_panimate.obj
 0003:000065f8       ??_C@_0BC@JKGILGAP@BOTH_CONSOLE2STOP?$AA@ 204025f8     bg_panimate.obj
 0003:00006610       ??_C@_0O@BGELBNFP@BOTH_CONSOLE2?$AA@ 20402610     bg_panimate.obj
 0003:00006620       ??_C@_0BD@KNKJEOCK@BOTH_CONSOLE2START?$AA@ 20402620     bg_panimate.obj
 0003:00006638       ??_C@_0BC@BMPMMEKB@BOTH_CONSOLE1STOP?$AA@ 20402638     bg_panimate.obj
 0003:00006650       ??_C@_0O@DNGGEOJM@BOTH_CONSOLE1?$AA@ 20402650     bg_panimate.obj
 0003:00006660       ??_C@_0BD@JMEBFELH@BOTH_CONSOLE1START?$AA@ 20402660     bg_panimate.obj
 0003:00006678       ??_C@_0BL@HDGAEFLK@BOTH_STAND5LOOK180LEFTSTOP?$AA@ 20402678     bg_panimate.obj
 0003:00006698       ??_C@_0BM@BGELABNK@BOTH_STAND5LOOK180LEFTSTART?$AA@ 20402698     bg_panimate.obj
 0003:000066bc       ??_C@_0BJ@HFICOBLF@BOTH_STAND5TURNRIGHTSTOP?$AA@ 204026bc     bg_panimate.obj
 0003:000066dc       ??_C@_0BK@IGPCPOOP@BOTH_STAND5TURNRIGHTSTART?$AA@ 204026dc     bg_panimate.obj
 0003:000066fc       ??_C@_0BI@JADJJLGI@BOTH_STAND5TURNLEFTSTOP?$AA@ 204026fc     bg_panimate.obj
 0003:00006718       ??_C@_0BJ@HOHFOLPM@BOTH_STAND5TURNLEFTSTART?$AA@ 20402718     bg_panimate.obj
 0003:00006738       ??_C@_0BL@EHCDGJJ@BOTH_STAND5SHIFTWEIGHTSTOP?$AA@ 20402738     bg_panimate.obj
 0003:00006758       ??_C@_0BM@LEFLGCNL@BOTH_STAND5SHIFTWEIGHTSTART?$AA@ 20402758     bg_panimate.obj
 0003:0000677c       ??_C@_0BH@LKALMHBN@BOTH_STAND5SHIFTWEIGHT?$AA@ 2040277c     bg_panimate.obj
 0003:00006798       ??_C@_0BB@NHGNFEJF@BOTH_STAND9IDLE1?$AA@ 20402798     bg_panimate.obj
 0003:000067ac       ??_C@_0M@KGBMNEAL@BOTH_STAND9?$AA@ 204027ac     bg_panimate.obj
 0003:000067bc       ??_C@_0BE@PHIMDIEF@BOTH_STAND8TOSTAND5?$AA@ 204027bc     bg_panimate.obj
 0003:000067d4       ??_C@_0BE@LDCJBNIF@BOTH_STAND7TOSTAND8?$AA@ 204027d4     bg_panimate.obj
 0003:000067ec       ??_C@_0BE@LHNMMNLI@BOTH_STAND5TOSTAND8?$AA@ 204027ec     bg_panimate.obj
 0003:00006804       ??_C@_0BO@JCPBABCF@BOTH_STARTLEDLOOKLEFTTOSTAND5?$AA@ 20402804     bg_panimate.obj
 0003:00006828       ??_C@_0BM@LKMKNIB@BOTH_STAND5STARTLEDLOOKLEFT?$AA@ 20402828     bg_panimate.obj
 0003:0000684c       ??_C@_0BB@KAKPAJPG@BOTH_STAND5TOAIM?$AA@ 2040284c     bg_panimate.obj
 0003:00006860       ??_C@_0BE@GGBOHGPB@BOTH_STAND5TOSTAND1?$AA@ 20402860     bg_panimate.obj
 0003:00006878       ??_C@_0BE@LJJBDIP@BOTH_STAND1TOSTAND5?$AA@ 20402878     bg_panimate.obj
 0003:00006890       ??_C@_0BC@KJMCMBAN@BOTH_STAND5TOSIT3?$AA@ 20402890     bg_panimate.obj
 0003:000068a8       ??_C@_0O@JCHGFLGA@BOTH_STANDUP2?$AA@ 204028a8     bg_panimate.obj
 0003:000068b8       ??_C@_0BF@MNEGLANN@BOTH_STAND4TOATTACK2?$AA@ 204028b8     bg_panimate.obj
 0003:000068d4       ??_C@_0P@NHEJHBNL@BOTH_STAND4TO2?$AA@ 204028d4     bg_panimate.obj
 0003:000068e8       ??_C@_0P@OFDCDPN@BOTH_STAND2TO4?$AA@ 204028e8     bg_panimate.obj
 0003:000068fc       ??_C@_0P@HDCENHLI@BOTH_STAND2TO1?$AA@ 204028fc     bg_panimate.obj
 0003:00006910       ??_C@_0P@BPKJPOKL@BOTH_STAND1TO2?$AA@ 20402910     bg_panimate.obj
 0003:00006924       ??_C@_0M@LPAHOFEK@BOTH_STAND8?$AA@ 20402924     bg_panimate.obj
 0003:00006934       ??_C@_0M@CBIEMIME@BOTH_STAND6?$AA@ 20402934     bg_panimate.obj
 0003:00006944       ??_C@_0BB@BAMNDOOB@BOTH_STAND5IDLE1?$AA@ 20402944     bg_panimate.obj
 0003:00006958       ??_C@_0M@KKJJLAH@BOTH_STAND5?$AA@ 20402958     bg_panimate.obj
 0003:00006968       ??_C@_0M@BDLCKKEG@BOTH_STAND4?$AA@ 20402968     bg_panimate.obj
 0003:00006978       ??_C@_0BB@HDBNALNL@BOTH_STAND3IDLE1?$AA@ 20402978     bg_panimate.obj
 0003:0000698c       ??_C@_0M@FMPDDMIB@BOTH_STAND3?$AA@ 2040298c     bg_panimate.obj
 0003:0000699c       ??_C@_0BB@POEHFDKM@BOTH_STAND2IDLE2?$AA@ 2040299c     bg_panimate.obj
 0003:000069b0       ??_C@_0BB@NFGKAAGP@BOTH_STAND2IDLE1?$AA@ 204029b0     bg_panimate.obj
 0003:000069c4       ??_C@_0M@EFOIANMA@BOTH_STAND2?$AA@ 204029c4     bg_panimate.obj
 0003:000069d4       ??_C@_0BB@OEICBKPC@BOTH_STAND1IDLE1?$AA@ 204029d4     bg_panimate.obj
 0003:000069e8       ??_C@_0M@GOMFFOAD@BOTH_STAND1?$AA@ 204029e8     bg_panimate.obj
 0003:000069f8       ??_C@_0P@HNCGMPEI@BOTH_ROLL_STAB?$AA@ 204029f8     bg_panimate.obj
 0003:00006a0c       ??_C@_0BA@PJPEDJMA@BOTH_A3_SPECIAL?$AA@ 20402a0c     bg_panimate.obj
 0003:00006a20       ??_C@_0BA@BGDGFCPO@BOTH_A2_SPECIAL?$AA@ 20402a20     bg_panimate.obj
 0003:00006a34       ??_C@_0BA@PNABOJPN@BOTH_A1_SPECIAL?$AA@ 20402a34     bg_panimate.obj
 0003:00006a48       ??_C@_0BA@IPLCAALD@BOTH_A7_SOULCAL?$AA@ 20402a48     bg_panimate.obj
 0003:00006a5c       ??_C@_0BF@JKDHMCK@BOTH_A6_SABERPROTECT?$AA@ 20402a5c     bg_panimate.obj
 0003:00006a78       ??_C@_0BD@FCALGDP@BOTH_STABDOWN_DUAL?$AA@ 20402a78     bg_panimate.obj
 0003:00006a90       ??_C@_0BE@DOGEHLEN@BOTH_STABDOWN_STAFF?$AA@ 20402a90     bg_panimate.obj
 0003:00006aa8       ??_C@_0O@FMNFAMJP@BOTH_STABDOWN?$AA@ 20402aa8     bg_panimate.obj
 0003:00006ab8       ??_C@_0BE@NCOEMLED@BOTH_PULLED_INAIR_F?$AA@ 20402ab8     bg_panimate.obj
 0003:00006ad0       ??_C@_0BE@LGIIAOEH@BOTH_PULLED_INAIR_B?$AA@ 20402ad0     bg_panimate.obj
 0003:00006ae8       ??_C@_0BH@ENKMMKI@BOTH_PULL_IMPALE_SWING?$AA@ 20402ae8     bg_panimate.obj
 0003:00006b04       ??_C@_0BG@FJEBNIOP@BOTH_PULL_IMPALE_STAB?$AA@ 20402b04     bg_panimate.obj
 0003:00006b20       ??_C@_0P@FKABGNIE@BOTH_FLIP_LAND?$AA@ 20402b20     bg_panimate.obj
 0003:00006b34       ??_C@_0BA@PECANCJM@BOTH_FLIP_HOLD7?$AA@ 20402b34     bg_panimate.obj
 0003:00006b48       ??_C@_0BC@OAEPKLIJ@BOTH_FLIP_ATTACK7?$AA@ 20402b48     bg_panimate.obj
 0003:00006b60       ??_C@_0BD@MBINELLK@BOTH_A7_KICK_L_AIR?$AA@ 20402b60     bg_panimate.obj
 0003:00006b78       ??_C@_0BD@PIFBCIFB@BOTH_A7_KICK_R_AIR?$AA@ 20402b78     bg_panimate.obj
 0003:00006b90       ??_C@_0BD@PLIHCKMK@BOTH_A7_KICK_B_AIR?$AA@ 20402b90     bg_panimate.obj
 0003:00006ba8       ??_C@_0BD@GABGGINM@BOTH_A7_KICK_F_AIR?$AA@ 20402ba8     bg_panimate.obj
 0003:00006bc0       ??_C@_0BA@CADMNHIP@BOTH_A7_KICK_RL?$AA@ 20402bc0     bg_panimate.obj
 0003:00006bd4       ??_C@_0BF@OPHCPADF@BOTH_A7_KICK_BF_STOP?$AA@ 20402bd4     bg_panimate.obj
 0003:00006bf0       ??_C@_0BA@MGPFJMHF@BOTH_A7_KICK_BF?$AA@ 20402bf0     bg_panimate.obj
 0003:00006c04       ??_C@_0P@DFCDAAIP@BOTH_A7_KICK_S?$AA@ 20402c04     bg_panimate.obj
 0003:00006c18       ??_C@_0P@PIHJAOBB@BOTH_A7_KICK_L?$AA@ 20402c18     bg_panimate.obj
 0003:00006c2c       ??_C@_0P@CMDIDBMO@BOTH_A7_KICK_R?$AA@ 20402c2c     bg_panimate.obj
 0003:00006c40       ??_C@_0P@GGPKCDJP@BOTH_A7_KICK_B?$AA@ 20402c40     bg_panimate.obj
 0003:00006c54       ??_C@_0P@CJGOGJL@BOTH_A7_KICK_F?$AA@ 20402c54     bg_panimate.obj
 0003:00006c68       ??_C@_0BM@OHENEONK@BOTH_FORCEWALLRELEASE_RIGHT?$AA@ 20402c68     bg_panimate.obj
 0003:00006c8c       ??_C@_0BL@BABFAMJB@BOTH_FORCEWALLRELEASE_BACK?$AA@ 20402c8c     bg_panimate.obj
 0003:00006cac       ??_C@_0BL@OLNGOJNC@BOTH_FORCEWALLRELEASE_LEFT?$AA@ 20402cac     bg_panimate.obj
 0003:00006ccc       ??_C@_0BO@FMNDOIKN@BOTH_FORCEWALLRELEASE_FORWARD?$AA@ 20402ccc     bg_panimate.obj
 0003:00006cf0       ??_C@_0BJ@CCJINKMK@BOTH_FORCEWALLHOLD_RIGHT?$AA@ 20402cf0     bg_panimate.obj
 0003:00006d10       ??_C@_0BI@HPLKKCCJ@BOTH_FORCEWALLHOLD_BACK?$AA@ 20402d10     bg_panimate.obj
 0003:00006d2c       ??_C@_0BI@IEHJEHGK@BOTH_FORCEWALLHOLD_LEFT?$AA@ 20402d2c     bg_panimate.obj
 0003:00006d48       ??_C@_0BL@OBHDGIHE@BOTH_FORCEWALLHOLD_FORWARD?$AA@ 20402d48     bg_panimate.obj
 0003:00006d68       ??_C@_0BM@FDLDEBGK@BOTH_FORCEWALLREBOUND_RIGHT?$AA@ 20402d68     bg_panimate.obj
 0003:00006d8c       ??_C@_0BL@OFKEILGN@BOTH_FORCEWALLREBOUND_BACK?$AA@ 20402d8c     bg_panimate.obj
 0003:00006dac       ??_C@_0BL@BOGHGOCO@BOTH_FORCEWALLREBOUND_LEFT?$AA@ 20402dac     bg_panimate.obj
 0003:00006dcc       ??_C@_0BO@CIKJOPHK@BOTH_FORCEWALLREBOUND_FORWARD?$AA@ 20402dcc     bg_panimate.obj
 0003:00006df0       ??_C@_0BK@KJKIIGOD@BOTH_FORCEWALLRUNFLIP_ALT?$AA@ 20402df0     bg_panimate.obj
 0003:00006e10       ??_C@_0BK@GPIMNHIL@BOTH_FORCEWALLRUNFLIP_END?$AA@ 20402e10     bg_panimate.obj
 0003:00006e30       ??_C@_0BM@LJCOJFGC@BOTH_FORCEWALLRUNFLIP_START?$AA@ 20402e30     bg_panimate.obj
 0003:00006e54       ??_C@_0BI@MHONAGNG@BOTH_FORCELONGLEAP_LAND?$AA@ 20402e54     bg_panimate.obj
 0003:00006e70       ??_C@_0BK@HABCCIOP@BOTH_FORCELONGLEAP_ATTACK?$AA@ 20402e70     bg_panimate.obj
 0003:00006e90       ??_C@_0BJ@KLOIGFJP@BOTH_FORCELONGLEAP_START?$AA@ 20402e90     bg_panimate.obj
 0003:00006eb0       ??_C@_0L@NHGEHEAM@BOTH_S7_S1?$AA@ 20402eb0     bg_panimate.obj
 0003:00006ec0       ??_C@_0L@OHOCGCK@BOTH_S1_S7?$AA@ 20402ec0     bg_panimate.obj
 0003:00006ed0       ??_C@_0L@OKAEFNLM@BOTH_S6_S1?$AA@ 20402ed0     bg_panimate.obj
 0003:00006ee0       ??_C@_0L@BHGFBHGL@BOTH_S1_S6?$AA@ 20402ee0     bg_panimate.obj
 0003:00006ef0       ??_C@_0BB@KFONEAEN@BOTH_SPINATTACK7?$AA@ 20402ef0     bg_panimate.obj
 0003:00006f04       ??_C@_0BB@LMPGHBAM@BOTH_SPINATTACK6?$AA@ 20402f04     bg_panimate.obj
 0003:00006f18       ??_C@_0BB@CIOCACPL@BOTH_JUMPATTACK7?$AA@ 20402f18     bg_panimate.obj
 0003:00006f2c       ??_C@_0BB@DBPJDDLK@BOTH_JUMPATTACK6?$AA@ 20402f2c     bg_panimate.obj
 0003:00006f40       ??_C@_0BH@INLIBEMO@BOTH_CROUCHATTACKBACK1?$AA@ 20402f40     bg_panimate.obj
 0003:00006f5c       ??_C@_0BC@BEBALKBG@BOTH_LUNGE2_B__T_?$AA@ 20402f5c     bg_panimate.obj
 0003:00006f74       ??_C@_0BG@CELCKDAN@BOTH_FORCELEAP2_T__B_?$AA@ 20402f74     bg_panimate.obj
 0003:00006f90       ??_C@_0BG@BFMBDODP@BOTH_JUMPFLIPSTABDOWN?$AA@ 20402f90     bg_panimate.obj
 0003:00006fac       ??_C@_0BI@HBGICLGG@BOTH_JUMPFLIPSLASHDOWN1?$AA@ 20402fac     bg_panimate.obj
 0003:00006fc8       ??_C@_0BB@CBLKELKF@BOTH_ATTACK_BACK?$AA@ 20402fc8     bg_panimate.obj
 0003:00006fdc       ??_C@_0BC@PILNDLJJ@BOTH_A2_STABBACK1?$AA@ 20402fdc     bg_panimate.obj
 0003:00006ff4       ??_C@_0BH@BDCLHPPP@BOTH_SABERSTAFF_STANCE?$AA@ 20402ff4     bg_panimate.obj
 0003:00007010       ??_C@_0BG@HKMBABJH@BOTH_SABERDUAL_STANCE?$AA@ 20403010     bg_panimate.obj
 0003:0000702c       ??_C@_0BG@OHKGBDLF@BOTH_SABERSLOW_STANCE?$AA@ 2040302c     bg_panimate.obj
 0003:00007048       ??_C@_0BG@LMJGJJPN@BOTH_SABERFAST_STANCE?$AA@ 20403048     bg_panimate.obj
 0003:00007064       ??_C@_0BD@KOAOCCAN@BOTH_CCWCIRCLELOCK?$AA@ 20403064     bg_panimate.obj
 0003:0000707c       ??_C@_0BC@KJPAFMDI@BOTH_CWCIRCLELOCK?$AA@ 2040307c     bg_panimate.obj
 0003:00007094       ??_C@_0BE@OHBEAMBI@BOTH_CCWCIRCLEBREAK?$AA@ 20403094     bg_panimate.obj
 0003:000070ac       ??_C@_0BD@LBKADGEF@BOTH_CWCIRCLEBREAK?$AA@ 204030ac     bg_panimate.obj
 0003:000070c4       ??_C@_0BI@CIMIIHDK@BOTH_CCWCIRCLE_A2__R__L?$AA@ 204030c4     bg_panimate.obj
 0003:000070e0       ??_C@_0BH@DBGDLJEC@BOTH_CWCIRCLE_A2__L__R?$AA@ 204030e0     bg_panimate.obj
 0003:000070fc       ??_C@_0BI@PBNOCOLC@BOTH_CCWCIRCLE_R2__L_S1?$AA@ 204030fc     bg_panimate.obj
 0003:00007118       ??_C@_0BH@DMDECPBF@BOTH_CWCIRCLE_R2__R_S1?$AA@ 20403118     bg_panimate.obj
 0003:00007134       ??_C@_0N@DLCMNLOG@BOTH_BF1LOCK?$AA@ 20403134     bg_panimate.obj
 0003:00007144       ??_C@_0O@NAFJBFBB@BOTH_BF1BREAK?$AA@ 20403144     bg_panimate.obj
 0003:00007154       ??_C@_0P@OMJLFDIE@BOTH_BF1RETURN?$AA@ 20403154     bg_panimate.obj
 0003:00007168       ??_C@_0N@LNLIKJEI@BOTH_BF2LOCK?$AA@ 20403168     bg_panimate.obj
 0003:00007178       ??_C@_0O@OBLBAPIM@BOTH_BF2BREAK?$AA@ 20403178     bg_panimate.obj
 0003:00007188       ??_C@_0P@GCBEFEGH@BOTH_BF2RETURN?$AA@ 20403188     bg_panimate.obj
 0003:0000719c       ??_C@_0BE@DOCAGAEJ@BOTH_LK_ST_ST_T_L_2?$AA@ 2040319c     bg_panimate.obj
 0003:000071b4       ??_C@_0BE@CDCFFAPB@BOTH_LK_ST_ST_S_L_2?$AA@ 204031b4     bg_panimate.obj
 0003:000071cc       ??_C@_0BE@DFGKEEJC@BOTH_LK_DL_DL_T_L_2?$AA@ 204031cc     bg_panimate.obj
 0003:000071e4       ??_C@_0BE@CIGPHECK@BOTH_LK_DL_DL_S_L_2?$AA@ 204031e4     bg_panimate.obj
 0003:000071fc       ??_C@_0BC@NOIODFFL@BOTH_LK_S_S_T_L_2?$AA@ 204031fc     bg_panimate.obj
 0003:00007214       ??_C@_0BC@MDILAFOD@BOTH_LK_S_S_S_L_2?$AA@ 20403214     bg_panimate.obj
 0003:0000722c       ??_C@_0BG@DGNDNELM@BOTH_LK_ST_S_T_SB_1_W?$AA@ 2040322c     bg_panimate.obj
 0003:00007248       ??_C@_0BG@JPOFBPCG@BOTH_LK_ST_S_T_SB_1_L?$AA@ 20403248     bg_panimate.obj
 0003:00007264       ??_C@_0BD@DOGCPFDO@BOTH_LK_ST_S_T_L_1?$AA@ 20403264     bg_panimate.obj
 0003:0000727c       ??_C@_0BF@CEACOAOC@BOTH_LK_ST_S_T_B_1_W?$AA@ 2040327c     bg_panimate.obj
 0003:00007298       ??_C@_0BF@INDECLHI@BOTH_LK_ST_S_T_B_1_L?$AA@ 20403298     bg_panimate.obj
 0003:000072b4       ??_C@_0BG@FCLCLJHF@BOTH_LK_ST_S_S_SB_1_W?$AA@ 204032b4     bg_panimate.obj
 0003:000072d0       ??_C@_0BG@PLIEHCOP@BOTH_LK_ST_S_S_SB_1_L?$AA@ 204032d0     bg_panimate.obj
 0003:000072ec       ??_C@_0BD@CDGHMFIG@BOTH_LK_ST_S_S_L_1?$AA@ 204032ec     bg_panimate.obj
 0003:00007304       ??_C@_0BF@COMHOJPL@BOTH_LK_ST_S_S_B_1_W?$AA@ 20403304     bg_panimate.obj
 0003:00007320       ??_C@_0BF@IHPBCCGB@BOTH_LK_ST_S_S_B_1_L?$AA@ 20403320     bg_panimate.obj
 0003:0000733c       ??_C@_0BH@LECJIOFK@BOTH_LK_ST_ST_T_SB_1_W?$AA@ 2040333c     bg_panimate.obj
 0003:00007358       ??_C@_0BH@BNBPEFMA@BOTH_LK_ST_ST_T_SB_1_L?$AA@ 20403358     bg_panimate.obj
 0003:00007374       ??_C@_0BE@BFANDDIK@BOTH_LK_ST_ST_T_L_1?$AA@ 20403374     bg_panimate.obj
 0003:0000738c       ??_C@_0BG@NGKMMHLE@BOTH_LK_ST_ST_T_B_1_W?$AA@ 2040338c     bg_panimate.obj
 0003:000073a8       ??_C@_0BG@HPJKAMCO@BOTH_LK_ST_ST_T_B_1_L?$AA@ 204033a8     bg_panimate.obj
 0003:000073c4       ??_C@_0BH@NAEIODJD@BOTH_LK_ST_ST_S_SB_1_W?$AA@ 204033c4     bg_panimate.obj
 0003:000073e0       ??_C@_0BH@HJHOCIAJ@BOTH_LK_ST_ST_S_SB_1_L?$AA@ 204033e0     bg_panimate.obj
 0003:000073fc       ??_C@_0BE@IAIADDC@BOTH_LK_ST_ST_S_L_1?$AA@ 204033fc     bg_panimate.obj
 0003:00007414       ??_C@_0BG@NMGJMOKN@BOTH_LK_ST_ST_S_B_1_W?$AA@ 20403414     bg_panimate.obj
 0003:00007430       ??_C@_0BG@HFFPAFDH@BOTH_LK_ST_ST_S_B_1_L?$AA@ 20403430     bg_panimate.obj
 0003:0000744c       ??_C@_0BH@NIJMKPKH@BOTH_LK_ST_DL_T_SB_1_W?$AA@ 2040344c     bg_panimate.obj
 0003:00007468       ??_C@_0BH@HBKKGEDN@BOTH_LK_ST_DL_T_SB_1_L?$AA@ 20403468     bg_panimate.obj
 0003:00007484       ??_C@_0BE@HCPCDGKM@BOTH_LK_ST_DL_T_L_1?$AA@ 20403484     bg_panimate.obj
 0003:0000749c       ??_C@_0BG@GFBINHOA@BOTH_LK_ST_DL_T_B_1_W?$AA@ 2040349c     bg_panimate.obj
 0003:000074b8       ??_C@_0BG@MMCOBMHK@BOTH_LK_ST_DL_T_B_1_L?$AA@ 204034b8     bg_panimate.obj
 0003:000074d4       ??_C@_0BH@LMPNMCGO@BOTH_LK_ST_DL_S_SB_1_W?$AA@ 204034d4     bg_panimate.obj
 0003:000074f0       ??_C@_0BH@BFMLAJPE@BOTH_LK_ST_DL_S_SB_1_L?$AA@ 204034f0     bg_panimate.obj
 0003:0000750c       ??_C@_0BE@GPPHAGBE@BOTH_LK_ST_DL_S_L_1?$AA@ 2040350c     bg_panimate.obj
 0003:00007524       ??_C@_0BG@GPNNNOPJ@BOTH_LK_ST_DL_S_B_1_W?$AA@ 20403524     bg_panimate.obj
 0003:00007540       ??_C@_0BG@MGOLBFGD@BOTH_LK_ST_DL_S_B_1_L?$AA@ 20403540     bg_panimate.obj
 0003:0000755c       ??_C@_0BG@NLKIDHKH@BOTH_LK_DL_S_T_SB_1_W?$AA@ 2040355c     bg_panimate.obj
 0003:00007578       ??_C@_0BG@HCJOPMDN@BOTH_LK_DL_S_T_SB_1_L?$AA@ 20403578     bg_panimate.obj
 0003:00007594       ??_C@_0BD@INNGOFGK@BOTH_LK_DL_S_T_L_1?$AA@ 20403594     bg_panimate.obj
 0003:000075ac       ??_C@_0BF@OHGCNLGC@BOTH_LK_DL_S_T_B_1_W?$AA@ 204035ac     bg_panimate.obj
 0003:000075c8       ??_C@_0BF@EOFEBAPI@BOTH_LK_DL_S_T_B_1_L?$AA@ 204035c8     bg_panimate.obj
 0003:000075e4       ??_C@_0BG@LPMJFKGO@BOTH_LK_DL_S_S_SB_1_W?$AA@ 204035e4     bg_panimate.obj
 0003:00007600       ??_C@_0BG@BGPPJBPE@BOTH_LK_DL_S_S_SB_1_L?$AA@ 20403600     bg_panimate.obj
 0003:0000761c       ??_C@_0BD@JANDNFNC@BOTH_LK_DL_S_S_L_1?$AA@ 2040361c     bg_panimate.obj
 0003:00007634       ??_C@_0BF@ONKHNCHL@BOTH_LK_DL_S_S_B_1_W?$AA@ 20403634     bg_panimate.obj
 0003:00007650       ??_C@_0BF@EEJBBJOB@BOTH_LK_DL_S_S_B_1_L?$AA@ 20403650     bg_panimate.obj
 0003:0000766c       ??_C@_0BH@DOKBDMFF@BOTH_LK_DL_ST_T_SB_1_W?$AA@ 2040366c     bg_panimate.obj
 0003:00007688       ??_C@_0BH@JHJHPHMP@BOTH_LK_DL_ST_T_SB_1_L?$AA@ 20403688     bg_panimate.obj
 0003:000076a4       ??_C@_0BE@HJLIBCHH@BOTH_LK_DL_ST_T_L_1?$AA@ 204036a4     bg_panimate.obj
 0003:000076bc       ??_C@_0BG@DLNHCEKP@BOTH_LK_DL_ST_T_B_1_W?$AA@ 204036bc     bg_panimate.obj
 0003:000076d8       ??_C@_0BG@JCOBOPDF@BOTH_LK_DL_ST_T_B_1_L?$AA@ 204036d8     bg_panimate.obj
 0003:000076f4       ??_C@_0BH@FKMAFBJM@BOTH_LK_DL_ST_S_SB_1_W?$AA@ 204036f4     bg_panimate.obj
 0003:00007710       ??_C@_0BH@PDPGJKAG@BOTH_LK_DL_ST_S_SB_1_L?$AA@ 20403710     bg_panimate.obj
 0003:0000772c       ??_C@_0BE@GELNCCMP@BOTH_LK_DL_ST_S_L_1?$AA@ 2040372c     bg_panimate.obj
 0003:00007744       ??_C@_0BG@DBBCCNLG@BOTH_LK_DL_ST_S_B_1_W?$AA@ 20403744     bg_panimate.obj
 0003:00007760       ??_C@_0BG@JICEOGCM@BOTH_LK_DL_ST_S_B_1_L?$AA@ 20403760     bg_panimate.obj
 0003:0000777c       ??_C@_0BH@FCBEBNKI@BOTH_LK_DL_DL_T_SB_1_W?$AA@ 2040377c     bg_panimate.obj
 0003:00007798       ??_C@_0BH@PLCCNGDC@BOTH_LK_DL_DL_T_SB_1_L?$AA@ 20403798     bg_panimate.obj
 0003:000077b4       ??_C@_0BE@BOEHBHFB@BOTH_LK_DL_DL_T_L_1?$AA@ 204037b4     bg_panimate.obj
 0003:000077cc       ??_C@_0BG@IIGDDEPL@BOTH_LK_DL_DL_T_B_1_W?$AA@ 204037cc     bg_panimate.obj
 0003:000077e8       ??_C@_0BG@CBFFPPGB@BOTH_LK_DL_DL_T_B_1_L?$AA@ 204037e8     bg_panimate.obj
 0003:00007804       ??_C@_0BH@DGHFHAGB@BOTH_LK_DL_DL_S_SB_1_W?$AA@ 20403804     bg_panimate.obj
 0003:00007820       ??_C@_0BH@JPEDLLPL@BOTH_LK_DL_DL_S_SB_1_L?$AA@ 20403820     bg_panimate.obj
 0003:0000783c       ??_C@_0BE@DECCHOJ@BOTH_LK_DL_DL_S_L_1?$AA@ 2040383c     bg_panimate.obj
 0003:00007854       ??_C@_0BG@ICKGDNOC@BOTH_LK_DL_DL_S_B_1_W?$AA@ 20403854     bg_panimate.obj
 0003:00007870       ??_C@_0BG@CLJAPGHI@BOTH_LK_DL_DL_S_B_1_L?$AA@ 20403870     bg_panimate.obj
 0003:0000788c       ??_C@_0BF@FNCJNOFK@BOTH_LK_S_S_T_SB_1_W?$AA@ 2040388c     bg_panimate.obj
 0003:000078a8       ??_C@_0BF@PEBPBFMA@BOTH_LK_S_S_T_SB_1_L?$AA@ 204038a8     bg_panimate.obj
 0003:000078c4       ??_C@_0BC@PFKDGGJI@BOTH_LK_S_S_T_L_1?$AA@ 204038c4     bg_panimate.obj
 0003:000078dc       ??_C@_0BE@LFFJPCLC@BOTH_LK_S_S_T_B_1_W?$AA@ 204038dc     bg_panimate.obj
 0003:000078f4       ??_C@_0BE@BMGPDJCI@BOTH_LK_S_S_T_B_1_L?$AA@ 204038f4     bg_panimate.obj
 0003:0000790c       ??_C@_0BF@DJEILDJD@BOTH_LK_S_S_S_SB_1_W?$AA@ 2040390c     bg_panimate.obj
 0003:00007928       ??_C@_0BF@JAHOHIAJ@BOTH_LK_S_S_S_SB_1_L?$AA@ 20403928     bg_panimate.obj
 0003:00007944       ??_C@_0BC@OIKGFGCA@BOTH_LK_S_S_S_L_1?$AA@ 20403944     bg_panimate.obj
 0003:0000795c       ??_C@_0BE@LPJMPLKL@BOTH_LK_S_S_S_B_1_W?$AA@ 2040395c     bg_panimate.obj
 0003:00007974       ??_C@_0BE@BGKKDADB@BOTH_LK_S_S_S_B_1_L?$AA@ 20403974     bg_panimate.obj
 0003:0000798c       ??_C@_0BG@PNCLDDBN@BOTH_LK_S_ST_T_SB_1_W?$AA@ 2040398c     bg_panimate.obj
 0003:000079a8       ??_C@_0BG@FEBNPIIH@BOTH_LK_S_ST_T_SB_1_L?$AA@ 204039a8     bg_panimate.obj
 0003:000079c4       ??_C@_0BD@CKHDPEME@BOTH_LK_S_ST_T_L_1?$AA@ 204039c4     bg_panimate.obj
 0003:000079dc       ??_C@_0BF@LNFGMNFC@BOTH_LK_S_ST_T_B_1_W?$AA@ 204039dc     bg_panimate.obj
 0003:000079f8       ??_C@_0BF@BEGAAGMI@BOTH_LK_S_ST_T_B_1_L?$AA@ 204039f8     bg_panimate.obj
 0003:00007a14       ??_C@_0BG@JJEKFONE@BOTH_LK_S_ST_S_SB_1_W?$AA@ 20403a14     bg_panimate.obj
 0003:00007a30       ??_C@_0BG@DAHMJFEO@BOTH_LK_S_ST_S_SB_1_L?$AA@ 20403a30     bg_panimate.obj
 0003:00007a4c       ??_C@_0BD@DHHGMEHM@BOTH_LK_S_ST_S_L_1?$AA@ 20403a4c     bg_panimate.obj
 0003:00007a64       ??_C@_0BF@LHJDMEEL@BOTH_LK_S_ST_S_B_1_W?$AA@ 20403a64     bg_panimate.obj
 0003:00007a80       ??_C@_0BF@BOKFAPNB@BOTH_LK_S_ST_S_B_1_L?$AA@ 20403a80     bg_panimate.obj
 0003:00007a9c       ??_C@_0BG@JBJOBCOA@BOTH_LK_S_DL_T_SB_1_W?$AA@ 20403a9c     bg_panimate.obj
 0003:00007ab8       ??_C@_0BG@DIKINJHK@BOTH_LK_S_DL_T_SB_1_L?$AA@ 20403ab8     bg_panimate.obj
 0003:00007ad4       ??_C@_0BD@ENIMPBOC@BOTH_LK_S_DL_T_L_1?$AA@ 20403ad4     bg_panimate.obj
 0003:00007aec       ??_C@_0BF@OOCNNAG@BOTH_LK_S_DL_T_B_1_W?$AA@ 20403aec     bg_panimate.obj
 0003:00007b08       ??_C@_0BF@KHNEBGJM@BOTH_LK_S_DL_T_B_1_L?$AA@ 20403b08     bg_panimate.obj
 0003:00007b24       ??_C@_0BG@PFPPHPCJ@BOTH_LK_S_DL_S_SB_1_W?$AA@ 20403b24     bg_panimate.obj
 0003:00007b40       ??_C@_0BG@FMMJLELD@BOTH_LK_S_DL_S_SB_1_L?$AA@ 20403b40     bg_panimate.obj
 0003:00007b5c       ??_C@_0BD@FAIJMBFK@BOTH_LK_S_DL_S_L_1?$AA@ 20403b5c     bg_panimate.obj
 0003:00007b74       ??_C@_0BF@ECHNEBP@BOTH_LK_S_DL_S_B_1_W?$AA@ 20403b74     bg_panimate.obj
 0003:00007b90       ??_C@_0BF@KNBBBPIF@BOTH_LK_S_DL_S_B_1_L?$AA@ 20403b90     bg_panimate.obj
 0003:00007bac       ??_C@_0O@MBLOLAIA@BOTH_H7_S7_BR?$AA@ 20403bac     bg_panimate.obj
 0003:00007bbc       ??_C@_0O@HEBAMOMN@BOTH_H7_S7_B_?$AA@ 20403bbc     bg_panimate.obj
 0003:00007bcc       ??_C@_0O@BFPPIPFP@BOTH_H7_S7_BL?$AA@ 20403bcc     bg_panimate.obj
 0003:00007bdc       ??_C@_0O@NFEFAJN@BOTH_H7_S7_TL?$AA@ 20403bdc     bg_panimate.obj
 0003:00007bec       ??_C@_0O@NJBFGPEC@BOTH_H7_S7_TR?$AA@ 20403bec     bg_panimate.obj
 0003:00007bfc       ??_C@_0O@GMLLBBAP@BOTH_H7_S7_T_?$AA@ 20403bfc     bg_panimate.obj
 0003:00007c0c       ??_C@_0O@MBBKJCHE@BOTH_V7_B__S7?$AA@ 20403c0c     bg_panimate.obj
 0003:00007c1c       ??_C@_0O@OGFKHPCG@BOTH_V7_BL_S7?$AA@ 20403c1c     bg_panimate.obj
 0003:00007c2c       ??_C@_0O@FJBCGOGD@BOTH_V7__L_S7?$AA@ 20403c2c     bg_panimate.obj
 0003:00007c3c       ??_C@_0O@DDNFJOKA@BOTH_V7_TL_S7?$AA@ 20403c3c     bg_panimate.obj
 0003:00007c4c       ??_C@_0O@BEJFHDPC@BOTH_V7_T__S7?$AA@ 20403c4c     bg_panimate.obj
 0003:00007c5c       ??_C@_0O@OMAFLHED@BOTH_V7_TR_S7?$AA@ 20403c5c     bg_panimate.obj
 0003:00007c6c       ??_C@_0O@IGMCEHIA@BOTH_V7__R_S7?$AA@ 20403c6c     bg_panimate.obj
 0003:00007c7c       ??_C@_0O@DJIKFGMF@BOTH_V7_BR_S7?$AA@ 20403c7c     bg_panimate.obj
 0003:00007c8c       ??_C@_0O@PIDDIMEF@BOTH_K7_S7_BR?$AA@ 20403c8c     bg_panimate.obj
 0003:00007c9c       ??_C@_0O@ENJNPCAI@BOTH_K7_S7_B_?$AA@ 20403c9c     bg_panimate.obj
 0003:00007cac       ??_C@_0O@CMHCLDJK@BOTH_K7_S7_BL?$AA@ 20403cac     bg_panimate.obj
 0003:00007cbc       ??_C@_0O@DENJGMFI@BOTH_K7_S7_TL?$AA@ 20403cbc     bg_panimate.obj
 0003:00007ccc       ??_C@_0O@OAJIFDIH@BOTH_K7_S7_TR?$AA@ 20403ccc     bg_panimate.obj
 0003:00007cdc       ??_C@_0O@FFDGCNMK@BOTH_K7_S7_T_?$AA@ 20403cdc     bg_panimate.obj
 0003:00007cec       ??_C@_0O@NGKGFAOJ@BOTH_P7_S7_BR?$AA@ 20403cec     bg_panimate.obj
 0003:00007cfc       ??_C@_0O@COHGPDG@BOTH_P7_S7_BL?$AA@ 20403cfc     bg_panimate.obj
 0003:00007d0c       ??_C@_0O@BKEMLAPE@BOTH_P7_S7_TL?$AA@ 20403d0c     bg_panimate.obj
 0003:00007d1c       ??_C@_0O@MOANIPCL@BOTH_P7_S7_TR?$AA@ 20403d1c     bg_panimate.obj
 0003:00007d2c       ??_C@_0O@HLKDPBGG@BOTH_P7_S7_T_?$AA@ 20403d2c     bg_panimate.obj
 0003:00007d3c       ??_C@_0O@DAHEJJKO@BOTH_H6_S6_BR?$AA@ 20403d3c     bg_panimate.obj
 0003:00007d4c       ??_C@_0O@IFNKOHOD@BOTH_H6_S6_B_?$AA@ 20403d4c     bg_panimate.obj
 0003:00007d5c       ??_C@_0O@OEDFKGHB@BOTH_H6_S6_BL?$AA@ 20403d5c     bg_panimate.obj
 0003:00007d6c       ??_C@_0O@PMJOHJLD@BOTH_H6_S6_TL?$AA@ 20403d6c     bg_panimate.obj
 0003:00007d7c       ??_C@_0O@CINPEGGM@BOTH_H6_S6_TR?$AA@ 20403d7c     bg_panimate.obj
 0003:00007d8c       ??_C@_0O@JNHBDICB@BOTH_H6_S6_T_?$AA@ 20403d8c     bg_panimate.obj
 0003:00007d9c       ??_C@_0O@BEKLKDKL@BOTH_V6_B__S6?$AA@ 20403d9c     bg_panimate.obj
 0003:00007dac       ??_C@_0O@DDOLEOPJ@BOTH_V6_BL_S6?$AA@ 20403dac     bg_panimate.obj
 0003:00007dbc       ??_C@_0O@IMKDFPLM@BOTH_V6__L_S6?$AA@ 20403dbc     bg_panimate.obj
 0003:00007dcc       ??_C@_0O@OGGEKPHP@BOTH_V6_TL_S6?$AA@ 20403dcc     bg_panimate.obj
 0003:00007ddc       ??_C@_0O@MBCEECCN@BOTH_V6_T__S6?$AA@ 20403ddc     bg_panimate.obj
 0003:00007dec       ??_C@_0O@DJLEIGJM@BOTH_V6_TR_S6?$AA@ 20403dec     bg_panimate.obj
 0003:00007dfc       ??_C@_0O@FDHDHGFP@BOTH_V6__R_S6?$AA@ 20403dfc     bg_panimate.obj
 0003:00007e0c       ??_C@_0O@OMDLGHBK@BOTH_V6_BR_S6?$AA@ 20403e0c     bg_panimate.obj
 0003:00007e1c       ??_C@_0O@JPJKFGL@BOTH_K6_S6_BR?$AA@ 20403e1c     bg_panimate.obj
 0003:00007e2c       ??_C@_0O@LMFHNLCG@BOTH_K6_S6_B_?$AA@ 20403e2c     bg_panimate.obj
 0003:00007e3c       ??_C@_0O@NNLIJKLE@BOTH_K6_S6_BL?$AA@ 20403e3c     bg_panimate.obj
 0003:00007e4c       ??_C@_0O@MFBDEFHG@BOTH_K6_S6_TL?$AA@ 20403e4c     bg_panimate.obj
 0003:00007e5c       ??_C@_0O@BBFCHKKJ@BOTH_K6_S6_TR?$AA@ 20403e5c     bg_panimate.obj
 0003:00007e6c       ??_C@_0O@KEPMAEOE@BOTH_K6_S6_T_?$AA@ 20403e6c     bg_panimate.obj
 0003:00007e7c       ??_C@_0O@CHGMHJMH@BOTH_P6_S6_BR?$AA@ 20403e7c     bg_panimate.obj
 0003:00007e8c       ??_C@_0O@PDCNEGBI@BOTH_P6_S6_BL?$AA@ 20403e8c     bg_panimate.obj
 0003:00007e9c       ??_C@_0O@OLIGJJNK@BOTH_P6_S6_TL?$AA@ 20403e9c     bg_panimate.obj
 0003:00007eac       ??_C@_0O@DPMHKGAF@BOTH_P6_S6_TR?$AA@ 20403eac     bg_panimate.obj
 0003:00007ebc       ??_C@_0O@IKGJNIEI@BOTH_P6_S6_T_?$AA@ 20403ebc     bg_panimate.obj
 0003:00007ecc       ??_C@_0O@IIJBEMKH@BOTH_H1_S1_BR?$AA@ 20403ecc     bg_panimate.obj
 0003:00007edc       ??_C@_0O@DNDPDCOK@BOTH_H1_S1_B_?$AA@ 20403edc     bg_panimate.obj
 0003:00007eec       ??_C@_0O@FMNAHDHI@BOTH_H1_S1_BL?$AA@ 20403eec     bg_panimate.obj
 0003:00007efc       ??_C@_0O@EEHLKMLK@BOTH_H1_S1_TL?$AA@ 20403efc     bg_panimate.obj
 0003:00007f0c       ??_C@_0O@JADKJDGF@BOTH_H1_S1_TR?$AA@ 20403f0c     bg_panimate.obj
 0003:00007f1c       ??_C@_0O@CFJEONCI@BOTH_H1_S1_T_?$AA@ 20403f1c     bg_panimate.obj
 0003:00007f2c       ??_C@_0O@FBCPDMHF@BOTH_V1_B__S1?$AA@ 20403f2c     bg_panimate.obj
 0003:00007f3c       ??_C@_0O@HGGPNBCH@BOTH_V1_BL_S1?$AA@ 20403f3c     bg_panimate.obj
 0003:00007f4c       ??_C@_0O@MJCHMAGC@BOTH_V1__L_S1?$AA@ 20403f4c     bg_panimate.obj
 0003:00007f5c       ??_C@_0O@KDOADAKB@BOTH_V1_TL_S1?$AA@ 20403f5c     bg_panimate.obj
 0003:00007f6c       ??_C@_0O@IEKANNPD@BOTH_V1_T__S1?$AA@ 20403f6c     bg_panimate.obj
 0003:00007f7c       ??_C@_0O@HMDABJEC@BOTH_V1_TR_S1?$AA@ 20403f7c     bg_panimate.obj
 0003:00007f8c       ??_C@_0O@BGPHOJIB@BOTH_V1__R_S1?$AA@ 20403f8c     bg_panimate.obj
 0003:00007f9c       ??_C@_0O@KJLPPIME@BOTH_V1_BR_S1?$AA@ 20403f9c     bg_panimate.obj
 0003:00007fac       ??_C@_0O@LBBMHAGC@BOTH_K1_S1_BR?$AA@ 20403fac     bg_panimate.obj
 0003:00007fbc       ??_C@_0O@ELCAOCP@BOTH_K1_S1_B_?$AA@ 20403fbc     bg_panimate.obj
 0003:00007fcc       ??_C@_0O@GFFNEPLN@BOTH_K1_S1_BL?$AA@ 20403fcc     bg_panimate.obj
 0003:00007fdc       ??_C@_0O@HNPGJAHP@BOTH_K1_S1_TL?$AA@ 20403fdc     bg_panimate.obj
 0003:00007fec       ??_C@_0O@KJLHKPKA@BOTH_K1_S1_TR?$AA@ 20403fec     bg_panimate.obj
 0003:00007ffc       ??_C@_0O@BMBJNBON@BOTH_K1_S1_T_?$AA@ 20403ffc     bg_panimate.obj
 0003:0000800c       ??_C@_0O@JPIJKMMO@BOTH_P1_S1_BR?$AA@ 2040400c     bg_panimate.obj
 0003:0000801c       ??_C@_0O@ELMIJDBB@BOTH_P1_S1_BL?$AA@ 2040401c     bg_panimate.obj
 0003:0000802c       ??_C@_0O@FDGDEMND@BOTH_P1_S1_TL?$AA@ 2040402c     bg_panimate.obj
 0003:0000803c       ??_C@_0O@IHCCHDAM@BOTH_P1_S1_TR?$AA@ 2040403c     bg_panimate.obj
 0003:0000804c       ??_C@_0O@DCIMANEB@BOTH_P1_S1_T_?$AA@ 2040404c     bg_panimate.obj
 0003:0000805c       ??_C@_0O@OHBCOAEI@BOTH_D7_B____?$AA@ 2040405c     bg_panimate.obj
 0003:0000806c       ??_C@_0O@MAFCANBK@BOTH_D7_BL___?$AA@ 2040406c     bg_panimate.obj
 0003:0000807c       ??_C@_0O@HPBKBMFP@BOTH_D7__L___?$AA@ 2040407c     bg_panimate.obj
 0003:0000808c       ??_C@_0O@BFNNOMJM@BOTH_D7_TL___?$AA@ 2040408c     bg_panimate.obj
 0003:0000809c       ??_C@_0O@MKANMFHP@BOTH_D7_TR___?$AA@ 2040409c     bg_panimate.obj
 0003:000080ac       ??_C@_0O@KAMKDFLM@BOTH_D7__R___?$AA@ 204040ac     bg_panimate.obj
 0003:000080bc       ??_C@_0O@BPICCEPJ@BOTH_D7_BR___?$AA@ 204040bc     bg_panimate.obj
 0003:000080cc       ??_C@_0O@LDEIHEJA@BOTH_B7_BL___?$AA@ 204040cc     bg_panimate.obj
 0003:000080dc       ??_C@_0O@MAAGFNF@BOTH_B7__L___?$AA@ 204040dc     bg_panimate.obj
 0003:000080ec       ??_C@_0O@GGMHJFBG@BOTH_B7_TL___?$AA@ 204040ec     bg_panimate.obj
 0003:000080fc       ??_C@_0O@EBIHHIEE@BOTH_B7_T____?$AA@ 204040fc     bg_panimate.obj
 0003:0000810c       ??_C@_0O@LJBHLMPF@BOTH_B7_TR___?$AA@ 2040410c     bg_panimate.obj
 0003:0000811c       ??_C@_0O@NDNAEMDG@BOTH_B7__R___?$AA@ 2040411c     bg_panimate.obj
 0003:0000812c       ??_C@_0O@GMJIFNHD@BOTH_B7_BR___?$AA@ 2040412c     bg_panimate.obj
 0003:0000813c       ??_C@_0O@LBOJOGEP@BOTH_R7_TR_S7?$AA@ 2040413c     bg_panimate.obj
 0003:0000814c       ??_C@_0O@LLLGCOCK@BOTH_R7_BL_S7?$AA@ 2040414c     bg_panimate.obj
 0003:0000815c       ??_C@_0O@GEGGAHMJ@BOTH_R7_BR_S7?$AA@ 2040415c     bg_panimate.obj
 0003:0000816c       ??_C@_0O@GODJMPKM@BOTH_R7_TL_S7?$AA@ 2040416c     bg_panimate.obj
 0003:0000817c       ??_C@_0O@NLCOBGIM@BOTH_R7__R_S7?$AA@ 2040417c     bg_panimate.obj
 0003:0000818c       ??_C@_0O@EPODPGP@BOTH_R7__L_S7?$AA@ 2040418c     bg_panimate.obj
 0003:0000819c       ??_C@_0O@JMPGMDHI@BOTH_R7_B__S7?$AA@ 2040419c     bg_panimate.obj
