 uix86

 Timestamp is 4e0408e5 (Thu Jun 23 23:47:49 2011)

 Preferred load address is 40000000

 Start         Length     Name                   Class
 0001:00000000 00065bdaH .textbss                DATA
 0002:00000000 000cfcd0H .text                   CODE
 0002:000cfcd0 00002421H .text$x                 CODE
 0002:000d2100 0000114aH .text$yc                CODE
 0002:000d3250 000010daH .text$yd                CODE
 0003:00000000 00000104H .CRT$XCA                DATA
 0003:00000104 00000104H .CRT$XCC                DATA
 0003:00000208 00000112H .CRT$XCU                DATA
 0003:0000031c 00000104H .CRT$XCZ                DATA
 0003:00000420 00000104H .CRT$XIA                DATA
 0003:00000524 00000118H .CRT$XIC                DATA
 0003:0000063c 00000104H .CRT$XIZ                DATA
 0003:00000740 00000104H .CRT$XPA                DATA
 0003:00000844 00000109H .CRT$XPX                DATA
 0003:00000950 00000104H .CRT$XPXA               DATA
 0003:00000a54 00000104H .CRT$XPZ                DATA
 0003:00000b58 00000104H .CRT$XTA                DATA
 0003:00000c5c 00000104H .CRT$XTZ                DATA
 0003:00000d60 0002958aH .rdata                  DATA
 0003:0002a2ec 0000014bH .rdata$debug            DATA
 0003:0002a438 000006f0H .rdata$r                DATA
 0003:0002ab28 00000104H .rtc$IAA                DATA
 0003:0002ac2c 00000139H .rtc$IMZ                DATA
 0003:0002ad68 00000104H .rtc$IZZ                DATA
 0003:0002ae6c 00000104H .rtc$TAA                DATA
 0003:0002af70 00000139H .rtc$TMZ                DATA
 0003:0002b0ac 00000104H .rtc$TZZ                DATA
 0003:0002b1b0 00002423H .xdata$x                DATA
 0003:0002d5e0 00000167H .edata                  DATA
 0004:00000000 0000b2cdH .data                   DATA
 0004:0000b2e0 00580648H .bss                    DATA
 0005:00000000 00000014H .idata$2                DATA
 0005:00000014 00000014H .idata$3                DATA
 0005:00000028 000001bcH .idata$4                DATA
 0005:000001e4 000001bcH .idata$5                DATA
 0005:000003a0 000007b6H .idata$6                DATA
 0006:00000000 00000169H .rsrc$01                DATA
 0006:00000170 000002e9H .rsrc$02                DATA

  Address         Publics by Value              Rva+Base       Lib:Object

 0000:00000000       __except_list              00000000     <absolute>
 0000:00000000       ___safe_se_handler_count   00000000     <absolute>
 0000:00000000       ___safe_se_handler_table   00000000     <absolute>
 0000:00000000       ___ImageBase               40000000     <linker-defined>
 0001:00000000       __enc$textbss$begin        40001000     <linker-defined>
 0001:00065bda       __enc$textbss$end          40066bda     <linker-defined>
 0002:00005630       ?BG_FileExists@@YA?AW4qboolean@@PBD@Z 4006c630 f   bg_misc.obj
 0002:00005710       ?BG_LegalizedForcePowers@@YA?AW4qboolean@@PADHW41@HHH@Z 4006c710 f   bg_misc.obj
 0002:00006590       ?vectoyaw@@YAMQBM@Z        4006d590 f   bg_misc.obj
 0002:000066b0       ?atan2@@YAMMM@Z            4006d6b0 f i bg_misc.obj
 0002:00006710       _atan2f                    4006d710 f i bg_misc.obj
 0002:00006780       ?BG_HasYsalamiri@@YA?AW4qboolean@@HPAUplayerState_s@@@Z 4006d780 f   bg_misc.obj
 0002:00006800       ?BG_CanUseFPNow@@YA?AW4qboolean@@HPAUplayerState_s@@HH@Z 4006d800 f   bg_misc.obj
 0002:00006a30       ?BG_FindItemForPowerup@@YAPAUgitem_s@@H@Z 4006da30 f   bg_misc.obj
 0002:00006ae0       ?BG_FindItemForHoldable@@YAPAUgitem_s@@H@Z 4006dae0 f   bg_misc.obj
 0002:00006ba0       ?BG_FindItemForWeapon@@YAPAUgitem_s@@H@Z 4006dba0 f   bg_misc.obj
 0002:00006c40       ?BG_FindItemForAmmo@@YAPAUgitem_s@@W4ammo_t@@@Z 4006dc40 f   bg_misc.obj
 0002:00006ce0       ?BG_FindItem@@YAPAUgitem_s@@PBD@Z 4006dce0 f   bg_misc.obj
 0002:00006d70       ?BG_PlayerTouchesItem@@YA?AW4qboolean@@PAUplayerState_s@@PAUentityState_s@@H@Z 4006dd70 f   bg_misc.obj
 0002:00006ed0       ?BG_ProperForceIndex@@YAHH@Z 4006ded0 f   bg_misc.obj
 0002:00006f40       ?BG_CycleForce@@YAXPAUplayerState_s@@H@Z 4006df40 f   bg_misc.obj
 0002:00007120       ?BG_GetItemIndexByTag@@YAHHH@Z 4006e120 f   bg_misc.obj
 0002:000071b0       ?BG_IsItemSelectable@@YA?AW4qboolean@@PAUplayerState_s@@H@Z 4006e1b0 f   bg_misc.obj
 0002:00007200       ?BG_CycleInven@@YAXPAUplayerState_s@@H@Z 4006e200 f   bg_misc.obj
 0002:00007370       ?BG_CanItemBeGrabbed@@YA?AW4qboolean@@HPBUentityState_s@@PBUplayerState_s@@@Z 4006e370 f   bg_misc.obj
 0002:000079b0       ?BG_EvaluateTrajectory@@YAXPBUtrajectory_t@@HQAM@Z 4006e9b0 f   bg_misc.obj
 0002:00007e70       ?cos@@YAMM@Z               4006ee70 f i bg_misc.obj
 0002:00007ed0       _cosf                      4006eed0 f i bg_misc.obj
 0002:00007f40       ?sin@@YAMM@Z               4006ef40 f i bg_misc.obj
 0002:00007fa0       _sinf                      4006efa0 f i bg_misc.obj
 0002:00008010       ?BG_EvaluateTrajectoryDelta@@YAXPBUtrajectory_t@@HQAM@Z 4006f010 f   bg_misc.obj
 0002:000083a0       ?BG_AddPredictableEventToPlayerstate@@YAXHHPAUplayerState_s@@@Z 4006f3a0 f   bg_misc.obj
 0002:000084c0       ?BG_TouchJumpPad@@YAXPAUplayerState_s@@PAUentityState_s@@@Z 4006f4c0 f   bg_misc.obj
 0002:00008640       ?fabs@@YAMM@Z              4006f640 f i bg_misc.obj
 0002:000086a0       _fabsf                     4006f6a0 f i bg_misc.obj
 0002:00008710       ?BG_EmplacedView@@YAHQAM0PAMM@Z 4006f710 f   bg_misc.obj
 0002:00008870       ?BG_IsValidCharacterModel@@YA?AW4qboolean@@PBD0@Z 4006f870 f   bg_misc.obj
 0002:00008960       ?BG_ValidateSkinForTeam@@YA?AW4qboolean@@PBDPADHPAM@Z 4006f960 f   bg_misc.obj
 0002:00008d80       ?strchr@@YAPADPADH@Z       4006fd80 f i bg_misc.obj
 0002:00008de0       ?BG_PlayerStateToEntityState@@YAXPAUplayerState_s@@PAUentityState_s@@W4qboolean@@@Z 4006fde0 f   bg_misc.obj
 0002:00009640       ?BG_PlayerStateToEntityStateExtraPolate@@YAXPAUplayerState_s@@PAUentityState_s@@HW4qboolean@@@Z 40070640 f   bg_misc.obj
 0002:00009dd0       ?BG_ModelCache@@YAHPBD0@Z  40070dd0 f   bg_misc.obj
 0002:00009e40       ?BG_Alloc@@YAPAXH@Z        40070e40 f   bg_misc.obj
 0002:00009f00       ?BG_AllocUnaligned@@YAPAXH@Z 40070f00 f   bg_misc.obj
 0002:00009fa0       ?BG_TempAlloc@@YAPAXH@Z    40070fa0 f   bg_misc.obj
 0002:0000a050       ?BG_TempFree@@YAXH@Z       40071050 f   bg_misc.obj
 0002:0000a0f0       ?BG_StringAlloc@@YAPADPBD@Z 400710f0 f   bg_misc.obj
 0002:0000a170       ?BG_OutOfMemory@@YA?AW4qboolean@@XZ 40071170 f   bg_misc.obj
 0002:0000a1c0       ?BG_IsWhiteSpace@@YA?AW4qboolean@@D@Z 400711c0 f   bg_misc.obj
 0002:0000a220       ?BG_IsLMSGametype@@YA?AW4qboolean@@H@Z 40071220 f   bg_misc.obj
 0002:0000a270       ?BG_IsUsingMediumWeap@@YA?AW4qboolean@@PAUplayerState_s@@@Z 40071270 f   bg_misc.obj
 0002:0000a330       ?BG_IsUsingHeavyWeap@@YA?AW4qboolean@@PAUplayerState_s@@@Z 40071330 f   bg_misc.obj
 0002:0000a400       ?BG_SiegeStripTabs@@YAXPAD@Z 40071400 f   bg_saga.obj
 0002:0000a4b0       ?BG_GetNextValueGroup@@YAPADPAD0@Z 400714b0 f   bg_saga.obj
 0002:0000a6b0       ?BG_SiegeGetValueGroup@@YAHPAD00@Z 400716b0 f   bg_saga.obj
 0002:0000af80       ?BG_SiegeGetPairedValue@@YAHPAD00@Z 40071f80 f   bg_saga.obj
 0002:0000b610       ?BG_SiegeTranslateForcePowers@@YAXPADPAUsiegeClass_t@@@Z 40072610 f   bg_saga.obj
 0002:0000bb30       ?BG_SiegeTranslateGenericTable@@YAHPADPAUstringID_table_s@@W4qboolean@@@Z 40072b30 f   bg_saga.obj
 0002:0000be10       ?BG_SiegeParseClassFile@@YAXPBDPAUsiegeClassDesc_t@@@Z 40072e10 f   bg_saga.obj
 0002:0000cb80       ?BG_SiegeCountBaseClass@@YAHHF@Z 40073b80 f   bg_saga.obj
 0002:0000cc50       ?BG_GetUIPortraitFile@@YAPADHFF@Z 40073c50 f   bg_saga.obj
 0002:0000cd40       ?BG_GetUIPortrait@@YAHHFF@Z 40073d40 f   bg_saga.obj
 0002:0000ce30       ?BG_GetClassOnBaseClass@@YAPAUsiegeClass_t@@HFF@Z 40073e30 f   bg_saga.obj
 0002:0000cf10       ?BG_SiegeLoadClasses@@YAXPAUsiegeClassDesc_t@@@Z 40073f10 f   bg_saga.obj
 0002:0000d0f0       ?BG_SiegeFindClassByName@@YAPAUsiegeClass_t@@PBD@Z 400740f0 f   bg_saga.obj
 0002:0000d1a0       ?BG_SiegeParseTeamFile@@YAXPBD@Z 400741a0 f   bg_saga.obj
 0002:0000d570       ?BG_SiegeLoadTeams@@YAXXZ  40074570 f   bg_saga.obj
 0002:0000d710       ?BG_SiegeFindThemeForTeam@@YAPAUsiegeTeam_t@@H@Z 40074710 f   bg_saga.obj
 0002:0000d770       ?BG_SiegeCheckClassLegality@@YA?AW4qboolean@@HPAD@Z 40074770 f   bg_saga.obj
 0002:0000d880       ?BG_SiegeFindTeamForTheme@@YAPAUsiegeTeam_t@@PAD@Z 40074880 f   bg_saga.obj
 0002:0000d940       ?BG_SiegeSetTeamTheme@@YAXHPAD@Z 40074940 f   bg_saga.obj
 0002:0000d9c0       ?BG_SiegeFindClassIndexByName@@YAHPBD@Z 400749c0 f   bg_saga.obj
 0002:0000da60       ?Q_rand@@YAHPAH@Z          40074a60 f   q_math.obj
 0002:0000dab0       ?Q_random@@YAMPAH@Z        40074ab0 f   q_math.obj
 0002:0000db30       ?Q_crandom@@YAMPAH@Z       40074b30 f   q_math.obj
 0002:0000dba0       ?ClampChar@@YACH@Z         40074ba0 f   q_math.obj
 0002:0000dbf0       ?ClampShort@@YAFH@Z        40074bf0 f   q_math.obj
 0002:0000dc50       ?DirToByte@@YAHQAM@Z       40074c50 f   q_math.obj
 0002:0000dd40       ?ByteToDir@@YAXHQAM@Z      40074d40 f   q_math.obj
 0002:0000de00       ?ColorBytes3@@YAIMMM@Z     40074e00 f   q_math.obj
 0002:0000df20       ?ColorBytes4@@YAIMMMM@Z    40074f20 f   q_math.obj
 0002:0000e080       ?NormalizeColor@@YAMQBMQAM@Z 40075080 f   q_math.obj
 0002:0000e170       ?PlaneFromPoints@@YA?AW4qboolean@@QAMQBM11@Z 40075170 f   q_math.obj
 0002:0000e3a0       ?RotatePointAroundVector@@YAXQAMQBM1M@Z 400753a0 f   q_math.obj
 0002:0000e760       ?RotateAroundDirection@@YAXQAY02MM@Z 40075760 f   q_math.obj
 0002:0000e880       ?vectoangles@@YAXQBMQAM@Z  40075880 f   q_math.obj
 0002:0000ea80       ?sqrt@@YAMM@Z              40075a80 f i q_math.obj
 0002:0000eae0       _sqrtf                     40075ae0 f i q_math.obj
 0002:0000eb50       ?AnglesToAxis@@YAXQBMQAY02M@Z 40075b50 f   q_math.obj
 0002:0000ec50       ?AxisClear@@YAXQAY02M@Z    40075c50 f   q_math.obj
 0002:0000ece0       ?AxisCopy@@YAXQAY02M0@Z    40075ce0 f   q_math.obj
 0002:0000eda0       ?ProjectPointOnPlane@@YAXQAMQBM1@Z 40075da0 f   q_math.obj
 0002:0000ef50       ?MakeNormalVectors@@YAXQBMQAM1@Z 40075f50 f   q_math.obj
 0002:0000f080       ?VectorRotate@@YAXQAMQAY02M0@Z 40076080 f   q_math.obj
 0002:0000f160       ?Q_rsqrt@@YAMM@Z           40076160 f   q_math.obj
 0002:0000f1f0       ?Q_fabs@@YAMM@Z            400761f0 f   q_math.obj
 0002:0000f240       ?LerpAngle@@YAMMMM@Z       40076240 f   q_math.obj
 0002:0000f2e0       ?AngleSubtract@@YAMMM@Z    400762e0 f   q_math.obj
 0002:0000f3a0       ?fmod@@YAMMM@Z             400763a0 f i q_math.obj
 0002:0000f400       _fmodf                     40076400 f i q_math.obj
 0002:0000f470       ?AnglesSubtract@@YAXQAM00@Z 40076470 f   q_math.obj
 0002:0000f530       ?AngleMod@@YAMM@Z          40076530 f   q_math.obj
 0002:0000f5b0       ?AngleNormalize360@@YAMM@Z 400765b0 f   q_math.obj
 0002:0000f630       ?AngleNormalize180@@YAMM@Z 40076630 f   q_math.obj
 0002:0000f6b0       ?AngleDelta@@YAMMM@Z       400766b0 f   q_math.obj
 0002:0000f720       ?SetPlaneSignbits@@YAXPAUcplane_s@@@Z 40076720 f   q_math.obj
 0002:0000f7c0       ?BoxOnPlaneSide@@YAHQAM0PAUcplane_s@@@Z 400767c0 f   q_math.obj
 0002:0000fa90       ?RadiusFromBounds@@YAMQBM0@Z 40076a90 f   q_math.obj
 0002:0000fc60       ?ClearBounds@@YAXQAM0@Z    40076c60 f   q_math.obj
 0002:0000fcf0       ?DistanceHorizontal@@YAMQBM0@Z 40076cf0 f   q_math.obj
 0002:0000fde0       ?DistanceHorizontalSquared@@YAMQBM0@Z 40076de0 f   q_math.obj
 0002:0000feb0       ?AddPointToBounds@@YAXQBMQAM1@Z 40076eb0 f   q_math.obj
 0002:0000ffd0       ?VectorNormalize@@YAMQAM@Z 40076fd0 f   q_math.obj
 0002:000100b0       ?VectorNormalize2@@YAMQBMQAM@Z 400770b0 f   q_math.obj
 0002:000101b0       ?_VectorMA@@YAXQBMM0QAM@Z  400771b0 f   q_math.obj
 0002:00010230       ?_DotProduct@@YAMQBM0@Z    40077230 f   q_math.obj
 0002:000102a0       ?_VectorSubtract@@YAXQBM0QAM@Z 400772a0 f   q_math.obj
 0002:00010310       ?_VectorAdd@@YAXQBM0QAM@Z  40077310 f   q_math.obj
 0002:00010380       ?_VectorCopy@@YAXQBMQAM@Z  40077380 f   q_math.obj
 0002:000103e0       ?_VectorScale@@YAXQBMMQAM@Z 400773e0 f   q_math.obj
 0002:00010450       ?Vector4Scale@@YAXQBMMQAM@Z 40077450 f   q_math.obj
 0002:000104d0       ?Q_log2@@YAHH@Z            400774d0 f   q_math.obj
 0002:00010530       ?MatrixMultiply@@YAXQAY02M00@Z 40077530 f   q_math.obj
 0002:00010760       ?AngleVectors@@YAXQBMQAM11@Z 40077760 f   q_math.obj
 0002:000109f0       ?PerpendicularVector@@YAXQAMQBM@Z 400779f0 f   q_math.obj
 0002:00010b50       ?NormalToLatLong@@YAXQBMQAE@Z 40077b50 f   q_math.obj
 0002:00010cb0       ?acos@@YAMM@Z              40077cb0 f i q_math.obj
 0002:00010d10       _acosf                     40077d10 f i q_math.obj
 0002:00010d80       ?Rand_Init@@YAXH@Z         40077d80 f   q_math.obj
 0002:00010dc0       ?flrand@@YAMMM@Z           40077dc0 f   q_math.obj
 0002:00010e50       ?Q_flrand@@YAMMM@Z         40077e50 f   q_math.obj
 0002:00010eb0       ?irand@@YAHHH@Z            40077eb0 f   q_math.obj
 0002:00010f70       ?Q_irand@@YAHHH@Z          40077f70 f   q_math.obj
 0002:00010fd0       ?DotProductNormalize@@YAMQBM0@Z 40077fd0 f   q_math.obj
 0002:000110d0       ?G_FindClosestPointOnLineSegment@@YA?AW4qboolean@@QBM00QAM@Z 400780d0 f   q_math.obj
 0002:00011610       ?G_PointDistFromLineSegment@@YAMQBM00@Z 40078610 f   q_math.obj
 0002:00011af0       ?G_FindClosestPointBetweenLineSegments@@YAXQAM0000@Z 40078af0 f   q_math.obj
 0002:00011e10       ?ShortestLineSegBewteen2LineSegs@@YAMQAM00000@Z 40078e10 f   q_math.obj
 0002:00012720       ?VectorDistance@@YAMQAM0@Z 40079720 f   q_math.obj
 0002:00012800       ?GetIDForString@@YAHPAUstringID_table_s@@PBD@Z 40079800 f   q_shared.obj
 0002:000128b0       ?GetStringForID@@YAPBDPAUstringID_table_s@@H@Z 400798b0 f   q_shared.obj
 0002:00012940       ?Com_Clampi@@YAHHHH@Z      40079940 f   q_shared.obj
 0002:000129a0       ?Com_Clamp@@YAMMMM@Z       400799a0 f   q_shared.obj
 0002:00012a10       ?COM_SkipPath@@YAPADPAD@Z  40079a10 f   q_shared.obj
 0002:00012a80       ?COM_StripExtension@@YAXPBDPAD@Z 40079a80 f   q_shared.obj
 0002:00012b00       ?COM_DefaultExtension@@YAXPADHPBD@Z 40079b00 f   q_shared.obj
 0002:00012c20       ?ShortSwap@@YAFF@Z         40079c20 f   q_shared.obj
 0002:00012c80       ?ShortNoSwap@@YAFF@Z       40079c80 f   q_shared.obj
 0002:00012cc0       ?LongSwap@@YAHH@Z          40079cc0 f   q_shared.obj
 0002:00012d60       ?LongNoSwap@@YAHH@Z        40079d60 f   q_shared.obj
 0002:00012da0       ?Long64Swap@@YA?AUqint64@@U1@@Z 40079da0 f   q_shared.obj
 0002:00012e50       ?Long64NoSwap@@YA?AUqint64@@U1@@Z 40079e50 f   q_shared.obj
 0002:00012e90       ?FloatSwap@@YAMPBM@Z       40079e90 f   q_shared.obj
 0002:00012f30       ?FloatNoSwap@@YAMPBM@Z     40079f30 f   q_shared.obj
 0002:00012f70       ?COM_BeginParseSession@@YAXPBD@Z 40079f70 f   q_shared.obj
 0002:00012fe0       ?COM_GetCurrentParseLine@@YAHXZ 40079fe0 f   q_shared.obj
 0002:00013020       ?COM_Parse@@YAPADPAPBD@Z   4007a020 f   q_shared.obj
 0002:00013070       ?COM_ParseError@@YAXPADZZ  4007a070 f   q_shared.obj
 0002:00013100       ?COM_ParseWarning@@YAXPADZZ 4007a100 f   q_shared.obj
 0002:00013190       ?SkipWhitespace@@YAPBDPBDPAW4qboolean@@@Z 4007a190 f   q_shared.obj
 0002:00013220       ?COM_Compress@@YAHPAD@Z    4007a220 f   q_shared.obj
 0002:000134c0       ?COM_ParseExt@@YAPADPAPBDW4qboolean@@@Z 4007a4c0 f   q_shared.obj
 0002:000137f0       ?COM_ParseString@@YA?AW4qboolean@@PAPBD0@Z 4007a7f0 f   q_shared.obj
 0002:00013870       ?COM_ParseInt@@YA?AW4qboolean@@PAPBDPAH@Z 4007a870 f   q_shared.obj
 0002:00013910       ?COM_ParseFloat@@YA?AW4qboolean@@PAPBDPAM@Z 4007a910 f   q_shared.obj
 0002:000139b0       ?COM_ParseVec4@@YA?AW4qboolean@@PAPBDPAY03M@Z 4007a9b0 f   q_shared.obj
 0002:00013a80       ?COM_MatchToken@@YAXPAPBDPAD@Z 4007aa80 f   q_shared.obj
 0002:00013b10       ?SkipBracedSection@@YAXPAPBD@Z 4007ab10 f   q_shared.obj
 0002:00013bc0       ?SkipRestOfLine@@YAXPAPBD@Z 4007abc0 f   q_shared.obj
 0002:00013c70       ?Parse1DMatrix@@YAXPAPBDHPAM@Z 4007ac70 f   q_shared.obj
 0002:00013d30       ?Parse2DMatrix@@YAXPAPBDHHPAM@Z 4007ad30 f   q_shared.obj
 0002:00013df0       ?Parse3DMatrix@@YAXPAPBDHHHPAM@Z 4007adf0 f   q_shared.obj
 0002:00013eb0       ?Q_isprint@@YAHH@Z         4007aeb0 f   q_shared.obj
 0002:00013f00       ?Q_islower@@YAHH@Z         4007af00 f   q_shared.obj
 0002:00013f50       ?Q_isupper@@YAHH@Z         4007af50 f   q_shared.obj
 0002:00013fa0       ?Q_isalpha@@YAHH@Z         4007afa0 f   q_shared.obj
 0002:00014000       ?Q_strrchr@@YAPADPBDH@Z    4007b000 f   q_shared.obj
 0002:00014090       ?Q_strncpyz@@YAXPADPBDH@Z  4007b090 f   q_shared.obj
 0002:00014150       ?Q_stricmpn@@YAHPBD0H@Z    4007b150 f   q_shared.obj
 0002:00014280       ?Q_strncmp@@YAHPBD0H@Z     4007b280 f   q_shared.obj
 0002:00014330       ?Q_stricmp@@YAHPBD0@Z      4007b330 f   q_shared.obj
 0002:000143c0       ?Q_stristr@@YAPADPBD0@Z    4007b3c0 f   q_shared.obj
 0002:00014530       ?Q_StrReplace@@YAPADPAD00@Z 4007b530 f   q_shared.obj
 0002:00014810       ?COM_BitCheck@@YA?AW4qboolean@@QBHH@Z 4007b810 f   q_shared.obj
 0002:000148a0       ?COM_BitSet@@YAXQAHH@Z     4007b8a0 f   q_shared.obj
 0002:00014930       ?COM_BitClear@@YAXQAHH@Z   4007b930 f   q_shared.obj
 0002:000149c0       ?Q_strlwr@@YAPADPAD@Z      4007b9c0 f   q_shared.obj
 0002:00014a40       ?Q_strupr@@YAPADPAD@Z      4007ba40 f   q_shared.obj
 0002:00014ac0       ?Q_strcat@@YAXPADHPBD@Z    4007bac0 f   q_shared.obj
 0002:00014b50       ?Q_PrintStrlen@@YAHPBD@Z   4007bb50 f   q_shared.obj
 0002:00014c30       ?Q_CleanStr@@YAPADPAD@Z    4007bc30 f   q_shared.obj
 0002:00014d20       ?Q_vsnprintf@@YAHPADHPBD0@Z 4007bd20 f   q_shared.obj
 0002:00014db0       ?Com_sprintf@@YAXPADHPBDZZ 4007bdb0 f   q_shared.obj
 0002:00014e40       ?va@@YAPADPADZZ            4007be40 f   q_shared.obj
 0002:00014f50       ?Info_ValueForKey@@YAPADPBD0@Z 4007bf50 f   q_shared.obj
 0002:000151b0       ?Info_NextPair@@YAXPAPBDPAD1@Z 4007c1b0 f   q_shared.obj
 0002:000152e0       ?Info_RemoveKey@@YAXPADPBD@Z 4007c2e0 f   q_shared.obj
 0002:00015540       ?Info_RemoveKey_Big@@YAXPADPBD@Z 4007c540 f   q_shared.obj
 0002:000157a0       ?Info_Validate@@YA?AW4qboolean@@PBD@Z 4007c7a0 f   q_shared.obj
 0002:00015820       ?Info_SetValueForKey@@YAXPADPBD1@Z 4007c820 f   q_shared.obj
 0002:00015a70       ?Info_SetValueForKey_Big@@YAXPADPBD1@Z 4007ca70 f   q_shared.obj
 0002:00015cb0       ??0StackPanel@@QAE@XZ      4007ccb0 f   StackPanel.obj
 0002:00015d20       ??0ContainerElement@@QAE@XZ 4007cd20 f i StackPanel.obj
 0002:00015df0       ??0UIElement@@QAE@XZ       4007cdf0 f i StackPanel.obj
 0002:00015e60       ??0Rectangle@@QAE@XZ       4007ce60 f i StackPanel.obj
 0002:00015ea0       ??1UIElement@@QAE@XZ       4007cea0 f i StackPanel.obj
 0002:00015ee0       ?Arrange@UIElement@@UAEXXZ 4007cee0 f i StackPanel.obj
 0002:00015f20       ?Draw@UIElement@@UAEXXZ    4007cf20 f i StackPanel.obj
 0002:00015f60       ?Draw@ContainerElement@@UAEXXZ 4007cf60 f i StackPanel.obj
 0002:000161b0       ?DrawElement@ContainerElement@@IAEXPAVUIElement@@@Z 4007d1b0 f i StackPanel.obj
 0002:000164b0       ?GetOldChildren@ContainerElement@@QAE?AV?$list@PAUitemDef_s@@V?$allocator@PAUitemDef_s@@@std@@@std@@XZ 4007d4b0 f i StackPanel.obj
 0002:00016530       ?GetChildren@ContainerElement@@QAE?AV?$list@PAVUIElement@@V?$allocator@PAVUIElement@@@std@@@std@@XZ 4007d530 f i StackPanel.obj
 0002:000165b0       ??1?$_List_iterator@V?$_List_val@PAUitemDef_s@@V?$allocator@PAUitemDef_s@@@std@@@std@@@std@@QAE@XZ 4007d5b0 f i StackPanel.obj
 0002:00016600       ??1?$_List_iterator@V?$_List_val@PAVUIElement@@V?$allocator@PAVUIElement@@@std@@@std@@@std@@QAE@XZ 4007d600 f i StackPanel.obj
 0002:00016650       ??1?$_List_const_iterator@V?$_List_val@PAUitemDef_s@@V?$allocator@PAUitemDef_s@@@std@@@std@@@std@@QAE@XZ 4007d650 f i StackPanel.obj
 0002:000166a0       ??1?$_List_const_iterator@V?$_List_val@PAVUIElement@@V?$allocator@PAVUIElement@@@std@@@std@@@std@@QAE@XZ 4007d6a0 f i StackPanel.obj
 0002:000166f0       ??1?$_List_unchecked_const_iterator@V?$_List_val@PAUitemDef_s@@V?$allocator@PAUitemDef_s@@@std@@@std@@U_Iterator_base12@2@@std@@QAE@XZ 4007d6f0 f i StackPanel.obj
 0002:00016740       ??1?$_List_unchecked_const_iterator@V?$_List_val@PAVUIElement@@V?$allocator@PAVUIElement@@@std@@@std@@U_Iterator_base12@2@@std@@QAE@XZ 4007d740 f i StackPanel.obj
 0002:00016790       ??1?$_Iterator012@Ubidirectional_iterator_tag@std@@PAUitemDef_s@@HPBQAU3@ABQAU3@U_Iterator_base12@2@@std@@QAE@XZ 4007d790 f i StackPanel.obj
 0002:000167e0       ??1_Iterator_base12@std@@QAE@XZ 4007d7e0 f i StackPanel.obj
 0002:000168d0       ?_Orphan_me@_Iterator_base12@std@@QAEXXZ 4007d8d0 f i StackPanel.obj
 0002:000169a0       ??1?$_Iterator012@Ubidirectional_iterator_tag@std@@PAVUIElement@@HPBQAV3@ABQAV3@U_Iterator_base12@2@@std@@QAE@XZ 4007d9a0 f i StackPanel.obj
 0002:000169f0       ?Arrange@StackPanel@@UAEXXZ 4007d9f0 f   StackPanel.obj
 0002:00016d90       ?SetPosition@Rectangle@@QAEXMM@Z 4007dd90 f i StackPanel.obj
 0002:00016de0       ?GetRectangle@UIElement@@QAEPAVRectangle@@XZ 4007dde0 f i StackPanel.obj
 0002:00016e20       ??0?$list@PAVUIElement@@V?$allocator@PAVUIElement@@@std@@@std@@QAE@XZ 4007de20 f i StackPanel.obj
 0002:00016e90       ??0?$list@PAVUIElement@@V?$allocator@PAVUIElement@@@std@@@std@@QAE@ABV01@@Z 4007de90 f i StackPanel.obj
 0002:00017060       ??1?$list@PAVUIElement@@V?$allocator@PAVUIElement@@@std@@@std@@QAE@XZ 4007e060 f i StackPanel.obj
 0002:00017100       ?begin@?$list@PAVUIElement@@V?$allocator@PAVUIElement@@@std@@@std@@QAE?AV?$_List_iterator@V?$_List_val@PAVUIElement@@V?$allocator@PAVUIElement@@@std@@@std@@@2@XZ 4007e100 f i StackPanel.obj
 0002:00017190       ?end@?$list@PAVUIElement@@V?$allocator@PAVUIElement@@@std@@@std@@QAE?AV?$_List_iterator@V?$_List_val@PAVUIElement@@V?$allocator@PAVUIElement@@@std@@@std@@@2@XZ 4007e190 f i StackPanel.obj
 0002:00017220       ??0?$list@PAUitemDef_s@@V?$allocator@PAUitemDef_s@@@std@@@std@@QAE@XZ 4007e220 f i StackPanel.obj
 0002:00017290       ??0?$list@PAUitemDef_s@@V?$allocator@PAUitemDef_s@@@std@@@std@@QAE@ABV01@@Z 4007e290 f i StackPanel.obj
 0002:00017460       ??1?$list@PAUitemDef_s@@V?$allocator@PAUitemDef_s@@@std@@@std@@QAE@XZ 4007e460 f i StackPanel.obj
 0002:00017500       ?begin@?$list@PAUitemDef_s@@V?$allocator@PAUitemDef_s@@@std@@@std@@QAE?AV?$_List_iterator@V?$_List_val@PAUitemDef_s@@V?$allocator@PAUitemDef_s@@@std@@@std@@@2@XZ 4007e500 f i StackPanel.obj
 0002:00017590       ?end@?$list@PAUitemDef_s@@V?$allocator@PAUitemDef_s@@@std@@@std@@QAE?AV?$_List_iterator@V?$_List_val@PAUitemDef_s@@V?$allocator@PAUitemDef_s@@@std@@@std@@@2@XZ 4007e590 f i StackPanel.obj
 0002:00017620       ??D?$_List_iterator@V?$_List_val@PAUitemDef_s@@V?$allocator@PAUitemDef_s@@@std@@@std@@@std@@QBEAAPAUitemDef_s@@XZ 4007e620 f i StackPanel.obj
 0002:00017670       ??E?$_List_iterator@V?$_List_val@PAUitemDef_s@@V?$allocator@PAUitemDef_s@@@std@@@std@@@std@@QAEAAV01@XZ 4007e670 f i StackPanel.obj
 0002:000176d0       ??9?$_List_const_iterator@V?$_List_val@PAUitemDef_s@@V?$allocator@PAUitemDef_s@@@std@@@std@@@std@@QBE_NABV01@@Z 4007e6d0 f i StackPanel.obj
 0002:00017740       ??D?$_List_iterator@V?$_List_val@PAVUIElement@@V?$allocator@PAVUIElement@@@std@@@std@@@std@@QBEAAPAVUIElement@@XZ 4007e740 f i StackPanel.obj
 0002:00017790       ??E?$_List_iterator@V?$_List_val@PAVUIElement@@V?$allocator@PAVUIElement@@@std@@@std@@@std@@QAEAAV01@XZ 4007e790 f i StackPanel.obj
 0002:000177f0       ??9?$_List_const_iterator@V?$_List_val@PAVUIElement@@V?$allocator@PAVUIElement@@@std@@@std@@@std@@QBE_NABV01@@Z 4007e7f0 f i StackPanel.obj
 0002:00017860       ??0?$_List_const_iterator@V?$_List_val@PAVUIElement@@V?$allocator@PAVUIElement@@@std@@@std@@@std@@QAE@ABV01@@Z 4007e860 f i StackPanel.obj
 0002:000178c0       ??0?$_List_const_iterator@V?$_List_val@PAUitemDef_s@@V?$allocator@PAUitemDef_s@@@std@@@std@@@std@@QAE@ABV01@@Z 4007e8c0 f i StackPanel.obj
 0002:00017920       ??0?$_List_unchecked_const_iterator@V?$_List_val@PAVUIElement@@V?$allocator@PAVUIElement@@@std@@@std@@U_Iterator_base12@2@@std@@QAE@ABV01@@Z 4007e920 f i StackPanel.obj
 0002:00017990       ??0?$_List_unchecked_const_iterator@V?$_List_val@PAUitemDef_s@@V?$allocator@PAUitemDef_s@@@std@@@std@@U_Iterator_base12@2@@std@@QAE@ABV01@@Z 4007e990 f i StackPanel.obj
 0002:00017a00       ??0?$_Iterator012@Ubidirectional_iterator_tag@std@@PAVUIElement@@HPBQAV3@ABQAV3@U_Iterator_base12@2@@std@@QAE@ABU01@@Z 4007ea00 f i StackPanel.obj
 0002:00017a60       ??0_Iterator_base12@std@@QAE@ABU01@@Z 4007ea60 f i StackPanel.obj
 0002:00017ae0       ??4_Iterator_base12@std@@QAEAAU01@ABU01@@Z 4007eae0 f i StackPanel.obj
 0002:00017b50       ?_Adopt@_Iterator_base12@std@@QAEXPBU_Container_base12@2@@Z 4007eb50 f i StackPanel.obj
 0002:00017c80       ??0?$_Iterator012@Ubidirectional_iterator_tag@std@@PAUitemDef_s@@HPBQAU3@ABQAU3@U_Iterator_base12@2@@std@@QAE@ABU01@@Z 4007ec80 f i StackPanel.obj
 0002:00017ce0       ?begin@?$list@PAVUIElement@@V?$allocator@PAVUIElement@@@std@@@std@@QBE?AV?$_List_const_iterator@V?$_List_val@PAVUIElement@@V?$allocator@PAVUIElement@@@std@@@std@@@2@XZ 4007ece0 f i StackPanel.obj
 0002:00017d70       ?end@?$list@PAVUIElement@@V?$allocator@PAVUIElement@@@std@@@std@@QBE?AV?$_List_const_iterator@V?$_List_val@PAVUIElement@@V?$allocator@PAVUIElement@@@std@@@std@@@2@XZ 4007ed70 f i StackPanel.obj
 0002:00017e00       ?_Tidy@?$list@PAVUIElement@@V?$allocator@PAVUIElement@@@std@@@std@@QAEXXZ 4007ee00 f i StackPanel.obj
 0002:00017e50       ??0?$_List_val@PAVUIElement@@V?$allocator@PAVUIElement@@@std@@@std@@QAE@V?$allocator@PAVUIElement@@@1@@Z 4007ee50 f i StackPanel.obj
 0002:00017f60       ??1?$_List_val@PAVUIElement@@V?$allocator@PAVUIElement@@@std@@@std@@QAE@XZ 4007ef60 f i StackPanel.obj
 0002:00018010       ?_Nextnode@?$_List_val@PAVUIElement@@V?$allocator@PAVUIElement@@@std@@@std@@SAAAPAU_Node@?$_List_nod@PAVUIElement@@V?$allocator@PAVUIElement@@@std@@@2@PAU342@@Z 4007f010 f i StackPanel.obj
 0002:00018050       ??0?$allocator@PAVUIElement@@@std@@QAE@XZ 4007f050 f i StackPanel.obj
 0002:00018090       ??0?$allocator@PAVUIElement@@@std@@QAE@ABV01@@Z 4007f090 f i StackPanel.obj
 0002:000180d0       ?begin@?$list@PAUitemDef_s@@V?$allocator@PAUitemDef_s@@@std@@@std@@QBE?AV?$_List_const_iterator@V?$_List_val@PAUitemDef_s@@V?$allocator@PAUitemDef_s@@@std@@@std@@@2@XZ 4007f0d0 f i StackPanel.obj
 0002:00018160       ?end@?$list@PAUitemDef_s@@V?$allocator@PAUitemDef_s@@@std@@@std@@QBE?AV?$_List_const_iterator@V?$_List_val@PAUitemDef_s@@V?$allocator@PAUitemDef_s@@@std@@@std@@@2@XZ 4007f160 f i StackPanel.obj
 0002:000181f0       ?_Tidy@?$list@PAUitemDef_s@@V?$allocator@PAUitemDef_s@@@std@@@std@@QAEXXZ 4007f1f0 f i StackPanel.obj
 0002:00018240       ??0?$_List_val@PAUitemDef_s@@V?$allocator@PAUitemDef_s@@@std@@@std@@QAE@V?$allocator@PAUitemDef_s@@@1@@Z 4007f240 f i StackPanel.obj
 0002:00018350       ??1?$_List_val@PAUitemDef_s@@V?$allocator@PAUitemDef_s@@@std@@@std@@QAE@XZ 4007f350 f i StackPanel.obj
 0002:00018400       ?_Nextnode@?$_List_val@PAUitemDef_s@@V?$allocator@PAUitemDef_s@@@std@@@std@@SAAAPAU_Node@?$_List_nod@PAUitemDef_s@@V?$allocator@PAUitemDef_s@@@std@@@2@PAU342@@Z 4007f400 f i StackPanel.obj
 0002:00018440       ??0?$allocator@PAUitemDef_s@@@std@@QAE@XZ 4007f440 f i StackPanel.obj
 0002:00018480       ??0?$allocator@PAUitemDef_s@@@std@@QAE@ABV01@@Z 4007f480 f i StackPanel.obj
 0002:000184c0       ??0?$_List_iterator@V?$_List_val@PAUitemDef_s@@V?$allocator@PAUitemDef_s@@@std@@@std@@@std@@QAE@PAU_Node@?$_List_nod@PAUitemDef_s@@V?$allocator@PAUitemDef_s@@@std@@@1@PBV?$_List_val@PAUitemDef_s@@V?$allocator@PAUitemDef_s@@@std@@@1@@Z 4007f4c0 f i StackPanel.obj
 0002:00018520       ??D?$_List_const_iterator@V?$_List_val@PAUitemDef_s@@V?$allocator@PAUitemDef_s@@@std@@@std@@@std@@QBEABQAUitemDef_s@@XZ 4007f520 f i StackPanel.obj
 0002:00018630       ?_Getcont@_Iterator_base12@std@@QBEPBU_Container_base12@2@XZ 4007f630 f i StackPanel.obj
 0002:000186a0       ??E?$_List_const_iterator@V?$_List_val@PAUitemDef_s@@V?$allocator@PAUitemDef_s@@@std@@@std@@@std@@QAEAAV01@XZ 4007f6a0 f i StackPanel.obj
 0002:000187c0       ??8?$_List_const_iterator@V?$_List_val@PAUitemDef_s@@V?$allocator@PAUitemDef_s@@@std@@@std@@@std@@QBE_NABV01@@Z 4007f7c0 f i StackPanel.obj
 0002:000188d0       ??0?$_List_iterator@V?$_List_val@PAVUIElement@@V?$allocator@PAVUIElement@@@std@@@std@@@std@@QAE@PAU_Node@?$_List_nod@PAVUIElement@@V?$allocator@PAVUIElement@@@std@@@1@PBV?$_List_val@PAVUIElement@@V?$allocator@PAVUIElement@@@std@@@1@@Z 4007f8d0 f i StackPanel.obj
 0002:00018930       ??D?$_List_const_iterator@V?$_List_val@PAVUIElement@@V?$allocator@PAVUIElement@@@std@@@std@@@std@@QBEABQAVUIElement@@XZ 4007f930 f i StackPanel.obj
 0002:00018a40       ??E?$_List_const_iterator@V?$_List_val@PAVUIElement@@V?$allocator@PAVUIElement@@@std@@@std@@@std@@QAEAAV01@XZ 4007fa40 f i StackPanel.obj
 0002:00018b60       ??8?$_List_const_iterator@V?$_List_val@PAVUIElement@@V?$allocator@PAVUIElement@@@std@@@std@@@std@@QBE_NABV01@@Z 4007fb60 f i StackPanel.obj
 0002:00018c70       ?clear@?$list@PAVUIElement@@V?$allocator@PAVUIElement@@@std@@@std@@QAEXXZ 4007fc70 f i StackPanel.obj
 0002:00018d90       ?_Prevnode@?$_List_val@PAVUIElement@@V?$allocator@PAVUIElement@@@std@@@std@@SAAAPAU_Node@?$_List_nod@PAVUIElement@@V?$allocator@PAVUIElement@@@std@@@2@PAU342@@Z 4007fd90 f i StackPanel.obj
 0002:00018dd0       ?_Myval@?$_List_val@PAVUIElement@@V?$allocator@PAVUIElement@@@std@@@std@@SAAAPAVUIElement@@PAU_Node@?$_List_nod@PAVUIElement@@V?$allocator@PAVUIElement@@@std@@@2@@Z 4007fdd0 f i StackPanel.obj
 0002:00018e10       ??0?$_List_nod@PAVUIElement@@V?$allocator@PAVUIElement@@@std@@@std@@QAE@V?$allocator@PAVUIElement@@@1@@Z 4007fe10 f i StackPanel.obj
 0002:00018f70       ??0_Container_proxy@std@@QAE@XZ 4007ff70 f i StackPanel.obj
 0002:00018fc0       ??0_Container_base12@std@@QAE@XZ 4007ffc0 f i StackPanel.obj
 0002:00019010       ??1_Container_base12@std@@QAE@XZ 40080010 f i StackPanel.obj
 0002:00019060       ?_Orphan_all@_Container_base12@std@@QAEXXZ 40080060 f i StackPanel.obj
 0002:00019150       ??1?$_List_nod@PAVUIElement@@V?$allocator@PAVUIElement@@@std@@@std@@QAE@XZ 40080150 f i StackPanel.obj
 0002:00019280       ?deallocate@?$allocator@U_Node@?$_List_nod@PAVUIElement@@V?$allocator@PAVUIElement@@@std@@@std@@@std@@QAEXPAU_Node@?$_List_nod@PAVUIElement@@V?$allocator@PAVUIElement@@@std@@@2@I@Z 40080280 f i StackPanel.obj
 0002:000192e0       ?allocate@?$allocator@U_Node@?$_List_nod@PAVUIElement@@V?$allocator@PAVUIElement@@@std@@@std@@@std@@QAEPAU_Node@?$_List_nod@PAVUIElement@@V?$allocator@PAVUIElement@@@std@@@2@I@Z 400802e0 f i StackPanel.obj
 0002:00019340       ?clear@?$list@PAUitemDef_s@@V?$allocator@PAUitemDef_s@@@std@@@std@@QAEXXZ 40080340 f i StackPanel.obj
 0002:00019460       ?_Prevnode@?$_List_val@PAUitemDef_s@@V?$allocator@PAUitemDef_s@@@std@@@std@@SAAAPAU_Node@?$_List_nod@PAUitemDef_s@@V?$allocator@PAUitemDef_s@@@std@@@2@PAU342@@Z 40080460 f i StackPanel.obj
 0002:000194a0       ?_Myval@?$_List_val@PAUitemDef_s@@V?$allocator@PAUitemDef_s@@@std@@@std@@SAAAPAUitemDef_s@@PAU_Node@?$_List_nod@PAUitemDef_s@@V?$allocator@PAUitemDef_s@@@std@@@2@@Z 400804a0 f i StackPanel.obj
 0002:000194e0       ??0?$_List_nod@PAUitemDef_s@@V?$allocator@PAUitemDef_s@@@std@@@std@@QAE@V?$allocator@PAUitemDef_s@@@1@@Z 400804e0 f i StackPanel.obj
 0002:00019640       ??1?$_List_nod@PAUitemDef_s@@V?$allocator@PAUitemDef_s@@@std@@@std@@QAE@XZ 40080640 f i StackPanel.obj
 0002:00019770       ?deallocate@?$allocator@U_Node@?$_List_nod@PAUitemDef_s@@V?$allocator@PAUitemDef_s@@@std@@@std@@@std@@QAEXPAU_Node@?$_List_nod@PAUitemDef_s@@V?$allocator@PAUitemDef_s@@@std@@@2@I@Z 40080770 f i StackPanel.obj
 0002:000197d0       ?allocate@?$allocator@U_Node@?$_List_nod@PAUitemDef_s@@V?$allocator@PAUitemDef_s@@@std@@@std@@@std@@QAEPAU_Node@?$_List_nod@PAUitemDef_s@@V?$allocator@PAUitemDef_s@@@std@@@2@I@Z 400807d0 f i StackPanel.obj
 0002:00019830       ??0?$_List_const_iterator@V?$_List_val@PAUitemDef_s@@V?$allocator@PAUitemDef_s@@@std@@@std@@@std@@QAE@PAU_Node@?$_List_nod@PAUitemDef_s@@V?$allocator@PAUitemDef_s@@@std@@@1@PBV?$_List_val@PAUitemDef_s@@V?$allocator@PAUitemDef_s@@@std@@@1@@Z 40080830 f i StackPanel.obj
 0002:00019890       ??0?$_List_const_iterator@V?$_List_val@PAVUIElement@@V?$allocator@PAVUIElement@@@std@@@std@@@std@@QAE@PAU_Node@?$_List_nod@PAVUIElement@@V?$allocator@PAVUIElement@@@std@@@1@PBV?$_List_val@PAVUIElement@@V?$allocator@PAVUIElement@@@std@@@1@@Z 40080890 f i StackPanel.obj
 0002:000198f0       ?_Orphan_ptr@?$list@PAVUIElement@@V?$allocator@PAVUIElement@@@std@@@std@@QBEXAAV12@PAU_Node@?$_List_nod@PAVUIElement@@V?$allocator@PAVUIElement@@@std@@@2@@Z 400808f0 f i StackPanel.obj
 0002:00019a50       ?_Getpfirst@_Container_base12@std@@QBEPAPAU_Iterator_base12@2@XZ 40080a50 f i StackPanel.obj
 0002:00019ac0       ?_Clrcont@_Iterator_base12@std@@QAEXXZ 40080ac0 f i StackPanel.obj
 0002:00019b00       ?_Getpnext@_Iterator_base12@std@@QAEPAPAU12@XZ 40080b00 f i StackPanel.obj
 0002:00019b40       ?_Orphan_ptr@?$list@PAUitemDef_s@@V?$allocator@PAUitemDef_s@@@std@@@std@@QBEXAAV12@PAU_Node@?$_List_nod@PAUitemDef_s@@V?$allocator@PAUitemDef_s@@@std@@@2@@Z 40080b40 f i StackPanel.obj
 0002:00019ca0       ??0?$_List_unchecked_const_iterator@V?$_List_val@PAUitemDef_s@@V?$allocator@PAUitemDef_s@@@std@@@std@@U_Iterator_base12@2@@std@@QAE@PAU_Node@?$_List_nod@PAUitemDef_s@@V?$allocator@PAUitemDef_s@@@std@@@1@PBV?$_List_val@PAUitemDef_s@@V?$allocator@PAUitemDef_s@@@std@@@1@@Z 40080ca0 f i StackPanel.obj
 0002:00019d60       ??0?$_List_unchecked_const_iterator@V?$_List_val@PAVUIElement@@V?$allocator@PAVUIElement@@@std@@@std@@U_Iterator_base12@2@@std@@QAE@PAU_Node@?$_List_nod@PAVUIElement@@V?$allocator@PAVUIElement@@@std@@@1@PBV?$_List_val@PAVUIElement@@V?$allocator@PAVUIElement@@@std@@@1@@Z 40080d60 f i StackPanel.obj
 0002:00019e20       ?deallocate@?$allocator@U_Container_proxy@std@@@std@@QAEXPAU_Container_proxy@2@I@Z 40080e20 f i StackPanel.obj
 0002:00019e80       ?allocate@?$allocator@U_Container_proxy@std@@@std@@QAEPAU_Container_proxy@2@I@Z 40080e80 f i StackPanel.obj
 0002:00019ee0       ??0?$_Iterator012@Ubidirectional_iterator_tag@std@@PAUitemDef_s@@HPBQAU3@ABQAU3@U_Iterator_base12@2@@std@@QAE@XZ 40080ee0 f i StackPanel.obj
 0002:00019f40       ??0_Iterator_base12@std@@QAE@XZ 40080f40 f i StackPanel.obj
 0002:00019f90       ??0?$_Iterator012@Ubidirectional_iterator_tag@std@@PAVUIElement@@HPBQAV3@ABQAV3@U_Iterator_base12@2@@std@@QAE@XZ 40080f90 f i StackPanel.obj
 0002:00019ff0       ??$insert@V?$_List_const_iterator@V?$_List_val@PAVUIElement@@V?$allocator@PAVUIElement@@@std@@@std@@@std@@@?$list@PAVUIElement@@V?$allocator@PAVUIElement@@@std@@@std@@QAEXV?$_List_const_iterator@V?$_List_val@PAVUIElement@@V?$allocator@PAVUIElement@@@std@@@std@@@1@00@Z 40080ff0 f i StackPanel.obj
 0002:0001a170       ??$insert@V?$_List_const_iterator@V?$_List_val@PAUitemDef_s@@V?$allocator@PAUitemDef_s@@@std@@@std@@@std@@@?$list@PAUitemDef_s@@V?$allocator@PAUitemDef_s@@@std@@@std@@QAEXV?$_List_const_iterator@V?$_List_val@PAUitemDef_s@@V?$allocator@PAUitemDef_s@@@std@@@std@@@1@00@Z 40081170 f i StackPanel.obj
 0002:0001a2f0       ??$_Dest_val@V?$allocator@U_Node@?$_List_nod@PAVUIElement@@V?$allocator@PAVUIElement@@@std@@@std@@@std@@U_Node@?$_List_nod@PAVUIElement@@V?$allocator@PAVUIElement@@@std@@@2@@std@@YAXAAV?$allocator@U_Node@?$_List_nod@PAVUIElement@@V?$allocator@PAVUIElement@@@std@@@std@@@0@PAU_Node@?$_List_nod@PAVUIElement@@V?$allocator@PAVUIElement@@@std@@@0@@Z 400812f0 f i StackPanel.obj
 0002:0001a340       ??$?0PAVUIElement@@@?$allocator@U_Node@?$_List_nod@PAVUIElement@@V?$allocator@PAVUIElement@@@std@@@std@@@std@@QAE@ABV?$allocator@PAVUIElement@@@1@@Z 40081340 f i StackPanel.obj
 0002:0001a380       ??$?0U_Node@?$_List_nod@PAVUIElement@@V?$allocator@PAVUIElement@@@std@@@std@@@?$allocator@U_Container_proxy@std@@@std@@QAE@ABV?$allocator@U_Node@?$_List_nod@PAVUIElement@@V?$allocator@PAVUIElement@@@std@@@std@@@1@@Z 40081380 f i StackPanel.obj
 0002:0001a3c0       ??$_Cons_val@V?$allocator@U_Container_proxy@std@@@std@@U_Container_proxy@2@U32@@std@@YAXAAV?$allocator@U_Container_proxy@std@@@0@PAU_Container_proxy@0@$$QAU20@@Z 400813c0 f i StackPanel.obj
 0002:0001a420       ??$_Dest_val@V?$allocator@U_Container_proxy@std@@@std@@U_Container_proxy@2@@std@@YAXAAV?$allocator@U_Container_proxy@std@@@0@PAU_Container_proxy@0@@Z 40081420 f i StackPanel.obj
 0002:0001a470       ??$_Allocate@U_Node@?$_List_nod@PAVUIElement@@V?$allocator@PAVUIElement@@@std@@@std@@@std@@YAPAU_Node@?$_List_nod@PAVUIElement@@V?$allocator@PAVUIElement@@@std@@@0@IPAU120@@Z 40081470 f i StackPanel.obj
 0002:0001a520       ??0bad_alloc@std@@QAE@PBD@Z 40081520 f i StackPanel.obj
 0002:0001a590       ??1bad_alloc@std@@UAE@XZ   40081590 f i StackPanel.obj
 0002:0001a5f0       ??_Gbad_alloc@std@@UAEPAXI@Z 400815f0 f i StackPanel.obj
 0002:0001a5f0       ??_Ebad_alloc@std@@UAEPAXI@Z 400815f0 f i StackPanel.obj
 0002:0001a660       ??$_Dest_val@V?$allocator@U_Node@?$_List_nod@PAUitemDef_s@@V?$allocator@PAUitemDef_s@@@std@@@std@@@std@@U_Node@?$_List_nod@PAUitemDef_s@@V?$allocator@PAUitemDef_s@@@std@@@2@@std@@YAXAAV?$allocator@U_Node@?$_List_nod@PAUitemDef_s@@V?$allocator@PAUitemDef_s@@@std@@@std@@@0@PAU_Node@?$_List_nod@PAUitemDef_s@@V?$allocator@PAUitemDef_s@@@std@@@0@@Z 40081660 f i StackPanel.obj
 0002:0001a6b0       ??$?0PAUitemDef_s@@@?$allocator@U_Node@?$_List_nod@PAUitemDef_s@@V?$allocator@PAUitemDef_s@@@std@@@std@@@std@@QAE@ABV?$allocator@PAUitemDef_s@@@1@@Z 400816b0 f i StackPanel.obj
 0002:0001a6f0       ??$?0U_Node@?$_List_nod@PAUitemDef_s@@V?$allocator@PAUitemDef_s@@@std@@@std@@@?$allocator@U_Container_proxy@std@@@std@@QAE@ABV?$allocator@U_Node@?$_List_nod@PAUitemDef_s@@V?$allocator@PAUitemDef_s@@@std@@@std@@@1@@Z 400816f0 f i StackPanel.obj
 0002:0001a730       ??$_Allocate@U_Node@?$_List_nod@PAUitemDef_s@@V?$allocator@PAUitemDef_s@@@std@@@std@@@std@@YAPAU_Node@?$_List_nod@PAUitemDef_s@@V?$allocator@PAUitemDef_s@@@std@@@0@IPAU120@@Z 40081730 f i StackPanel.obj
 0002:0001a7e0       ??$_Allocate@U_Container_proxy@std@@@std@@YAPAU_Container_proxy@0@IPAU10@@Z 400817e0 f i StackPanel.obj
 0002:0001a890       ??0bad_alloc@std@@QAE@ABV01@@Z 40081890 f i StackPanel.obj
 0002:0001a900       ?destroy@?$allocator@U_Node@?$_List_nod@PAVUIElement@@V?$allocator@PAVUIElement@@@std@@@std@@@std@@QAEXPAU_Node@?$_List_nod@PAVUIElement@@V?$allocator@PAVUIElement@@@std@@@2@@Z 40081900 f i StackPanel.obj
 0002:0001a960       ?destroy@?$allocator@U_Node@?$_List_nod@PAUitemDef_s@@V?$allocator@PAUitemDef_s@@@std@@@std@@@std@@QAEXPAU_Node@?$_List_nod@PAUitemDef_s@@V?$allocator@PAUitemDef_s@@@std@@@2@@Z 40081960 f i StackPanel.obj
 0002:0001a9c0       ?construct@?$allocator@U_Container_proxy@std@@@std@@QAEXPAU_Container_proxy@2@$$QAU32@@Z 400819c0 f i StackPanel.obj
 0002:0001aad0       ??2@YAPAXIPAX@Z            40081ad0 f i StackPanel.obj
 0002:0001ab10       ??3@YAXPAX0@Z              40081b10 f i StackPanel.obj
 0002:0001ab40       ?destroy@?$allocator@U_Container_proxy@std@@@std@@QAEXPAU_Container_proxy@2@@Z 40081b40 f i StackPanel.obj
 0002:0001aba0       ??$_Iter_cat@V?$_List_const_iterator@V?$_List_val@PAVUIElement@@V?$allocator@PAVUIElement@@@std@@@std@@@std@@@std@@YA?AUbidirectional_iterator_tag@0@ABV?$_List_const_iterator@V?$_List_val@PAVUIElement@@V?$allocator@PAVUIElement@@@std@@@std@@@0@@Z 40081ba0 f i StackPanel.obj
 0002:0001ac20       ??$_Insert@V?$_List_const_iterator@V?$_List_val@PAVUIElement@@V?$allocator@PAVUIElement@@@std@@@std@@@std@@@?$list@PAVUIElement@@V?$allocator@PAVUIElement@@@std@@@std@@QAEXV?$_List_const_iterator@V?$_List_val@PAVUIElement@@V?$allocator@PAVUIElement@@@std@@@std@@@1@00Uforward_iterator_tag@1@@Z 40081c20 f i StackPanel.obj
 0002:0001af00       ?_Insert@?$list@PAVUIElement@@V?$allocator@PAVUIElement@@@std@@@std@@QAEXV?$_List_const_iterator@V?$_List_val@PAVUIElement@@V?$allocator@PAVUIElement@@@std@@@std@@@2@ABQAVUIElement@@@Z 40081f00 f i StackPanel.obj
 0002:0001b050       ?_Incsize@?$list@PAVUIElement@@V?$allocator@PAVUIElement@@@std@@@std@@QAEXI@Z 40082050 f i StackPanel.obj
 0002:0001b0e0       ?_Buynode@?$_List_val@PAVUIElement@@V?$allocator@PAVUIElement@@@std@@@std@@QAEPAU_Node@?$_List_nod@PAVUIElement@@V?$allocator@PAVUIElement@@@std@@@2@PAU342@0ABQAVUIElement@@@Z 400820e0 f i StackPanel.obj
 0002:0001b260       ?_Mynode@?$_List_unchecked_const_iterator@V?$_List_val@PAVUIElement@@V?$allocator@PAVUIElement@@@std@@@std@@U_Iterator_base12@2@@std@@QBEPAU_Node@?$_List_nod@PAVUIElement@@V?$allocator@PAVUIElement@@@std@@@2@XZ 40082260 f i StackPanel.obj
 0002:0001b2a0       ?max_size@?$list@PAVUIElement@@V?$allocator@PAVUIElement@@@std@@@std@@QBEIXZ 400822a0 f i StackPanel.obj
 0002:0001b300       ?max_size@?$allocator@PAVUIElement@@@std@@QBEIXZ 40082300 f i StackPanel.obj
 0002:0001b370       ??$addressof@PAVUIElement@@@std@@YAPAPAVUIElement@@AAPAV1@@Z 40082370 f i StackPanel.obj
 0002:0001b3b0       ??$_Cons_val@V?$allocator@PAVUIElement@@@std@@PAVUIElement@@ABQAV3@@std@@YAXAAV?$allocator@PAVUIElement@@@0@PAPAVUIElement@@ABQAV2@@Z 400823b0 f i StackPanel.obj
 0002:0001b410       ?construct@?$allocator@PAVUIElement@@@std@@QAEXPAPAVUIElement@@ABQAV3@@Z 40082410 f i StackPanel.obj
 0002:0001b470       ??$_Iter_cat@V?$_List_const_iterator@V?$_List_val@PAUitemDef_s@@V?$allocator@PAUitemDef_s@@@std@@@std@@@std@@@std@@YA?AUbidirectional_iterator_tag@0@ABV?$_List_const_iterator@V?$_List_val@PAUitemDef_s@@V?$allocator@PAUitemDef_s@@@std@@@std@@@0@@Z 40082470 f i StackPanel.obj
 0002:0001b4f0       ??$_Insert@V?$_List_const_iterator@V?$_List_val@PAUitemDef_s@@V?$allocator@PAUitemDef_s@@@std@@@std@@@std@@@?$list@PAUitemDef_s@@V?$allocator@PAUitemDef_s@@@std@@@std@@QAEXV?$_List_const_iterator@V?$_List_val@PAUitemDef_s@@V?$allocator@PAUitemDef_s@@@std@@@std@@@1@00Uforward_iterator_tag@1@@Z 400824f0 f i StackPanel.obj
 0002:0001b7d0       ?_Insert@?$list@PAUitemDef_s@@V?$allocator@PAUitemDef_s@@@std@@@std@@QAEXV?$_List_const_iterator@V?$_List_val@PAUitemDef_s@@V?$allocator@PAUitemDef_s@@@std@@@std@@@2@ABQAUitemDef_s@@@Z 400827d0 f i StackPanel.obj
 0002:0001b920       ?_Incsize@?$list@PAUitemDef_s@@V?$allocator@PAUitemDef_s@@@std@@@std@@QAEXI@Z 40082920 f i StackPanel.obj
 0002:0001b9b0       ?_Buynode@?$_List_val@PAUitemDef_s@@V?$allocator@PAUitemDef_s@@@std@@@std@@QAEPAU_Node@?$_List_nod@PAUitemDef_s@@V?$allocator@PAUitemDef_s@@@std@@@2@PAU342@0ABQAUitemDef_s@@@Z 400829b0 f i StackPanel.obj
 0002:0001bb30       ?_Mynode@?$_List_unchecked_const_iterator@V?$_List_val@PAUitemDef_s@@V?$allocator@PAUitemDef_s@@@std@@@std@@U_Iterator_base12@2@@std@@QBEPAU_Node@?$_List_nod@PAUitemDef_s@@V?$allocator@PAUitemDef_s@@@std@@@2@XZ 40082b30 f i StackPanel.obj
 0002:0001bb70       ?max_size@?$list@PAUitemDef_s@@V?$allocator@PAUitemDef_s@@@std@@@std@@QBEIXZ 40082b70 f i StackPanel.obj
 0002:0001bbd0       ?max_size@?$allocator@PAUitemDef_s@@@std@@QBEIXZ 40082bd0 f i StackPanel.obj
 0002:0001bc40       ??$addressof@PAUitemDef_s@@@std@@YAPAPAUitemDef_s@@AAPAU1@@Z 40082c40 f i StackPanel.obj
 0002:0001bc80       ??$_Cons_val@V?$allocator@PAUitemDef_s@@@std@@PAUitemDef_s@@ABQAU3@@std@@YAXAAV?$allocator@PAUitemDef_s@@@0@PAPAUitemDef_s@@ABQAU2@@Z 40082c80 f i StackPanel.obj
 0002:0001bce0       ?construct@?$allocator@PAUitemDef_s@@@std@@QAEXPAPAUitemDef_s@@ABQAU3@@Z 40082ce0 f i StackPanel.obj
 0002:0001bd40       ??$forward@ABQAVUIElement@@@std@@YAABQAVUIElement@@ABQAV1@@Z 40082d40 f i StackPanel.obj
 0002:0001bd80       ??$forward@U_Container_proxy@std@@@std@@YA$$QAU_Container_proxy@0@AAU10@@Z 40082d80 f i StackPanel.obj
 0002:0001bdc0       ??$forward@ABQAUitemDef_s@@@std@@YAABQAUitemDef_s@@ABQAU1@@Z 40082dc0 f i StackPanel.obj
 0002:0001be00       ??$_Construct@PAVUIElement@@ABQAV1@@std@@YAXPAPAVUIElement@@ABQAV1@@Z 40082e00 f i StackPanel.obj
 0002:0001bf00       ??$_Destroy@U_Node@?$_List_nod@PAVUIElement@@V?$allocator@PAVUIElement@@@std@@@std@@@std@@YAXPAU_Node@?$_List_nod@PAVUIElement@@V?$allocator@PAVUIElement@@@std@@@0@@Z 40082f00 f i StackPanel.obj
 0002:0001bf30       ??$_Construct@PAUitemDef_s@@ABQAU1@@std@@YAXPAPAUitemDef_s@@ABQAU1@@Z 40082f30 f i StackPanel.obj
 0002:0001c030       ??$_Destroy@U_Node@?$_List_nod@PAUitemDef_s@@V?$allocator@PAUitemDef_s@@@std@@@std@@@std@@YAXPAU_Node@?$_List_nod@PAUitemDef_s@@V?$allocator@PAUitemDef_s@@@std@@@0@@Z 40083030 f i StackPanel.obj
 0002:0001c060       ??$_Destroy@U_Container_proxy@std@@@std@@YAXPAU_Container_proxy@0@@Z 40083060 f i StackPanel.obj
 0002:0001c090       ?erase@?$list@PAVUIElement@@V?$allocator@PAVUIElement@@@std@@@std@@QAE?AV?$_List_iterator@V?$_List_val@PAVUIElement@@V?$allocator@PAVUIElement@@@std@@@std@@@2@V?$_List_const_iterator@V?$_List_val@PAVUIElement@@V?$allocator@PAVUIElement@@@std@@@std@@@2@@Z 40083090 f i StackPanel.obj
 0002:0001c2e0       ?erase@?$list@PAUitemDef_s@@V?$allocator@PAUitemDef_s@@@std@@@std@@QAE?AV?$_List_iterator@V?$_List_val@PAUitemDef_s@@V?$allocator@PAUitemDef_s@@@std@@@std@@@2@V?$_List_const_iterator@V?$_List_val@PAUitemDef_s@@V?$allocator@PAUitemDef_s@@@std@@@std@@@2@@Z 400832e0 f i StackPanel.obj
 0002:0001c530       ??F?$_List_const_iterator@V?$_List_val@PAUitemDef_s@@V?$allocator@PAUitemDef_s@@@std@@@std@@@std@@QAEAAV01@XZ 40083530 f i StackPanel.obj
 0002:0001c650       ??F?$_List_const_iterator@V?$_List_val@PAVUIElement@@V?$allocator@PAVUIElement@@@std@@@std@@@std@@QAEAAV01@XZ 40083650 f i StackPanel.obj
 0002:0001c770       ?_Make_iter@?$list@PAVUIElement@@V?$allocator@PAVUIElement@@@std@@@std@@QBE?AV?$_List_iterator@V?$_List_val@PAVUIElement@@V?$allocator@PAVUIElement@@@std@@@std@@@2@V?$_List_const_iterator@V?$_List_val@PAVUIElement@@V?$allocator@PAVUIElement@@@std@@@std@@@2@@Z 40083770 f i StackPanel.obj
 0002:0001c840       ?_Make_iter@?$list@PAUitemDef_s@@V?$allocator@PAUitemDef_s@@@std@@@std@@QBE?AV?$_List_iterator@V?$_List_val@PAUitemDef_s@@V?$allocator@PAUitemDef_s@@@std@@@std@@@2@V?$_List_const_iterator@V?$_List_val@PAUitemDef_s@@V?$allocator@PAUitemDef_s@@@std@@@std@@@2@@Z 40083840 f i StackPanel.obj
 0002:0001c910       ??E?$_List_const_iterator@V?$_List_val@PAUitemDef_s@@V?$allocator@PAUitemDef_s@@@std@@@std@@@std@@QAE?AV01@H@Z 40083910 f i StackPanel.obj
 0002:0001ca30       ??E?$_List_const_iterator@V?$_List_val@PAVUIElement@@V?$allocator@PAVUIElement@@@std@@@std@@@std@@QAE?AV01@H@Z 40083a30 f i StackPanel.obj
 0002:0001cb50       ??$_Debug_range@V?$_List_const_iterator@V?$_List_val@PAVUIElement@@V?$allocator@PAVUIElement@@@std@@@std@@@std@@@std@@YAXV?$_List_const_iterator@V?$_List_val@PAVUIElement@@V?$allocator@PAVUIElement@@@std@@@std@@@0@0PB_WI@Z 40083b50 f i StackPanel.obj
 0002:0001cc80       ??$_Debug_range@V?$_List_const_iterator@V?$_List_val@PAUitemDef_s@@V?$allocator@PAUitemDef_s@@@std@@@std@@@std@@@std@@YAXV?$_List_const_iterator@V?$_List_val@PAUitemDef_s@@V?$allocator@PAUitemDef_s@@@std@@@std@@@0@0PB_WI@Z 40083c80 f i StackPanel.obj
 0002:0001cdb0       ??$_Debug_range2@V?$_List_const_iterator@V?$_List_val@PAVUIElement@@V?$allocator@PAVUIElement@@@std@@@std@@@std@@@std@@YAXV?$_List_const_iterator@V?$_List_val@PAVUIElement@@V?$allocator@PAVUIElement@@@std@@@std@@@0@0PB_WIUinput_iterator_tag@0@@Z 40083db0 f i StackPanel.obj
 0002:0001ce70       ??$_Debug_range2@V?$_List_const_iterator@V?$_List_val@PAUitemDef_s@@V?$allocator@PAUitemDef_s@@@std@@@std@@@std@@@std@@YAXV?$_List_const_iterator@V?$_List_val@PAUitemDef_s@@V?$allocator@PAUitemDef_s@@@std@@@std@@@0@0PB_WIUinput_iterator_tag@0@@Z 40083e70 f i StackPanel.obj
 0002:0001cf30       ?Com_Error@@YAXHPBDZZ      40083f30 f   ui_atoms.obj
 0002:0001d010       ?Com_Printf@@YAXPBDZZ      40084010 f   ui_atoms.obj
 0002:0001d0f0       ?UI_ClampCvar@@YAMMMM@Z    400840f0 f   ui_atoms.obj
 0002:0001d160       ?UI_StartDemoLoop@@YAXXZ   40084160 f   ui_atoms.obj
 0002:0001d1c0       ?UI_Argv@@YAPADH@Z         400841c0 f   ui_atoms.obj
 0002:0001d220       ?UI_Cvar_VariableString@@YAPADPBD@Z 40084220 f   ui_atoms.obj
 0002:0001d280       ?UI_SetBestScores@@YAXPAUpostGameInfo_s@@W4qboolean@@@Z 40084280 f   ui_atoms.obj
 0002:0001d810       ?UI_LoadBestScores@@YAXPBDH@Z 40084810 f   ui_atoms.obj
 0002:0001da30       ?UI_ClearScores@@YAXXZ     40084a30 f   ui_atoms.obj
 0002:0001dca0       ?UI_ConsoleCommand@@YA?AW4qboolean@@H@Z 40084ca0 f   ui_atoms.obj
 0002:0001e6f0       ?UI_Shutdown@@YAXXZ        400856f0 f   ui_atoms.obj
 0002:0001e720       ?UI_DrawNamedPic@@YAXMMMMPBD@Z 40085720 f   ui_atoms.obj
 0002:0001e7d0       ?UI_DrawHandlePic@@YAXMMMMH@Z 400857d0 f   ui_atoms.obj
 0002:0001e8e0       ?UI_FillRect@@YAXMMMMPBM@Z 400858e0 f   ui_atoms.obj
 0002:0001e990       ?UI_DrawSides@@YAXMMMM@Z   40085990 f   ui_atoms.obj
 0002:0001ea90       ?UI_DrawTopBottom@@YAXMMMM@Z 40085a90 f   ui_atoms.obj
 0002:0001eb90       ?UI_DrawRect@@YAXMMMMPBM@Z 40085b90 f   ui_atoms.obj
 0002:0001ec50       ?UI_SetColor@@YAXPBM@Z     40085c50 f   ui_atoms.obj
 0002:0001eca0       ?UI_UpdateScreen@@YAXXZ    40085ca0 f   ui_atoms.obj
 0002:0001ecf0       ?UI_DrawTextBox@@YAXHHHH@Z 40085cf0 f   ui_atoms.obj
 0002:0001ee40       ?UI_CursorInRect@@YA?AW4qboolean@@HHHH@Z 40085e40 f   ui_atoms.obj
 0002:0001eec0       ?UI_InitForceShaders@@YAXXZ 40085ec0 f   ui_force.obj
 0002:0001f180       ?NumberOfSkillRanks@@YAHH@Z 40086180 f   ui_force.obj
 0002:0001f210       ?UI_DrawForceStars@@YAXPAVRectangle@@MQAMHHHHH@Z 40086210 f   ui_force.obj
 0002:0001f490       ?UI_UpdateClientForcePowers@@YAXPBD@Z 40086490 f   ui_force.obj
 0002:0001f660       ?UI_TranslateFCFIndex@@YAHH@Z 40086660 f   ui_force.obj
 0002:0001f6c0       ?UI_SaveForceTemplate@@YAXXZ 400866c0 f   ui_force.obj
 0002:0001fab0       ?UpdateForceUsed@@YAXXZ    40086ab0 f   ui_force.obj
 0002:00020dc0       ?UI_ReadLegalForce@@YAXXZ  40087dc0 f   ui_force.obj
 0002:00021580       ?UI_UpdateForcePowers@@YAXXZ 40088580 f   ui_force.obj
 0002:00021b30       ?UI_SkinColor_HandleKey@@YA?AW4qboolean@@HPAMHHHHH@Z 40088b30 f   ui_force.obj
 0002:00021c30       ?UI_ForceSide_HandleKey@@YA?AW4qboolean@@HPAMHHHHH@Z 40088c30 f   ui_force.obj
 0002:00021e40       ?UI_JediNonJedi_HandleKey@@YA?AW4qboolean@@HPAMHHHHH@Z 40088e40 f   ui_force.obj
 0002:000220c0       ?UI_ForceMaxRank_HandleKey@@YA?AW4qboolean@@HPAMHHHHH@Z 400890c0 f   ui_force.obj
 0002:000221d0       ?UI_ForcePowerRank_HandleKey@@YA?AW4qboolean@@HPAMHHHHH@Z 400891d0 f   ui_force.obj
 0002:00022530       ?UI_ForceConfigHandle@@YAXHH@Z 40089530 f   ui_force.obj
 0002:00022d40       ?UI_ParseInfos@@YAHPADHQAPAD@Z 40089d40 f   ui_gameinfo.obj
 0002:000230c0       ?UI_LoadArenas@@YAXXZ      4008a0c0 f   ui_gameinfo.obj
 0002:000237f0       ?strstr@@YAPADPADPBD@Z     4008a7f0 f i ui_gameinfo.obj
 0002:00023a00       ?UI_LoadBots@@YAXXZ        4008aa00 f   ui_gameinfo.obj
 0002:00023e70       ?UI_GetBotInfoByNumber@@YAPADH@Z 4008ae70 f   ui_gameinfo.obj
 0002:00023f00       ?UI_GetBotInfoByName@@YAPADPBD@Z 4008af00 f   ui_gameinfo.obj
 0002:00023fc0       ?UI_GetNumBots@@YAHXZ      4008afc0 f   ui_gameinfo.obj
 0002:00024000       ?UI_GetBotNameByNumber@@YAPADH@Z 4008b000 f   ui_gameinfo.obj
 0002:00024080       ?vmMain@@YAHHHHHHHHHHHHHH@Z 4008b080 f   ui_main.obj
 0002:00024290       ?UI_AnimsetAlloc@@YAPAUanimation_s@@XZ 4008b290 f   ui_main.obj
 0002:00024330       ?siege_Str@@YAPADXZ        4008b330 f   ui_main.obj
 0002:00024390       ?siege_Cvar_Set@@YAXPBD0@Z 4008b390 f   ui_main.obj
 0002:000245a0       ?siege_Cvar_VariableStringBuffer@@YAXPAD0H@Z 4008b5a0 f   ui_main.obj
 0002:00024710       ?siege_Cvar_VariableValue@@YAHPAD@Z 4008b710 f   ui_main.obj
 0002:00024890       ?UI_ParseAnimationFile@@YAHPBDPAUanimation_s@@W4qboolean@@@Z 4008b890 f   ui_main.obj
 0002:00024e50       ?ceil@@YAMM@Z              4008be50 f i ui_main.obj
 0002:00024eb0       _ceilf                     4008beb0 f i ui_main.obj
 0002:00024f20       ?floor@@YAMM@Z             4008bf20 f i ui_main.obj
 0002:00024f80       _floorf                    4008bf80 f i ui_main.obj
 0002:00024ff0       ?UI_TeamName@@YAPBDH@Z     4008bff0 f   ui_main.obj
 0002:00025060       ?AssetCache@@YAXXZ         4008c060 f   ui_main.obj
 0002:000252f0       ?_UI_DrawSides@@YAXMMMMM@Z 4008c2f0 f   ui_main.obj
 0002:00025400       ?_UI_DrawTopBottom@@YAXMMMMM@Z 4008c400 f   ui_main.obj
 0002:00025510       ?_UI_DrawRect@@YAXMMMMMPBM@Z 4008c510 f   ui_main.obj
 0002:000255e0       ?MenuFontToHandle@@YAHH@Z  4008c5e0 f   ui_main.obj
 0002:00025690       ?Text_Width@@YAHPBDMH@Z    4008c690 f   ui_main.obj
 0002:00025700       ?Text_Height@@YAHPBDMH@Z   4008c700 f   ui_main.obj
 0002:00025770       ?Text_Paint@@YAXMMMQAMPBDMHHH@Z 4008c770 f   ui_main.obj
 0002:000258d0       ?Text_PaintWithCursor@@YAXMMMQAMPBDHDHHH@Z 4008c8d0 f   ui_main.obj
 0002:00025b80       ?UI_ShowPostGame@@YAXW4qboolean@@@Z 4008cb80 f   ui_main.obj
 0002:00025c20       ?UI_DrawCenteredPic@@YAXHHH@Z 4008cc20 f   ui_main.obj
 0002:00025cc0       ?UI_GetStringEdString@@YAPBDPBD0@Z 4008ccc0 f   ui_main.obj
 0002:00025d40       ?_UI_Refresh@@YAXH@Z       4008cd40 f   ui_main.obj
 0002:00026040       ?_UI_Shutdown@@YAXXZ       4008d040 f   ui_main.obj
 0002:000260a0       ?GetMenuBuffer@@YAPADPBD@Z 4008d0a0 f   ui_main.obj
 0002:000261f0       ?Asset_Parse@@YA?AW4qboolean@@H@Z 4008d1f0 f   ui_main.obj
 0002:00026d80       ?UI_Report@@YAXXZ          4008dd80 f   ui_main.obj
 0002:00026dd0       ?UI_ParseMenu@@YAXPBD@Z    4008ddd0 f   ui_main.obj
 0002:00026f60       ?UI_LoadSingleMenuFile@@YAXPBD@Z 4008df60 f   ui_main.obj
 0002:00026fd0       ?Load_Menu@@YA?AW4qboolean@@H@Z 4008dfd0 f   ui_main.obj
 0002:00027110       ?UI_LoadMenus@@YAXPBDW4qboolean@@@Z 4008e110 f   ui_main.obj
 0002:00027300       ?UI_Load@@YAXXZ            4008e300 f   ui_main.obj
 0002:00027480       ?UI_HasSetSaberOnly@@YA?AW4qboolean@@XZ 4008e480 f   ui_main.obj
 0002:00027660       ?UI_TrueJediEnabled@@YA?AW4qboolean@@XZ 4008e660 f   ui_main.obj
 0002:000278c0       ?UpdateBotButtons@@YAXXZ   4008e8c0 f   ui_main.obj
 0002:00027990       ?UpdateForceStatus@@YAXXZ  4008e990 f   ui_main.obj
 0002:000281a0       ?UI_ServersSort@@YAXHW4qboolean@@@Z 4008f1a0 f   ui_main.obj
 0002:00028290       ?UI_UpdateVideoSetup@@YAXXZ 4008f290 f   ui_main.obj
 0002:00028500       ?UI_GetVideoSetup@@YAXXZ   4008f500 f   ui_main.obj
 0002:00028970       ?UI_SetSiegeObjectiveGraphicPos@@YAXPAUmenuDef_t@@PBD1@Z 4008f970 f   ui_main.obj
 0002:00028bb0       ?UI_FindCurrentSiegeTeamClass@@YAXXZ 4008fbb0 f   ui_main.obj
 0002:00028da0       ?UI_UpdateSiegeObjectiveGraphics@@YAXXZ 4008fda0 f   ui_main.obj
 0002:00029030       ?UI_UpdateCharacterSkin@@YAXXZ 40090030 f   ui_main.obj
 0002:00029230       ?UI_ClampMaxPlayers@@YAXXZ 40090230 f   ui_main.obj
 0002:000293b0       ?UI_UpdateSiegeStatusIcons@@YAXXZ 400903b0 f   ui_main.obj
 0002:00029590       ?UI_hasSkinForBase@@YA?AW4qboolean@@PBD0@Z 40090590 f   ui_main.obj
 0002:0002a8f0       ?UI_SiegeClassNum@@YAHPAUsiegeClass_t@@@Z 400918f0 f   ui_main.obj
 0002:0002a970       ?UI_SetSiegeTeams@@YAXXZ   40091970 f   ui_main.obj
 0002:0002aed0       ?UI_SiegeSetCvarsForClass@@YAXPAUsiegeClass_t@@@Z 40091ed0 f   ui_main.obj
 0002:0002b620       ?UI_UpdateCvarsForClass@@YAXHHH@Z 40092620 f   ui_main.obj
 0002:0002b7d0       ?UI_FeederSelection@@YA?AW4qboolean@@MHPAUitemDef_s@@@Z 400927d0 f   ui_main.obj
 0002:0002d090       ?UI_LoadForceConfig_List@@YAXXZ 40094090 f   ui_main.obj
 0002:0002d380       ?UI_SiegeInit@@YAXXZ       40094380 f   ui_main.obj
 0002:0002d470       ?_UI_Init@@YAXW4qboolean@@@Z 40094470 f   ui_main.obj
 0002:0003ca40       ?strrchr@@YAPADPADH@Z      400a3a40 f i ui_main.obj
 0002:00042120       ?_UI_KeyEvent@@YAXHW4qboolean@@@Z 400a9120 f   ui_main.obj
 0002:000421f0       ?_UI_MouseEvent@@YAXHH@Z   400a91f0 f   ui_main.obj
 0002:000422e0       ?UI_LoadNonIngame@@YAXXZ   400a92e0 f   ui_main.obj
 0002:00042370       ?_UI_SetActiveMenu@@YAXH@Z 400a9370 f   ui_main.obj
 0002:000427f0       ?_UI_IsFullscreen@@YA?AW4qboolean@@XZ 400a97f0 f   ui_main.obj
 0002:00042840       ?Text_PaintCenter@@YAXMMMQAMPBDMH@Z 400a9840 f   ui_main.obj
 0002:00042910       ?UI_DrawConnectScreen@@YAXW4qboolean@@@Z 400a9910 f   ui_main.obj
 0002:00043e50       ?UI_RegisterCvars@@YAXXZ   400aae50 f   ui_main.obj
 0002:00043f00       ?UI_UpdateCvars@@YAXXZ     400aaf00 f   ui_main.obj
 0002:00044520       ?UI_AllocMem@@YAXPAPADH@Z  400ab520 f   ui_main.obj
 0002:00044590       ?UI_FreeMem@@YAXPAX@Z      400ab590 f   ui_main.obj
 0002:000445e0       ?UI_ReaAllocMem@@YAXPAPADHH@Z 400ab5e0 f   ui_main.obj
 0002:00044670       ?UI_CacheSaberGlowGraphics@@YAXXZ 400ab670 f   ui_saber.obj
 0002:00044820       ?UI_ParseLiteral@@YA?AW4qboolean@@PAPBDPBD@Z 400ab820 f   ui_saber.obj
 0002:000448e0       ?UI_ParseLiteralSilent@@YA?AW4qboolean@@PAPBDPBD@Z 400ab8e0 f   ui_saber.obj
 0002:00044970       ?UI_SaberParseParm@@YA?AW4qboolean@@PBD0PAD@Z 400ab970 f   ui_saber.obj
 0002:00044ba0       ?UI_SaberModelForSaber@@YA?AW4qboolean@@PBDPAD@Z 400abba0 f   ui_saber.obj
 0002:00044c00       ?UI_SaberSkinForSaber@@YA?AW4qboolean@@PBDPAD@Z 400abc00 f   ui_saber.obj
 0002:00044c60       ?UI_SaberTypeForSaber@@YA?AW4qboolean@@PBDPAD@Z 400abc60 f   ui_saber.obj
 0002:00044cc0       ?UI_SaberNumBladesForSaber@@YAHPBD@Z 400abcc0 f   ui_saber.obj
 0002:00044dd0       ?UI_SaberShouldDrawBlade@@YA?AW4qboolean@@PBDH@Z 400abdd0 f   ui_saber.obj
 0002:00044fb0       ?UI_IsSaberTwoHanded@@YA?AW4qboolean@@PBD@Z 400abfb0 f   ui_saber.obj
 0002:000450b0       ?UI_SaberBladeLengthForSaber@@YAMPBDH@Z 400ac0b0 f   ui_saber.obj
 0002:00045230       ?UI_SaberBladeRadiusForSaber@@YAMPBDH@Z 400ac230 f   ui_saber.obj
 0002:000453b0       ?UI_SaberProperNameForSaber@@YA?AW4qboolean@@PBDPAD@Z 400ac3b0 f   ui_saber.obj
 0002:000454e0       ?UI_SaberValidForPlayerInMP@@YA?AW4qboolean@@PBD@Z 400ac4e0 f   ui_saber.obj
 0002:000455e0       ?UI_FreeSabers@@YAXXZ      400ac5e0 f   ui_saber.obj
 0002:00045640       ?UI_SaberLoadParms@@YAXXZ  400ac640 f   ui_saber.obj
 0002:00045a70       ?RGB_LerpColor@@YAXQAM0M0@Z 400aca70 f   ui_saber.obj
 0002:00045ba0       ?getint@@YAHPAPAD@Z        400acba0 f   ui_saber.obj
 0002:00045c10       ?ParseRGBSaber@@YAXPADQAM@Z 400acc10 f   ui_saber.obj
 0002:00045ce0       ?UI_ParseScriptedSaber@@YAXPADH@Z 400acce0 f   ui_saber.obj
 0002:00045e50       ?RGB_AdjustSciptedSaberColor@@YAXQAMH@Z 400ace50 f   ui_saber.obj
 0002:000460b0       ?RGB_RandomRGB@@YAXQAM@Z   400ad0b0 f   ui_saber.obj
 0002:00046190       ?RGB_AdjustPimpSaberColor@@YAXQAMH@Z 400ad190 f   ui_saber.obj
 0002:00046400       ?UI_DoSaber@@YAXQAM0MMMHH@Z 400ad400 f   ui_saber.obj
 0002:00046cf0       ?SaberColorToString@@YAPADH@Z 400adcf0 f   ui_saber.obj
 0002:00046de0       ?TranslateSaberColor@@YAHPBD@Z 400adde0 f   ui_saber.obj
 0002:00046ff0       ?TranslateSaberType@@YA?AW4saberType_t@@PBD@Z 400adff0 f   ui_saber.obj
 0002:00047200       ?UI_SaberDrawBlade@@YAXPAUitemDef_s@@PADHW4saberType_t@@QAM3H@Z 400ae200 f   ui_saber.obj
 0002:00048cb0       ?UI_GetSaberForMenu@@YAXPADH@Z 400afcb0 f   ui_saber.obj
 0002:00048f30       ?UI_SaberDrawBlades@@YAXPAUitemDef_s@@QAM1@Z 400aff30 f   ui_saber.obj
 0002:00049290       ?UI_SaberAttachToChar@@YAXPAUitemDef_s@@@Z 400b0290 f   ui_saber.obj
 0002:000495b0       ?UI_GetSaberHiltInfo@@YAPADW4qboolean@@H@Z 400b05b0 f   ui_saber.obj
 0002:00049660       ?UI_GetSaberCount@@YAHW4qboolean@@@Z 400b0660 f   ui_saber.obj
 0002:000496b0       ?UI_SaberGetHiltInfo@@YAXXZ 400b06b0 f   ui_saber.obj
 0002:000498b0       ?resize@?$vector@PADV?$allocator@PAD@std@@@std@@QAEXI@Z 400b08b0 f i ui_saber.obj
 0002:00049b20       ?size@?$vector@PADV?$allocator@PAD@std@@@std@@QBEIXZ 400b0b20 f i ui_saber.obj
 0002:00049b70       ??A?$vector@PADV?$allocator@PAD@std@@@std@@QAEAAPADI@Z 400b0b70 f i ui_saber.obj
 0002:00049c60       ??1?$_Vector_iterator@V?$_Vector_val@PADV?$allocator@PAD@std@@@std@@@std@@QAE@XZ 400b0c60 f i ui_saber.obj
 0002:00049cb0       ??0?$_Vector_const_iterator@V?$_Vector_val@PADV?$allocator@PAD@std@@@std@@@std@@QAE@ABV01@@Z 400b0cb0 f i ui_saber.obj
 0002:00049d20       ??1?$_Vector_const_iterator@V?$_Vector_val@PADV?$allocator@PAD@std@@@std@@@std@@QAE@XZ 400b0d20 f i ui_saber.obj
 0002:00049d70       ??0?$_Iterator012@Urandom_access_iterator_tag@std@@PADHPBQADABQADU_Iterator_base12@2@@std@@QAE@ABU01@@Z 400b0d70 f i ui_saber.obj
 0002:00049dd0       ??1?$_Iterator012@Urandom_access_iterator_tag@std@@PADHPBQADABQADU_Iterator_base12@2@@std@@QAE@XZ 400b0dd0 f i ui_saber.obj
 0002:00049e20       ?begin@?$vector@PADV?$allocator@PAD@std@@@std@@QAE?AV?$_Vector_iterator@V?$_Vector_val@PADV?$allocator@PAD@std@@@std@@@2@XZ 400b0e20 f i ui_saber.obj
 0002:00049eb0       ?end@?$vector@PADV?$allocator@PAD@std@@@std@@QAE?AV?$_Vector_iterator@V?$_Vector_val@PADV?$allocator@PAD@std@@@std@@@2@XZ 400b0eb0 f i ui_saber.obj
 0002:00049f40       ?erase@?$vector@PADV?$allocator@PAD@std@@@std@@QAE?AV?$_Vector_iterator@V?$_Vector_val@PADV?$allocator@PAD@std@@@std@@@2@V?$_Vector_const_iterator@V?$_Vector_val@PADV?$allocator@PAD@std@@@std@@@2@0@Z 400b0f40 f i ui_saber.obj
 0002:0004a1d0       ?_Reserve@?$vector@PADV?$allocator@PAD@std@@@std@@IAEXI@Z 400b11d0 f i ui_saber.obj
 0002:0004a280       ??H?$_Vector_iterator@V?$_Vector_val@PADV?$allocator@PAD@std@@@std@@@std@@QBE?AV01@H@Z 400b1280 f i ui_saber.obj
 0002:0004a3a0       ??0?$_Vector_iterator@V?$_Vector_val@PADV?$allocator@PAD@std@@@std@@@std@@QAE@ABV01@@Z 400b13a0 f i ui_saber.obj
 0002:0004a400       ?reserve@?$vector@PADV?$allocator@PAD@std@@@std@@QAEXI@Z 400b1400 f i ui_saber.obj
 0002:0004a5d0       ?capacity@?$vector@PADV?$allocator@PAD@std@@@std@@QBEIXZ 400b15d0 f i ui_saber.obj
 0002:0004a620       ?_Make_iter@?$vector@PADV?$allocator@PAD@std@@@std@@QBE?AV?$_Vector_iterator@V?$_Vector_val@PADV?$allocator@PAD@std@@@std@@@2@V?$_Vector_const_iterator@V?$_Vector_val@PADV?$allocator@PAD@std@@@std@@@2@@Z 400b1620 f i ui_saber.obj
 0002:0004a6f0       ?max_size@?$vector@PADV?$allocator@PAD@std@@@std@@QBEIXZ 400b16f0 f i ui_saber.obj
 0002:0004a750       ?_Destroy@?$vector@PADV?$allocator@PAD@std@@@std@@IAEXPAPAD0@Z 400b1750 f i ui_saber.obj
 0002:0004a7c0       ?_Grow_to@?$vector@PADV?$allocator@PAD@std@@@std@@IBEII@Z 400b17c0 f i ui_saber.obj
 0002:0004a870       ?_Xlen@?$vector@PADV?$allocator@PAD@std@@@std@@IBEXXZ 400b1870 f i ui_saber.obj
 0002:0004a8d0       ?_Orphan_range@?$vector@PADV?$allocator@PAD@std@@@std@@IBEXPAPAD0@Z 400b18d0 f i ui_saber.obj
 0002:0004aa30       ?deallocate@?$allocator@PAD@std@@QAEXPAPADI@Z 400b1a30 f i ui_saber.obj
 0002:0004aa90       ??0?$_Vector_iterator@V?$_Vector_val@PADV?$allocator@PAD@std@@@std@@@std@@QAE@PAPADPBU_Container_base12@1@@Z 400b1a90 f i ui_saber.obj
 0002:0004aaf0       ??Y?$_Vector_iterator@V?$_Vector_val@PADV?$allocator@PAD@std@@@std@@@std@@QAEAAV01@H@Z 400b1af0 f i ui_saber.obj
 0002:0004ab50       ??9?$_Vector_const_iterator@V?$_Vector_val@PADV?$allocator@PAD@std@@@std@@@std@@QBE_NABV01@@Z 400b1b50 f i ui_saber.obj
 0002:0004abc0       ??M?$_Vector_const_iterator@V?$_Vector_val@PADV?$allocator@PAD@std@@@std@@@std@@QBE_NABV01@@Z 400b1bc0 f i ui_saber.obj
 0002:0004ac30       ?allocate@?$allocator@PAD@std@@QAEPAPADI@Z 400b1c30 f i ui_saber.obj
 0002:0004ac90       ?max_size@?$allocator@PAD@std@@QBEIXZ 400b1c90 f i ui_saber.obj
 0002:0004ad00       ??0?$_Vector_const_iterator@V?$_Vector_val@PADV?$allocator@PAD@std@@@std@@@std@@QAE@PAPADPBU_Container_base12@1@@Z 400b1d00 f i ui_saber.obj
 0002:0004adc0       ??Y?$_Vector_const_iterator@V?$_Vector_val@PADV?$allocator@PAD@std@@@std@@@std@@QAEAAV01@H@Z 400b1dc0 f i ui_saber.obj
 0002:0004aef0       ??8?$_Vector_const_iterator@V?$_Vector_val@PADV?$allocator@PAD@std@@@std@@@std@@QBE_NABV01@@Z 400b1ef0 f i ui_saber.obj
 0002:0004af60       ?_Compat@?$_Vector_const_iterator@V?$_Vector_val@PADV?$allocator@PAD@std@@@std@@@std@@QBEXABV12@@Z 400b1f60 f i ui_saber.obj
 0002:0004b050       ??0?$_Iterator012@Urandom_access_iterator_tag@std@@PADHPBQADABQADU_Iterator_base12@2@@std@@QAE@XZ 400b2050 f i ui_saber.obj
 0002:0004b0b0       ??$_Uninitialized_default_fill_n@PAPADIPADV?$allocator@PAD@std@@@std@@YAXPAPADIPBQADAAV?$allocator@PAD@0@@Z 400b20b0 f i ui_saber.obj
 0002:0004b150       ??$_Move@PAPADPAPAD@std@@YAPAPADPAPAD00@Z 400b2150 f i ui_saber.obj
 0002:0004b1d0       ??$_Umove@PAPAD@?$vector@PADV?$allocator@PAD@std@@@std@@IAEPAPADPAPAD00@Z 400b21d0 f i ui_saber.obj
 0002:0004b240       ??$_Destroy_range@V?$allocator@PAD@std@@@std@@YAXPAPAD0AAV?$allocator@PAD@0@@Z 400b2240 f i ui_saber.obj
 0002:0004b2c0       ??$_Allocate@PAD@std@@YAPAPADIPAPAD@Z 400b22c0 f i ui_saber.obj
 0002:0004b370       ??$_Val_type@PAPAD@std@@YAPAPADPAPAD@Z 400b2370 f i ui_saber.obj
 0002:0004b3a0       ??$_Ptr_cat@PADPAD@std@@YA?AU_Scalar_ptr_iterator_tag@0@PAPAD0@Z 400b23a0 f i ui_saber.obj
 0002:0004b410       ??$_Uninit_def_fill_n@PADIPADPAD@std@@YAXPAPADIPBQADAAV?$allocator@PAD@0@0U_Scalar_ptr_iterator_tag@0@@Z 400b2410 f i ui_saber.obj
 0002:0004b480       ??$_Move@PAPADPAPAD@std@@YAPAPADPAPAD00U_Scalar_ptr_iterator_tag@0@@Z 400b2480 f i ui_saber.obj
 0002:0004b500       ??$_Uninitialized_move@PAPADPAPADV?$allocator@PAD@std@@@std@@YAPAPADPAPAD00AAV?$allocator@PAD@0@@Z 400b2500 f i ui_saber.obj
 0002:0004b5a0       ??$_Destroy_range@V?$allocator@PAD@std@@@std@@YAXPAPAD0AAV?$allocator@PAD@0@U_Scalar_ptr_iterator_tag@0@@Z 400b25a0 f i ui_saber.obj
 0002:0004b5d0       ??$_Fill_n@PAPADIPAD@std@@YAXPAPADIABQAD@Z 400b25d0 f i ui_saber.obj
 0002:0004b630       ??$_Uninit_move@PADPADPAD@std@@YAPAPADPAPAD00AAV?$allocator@PAD@0@0U_Scalar_ptr_iterator_tag@0@@Z 400b2630 f i ui_saber.obj
 0002:0004b6e0       ??$_Debug_range@PAPAD@std@@YAXPAPAD0PB_WI@Z 400b26e0 f i ui_saber.obj
 0002:0004b760       ??$_Debug_pointer@PAD@std@@YAXPAPADPB_WI@Z 400b2760 f i ui_saber.obj
 0002:0004b7c0       ??$_Iter_cat@PAPAD@std@@YA?AUrandom_access_iterator_tag@0@ABQAPAD@Z 400b27c0 f i ui_saber.obj
 0002:0004b840       ??$_Debug_range2@PAPAD@std@@YAXPAPAD0PB_WIUrandom_access_iterator_tag@0@@Z 400b2840 f i ui_saber.obj
 0002:0004b8e0       ??0?$vector@PADV?$allocator@PAD@std@@@std@@QAE@XZ 400b28e0 f i ui_saber.obj
 0002:0004b950       ??0?$_Vector_val@PADV?$allocator@PAD@std@@@std@@QAE@V?$allocator@PAD@1@@Z 400b2950 f i ui_saber.obj
 0002:0004bac0       ??0?$allocator@PAD@std@@QAE@XZ 400b2ac0 f i ui_saber.obj
 0002:0004bb00       ??0?$allocator@PAD@std@@QAE@ABV01@@Z 400b2b00 f i ui_saber.obj
 0002:0004bb40       ??$?0PAD@?$allocator@U_Container_proxy@std@@@std@@QAE@ABV?$allocator@PAD@1@@Z 400b2b40 f i ui_saber.obj
 0002:0004bb80       ??1?$vector@PADV?$allocator@PAD@std@@@std@@QAE@XZ 400b2b80 f i ui_saber.obj
 0002:0004bc20       ?_Tidy@?$vector@PADV?$allocator@PAD@std@@@std@@IAEXXZ 400b2c20 f i ui_saber.obj
 0002:0004bcf0       ??1?$_Vector_val@PADV?$allocator@PAD@std@@@std@@QAE@XZ 400b2cf0 f i ui_saber.obj
 0002:0004be20       ??_H@YGXPAXIHP6EPAX0@Z@Z   400b2e20 f i ui_shared.obj
 0002:0004be90       ?UI_Alloc@@YAPAXH@Z        400b2e90 f   ui_shared.obj
 0002:0004bf60       ?UI_InitMemory@@YAXXZ      400b2f60 f   ui_shared.obj
 0002:0004bfb0       ?UI_OutOfMemory@@YA?AW4qboolean@@XZ 400b2fb0 f   ui_shared.obj
 0002:0004bff0       ?String_Alloc@@YAPBDPBD@Z  400b2ff0 f   ui_shared.obj
 0002:0004c2c0       ?String_Report@@YAXXZ      400b32c0 f   ui_shared.obj
 0002:0004c3d0       ?String_Init@@YAXXZ        400b33d0 f   ui_shared.obj
 0002:0004c4c0       ?PC_SourceWarning@@YAXHPADZZ 400b34c0 f   ui_shared.obj
 0002:0004c5f0       ?PC_SourceError@@YAXHPADZZ 400b35f0 f   ui_shared.obj
 0002:0004c720       ?LerpColor@@YAXQAM00M@Z    400b3720 f   ui_shared.obj
 0002:0004c800       ?Float_Parse@@YA?AW4qboolean@@PAPADPAM@Z 400b3800 f   ui_shared.obj
 0002:0004c890       ?PC_Float_Parse@@YA?AW4qboolean@@HPAM@Z 400b3890 f   ui_shared.obj
 0002:0004c9f0       ?Color_Parse@@YA?AW4qboolean@@PAPADPAY03M@Z 400b39f0 f   ui_shared.obj
 0002:0004cac0       ?PC_Color_Parse@@YA?AW4qboolean@@HPAY03M@Z 400b3ac0 f   ui_shared.obj
 0002:0004cb90       ?Int_Parse@@YA?AW4qboolean@@PAPADPAH@Z 400b3b90 f   ui_shared.obj
 0002:0004cc20       ?PC_Int_Parse@@YA?AW4qboolean@@HPAH@Z 400b3c20 f   ui_shared.obj
 0002:0004cd80       ?Rect_Parse@@YA?AW4qboolean@@PAPADPAVRectangle@@@Z 400b3d80 f   ui_shared.obj
 0002:0004ce40       ?PC_Rect_Parse@@YA?AW4qboolean@@HPAVRectangle@@@Z 400b3e40 f   ui_shared.obj
 0002:0004cf00       ?String_Parse@@YA?AW4qboolean@@PAPADPAPBD@Z 400b3f00 f   ui_shared.obj
 0002:0004cfa0       ?PC_String_Parse@@YA?AW4qboolean@@HPAPBD@Z 400b3fa0 f   ui_shared.obj
 0002:0004d0a0       ?PC_Script_Parse@@YA?AW4qboolean@@HPAPBD@Z 400b40a0 f   ui_shared.obj
 0002:0004d2a0       ?Init_Display@@YAXPAUdisplayContextDef_t@@@Z 400b42a0 f   ui_shared.obj
 0002:0004d2e0       ?GradientBar_Paint@@YAXPAVRectangle@@QAM@Z 400b42e0 f   ui_shared.obj
 0002:0004d3c0       ?Window_Init@@YAXPAUwindowDef_t@@@Z 400b43c0 f   ui_shared.obj
 0002:0004d460       ?Fade@@YAXPAHPAMM0HW4qboolean@@M@Z 400b4460 f   ui_shared.obj
 0002:0004d570       ?Window_Paint@@YAXPAUwindowDef_t@@MMM@Z 400b4570 f   ui_shared.obj
 0002:0004df20       ?Item_SetScreenCoords@@YAXPAUitemDef_s@@MM@Z 400b4f20 f   ui_shared.obj
 0002:0004e060       ?Item_UpdatePosition@@YAXPAUitemDef_s@@@Z 400b5060 f   ui_shared.obj
 0002:0004e130       ?Menu_UpdatePosition@@YAXPAUmenuDef_t@@@Z 400b5130 f   ui_shared.obj
 0002:0004e210       ?Menu_PostParse@@YAXPAUmenuDef_t@@@Z 400b5210 f   ui_shared.obj
 0002:0004e2b0       ?Container_ClearFocus@@YAPAUitemDef_s@@PAVContainerElement@@@Z 400b52b0 f   ui_shared.obj
 0002:0004e660       ??4?$_List_const_iterator@V?$_List_val@PAUitemDef_s@@V?$allocator@PAUitemDef_s@@@std@@@std@@@std@@QAEAAV01@ABV01@@Z 400b5660 f i ui_shared.obj
 0002:0004e6c0       ??4?$_List_unchecked_const_iterator@V?$_List_val@PAUitemDef_s@@V?$allocator@PAUitemDef_s@@@std@@@std@@U_Iterator_base12@2@@std@@QAEAAV01@ABV01@@Z 400b56c0 f i ui_shared.obj
 0002:0004e730       ??4?$_Iterator012@Ubidirectional_iterator_tag@std@@PAUitemDef_s@@HPBQAU3@ABQAU3@U_Iterator_base12@2@@std@@QAEAAU01@ABU01@@Z 400b5730 f i ui_shared.obj
 0002:0004e790       ?Menu_ClearFocus@@YAPAUitemDef_s@@PAUmenuDef_t@@@Z 400b5790 f   ui_shared.obj
 0002:0004e950       ?IsVisible@@YA?AW4qboolean@@H@Z 400b5950 f   ui_shared.obj
 0002:0004e9c0       ?Rect_ContainsPoint@@YA?AW4qboolean@@PAVRectangle@@MM@Z 400b59c0 f   ui_shared.obj
 0002:0004ea70       ?Container_ItemsMatchingGroup@@YAHPAVContainerElement@@PBD@Z 400b5a70 f   ui_shared.obj
 0002:0004ee40       ?Menu_ItemsMatchingGroup@@YAHPAUmenuDef_t@@PBD@Z 400b5e40 f   ui_shared.obj
 0002:0004f000       ?Container_GetMatchingItemByNumber@@YAPAUitemDef_s@@PAVContainerElement@@PAHHPBD@Z 400b6000 f   ui_shared.obj
 0002:0004f450       ?Menu_GetMatchingItemByNumber@@YAPAUitemDef_s@@PAUmenuDef_t@@HPBD@Z 400b6450 f   ui_shared.obj
 0002:0004f630       ?Script_SetColor@@YA?AW4qboolean@@PAUitemDef_s@@PAPAD@Z 400b6630 f   ui_shared.obj
 0002:0004f7f0       ?Script_SetAsset@@YA?AW4qboolean@@PAUitemDef_s@@PAPAD@Z 400b67f0 f   ui_shared.obj
 0002:0004f880       ?Script_SetBackground@@YA?AW4qboolean@@PAUitemDef_s@@PAPAD@Z 400b6880 f   ui_shared.obj
 0002:0004f940       ?Script_SetItemRectCvar@@YA?AW4qboolean@@PAUitemDef_s@@PAPAD@Z 400b6940 f   ui_shared.obj
 0002:0004fcd0       ?Script_SetItemBackground@@YA?AW4qboolean@@PAUitemDef_s@@PAPAD@Z 400b6cd0 f   ui_shared.obj
 0002:0004fdc0       ?Script_SetItemText@@YA?AW4qboolean@@PAUitemDef_s@@PAPAD@Z 400b6dc0 f   ui_shared.obj
 0002:0004feb0       ?Menu_FindItemByName@@YAPAUitemDef_s@@PAUmenuDef_t@@PBD@Z 400b6eb0 f   ui_shared.obj
 0002:0004ff70       ?Script_SetTeamColor@@YA?AW4qboolean@@PAUitemDef_s@@PAPAD@Z 400b6f70 f   ui_shared.obj
 0002:00050070       ?Script_SetItemColor@@YA?AW4qboolean@@PAUitemDef_s@@PAPAD@Z 400b7070 f   ui_shared.obj
 0002:00050350       ?Script_SetItemColorCvar@@YA?AW4qboolean@@PAUitemDef_s@@PAPAD@Z 400b7350 f   ui_shared.obj
 0002:00050820       ?Script_SetItemRect@@YA?AW4qboolean@@PAUitemDef_s@@PAPAD@Z 400b7820 f   ui_shared.obj
 0002:000509d0       ?Menu_ShowGroup@@YAXPAUmenuDef_t@@PADW4qboolean@@@Z 400b79d0 f   ui_shared.obj
 0002:00050aa0       ?Menu_ShowItemByName@@YAXPAUmenuDef_t@@PBDW4qboolean@@@Z 400b7aa0 f   ui_shared.obj
 0002:00050bc0       ?Menu_FadeItemByName@@YAXPAUmenuDef_t@@PBDW4qboolean@@@Z 400b7bc0 f   ui_shared.obj
 0002:00050cc0       ?Menus_FindByName@@YAPAUmenuDef_t@@PBD@Z 400b7cc0 f   ui_shared.obj
 0002:00050d70       ?Menus_ShowByName@@YAXPBD@Z 400b7d70 f   ui_shared.obj
 0002:00050de0       ?Menus_OpenByName@@YAXPBD@Z 400b7de0 f   ui_shared.obj
 0002:00050e30       ?Menus_CloseByName@@YAXPBD@Z 400b7e30 f   ui_shared.obj
 0002:00051010       ??0itemDef_s@@QAE@XZ       400b8010 f i ui_shared.obj
 0002:00051080       ??0windowDef_t@@QAE@XZ     400b8080 f i ui_shared.obj
 0002:00051100       ?Menus_CloseAll@@YAXXZ     400b8100 f   ui_shared.obj
 0002:000511d0       ?Script_Show@@YA?AW4qboolean@@PAUitemDef_s@@PAPAD@Z 400b81d0 f   ui_shared.obj
 0002:00051280       ?Script_Hide@@YA?AW4qboolean@@PAUitemDef_s@@PAPAD@Z 400b8280 f   ui_shared.obj
 0002:00051330       ?Script_FadeIn@@YA?AW4qboolean@@PAUitemDef_s@@PAPAD@Z 400b8330 f   ui_shared.obj
 0002:000513e0       ?Script_FadeOut@@YA?AW4qboolean@@PAUitemDef_s@@PAPAD@Z 400b83e0 f   ui_shared.obj
 0002:00051490       ?Script_Open@@YA?AW4qboolean@@PAUitemDef_s@@PAPAD@Z 400b8490 f   ui_shared.obj
 0002:00051540       ?Script_Close@@YA?AW4qboolean@@PAUitemDef_s@@PAPAD@Z 400b8540 f   ui_shared.obj
 0002:00051610       ?Menu_TransitionItemByName@@YAXPAUmenuDef_t@@PBDPBVRectangle@@2HM@Z 400b8610 f   ui_shared.obj
 0002:00051810       ?abs@@YAMM@Z               400b8810 f i ui_shared.obj
 0002:00051870       ?Menu_Transition3ItemByName@@YAXPAUmenuDef_t@@PBDMMMMMMMMHM@Z 400b8870 f   ui_shared.obj
 0002:00051b90       ?Script_Defer@@YA?AW4qboolean@@PAUitemDef_s@@PAPAD@Z 400b8b90 f   ui_shared.obj
 0002:00051c30       ?Script_RunDeferred@@YA?AW4qboolean@@PAUitemDef_s@@PAPAD@Z 400b8c30 f   ui_shared.obj
 0002:00051cb0       ?Script_Transition@@YA?AW4qboolean@@PAUitemDef_s@@PAPAD@Z 400b8cb0 f   ui_shared.obj
 0002:00051e50       ?Menu_OrbitItemByName@@YAXPAUmenuDef_t@@PBDMMMMH@Z 400b8e50 f   ui_shared.obj
 0002:00051f50       ?Menu_ItemDisable@@YAXPAUmenuDef_t@@PADH@Z 400b8f50 f   ui_shared.obj
 0002:00052010       ?Script_Disable@@YA?AW4qboolean@@PAUitemDef_s@@PAPAD@Z 400b9010 f   ui_shared.obj
 0002:00052180       ?Script_Scale@@YA?AW4qboolean@@PAUitemDef_s@@PAPAD@Z 400b9180 f   ui_shared.obj
 0002:000523f0       ?Script_Orbit@@YA?AW4qboolean@@PAUitemDef_s@@PAPAD@Z 400b93f0 f   ui_shared.obj
 0002:000525b0       ?Script_SetFocus@@YA?AW4qboolean@@PAUitemDef_s@@PAPAD@Z 400b95b0 f   ui_shared.obj
 0002:00052730       ?Script_SetPlayerModel@@YA?AW4qboolean@@PAUitemDef_s@@PAPAD@Z 400b9730 f   ui_shared.obj
 0002:000527f0       ?ParseRect@@YA?AW4qboolean@@PAPBDPAVRectangle@@@Z 400b97f0 f   ui_shared.obj
 0002:000528b0       ?Script_Transition2@@YA?AW4qboolean@@PAUitemDef_s@@PAPAD@Z 400b98b0 f   ui_shared.obj
 0002:00052a30       ?Script_Transition3@@YA?AW4qboolean@@PAUitemDef_s@@PAPAD@Z 400b9a30 f   ui_shared.obj
 0002:00052d60       ?Script_SetCvar@@YA?AW4qboolean@@PAUitemDef_s@@PAPAD@Z 400b9d60 f   ui_shared.obj
 0002:00052e50       ?Script_SetCvarToCvar@@YA?AW4qboolean@@PAUitemDef_s@@PAPAD@Z 400b9e50 f   ui_shared.obj
 0002:00052fa0       ?Script_Exec@@YA?AW4qboolean@@PAUitemDef_s@@PAPAD@Z 400b9fa0 f   ui_shared.obj
 0002:00053160       ?Script_Play@@YA?AW4qboolean@@PAUitemDef_s@@PAPAD@Z 400ba160 f   ui_shared.obj
 0002:00053240       ?Script_PlayVoice@@YA?AW4qboolean@@PAUitemDef_s@@PAPAD@Z 400ba240 f   ui_shared.obj
 0002:00053320       ?Script_playLooped@@YA?AW4qboolean@@PAUitemDef_s@@PAPAD@Z 400ba320 f   ui_shared.obj
 0002:00053400       ?Menu_SetItemBackground@@YAXPBUmenuDef_t@@PBD1@Z 400ba400 f   ui_shared.obj
 0002:000534e0       ?Menu_SetItemText@@YAXPBUmenuDef_t@@PBD1@Z 400ba4e0 f   ui_shared.obj
 0002:00053680       ?Item_RunScript@@YAXPAUitemDef_s@@PBD@Z 400ba680 f   ui_shared.obj
 0002:000538e0       ?Item_EnableShowViaCvar@@YA?AW4qboolean@@PAUitemDef_s@@H@Z 400ba8e0 f   ui_shared.obj
 0002:00053bf0       ?Item_SetFocus@@YA?AW4qboolean@@PAUitemDef_s@@MM@Z 400babf0 f   ui_shared.obj
 0002:00053ee0       ?Item_TextScroll_MaxScroll@@YAHPAUitemDef_s@@@Z 400baee0 f   ui_shared.obj
 0002:00053f70       ?Item_TextScroll_ThumbPosition@@YAHPAUitemDef_s@@@Z 400baf70 f   ui_shared.obj
 0002:00054060       ?Item_TextScroll_ThumbDrawPosition@@YAHPAUitemDef_s@@@Z 400bb060 f   ui_shared.obj
 0002:00054180       ?Item_TextScroll_OverLB@@YAHPAUitemDef_s@@MM@Z 400bb180 f   ui_shared.obj
 0002:000543c0       ?Item_TextScroll_MouseEnter@@YAXPAUitemDef_s@@MM@Z 400bb3c0 f   ui_shared.obj
 0002:00054450       ?Item_TextScroll_HandleKey@@YA?AW4qboolean@@PAUitemDef_s@@HW41@1@Z 400bb450 f   ui_shared.obj
 0002:000547a0       ?Item_ListBox_MaxScroll@@YAHPAUitemDef_s@@@Z 400bb7a0 f   ui_shared.obj
 0002:000548a0       ?Item_ListBox_ThumbPosition@@YAHPAUitemDef_s@@@Z 400bb8a0 f   ui_shared.obj
 0002:00054a20       ?Item_ListBox_ThumbDrawPosition@@YAHPAUitemDef_s@@@Z 400bba20 f   ui_shared.obj
 0002:00054c30       ?Item_Slider_ThumbPosition@@YAMPAUitemDef_s@@@Z 400bbc30 f   ui_shared.obj
 0002:00054da0       ?Item_Slider_OverSlider@@YAHPAUitemDef_s@@MM@Z 400bbda0 f   ui_shared.obj
 0002:00054e90       ?Item_ListBox_OverLB@@YAHPAUitemDef_s@@MM@Z 400bbe90 f   ui_shared.obj
 0002:00055400       ?Item_ListBox_MouseEnter@@YAXPAUitemDef_s@@MM@Z 400bc400 f   ui_shared.obj
 0002:00055750       ?Item_MouseEnter@@YAXPAUitemDef_s@@MM@Z 400bc750 f   ui_shared.obj
 0002:00055a10       ?Item_MouseLeave@@YAXPAUitemDef_s@@@Z 400bca10 f   ui_shared.obj
 0002:00055ad0       ?Menu_HitTest@@YAPAUitemDef_s@@PAUmenuDef_t@@MM@Z 400bcad0 f   ui_shared.obj
 0002:00055b80       ?Item_SetMouseOver@@YAXPAUitemDef_s@@W4qboolean@@@Z 400bcb80 f   ui_shared.obj
 0002:00055bf0       ?IsForceRank@@YA?AW4qboolean@@H@Z 400bcbf0 f   ui_shared.obj
 0002:00055c70       ?Item_OwnerDraw_HandleKey@@YA?AW4qboolean@@PAUitemDef_s@@H@Z 400bcc70 f   ui_shared.obj
 0002:00055da0       ?Item_ListBox_HandleKey@@YA?AW4qboolean@@PAUitemDef_s@@HW41@1@Z 400bcda0 f   ui_shared.obj
 0002:000568c0       ?Item_YesNo_HandleKey@@YA?AW4qboolean@@PAUitemDef_s@@H@Z 400bd8c0 f   ui_shared.obj
 0002:00056a40       ?Item_Multi_CountSettings@@YAHPAUitemDef_s@@@Z 400bda40 f   ui_shared.obj
 0002:00056aa0       ?Item_Multi_FindCvarByValue@@YAHPAUitemDef_s@@@Z 400bdaa0 f   ui_shared.obj
 0002:00056ca0       ?Item_Multi_Setting@@YAPBDPAUitemDef_s@@@Z 400bdca0 f   ui_shared.obj
 0002:00056ee0       ?Item_Multi_HandleKey@@YA?AW4qboolean@@PAUitemDef_s@@H@Z 400bdee0 f   ui_shared.obj
 0002:000571c0       ?Leaving_EditField@@YAXPAUitemDef_s@@@Z 400be1c0 f   ui_shared.obj
 0002:00057230       ?Item_TextField_HandleKey@@YA?AW4qboolean@@PAUitemDef_s@@H@Z 400be230 f   ui_shared.obj
 0002:00057b40       ?Item_StartCapture@@YAXPAUitemDef_s@@H@Z 400beb40 f   ui_shared.obj
 0002:000589b0       ?Item_StopCapture@@YAXPAUitemDef_s@@@Z 400bf9b0 f   ui_shared.obj
 0002:000589e0       ?Item_Slider_HandleKey@@YA?AW4qboolean@@PAUitemDef_s@@HW41@@Z 400bf9e0 f   ui_shared.obj
 0002:00058ce0       ?Item_HandleKey@@YA?AW4qboolean@@PAUitemDef_s@@HW41@@Z 400bfce0 f   ui_shared.obj
 0002:00058f80       ?Item_HandleAccept@@YA?AW4qboolean@@PAUitemDef_s@@@Z 400bff80 f   ui_shared.obj
 0002:00059000       ?Item_Action@@YAXPAUitemDef_s@@@Z 400c0000 f   ui_shared.obj
 0002:00059070       ?Menu_SetPrevCursorItem@@YAPAUitemDef_s@@PAUmenuDef_t@@@Z 400c0070 f   ui_shared.obj
 0002:00059270       ?Menu_SetNextCursorItem@@YAPAUitemDef_s@@PAUmenuDef_t@@@Z 400c0270 f   ui_shared.obj
 0002:00059460       ?Menus_Activate@@YAXPAUmenuDef_t@@@Z 400c0460 f   ui_shared.obj
 0002:000597e0       ?Display_VisibleMenuCount@@YAHXZ 400c07e0 f   ui_shared.obj
 0002:00059870       ?Menus_HandleOOBClick@@YAXPAUmenuDef_t@@HW4qboolean@@@Z 400c0870 f   ui_shared.obj
 0002:00059a70       ?Container_GetFocusedItem@@YAPAUitemDef_s@@PAVContainerElement@@@Z 400c0a70 f   ui_shared.obj
 0002:00059e60       ?Menu_HandleKey@@YAXPAUmenuDef_t@@HW4qboolean@@@Z 400c0e60 f   ui_shared.obj
 0002:0005a7d0       ?ToWindowCoords@@YAXPAM0PAUwindowDef_t@@@Z 400c17d0 f   ui_shared.obj
 0002:0005a860       ?Rect_ToWindowCoords@@YAXPAVRectangle@@PAUwindowDef_t@@@Z 400c1860 f   ui_shared.obj
 0002:0005a8c0       ?Item_SetTextExtents@@YAXPAUitemDef_s@@PAH1PBD@Z 400c18c0 f   ui_shared.obj
 0002:0005ad40       ?Item_TextColor@@YAXPAUitemDef_s@@PAY03M@Z 400c1d40 f   ui_shared.obj
 0002:0005b0f0       ?Item_Text_AutoWrapped_Paint@@YAXPAUitemDef_s@@@Z 400c20f0 f   ui_shared.obj
 0002:0005b6c0       ?Item_Text_Wrapped_Paint@@YAXPAUitemDef_s@@@Z 400c26c0 f   ui_shared.obj
 0002:0005baf0       ?Item_Text_Paint@@YAXPAUitemDef_s@@@Z 400c2af0 f   ui_shared.obj
 0002:0005bef0       ?Item_TextField_Paint@@YAXPAUitemDef_s@@@Z 400c2ef0 f   ui_shared.obj
 0002:0005c3f0       ?Item_YesNo_Paint@@YAXPAUitemDef_s@@@Z 400c33f0 f   ui_shared.obj
 0002:0005c830       ?Item_Multi_Paint@@YAXPAUitemDef_s@@@Z 400c3830 f   ui_shared.obj
 0002:0005cc10       ?Controls_GetConfig@@YAXXZ 400c3c10 f   ui_shared.obj
 0002:0005ce50       ?Controls_SetConfig@@YAXW4qboolean@@@Z 400c3e50 f   ui_shared.obj
 0002:0005cf60       ?BindingIDFromName@@YAHPBD@Z 400c3f60 f   ui_shared.obj
 0002:0005cff0       ?BindingFromName@@YAXPBD@Z 400c3ff0 f   ui_shared.obj
 0002:0005d1e0       ?Item_Slider_Paint@@YAXPAUitemDef_s@@@Z 400c41e0 f   ui_shared.obj
 0002:0005d560       ?Item_Bind_Paint@@YAXPAUitemDef_s@@@Z 400c4560 f   ui_shared.obj
 0002:0005db10       ?Display_KeyBindPending@@YA?AW4qboolean@@XZ 400c4b10 f   ui_shared.obj
 0002:0005db50       ?Item_Bind_HandleKey@@YA?AW4qboolean@@PAUitemDef_s@@HW41@@Z 400c4b50 f   ui_shared.obj
 0002:0005e0b0       ?UI_ScaleModelAxis@@YAXPAUrefEntity_t@@@Z 400c50b0 f   ui_shared.obj
 0002:0005e2c0       ?Item_Model_Paint@@YAXPAUitemDef_s@@@Z 400c52c0 f   ui_shared.obj
 0002:0005f000       ?tan@@YAMM@Z               400c6000 f i ui_shared.obj
 0002:0005f060       _tanf                      400c6060 f i ui_shared.obj
 0002:0005f0d0       ?Item_Image_Paint@@YAXPAUitemDef_s@@@Z 400c60d0 f   ui_shared.obj
 0002:0005f1d0       ?Item_TextScroll_Paint@@YAXPAUitemDef_s@@@Z 400c61d0 f   ui_shared.obj
 0002:0005f780       ?Item_ListBox_Paint@@YAXPAUitemDef_s@@@Z 400c6780 f   ui_shared.obj
 0002:000611e0       ?Item_OwnerDraw_Paint@@YAXPAUitemDef_s@@@Z 400c81e0 f   ui_shared.obj
 0002:00061980       ?Item_Paint@@YAXPAUitemDef_s@@@Z 400c8980 f   ui_shared.obj
 0002:000630c0       ?Menu_Init@@YAXPAUmenuDef_t@@@Z 400ca0c0 f   ui_shared.obj
 0002:00063190       ?Menu_GetFocusedItem@@YAPAUitemDef_s@@PAUmenuDef_t@@@Z 400ca190 f   ui_shared.obj
 0002:00063220       ?Menu_GetFocused@@YAPAUmenuDef_t@@XZ 400ca220 f   ui_shared.obj
 0002:000632c0       ?Menu_ScrollFeeder@@YAXPAUmenuDef_t@@HW4qboolean@@@Z 400ca2c0 f   ui_shared.obj
 0002:00063390       ?Menu_SetFeederSelection@@YAXPAUmenuDef_t@@HHPBD@Z 400ca390 f   ui_shared.obj
 0002:00063520       ?Menus_AnyFullScreenVisible@@YA?AW4qboolean@@XZ 400ca520 f   ui_shared.obj
 0002:000635b0       ?Menus_ActivateByName@@YAPAUmenuDef_t@@PBD@Z 400ca5b0 f   ui_shared.obj
 0002:00063720       ?Item_Init@@YAXPAUitemDef_s@@@Z 400ca720 f   ui_shared.obj
 0002:00063830       ?Container_FocusItem@@YAXPAVContainerElement@@HH_NH@Z 400ca830 f   ui_shared.obj
 0002:00063d10       ?Menu_HandleMouseMove@@YAXPAUmenuDef_t@@MM@Z 400cad10 f   ui_shared.obj
 0002:000640d0       ?Menu_Paint@@YAXPAUmenuDef_t@@W4qboolean@@@Z 400cb0d0 f   ui_shared.obj
 0002:000644b0       ?Item_ValidateTypeData@@YAXPAUitemDef_s@@@Z 400cb4b0 f   ui_shared.obj
 0002:000646d0       ?LayoutHash_Key@@YAHPAD@Z  400cb6d0 f   ui_shared.obj
 0002:000647c0       ?LayoutHash_Add@@YAXQAPAUlayoutKeywordHash_s@@PAU1@@Z 400cb7c0 f   ui_shared.obj
 0002:00064840       ?LayoutHash_Find@@YAPAUlayoutKeywordHash_s@@QAPAU1@PAD@Z 400cb840 f   ui_shared.obj
 0002:000648e0       ?KeywordHash_Key@@YAHPAD@Z 400cb8e0 f   ui_shared.obj
 0002:000649d0       ?KeywordHash_Add@@YAXQAPAUkeywordHash_s@@PAU1@@Z 400cb9d0 f   ui_shared.obj
 0002:00064a50       ?KeywordHash_Find@@YAPAUkeywordHash_s@@QAPAU1@PAD@Z 400cba50 f   ui_shared.obj
 0002:00064af0       ?ItemParse_name@@YA?AW4qboolean@@PAUitemDef_s@@H@Z 400cbaf0 f   ui_shared.obj
 0002:00064b60       ?ItemParse_focusSound@@YA?AW4qboolean@@PAUitemDef_s@@H@Z 400cbb60 f   ui_shared.obj
 0002:00064c50       ?ItemParse_text@@YA?AW4qboolean@@PAUitemDef_s@@H@Z 400cbc50 f   ui_shared.obj
 0002:00064cc0       ?ItemParse_descText@@YA?AW4qboolean@@PAUitemDef_s@@H@Z 400cbcc0 f   ui_shared.obj
 0002:00064d30       ?ItemParse_text2@@YA?AW4qboolean@@PAUitemDef_s@@H@Z 400cbd30 f   ui_shared.obj
 0002:00064da0       ?ItemParse_text2alignx@@YA?AW4qboolean@@PAUitemDef_s@@H@Z 400cbda0 f   ui_shared.obj
 0002:00064e10       ?ItemParse_text2aligny@@YA?AW4qboolean@@PAUitemDef_s@@H@Z 400cbe10 f   ui_shared.obj
 0002:00064e80       ?ItemParse_group@@YA?AW4qboolean@@PAUitemDef_s@@H@Z 400cbe80 f   ui_shared.obj
 0002:00064ef0       ?UI_InsertG2Pointer@@YAXPAX@Z 400cbef0 f   ui_shared.obj
 0002:00064fd0       ?UI_ClearG2Pointer@@YAXPAX@Z 400cbfd0 f   ui_shared.obj
 0002:00065050       ?UI_CleanupGhoul2@@YAXXZ   400cc050 f   ui_shared.obj
 0002:000650e0       ?ItemParse_asset_model_go@@YA?AW4qboolean@@PAUitemDef_s@@PBDPAH@Z 400cc0e0 f   ui_shared.obj
 0002:00065530       ?ItemParse_asset_model@@YA?AW4qboolean@@PAUitemDef_s@@H@Z 400cc530 f   ui_shared.obj
 0002:000656f0       ?ItemParse_asset_shader@@YA?AW4qboolean@@PAUitemDef_s@@H@Z 400cc6f0 f   ui_shared.obj
 0002:000657e0       ?ItemParse_model_origin@@YA?AW4qboolean@@PAUitemDef_s@@H@Z 400cc7e0 f   ui_shared.obj
 0002:000658a0       ?ItemParse_model_fovx@@YA?AW4qboolean@@PAUitemDef_s@@H@Z 400cc8a0 f   ui_shared.obj
 0002:00065930       ?ItemParse_model_fovy@@YA?AW4qboolean@@PAUitemDef_s@@H@Z 400cc930 f   ui_shared.obj
 0002:000659c0       ?ItemParse_model_rotation@@YA?AW4qboolean@@PAUitemDef_s@@H@Z 400cc9c0 f   ui_shared.obj
 0002:00065a50       ?ItemParse_model_angle@@YA?AW4qboolean@@PAUitemDef_s@@H@Z 400cca50 f   ui_shared.obj
 0002:00065ad0       ?ItemParse_model_g2mins@@YA?AW4qboolean@@PAUitemDef_s@@H@Z 400ccad0 f   ui_shared.obj
 0002:00065b90       ?ItemParse_model_g2maxs@@YA?AW4qboolean@@PAUitemDef_s@@H@Z 400ccb90 f   ui_shared.obj
 0002:00065c50       ?ItemParse_model_g2scale@@YA?AW4qboolean@@PAUitemDef_s@@H@Z 400ccc50 f   ui_shared.obj
 0002:00065d10       ?ItemParse_model_g2skin@@YA?AW4qboolean@@PAUitemDef_s@@H@Z 400ccd10 f   ui_shared.obj
 0002:00065e20       ?ItemParse_model_g2anim@@YA?AW4qboolean@@PAUitemDef_s@@H@Z 400cce20 f   ui_shared.obj
 0002:00065fa0       ?ItemParse_model_g2skin_go@@YA?AW4qboolean@@PAUitemDef_s@@PBD@Z 400ccfa0 f   ui_shared.obj
 0002:00066090       ?ItemParse_model_g2anim_go@@YA?AW4qboolean@@PAUitemDef_s@@PBD@Z 400cd090 f   ui_shared.obj
 0002:00066190       ?ItemParse_rectcvar@@YA?AW4qboolean@@PAUitemDef_s@@H@Z 400cd190 f   ui_shared.obj
 0002:000663e0       ?ItemParse_rect@@YA?AW4qboolean@@PAUitemDef_s@@H@Z 400cd3e0 f   ui_shared.obj
 0002:00066450       ?ItemParse_flag@@YA?AW4qboolean@@PAUitemDef_s@@H@Z 400cd450 f   ui_shared.obj
 0002:000665b0       ?ItemParse_style@@YA?AW4qboolean@@PAUitemDef_s@@H@Z 400cd5b0 f   ui_shared.obj
 0002:00066630       ?ItemParse_decoration@@YA?AW4qboolean@@PAUitemDef_s@@H@Z 400cd630 f   ui_shared.obj
 0002:00066680       ?ItemParse_notselectable@@YA?AW4qboolean@@PAUitemDef_s@@H@Z 400cd680 f   ui_shared.obj
 0002:00066710       ?ItemParse_scrollhidden@@YA?AW4qboolean@@PAUitemDef_s@@H@Z 400cd710 f   ui_shared.obj
 0002:000667a0       ?ItemParse_wrapped@@YA?AW4qboolean@@PAUitemDef_s@@H@Z 400cd7a0 f   ui_shared.obj
 0002:000667f0       ?ItemParse_autowrapped@@YA?AW4qboolean@@PAUitemDef_s@@H@Z 400cd7f0 f   ui_shared.obj
 0002:00066840       ?ItemParse_horizontalscroll@@YA?AW4qboolean@@PAUitemDef_s@@H@Z 400cd840 f   ui_shared.obj
 0002:00066890       ?ItemParse_type@@YA?AW4qboolean@@PAUitemDef_s@@H@Z 400cd890 f   ui_shared.obj
 0002:00066910       ?ItemParse_elementwidth@@YA?AW4qboolean@@PAUitemDef_s@@H@Z 400cd910 f   ui_shared.obj
 0002:000669a0       ?ItemParse_elementheight@@YA?AW4qboolean@@PAUitemDef_s@@H@Z 400cd9a0 f   ui_shared.obj
 0002:00066a30       ?ItemParse_feeder@@YA?AW4qboolean@@PAUitemDef_s@@H@Z 400cda30 f   ui_shared.obj
 0002:00066aa0       ?ItemParse_elementtype@@YA?AW4qboolean@@PAUitemDef_s@@H@Z 400cdaa0 f   ui_shared.obj
 0002:00066b40       ?ItemParse_columns@@YA?AW4qboolean@@PAUitemDef_s@@H@Z 400cdb40 f   ui_shared.obj
 0002:00066d30       ?ItemParse_border@@YA?AW4qboolean@@PAUitemDef_s@@H@Z 400cdd30 f   ui_shared.obj
 0002:00066da0       ?ItemParse_bordersize@@YA?AW4qboolean@@PAUitemDef_s@@H@Z 400cdda0 f   ui_shared.obj
 0002:00066e10       ?ItemParse_visible@@YA?AW4qboolean@@PAUitemDef_s@@H@Z 400cde10 f   ui_shared.obj
 0002:00066ed0       ?ItemParse_ownerdraw@@YA?AW4qboolean@@PAUitemDef_s@@H@Z 400cded0 f   ui_shared.obj
 0002:00066f50       ?ItemParse_align@@YA?AW4qboolean@@PAUitemDef_s@@H@Z 400cdf50 f   ui_shared.obj
 0002:00066fc0       ?ItemParse_isCharacter@@YA?AW4qboolean@@PAUitemDef_s@@H@Z 400cdfc0 f   ui_shared.obj
 0002:000670a0       ?ItemParse_textalign@@YA?AW4qboolean@@PAUitemDef_s@@H@Z 400ce0a0 f   ui_shared.obj
 0002:00067120       ?ItemParse_textalignx@@YA?AW4qboolean@@PAUitemDef_s@@H@Z 400ce120 f   ui_shared.obj
 0002:00067190       ?ItemParse_textaligny@@YA?AW4qboolean@@PAUitemDef_s@@H@Z 400ce190 f   ui_shared.obj
 0002:00067200       ?ItemParse_textscale@@YA?AW4qboolean@@PAUitemDef_s@@H@Z 400ce200 f   ui_shared.obj
 0002:00067270       ?ItemParse_textstyle@@YA?AW4qboolean@@PAUitemDef_s@@H@Z 400ce270 f   ui_shared.obj
 0002:000672e0       ?ItemParse_invertyesno@@YA?AW4qboolean@@PAUitemDef_s@@H@Z 400ce2e0 f   ui_shared.obj
 0002:00067350       ?ItemParse_xoffset@@YA?AW4qboolean@@PAUitemDef_s@@H@Z 400ce350 f   ui_shared.obj
 0002:000673c0       ?ItemParse_backcolor@@YA?AW4qboolean@@PAUitemDef_s@@H@Z 400ce3c0 f   ui_shared.obj
 0002:00067490       ?ItemParse_forecolor@@YA?AW4qboolean@@PAUitemDef_s@@H@Z 400ce490 f   ui_shared.obj
 0002:000675a0       ?ItemParse_bordercolor@@YA?AW4qboolean@@PAUitemDef_s@@H@Z 400ce5a0 f   ui_shared.obj
 0002:00067670       ?ItemParse_outlinecolor@@YA?AW4qboolean@@PAUitemDef_s@@H@Z 400ce670 f   ui_shared.obj
 0002:000676e0       ?ItemParse_background@@YA?AW4qboolean@@PAUitemDef_s@@H@Z 400ce6e0 f   ui_shared.obj
 0002:000677d0       ?ItemParse_cinematic@@YA?AW4qboolean@@PAUitemDef_s@@H@Z 400ce7d0 f   ui_shared.obj
 0002:00067840       ?ItemParse_doubleClick@@YA?AW4qboolean@@PAUitemDef_s@@H@Z 400ce840 f   ui_shared.obj
 0002:000678e0       ?ItemParse_onFocus@@YA?AW4qboolean@@PAUitemDef_s@@H@Z 400ce8e0 f   ui_shared.obj
 0002:00067950       ?ItemParse_leaveFocus@@YA?AW4qboolean@@PAUitemDef_s@@H@Z 400ce950 f   ui_shared.obj
 0002:000679c0       ?ItemParse_mouseEnter@@YA?AW4qboolean@@PAUitemDef_s@@H@Z 400ce9c0 f   ui_shared.obj
 0002:00067a30       ?ItemParse_mouseExit@@YA?AW4qboolean@@PAUitemDef_s@@H@Z 400cea30 f   ui_shared.obj
 0002:00067aa0       ?ItemParse_mouseEnterText@@YA?AW4qboolean@@PAUitemDef_s@@H@Z 400ceaa0 f   ui_shared.obj
 0002:00067b10       ?ItemParse_mouseExitText@@YA?AW4qboolean@@PAUitemDef_s@@H@Z 400ceb10 f   ui_shared.obj
 0002:00067b80       ?ItemParse_action@@YA?AW4qboolean@@PAUitemDef_s@@H@Z 400ceb80 f   ui_shared.obj
 0002:00067bf0       ?ItemParse_special@@YA?AW4qboolean@@PAUitemDef_s@@H@Z 400cebf0 f   ui_shared.obj
 0002:00067c60       ?ItemParse_cvarTest@@YA?AW4qboolean@@PAUitemDef_s@@H@Z 400cec60 f   ui_shared.obj
 0002:00067cd0       ?ItemParse_cvar@@YA?AW4qboolean@@PAUitemDef_s@@H@Z 400cecd0 f   ui_shared.obj
 0002:00067df0       ?ItemParse_font@@YA?AW4qboolean@@PAUitemDef_s@@H@Z 400cedf0 f   ui_shared.obj
 0002:00067e70       ?ItemParse_maxChars@@YA?AW4qboolean@@PAUitemDef_s@@H@Z 400cee70 f   ui_shared.obj
 0002:00067f50       ?ItemParse_maxPaintChars@@YA?AW4qboolean@@PAUitemDef_s@@H@Z 400cef50 f   ui_shared.obj
 0002:00068030       ?ItemParse_maxLineChars@@YA?AW4qboolean@@PAUitemDef_s@@H@Z 400cf030 f   ui_shared.obj
 0002:00068110       ?ItemParse_lineHeight@@YA?AW4qboolean@@PAUitemDef_s@@H@Z 400cf110 f   ui_shared.obj
 0002:000681f0       ?ItemParse_cvarInt@@YA?AW4qboolean@@PAUitemDef_s@@H@Z 400cf1f0 f   ui_shared.obj
 0002:00068350       ?ItemParse_cvarFloat@@YA?AW4qboolean@@PAUitemDef_s@@H@Z 400cf350 f   ui_shared.obj
 0002:00068440       ?ItemParse_cvarStrList@@YA?AW4qboolean@@PAUitemDef_s@@H@Z 400cf440 f   ui_shared.obj
 0002:00068980       ?ItemParse_cvarFloatList@@YA?AW4qboolean@@PAUitemDef_s@@H@Z 400cf980 f   ui_shared.obj
 0002:00068c00       ?ItemParse_addColorRange@@YA?AW4qboolean@@PAUitemDef_s@@H@Z 400cfc00 f   ui_shared.obj
 0002:00068d40       ?ItemParse_ownerdrawFlag@@YA?AW4qboolean@@PAUitemDef_s@@H@Z 400cfd40 f   ui_shared.obj
 0002:00068df0       ?ItemParse_enableCvar@@YA?AW4qboolean@@PAUitemDef_s@@H@Z 400cfdf0 f   ui_shared.obj
 0002:00068e70       ?ItemParse_disableCvar@@YA?AW4qboolean@@PAUitemDef_s@@H@Z 400cfe70 f   ui_shared.obj
 0002:00068ef0       ?ItemParse_showCvar@@YA?AW4qboolean@@PAUitemDef_s@@H@Z 400cfef0 f   ui_shared.obj
 0002:00068f70       ?ItemParse_hideCvar@@YA?AW4qboolean@@PAUitemDef_s@@H@Z 400cff70 f   ui_shared.obj
 0002:00068ff0       ?ItemParse_cvarSubString@@YA?AW4qboolean@@PAUitemDef_s@@H@Z 400cfff0 f   ui_shared.obj
 0002:00069040       ?ItemParse_Appearance_slot@@YA?AW4qboolean@@PAUitemDef_s@@H@Z 400d0040 f   ui_shared.obj
 0002:000690b0       ?ItemParse_isSaber@@YA?AW4qboolean@@PAUitemDef_s@@H@Z 400d00b0 f   ui_shared.obj
 0002:000691a0       ?ItemParse_isSaber2@@YA?AW4qboolean@@PAUitemDef_s@@H@Z 400d01a0 f   ui_shared.obj
 0002:00069290       ?Item_SetupKeywordHash@@YAXXZ 400d0290 f   ui_shared.obj
 0002:00069340       ?Layout_SetupKeywordHash@@YAXXZ 400d0340 f   ui_shared.obj
 0002:000693f0       ?Item_Parse@@YA?AW4qboolean@@HPAUitemDef_s@@@Z 400d03f0 f   ui_shared.obj
 0002:00069b90       ?Item_InitControls@@YAXPAUitemDef_s@@@Z 400d0b90 f   ui_shared.obj
 0002:00069c40       ?MenuParse_font@@YA?AW4qboolean@@PAUitemDef_s@@H@Z 400d0c40 f   ui_shared.obj
 0002:00069d10       ?MenuParse_name@@YA?AW4qboolean@@PAUitemDef_s@@H@Z 400d0d10 f   ui_shared.obj
 0002:00069da0       ?MenuParse_fullscreen@@YA?AW4qboolean@@PAUitemDef_s@@H@Z 400d0da0 f   ui_shared.obj
 0002:00069e10       ?MenuParse_rect@@YA?AW4qboolean@@PAUitemDef_s@@H@Z 400d0e10 f   ui_shared.obj
 0002:00069e80       ?MenuParse_style@@YA?AW4qboolean@@PAUitemDef_s@@H@Z 400d0e80 f   ui_shared.obj
 0002:00069f00       ?MenuParse_visible@@YA?AW4qboolean@@PAUitemDef_s@@H@Z 400d0f00 f   ui_shared.obj
 0002:00069fc0       ?MenuParse_onOpen@@YA?AW4qboolean@@PAUitemDef_s@@H@Z 400d0fc0 f   ui_shared.obj
 0002:0006a030       ?MenuParse_onClose@@YA?AW4qboolean@@PAUitemDef_s@@H@Z 400d1030 f   ui_shared.obj
 0002:0006a0a0       ?MenuParse_onAccept@@YA?AW4qboolean@@PAUitemDef_s@@H@Z 400d10a0 f   ui_shared.obj
 0002:0006a110       ?MenuParse_onESC@@YA?AW4qboolean@@PAUitemDef_s@@H@Z 400d1110 f   ui_shared.obj
 0002:0006a180       ?MenuParse_border@@YA?AW4qboolean@@PAUitemDef_s@@H@Z 400d1180 f   ui_shared.obj
 0002:0006a1f0       ?MenuParse_borderSize@@YA?AW4qboolean@@PAUitemDef_s@@H@Z 400d11f0 f   ui_shared.obj
 0002:0006a260       ?MenuParse_backcolor@@YA?AW4qboolean@@PAUitemDef_s@@H@Z 400d1260 f   ui_shared.obj
 0002:0006a330       ?MenuParse_descAlignment@@YA?AW4qboolean@@PAUitemDef_s@@H@Z 400d1330 f   ui_shared.obj
 0002:0006a3b0       ?MenuParse_descX@@YA?AW4qboolean@@PAUitemDef_s@@H@Z 400d13b0 f   ui_shared.obj
 0002:0006a420       ?MenuParse_descY@@YA?AW4qboolean@@PAUitemDef_s@@H@Z 400d1420 f   ui_shared.obj
 0002:0006a490       ?MenuParse_descScale@@YA?AW4qboolean@@PAUitemDef_s@@H@Z 400d1490 f   ui_shared.obj
 0002:0006a500       ?MenuParse_descColor@@YA?AW4qboolean@@PAUitemDef_s@@H@Z 400d1500 f   ui_shared.obj
 0002:0006a5d0       ?MenuParse_forecolor@@YA?AW4qboolean@@PAUitemDef_s@@H@Z 400d15d0 f   ui_shared.obj
 0002:0006a6f0       ?MenuParse_bordercolor@@YA?AW4qboolean@@PAUitemDef_s@@H@Z 400d16f0 f   ui_shared.obj
 0002:0006a7c0       ?MenuParse_focuscolor@@YA?AW4qboolean@@PAUitemDef_s@@H@Z 400d17c0 f   ui_shared.obj
 0002:0006a890       ?MenuParse_disablecolor@@YA?AW4qboolean@@PAUitemDef_s@@H@Z 400d1890 f   ui_shared.obj
 0002:0006a960       ?MenuParse_outlinecolor@@YA?AW4qboolean@@PAUitemDef_s@@H@Z 400d1960 f   ui_shared.obj
 0002:0006a9d0       ?MenuParse_background@@YA?AW4qboolean@@PAUitemDef_s@@H@Z 400d19d0 f   ui_shared.obj
 0002:0006aad0       ?MenuParse_cinematic@@YA?AW4qboolean@@PAUitemDef_s@@H@Z 400d1ad0 f   ui_shared.obj
 0002:0006ab40       ?MenuParse_ownerdrawFlag@@YA?AW4qboolean@@PAUitemDef_s@@H@Z 400d1b40 f   ui_shared.obj
 0002:0006ac00       ?MenuParse_ownerdraw@@YA?AW4qboolean@@PAUitemDef_s@@H@Z 400d1c00 f   ui_shared.obj
 0002:0006ac70       ?MenuParse_popup@@YA?AW4qboolean@@PAUitemDef_s@@H@Z 400d1c70 f   ui_shared.obj
 0002:0006acd0       ?MenuParse_outOfBounds@@YA?AW4qboolean@@PAUitemDef_s@@H@Z 400d1cd0 f   ui_shared.obj
 0002:0006ad30       ?MenuParse_soundLoop@@YA?AW4qboolean@@PAUitemDef_s@@H@Z 400d1d30 f   ui_shared.obj
 0002:0006ada0       ?MenuParse_fadeClamp@@YA?AW4qboolean@@PAUitemDef_s@@H@Z 400d1da0 f   ui_shared.obj
 0002:0006ae10       ?MenuParse_fadeAmount@@YA?AW4qboolean@@PAUitemDef_s@@H@Z 400d1e10 f   ui_shared.obj
 0002:0006ae80       ?MenuParse_fadeCycle@@YA?AW4qboolean@@PAUitemDef_s@@H@Z 400d1e80 f   ui_shared.obj
 0002:0006aef0       ?MenuParse_appearanceIncrement@@YA?AW4qboolean@@PAUitemDef_s@@H@Z 400d1ef0 f   ui_shared.obj
 0002:0006af60       ?MenuParse_itemDef@@YA?AW4qboolean@@PAUitemDef_s@@H@Z 400d1f60 f   ui_shared.obj
 0002:0006b0b0       ?ContainerParse_StackPanel@@YA_NPAVContainerElement@@PAUmenuDef_t@@H@Z 400d20b0 f   ui_shared.obj
 0002:0006b4c0       ?SetRectangle@UIElement@@QAEXVRectangle@@@Z 400d24c0 f i ui_shared.obj
 0002:0006b520       ?AddOldElement@ContainerElement@@QAEXPAUitemDef_s@@@Z 400d2520 f i ui_shared.obj
 0002:0006b580       ?AddElement@ContainerElement@@QAEXPAVUIElement@@@Z 400d2580 f i ui_shared.obj
 0002:0006b5e0       ?SetOrientation@StackPanel@@QAEXW4Orientation@@@Z 400d25e0 f i ui_shared.obj
 0002:0006b630       ?MenuParse_stackPanel@@YA?AW4qboolean@@PAUitemDef_s@@H@Z 400d2630 f   ui_shared.obj
 0002:0006ba90       ?Menu_SetupKeywordHash@@YAXXZ 400d2a90 f   ui_shared.obj
 0002:0006bb40       ?Menu_Parse@@YA?AW4qboolean@@HPAUmenuDef_t@@@Z 400d2b40 f   ui_shared.obj
 0002:0006bd20       ?Menu_New@@YAXH@Z          400d2d20 f   ui_shared.obj
 0002:0006bdd0       ?Menu_Count@@YAHXZ         400d2dd0 f   ui_shared.obj
 0002:0006be10       ?Menu_PaintAll@@YAXXZ      400d2e10 f   ui_shared.obj
 0002:0006c040       ?Menu_Reset@@YAXXZ         400d3040 f   ui_shared.obj
 0002:0006c080       ?Display_GetContext@@YAPAUdisplayContextDef_t@@XZ 400d3080 f   ui_shared.obj
 0002:0006c0c0       ?Display_CaptureItem@@YAPAXHH@Z 400d30c0 f   ui_shared.obj
 0002:0006c170       ?Display_MouseMove@@YA?AW4qboolean@@PAXHH@Z 400d3170 f   ui_shared.obj
 0002:0006c2a0       ?Display_CursorType@@YAHHH@Z 400d32a0 f   ui_shared.obj
 0002:0006c3d0       ?Display_HandleKey@@YAXHW4qboolean@@HH@Z 400d33d0 f   ui_shared.obj
 0002:0006c460       ?Display_CacheAll@@YAXXZ   400d3460 f   ui_shared.obj
 0002:0006c8c0       ?push_back@?$list@PAVUIElement@@V?$allocator@PAVUIElement@@@std@@@std@@QAEXABQAVUIElement@@@Z 400d38c0 f i ui_shared.obj
 0002:0006c9c0       ?push_back@?$list@PAUitemDef_s@@V?$allocator@PAUitemDef_s@@@std@@@std@@QAEXABQAUitemDef_s@@@Z 400d39c0 f i ui_shared.obj
 0002:0006cac0       ??0?$_List_const_iterator@V?$_List_val@PAUitemDef_s@@V?$allocator@PAUitemDef_s@@@std@@@std@@@std@@QAE@XZ 400d3ac0 f i ui_shared.obj
 0002:0006cb20       ??0?$_List_unchecked_const_iterator@V?$_List_val@PAUitemDef_s@@V?$allocator@PAUitemDef_s@@@std@@@std@@U_Iterator_base12@2@@std@@QAE@XZ 400d3b20 f i ui_shared.obj
 0002:0006cb80       ??0menuDef_t@@QAE@XZ       400d3b80 f i ui_shared.obj
 0002:0006cbe0       ?dllEntry@@YAXP6AHHZZ@Z    400d3be0 f   ui_syscalls.obj
 0002:0006cc20       ?PASSFLOAT@@YAHM@Z         400d3c20 f   ui_syscalls.obj
 0002:0006cc60       ?trap_Print@@YAXPBD@Z      400d3c60 f   ui_syscalls.obj
 0002:0006ccc0       ?trap_Error@@YAXPBD@Z      400d3cc0 f   ui_syscalls.obj
 0002:0006cd20       ?trap_Milliseconds@@YAHXZ  400d3d20 f   ui_syscalls.obj
 0002:0006cd80       ?trap_Cvar_Register@@YAXPAUvmCvar_t@@PBD1H@Z 400d3d80 f   ui_syscalls.obj
 0002:0006cdf0       ?trap_Cvar_Update@@YAXPAUvmCvar_t@@@Z 400d3df0 f   ui_syscalls.obj
 0002:0006ce50       ?trap_Cvar_Set@@YAXPBD0@Z  400d3e50 f   ui_syscalls.obj
 0002:0006cec0       ?trap_Cvar_VariableValue@@YAMPBD@Z 400d3ec0 f   ui_syscalls.obj
 0002:0006cf30       ?trap_Cvar_VariableStringBuffer@@YAXPBDPADH@Z 400d3f30 f   ui_syscalls.obj
 0002:0006cfa0       ?trap_Cvar_SetValue@@YAXPBDM@Z 400d3fa0 f   ui_syscalls.obj
 0002:0006d010       ?trap_Cvar_Reset@@YAXPBD@Z 400d4010 f   ui_syscalls.obj
 0002:0006d070       ?trap_Cvar_Create@@YAXPBD0H@Z 400d4070 f   ui_syscalls.obj
 0002:0006d0e0       ?trap_Cvar_InfoStringBuffer@@YAXHPADH@Z 400d40e0 f   ui_syscalls.obj
 0002:0006d150       ?trap_Argc@@YAHXZ          400d4150 f   ui_syscalls.obj
 0002:0006d1b0       ?trap_Argv@@YAXHPADH@Z     400d41b0 f   ui_syscalls.obj
 0002:0006d220       ?trap_Cmd_ExecuteText@@YAXHPBD@Z 400d4220 f   ui_syscalls.obj
 0002:0006d290       ?trap_FS_FOpenFile@@YAHPBDPAHW4fsMode_t@@@Z 400d4290 f   ui_syscalls.obj
 0002:0006d300       ?trap_FS_Read@@YAXPAXHH@Z  400d4300 f   ui_syscalls.obj
 0002:0006d370       ?trap_FS_Write@@YAXPBXHH@Z 400d4370 f   ui_syscalls.obj
 0002:0006d3e0       ?trap_FS_FCloseFile@@YAXH@Z 400d43e0 f   ui_syscalls.obj
 0002:0006d440       ?trap_FS_GetFileList@@YAHPBD0PADH@Z 400d4440 f   ui_syscalls.obj
 0002:0006d4b0       ?trap_R_RegisterModel@@YAHPBD@Z 400d44b0 f   ui_syscalls.obj
 0002:0006d510       ?trap_R_RegisterSkin@@YAHPBD@Z 400d4510 f   ui_syscalls.obj
 0002:0006d570       ?trap_R_RegisterFont@@YAHPBD@Z 400d4570 f   ui_syscalls.obj
 0002:0006d5d0       ?trap_R_Font_StrLenPixels@@YAHPBDHM@Z 400d45d0 f   ui_syscalls.obj
 0002:0006d650       ?trap_R_Font_StrLenChars@@YAHPBD@Z 400d4650 f   ui_syscalls.obj
 0002:0006d6b0       ?trap_R_Font_HeightPixels@@YAHHM@Z 400d46b0 f   ui_syscalls.obj
 0002:0006d720       ?trap_R_Font_DrawString@@YAXHHPBDPBMHHM@Z 400d4720 f   ui_syscalls.obj
 0002:0006d7b0       ?trap_Language_IsAsian@@YA?AW4qboolean@@XZ 400d47b0 f   ui_syscalls.obj
 0002:0006d810       ?trap_Language_UsesSpaces@@YA?AW4qboolean@@XZ 400d4810 f   ui_syscalls.obj
 0002:0006d870       ?trap_AnyLanguage_ReadCharFromString@@YAIPBDPAHPAW4qboolean@@@Z 400d4870 f   ui_syscalls.obj
 0002:0006d8e0       ?trap_R_RegisterShaderNoMip@@YAHPBD@Z 400d48e0 f   ui_syscalls.obj
 0002:0006d9f0       ?trap_R_ShaderNameFromIndex@@YAXPADH@Z 400d49f0 f   ui_syscalls.obj
 0002:0006da60       ?trap_R_ClearScene@@YAXXZ  400d4a60 f   ui_syscalls.obj
 0002:0006dac0       ?trap_R_AddRefEntityToScene@@YAXPBUrefEntity_t@@@Z 400d4ac0 f   ui_syscalls.obj
 0002:0006db20       ?trap_R_AddPolyToScene@@YAXHHPBUpolyVert_t@@@Z 400d4b20 f   ui_syscalls.obj
 0002:0006db90       ?trap_R_AddLightToScene@@YAXQBMMMMM@Z 400d4b90 f   ui_syscalls.obj
 0002:0006dc40       ?trap_R_RenderScene@@YAXPBUrefdef_t@@@Z 400d4c40 f   ui_syscalls.obj
 0002:0006dca0       ?trap_R_SetColor@@YAXPBM@Z 400d4ca0 f   ui_syscalls.obj
 0002:0006dd00       ?trap_R_DrawStretchPic@@YAXMMMMMMMMH@Z 400d4d00 f   ui_syscalls.obj
 0002:0006de00       ?trap_R_ModelBounds@@YAXHQAM0@Z 400d4e00 f   ui_syscalls.obj
 0002:0006de70       ?trap_UpdateScreen@@YAXXZ  400d4e70 f   ui_syscalls.obj
 0002:0006ded0       ?trap_CM_LerpTag@@YAHPAUorientation_t@@HHHMPBD@Z 400d4ed0 f   ui_syscalls.obj
 0002:0006df60       ?trap_S_StartLocalSound@@YAXHH@Z 400d4f60 f   ui_syscalls.obj
 0002:0006dfd0       ?trap_S_RegisterSound@@YAHPBD@Z 400d4fd0 f   ui_syscalls.obj
 0002:0006e030       ?trap_Key_KeynumToStringBuf@@YAXHPADH@Z 400d5030 f   ui_syscalls.obj
 0002:0006e0a0       ?trap_Key_GetBindingBuf@@YAXHPADH@Z 400d50a0 f   ui_syscalls.obj
 0002:0006e110       ?trap_Key_SetBinding@@YAXHPBD@Z 400d5110 f   ui_syscalls.obj
 0002:0006e180       ?trap_Key_IsDown@@YA?AW4qboolean@@H@Z 400d5180 f   ui_syscalls.obj
 0002:0006e1e0       ?trap_Key_GetOverstrikeMode@@YA?AW4qboolean@@XZ 400d51e0 f   ui_syscalls.obj
 0002:0006e240       ?trap_Key_SetOverstrikeMode@@YAXW4qboolean@@@Z 400d5240 f   ui_syscalls.obj
 0002:0006e2a0       ?trap_Key_ClearStates@@YAXXZ 400d52a0 f   ui_syscalls.obj
 0002:0006e300       ?trap_Key_GetCatcher@@YAHXZ 400d5300 f   ui_syscalls.obj
 0002:0006e360       ?trap_Key_SetCatcher@@YAXH@Z 400d5360 f   ui_syscalls.obj
 0002:0006e3c0       ?trap_GetClipboardData@@YAXPADH@Z 400d53c0 f   ui_syscalls.obj
 0002:0006e430       ?trap_GetClientState@@YAXPAUuiClientState_t@@@Z 400d5430 f   ui_syscalls.obj
 0002:0006e490       ?trap_GetGlconfig@@YAXPAUglconfig_t@@@Z 400d5490 f   ui_syscalls.obj
 0002:0006e4f0       ?trap_GetConfigString@@YAHHPADH@Z 400d54f0 f   ui_syscalls.obj
 0002:0006e560       ?trap_LAN_GetServerCount@@YAHH@Z 400d5560 f   ui_syscalls.obj
 0002:0006e5c0       ?trap_LAN_GetServerAddressString@@YAXHHPADH@Z 400d55c0 f   ui_syscalls.obj
 0002:0006e630       ?trap_LAN_GetServerInfo@@YAXHHPADH@Z 400d5630 f   ui_syscalls.obj
 0002:0006e6a0       ?trap_LAN_GetServerPing@@YAHHH@Z 400d56a0 f   ui_syscalls.obj
 0002:0006e710       ?trap_LAN_GetPingQueueCount@@YAHXZ 400d5710 f   ui_syscalls.obj
 0002:0006e770       ?trap_LAN_ServerStatus@@YAHPBDPADH@Z 400d5770 f   ui_syscalls.obj
 0002:0006e7e0       ?trap_LAN_SaveCachedServers@@YAXXZ 400d57e0 f   ui_syscalls.obj
 0002:0006e840       ?trap_LAN_LoadCachedServers@@YAXXZ 400d5840 f   ui_syscalls.obj
 0002:0006e8a0       ?trap_LAN_ResetPings@@YAXH@Z 400d58a0 f   ui_syscalls.obj
 0002:0006e900       ?trap_LAN_ClearPing@@YAXH@Z 400d5900 f   ui_syscalls.obj
 0002:0006e960       ?trap_LAN_GetPing@@YAXHPADHPAH@Z 400d5960 f   ui_syscalls.obj
 0002:0006e9d0       ?trap_LAN_GetPingInfo@@YAXHPADH@Z 400d59d0 f   ui_syscalls.obj
 0002:0006ea40       ?trap_LAN_MarkServerVisible@@YAXHHW4qboolean@@@Z 400d5a40 f   ui_syscalls.obj
 0002:0006eab0       ?trap_LAN_ServerIsVisible@@YAHHH@Z 400d5ab0 f   ui_syscalls.obj
 0002:0006eb20       ?trap_LAN_UpdateVisiblePings@@YA?AW4qboolean@@H@Z 400d5b20 f   ui_syscalls.obj
 0002:0006eb80       ?trap_LAN_AddServer@@YAHHPBD0@Z 400d5b80 f   ui_syscalls.obj
 0002:0006ebf0       ?trap_LAN_RemoveServer@@YAXHPBD@Z 400d5bf0 f   ui_syscalls.obj
 0002:0006ec60       ?trap_LAN_CompareServers@@YAHHHHHH@Z 400d5c60 f   ui_syscalls.obj
 0002:0006ecd0       ?trap_MemoryRemaining@@YAHXZ 400d5cd0 f   ui_syscalls.obj
 0002:0006ed30       ?trap_PC_AddGlobalDefine@@YAHPAD@Z 400d5d30 f   ui_syscalls.obj
 0002:0006ed90       ?trap_PC_LoadSource@@YAHPBD@Z 400d5d90 f   ui_syscalls.obj
 0002:0006edf0       ?trap_PC_FreeSource@@YAHH@Z 400d5df0 f   ui_syscalls.obj
 0002:0006ee50       ?trap_PC_ReadToken@@YAHHPAUpc_token_s@@@Z 400d5e50 f   ui_syscalls.obj
 0002:0006eec0       ?trap_PC_SourceFileAndLine@@YAHHPADPAH@Z 400d5ec0 f   ui_syscalls.obj
 0002:0006ef30       ?trap_PC_LoadGlobalDefines@@YAHPBD@Z 400d5f30 f   ui_syscalls.obj
 0002:0006ef90       ?trap_PC_RemoveAllGlobalDefines@@YAXXZ 400d5f90 f   ui_syscalls.obj
 0002:0006eff0       ?trap_S_StopBackgroundTrack@@YAXXZ 400d5ff0 f   ui_syscalls.obj
 0002:0006f050       ?trap_S_StartBackgroundTrack@@YAXPBD0W4qboolean@@@Z 400d6050 f   ui_syscalls.obj
 0002:0006f0c0       ?trap_RealTime@@YAHPAUqtime_s@@@Z 400d60c0 f   ui_syscalls.obj
 0002:0006f120       ?trap_CIN_PlayCinematic@@YAHPBDHHHHH@Z 400d6120 f   ui_syscalls.obj
 0002:0006f1a0       ?trap_CIN_StopCinematic@@YAHH@Z 400d61a0 f   ui_syscalls.obj
 0002:0006f200       ?trap_CIN_RunCinematic@@YAHH@Z 400d6200 f   ui_syscalls.obj
 0002:0006f260       ?trap_CIN_DrawCinematic@@YAXH@Z 400d6260 f   ui_syscalls.obj
 0002:0006f2c0       ?trap_CIN_SetExtents@@YAXHHHHH@Z 400d62c0 f   ui_syscalls.obj
 0002:0006f330       ?trap_R_RemapShader@@YAXPBD00@Z 400d6330 f   ui_syscalls.obj
 0002:0006f3a0       ?trap_SP_GetNumLanguages@@YAHXZ 400d63a0 f   ui_syscalls.obj
 0002:0006f400       ?trap_GetLanguageName@@YAXHPAD@Z 400d6400 f   ui_syscalls.obj
 0002:0006f470       ?trap_SP_GetStringTextString@@YAHPBDPADH@Z 400d6470 f   ui_syscalls.obj
 0002:0006f4e0       ?trap_G2_ListModelSurfaces@@YAXPAX@Z 400d64e0 f   ui_syscalls.obj
 0002:0006f540       ?trap_G2_ListModelBones@@YAXPAXH@Z 400d6540 f   ui_syscalls.obj
 0002:0006f5b0       ?trap_G2_SetGhoul2ModelIndexes@@YAXPAXPAH1@Z 400d65b0 f   ui_syscalls.obj
 0002:0006f620       ?trap_G2_HaveWeGhoul2Models@@YA?AW4qboolean@@PAX@Z 400d6620 f   ui_syscalls.obj
 0002:0006f680       ?trap_G2API_GetBoltMatrix@@YA?AW4qboolean@@PAXHHPAUmdxaBone_t@@QBM2HPAHQAM@Z 400d6680 f   ui_syscalls.obj
 0002:0006f710       ?trap_G2API_GetBoltMatrix_NoReconstruct@@YA?AW4qboolean@@PAXHHPAUmdxaBone_t@@QBM2HPAHQAM@Z 400d6710 f   ui_syscalls.obj
 0002:0006f7a0       ?trap_G2API_GetBoltMatrix_NoRecNoRot@@YA?AW4qboolean@@PAXHHPAUmdxaBone_t@@QBM2HPAHQAM@Z 400d67a0 f   ui_syscalls.obj
 0002:0006f830       ?trap_G2API_InitGhoul2Model@@YAHPAPAXPBDHHHHH@Z 400d6830 f   ui_syscalls.obj
 0002:0006f8b0       ?trap_G2API_SetSkin@@YA?AW4qboolean@@PAXHHH@Z 400d68b0 f   ui_syscalls.obj
 0002:0006f920       ?trap_G2API_CollisionDetect@@YAXPAUCollisionRecord_t@@PAXQBM2HH222HHM@Z 400d6920 f   ui_syscalls.obj
 0002:0006f9d0       ?trap_G2API_CollisionDetectCache@@YAXPAUCollisionRecord_t@@PAXQBM2HH222HHM@Z 400d69d0 f   ui_syscalls.obj
 0002:0006fa80       ?trap_G2API_CleanGhoul2Models@@YAXPAPAX@Z 400d6a80 f   ui_syscalls.obj
 0002:0006fae0       ?trap_G2API_SetBoneAngles@@YA?AW4qboolean@@PAXHPBDQBMHHHHPAHHH@Z 400d6ae0 f   ui_syscalls.obj
 0002:0006fb80       ?trap_G2API_SetBoneAnim@@YA?AW4qboolean@@PAXHPBDHHHMHMH@Z 400d6b80 f   ui_syscalls.obj
 0002:0006fc30       ?trap_G2API_GetBoneAnim@@YA?AW4qboolean@@PAXPBDHPAMPAH3323H@Z 400d6c30 f   ui_syscalls.obj
 0002:0006fcc0       ?trap_G2API_GetBoneFrame@@YA?AW4qboolean@@PAXPBDHPAMPAHH@Z 400d6cc0 f   ui_syscalls.obj
 0002:0006fd40       ?trap_G2API_GetGLAName@@YAXPAXHPAD@Z 400d6d40 f   ui_syscalls.obj
 0002:0006fdb0       ?trap_G2API_CopyGhoul2Instance@@YAHPAX0H@Z 400d6db0 f   ui_syscalls.obj
 0002:0006fe20       ?trap_G2API_CopySpecificGhoul2Model@@YAXPAXH0H@Z 400d6e20 f   ui_syscalls.obj
 0002:0006fe90       ?trap_G2API_DuplicateGhoul2Instance@@YAXPAXPAPAX@Z 400d6e90 f   ui_syscalls.obj
 0002:0006ff00       ?trap_G2API_HasGhoul2ModelOnIndex@@YA?AW4qboolean@@PAXH@Z 400d6f00 f   ui_syscalls.obj
 0002:0006ff70       ?trap_G2API_RemoveGhoul2Model@@YA?AW4qboolean@@PAXH@Z 400d6f70 f   ui_syscalls.obj
 0002:0006ffe0       ?trap_G2API_AddBolt@@YAHPAXHPBD@Z 400d6fe0 f   ui_syscalls.obj
 0002:00070050       ?trap_G2API_SetBoltInfo@@YAXPAXHH@Z 400d7050 f   ui_syscalls.obj
 0002:000700c0       ?trap_G2API_SetRootSurface@@YA?AW4qboolean@@PAXHPBD@Z 400d70c0 f   ui_syscalls.obj
 0002:00070130       ?trap_G2API_SetSurfaceOnOff@@YA?AW4qboolean@@PAXPBDH@Z 400d7130 f   ui_syscalls.obj
 0002:000701a0       ?trap_G2API_SetNewOrigin@@YA?AW4qboolean@@PAXH@Z 400d71a0 f   ui_syscalls.obj
 0002:00070210       ?trap_G2API_GetTime@@YAHXZ 400d7210 f   ui_syscalls.obj
 0002:00070270       ?trap_G2API_SetTime@@YAXHH@Z 400d7270 f   ui_syscalls.obj
 0002:000702e0       ?trap_G2API_SetRagDoll@@YAXPAXPAUsharedRagDollParams_t@@@Z 400d72e0 f   ui_syscalls.obj
 0002:00070350       ?trap_G2API_AnimateG2Models@@YAXPAXHPAUsharedRagDollUpdateParams_t@@@Z 400d7350 f   ui_syscalls.obj
 0002:000703c0       ?trap_G2API_SetBoneIKState@@YA?AW4qboolean@@PAXHPBDHPAUsharedSetBoneIKStateParams_t@@@Z 400d73c0 f   ui_syscalls.obj
 0002:00070440       ?trap_G2API_IKMove@@YA?AW4qboolean@@PAXHPAUsharedIKMoveParams_t@@@Z 400d7440 f   ui_syscalls.obj
 0002:000704b0       ?trap_G2API_GetSurfaceName@@YAXPAXHHPAD@Z 400d74b0 f   ui_syscalls.obj
 0002:00070520       ?trap_G2API_AttachG2Model@@YA?AW4qboolean@@PAXH0HH@Z 400d7520 f   ui_syscalls.obj
 0002:000705a0       ??0_Init_locks@std@@QAE@XZ 400d75a0 f   libcpmtd:xlock.obj
 0002:00070610       ??1_Init_locks@std@@QAE@XZ 400d7610 f   libcpmtd:xlock.obj
 0002:00070670       ?_Init_locks_ctor@_Init_locks@std@@CAXPAV12@@Z 400d7670 f   libcpmtd:xlock.obj
 0002:000706d0       ?_Init_locks_dtor@_Init_locks@std@@CAXPAV12@@Z 400d76d0 f   libcpmtd:xlock.obj
 0002:00070730       ??0_Lockit@std@@QAE@XZ     400d7730 f   libcpmtd:xlock.obj
 0002:00070760       ??0_Lockit@std@@QAE@H@Z    400d7760 f   libcpmtd:xlock.obj
 0002:000707b0       ??1_Lockit@std@@QAE@XZ     400d77b0 f   libcpmtd:xlock.obj
 0002:000707f0       ?_Lockit_ctor@_Lockit@std@@CAXPAV12@@Z 400d77f0 f   libcpmtd:xlock.obj
 0002:00070810       ?_Lockit_ctor@_Lockit@std@@CAXPAV12@H@Z 400d7810 f   libcpmtd:xlock.obj
 0002:00070850       ?_Lockit_dtor@_Lockit@std@@CAXPAV12@@Z 400d7850 f   libcpmtd:xlock.obj
 0002:00070880       ?_Lockit_ctor@_Lockit@std@@SAXH@Z 400d7880 f   libcpmtd:xlock.obj
 0002:000708b0       ?_Lockit_dtor@_Lockit@std@@SAXH@Z 400d78b0 f   libcpmtd:xlock.obj
 0002:000708e0       ?_Debug_message@std@@YAXPB_W0I@Z 400d78e0 f   libcpmtd:stdthrow.obj
 0002:00070910       ?_Debug_message@std@@YAXPBG0I@Z 400d7910 f   libcpmtd:stdthrow.obj
 0002:00070940       ?_Xinvalid_argument@std@@YAXPBD@Z 400d7940 f   libcpmtd:xthrow.obj
 0002:00070970       ??0invalid_argument@std@@QAE@PBD@Z 400d7970 f i libcpmtd:xthrow.obj
 0002:000709a0       ??0logic_error@std@@QAE@PBD@Z 400d79a0 f i libcpmtd:xthrow.obj
 0002:000709d0       ??_Glogic_error@std@@UAEPAXI@Z 400d79d0 f i libcpmtd:xthrow.obj
 0002:000709d0       ??_Elogic_error@std@@UAEPAXI@Z 400d79d0 f i libcpmtd:xthrow.obj
 0002:00070a10       ??1logic_error@std@@UAE@XZ 400d7a10 f i libcpmtd:xthrow.obj
 0002:00070a30       ??_Ginvalid_argument@std@@UAEPAXI@Z 400d7a30 f i libcpmtd:xthrow.obj
 0002:00070a30       ??_Einvalid_argument@std@@UAEPAXI@Z 400d7a30 f i libcpmtd:xthrow.obj
 0002:00070a70       ??1invalid_argument@std@@UAE@XZ 400d7a70 f i libcpmtd:xthrow.obj
 0002:00070a90       ??0invalid_argument@std@@QAE@ABV01@@Z 400d7a90 f i libcpmtd:xthrow.obj
 0002:00070ac0       ??0logic_error@std@@QAE@ABV01@@Z 400d7ac0 f i libcpmtd:xthrow.obj
 0002:00070af0       ?_Xlength_error@std@@YAXPBD@Z 400d7af0 f   libcpmtd:xthrow.obj
 0002:00070b20       ??0length_error@std@@QAE@PBD@Z 400d7b20 f i libcpmtd:xthrow.obj
 0002:00070b50       ??_Glength_error@std@@UAEPAXI@Z 400d7b50 f i libcpmtd:xthrow.obj
 0002:00070b50       ??_Elength_error@std@@UAEPAXI@Z 400d7b50 f i libcpmtd:xthrow.obj
 0002:00070b90       ??1length_error@std@@UAE@XZ 400d7b90 f i libcpmtd:xthrow.obj
 0002:00070bb0       ??0length_error@std@@QAE@ABV01@@Z 400d7bb0 f i libcpmtd:xthrow.obj
 0002:00070be0       ?_Xout_of_range@std@@YAXPBD@Z 400d7be0 f   libcpmtd:xthrow.obj
 0002:00070c10       ??0out_of_range@std@@QAE@PBD@Z 400d7c10 f i libcpmtd:xthrow.obj
 0002:00070c40       ??_Eout_of_range@std@@UAEPAXI@Z 400d7c40 f i libcpmtd:xthrow.obj
 0002:00070c40       ??_Gout_of_range@std@@UAEPAXI@Z 400d7c40 f i libcpmtd:xthrow.obj
 0002:00070c80       ??1out_of_range@std@@UAE@XZ 400d7c80 f i libcpmtd:xthrow.obj
 0002:00070ca0       ??0out_of_range@std@@QAE@ABV01@@Z 400d7ca0 f i libcpmtd:xthrow.obj
 0002:00070cd0       ?_Xoverflow_error@std@@YAXPBD@Z 400d7cd0 f   libcpmtd:xthrow.obj
 0002:00070d00       ??0overflow_error@std@@QAE@PBD@Z 400d7d00 f i libcpmtd:xthrow.obj
 0002:00070d30       ??0runtime_error@std@@QAE@PBD@Z 400d7d30 f i libcpmtd:xthrow.obj
 0002:00070d60       ??_Eruntime_error@std@@UAEPAXI@Z 400d7d60 f i libcpmtd:xthrow.obj
 0002:00070d60       ??_Gruntime_error@std@@UAEPAXI@Z 400d7d60 f i libcpmtd:xthrow.obj
 0002:00070da0       ??1runtime_error@std@@UAE@XZ 400d7da0 f i libcpmtd:xthrow.obj
 0002:00070dc0       ??_Eoverflow_error@std@@UAEPAXI@Z 400d7dc0 f i libcpmtd:xthrow.obj
 0002:00070dc0       ??_Goverflow_error@std@@UAEPAXI@Z 400d7dc0 f i libcpmtd:xthrow.obj
 0002:00070e00       ??1overflow_error@std@@UAE@XZ 400d7e00 f i libcpmtd:xthrow.obj
 0002:00070e20       ??0overflow_error@std@@QAE@ABV01@@Z 400d7e20 f i libcpmtd:xthrow.obj
 0002:00070e50       ??0runtime_error@std@@QAE@ABV01@@Z 400d7e50 f i libcpmtd:xthrow.obj
 0002:00070e80       ?_Xruntime_error@std@@YAXPBD@Z 400d7e80 f   libcpmtd:xthrow.obj
 0002:00070eb0       ??_U@YAPAXI@Z              400d7eb0 f   libcpmtd:newaop.obj
 0002:00070ed0       __Once                     400d7ed0 f   libcpmtd:xmtx.obj
 0002:00070f40       __Mtxinit                  400d7f40 f   libcpmtd:xmtx.obj
 0002:00070f60       __Mtxdst                   400d7f60 f   libcpmtd:xmtx.obj
 0002:00070f80       __Mtxlock                  400d7f80 f   libcpmtd:xmtx.obj
 0002:00070fa0       __Mtxunlock                400d7fa0 f   libcpmtd:xmtx.obj
 0002:00070fc0       __RTC_CheckEsp             400d7fc0 f   LIBCMTD:_stack_.obj
 0002:00070ff0       @_RTC_CheckStackVars@8     400d7ff0 f   LIBCMTD:_stack_.obj
 0002:00071070       @_RTC_AllocaHelper@12      400d8070 f   LIBCMTD:_stack_.obj
 0002:000710b0       @_RTC_CheckStackVars2@12   400d80b0 f   LIBCMTD:_stack_.obj
 0002:000711c0       __RTC_InitBase             400d81c0 f   LIBCMTD:_init_.obj
 0002:00071200       __RTC_Shutdown             400d8200 f   LIBCMTD:_init_.obj
 0002:00071220       _atol                      400d8220 f   LIBCMTD:atox.obj
 0002:00071240       __atol_l                   400d8240 f   LIBCMTD:atox.obj
 0002:00071270       _atoi                      400d8270 f   LIBCMTD:atox.obj
 0002:00071290       __atoi_l                   400d8290 f   LIBCMTD:atox.obj
 0002:000712b0       __atoi64                   400d82b0 f   LIBCMTD:atox.obj
 0002:000712d0       __atoi64_l                 400d82d0 f   LIBCMTD:atox.obj
 0002:00071300       _strcpy                    400d8300 f   LIBCMTD:strcat.obj
 0002:00071310       _strcat                    400d8310 f   LIBCMTD:strcat.obj
 0002:00071440       _memset                    400d8440 f   LIBCMTD:memset.obj
 0002:000714e0       _strlen                    400d84e0 f   LIBCMTD:strlen.obj
 0002:00071590       @__security_check_cookie@4 400d8590 f   LIBCMTD:secchk.obj
 0002:000715b0       __fpmath                   400d85b0 f   LIBCMTD:_fpinit_.obj
 0002:000715d0       __cfltcvt_init             400d85d0 f   LIBCMTD:_fpinit_.obj
 0002:00071660       ___setfflag                400d8660 f   LIBCMTD:_fpinit_.obj
 0002:00071690       _atan2                     400d8690 f   LIBCMTD:_87ctriga_.obj
 0002:0007169a       __CIatan2                  400d869a f   LIBCMTD:_87ctriga_.obj
 0002:000716b0       _cos                       400d86b0 f   LIBCMTD:_cos_.obj
 0002:000716f0       __CIcos                    400d86f0 f   LIBCMTD:_cos_.obj
 0002:0007172b       __CIcos_default            400d872b f   LIBCMTD:_cos_.obj
 0002:0007173f       __cos_default              400d873f     LIBCMTD:_cos_.obj
 0002:00071830       _sin                       400d8830 f   LIBCMTD:_sin_.obj
 0002:00071870       __CIsin                    400d8870 f   LIBCMTD:_sin_.obj
 0002:000718ab       __CIsin_default            400d88ab f   LIBCMTD:_sin_.obj
 0002:000718bf       __sin_default              400d88bf     LIBCMTD:_sin_.obj
 0002:000719b0       _fabs                      400d89b0 f   LIBCMTD:_fabs_.obj
 0002:00071b00       _strchr                    400d8b00 f   LIBCMTD:strchr.obj
 0002:00071b06       ___from_strstr_to_strchr   400d8b06     LIBCMTD:strchr.obj
 0002:00071c00       __wassert                  400d8c00 f   LIBCMTD:wassert.obj
 0002:00072a70       __invoke_watson_if_error   400d9a70 f i LIBCMTD:wassert.obj
 0002:00072b00       __alloca_probe             400d9b00     LIBCMTD:chkstk.obj
 0002:00072b00       __chkstk                   400d9b00 f   LIBCMTD:chkstk.obj
 0002:00072b40       _strcmp                    400d9b40 f   LIBCMTD:strcmp.obj
 0002:00072bf0       _memcpy                    400d9bf0 f   LIBCMTD:memcpy.obj
 0002:00073030       __atof_l                   400da030 f   LIBCMTD:atof.obj
 0002:000731b0       ??0_LocaleUpdate@@QAE@PAUlocaleinfo_struct@@@Z 400da1b0 f i LIBCMTD:atof.obj
 0002:000732c0       ??1_LocaleUpdate@@QAE@XZ   400da2c0 f i LIBCMTD:atof.obj
 0002:00073300       ?GetLocaleT@_LocaleUpdate@@QAEPAUlocaleinfo_struct@@XZ 400da300 f i LIBCMTD:atof.obj
 0002:00073320       _atof                      400da320 f   LIBCMTD:atof.obj
 0002:00073340       ___strgtold12              400da340 f   LIBCMTD:atof.obj
 0002:000733b0       ___STRINGTOLD              400da3b0 f   LIBCMTD:atof.obj
 0002:00073410       __CIsqrt                   400da410 f   LIBCMTD:_sqrt_.obj
 0002:00073424       _sqrt                      400da424     LIBCMTD:_sqrt_.obj
 0002:00073500       _fmod                      400da500 f   LIBCMTD:_87fmod_.obj
 0002:0007350a       __CIfmod                   400da50a f   LIBCMTD:_87fmod_.obj
 0002:00073530       __ftol2_sse                400da530 f   LIBCMTD:ftol2.obj
 0002:00073539       __ftol2_pentium4           400da539 f   LIBCMTD:ftol2.obj
 0002:0007354c       __ftol2_sse_excpt          400da54c f   LIBCMTD:ftol2.obj
 0002:00073566       __ftol2                    400da566 f   LIBCMTD:ftol2.obj
 0002:00073610       _acos                      400da610 f   LIBCMTD:_acos_.obj
 0002:00073650       __CIacos                   400da650 f   LIBCMTD:_acos_.obj
 0002:0007368b       __CIacos_default           400da68b f   LIBCMTD:_acos_.obj
 0002:0007369f       __acos_default             400da69f     LIBCMTD:_acos_.obj
 0002:000737b0       __vsprintf_l               400da7b0 f   LIBCMTD:vsprintf.obj
 0002:000739b0       _vsprintf                  400da9b0 f   LIBCMTD:vsprintf.obj
 0002:000739e0       __vscprintf_helper         400da9e0 f   LIBCMTD:vsprintf.obj
 0002:00073af0       __vscprintf                400daaf0 f   LIBCMTD:vsprintf.obj
 0002:00073b20       __vscprintf_l              400dab20 f   LIBCMTD:vsprintf.obj
 0002:00073b50       __vscprintf_p              400dab50 f   LIBCMTD:vsprintf.obj
 0002:00073b80       __vscprintf_p_l            400dab80 f   LIBCMTD:vsprintf.obj
 0002:00073bb0       _strncpy                   400dabb0 f   LIBCMTD:strncpy.obj
 0002:00073d20       __tolower                  400dad20 f   LIBCMTD:tolower.obj
 0002:00073d30       __tolower_l                400dad30 f   LIBCMTD:tolower.obj
 0002:00073f80       _tolower                   400daf80 f   LIBCMTD:tolower.obj
 0002:00073fe0       __toupper                  400dafe0 f   LIBCMTD:toupper.obj
 0002:00073ff0       __toupper_l                400daff0 f   LIBCMTD:toupper.obj
 0002:00074240       _toupper                   400db240 f   LIBCMTD:toupper.obj
 0002:000742a0       __vsnprintf_l              400db2a0 f   LIBCMTD:vsnprint.obj
 0002:000744d0       __vsnprintf                400db4d0 f   LIBCMTD:vsnprint.obj
 0002:00074500       ?name@type_info@@QBEPBDPAU__type_info_node@@@Z 400db500 f   LIBCMTD:typinfo.obj
 0002:00074530       ??1type_info@@UAE@XZ       400db530 f   LIBCMTD:typinfo.obj
 0002:00074560       ??_Gtype_info@@UAEPAXI@Z   400db560 f i LIBCMTD:typinfo.obj
 0002:00074560       ??_Etype_info@@UAEPAXI@Z   400db560 f i LIBCMTD:typinfo.obj
 0002:000745a0       ?_name_internal_method@type_info@@QBEPBDPAU__type_info_node@@@Z 400db5a0 f   LIBCMTD:typinfo.obj
 0002:000745d0       ?_type_info_dtor_internal_method@type_info@@QAEXXZ 400db5d0 f   LIBCMTD:typinfo.obj
 0002:000745f0       ??8type_info@@QBE_NABV0@@Z 400db5f0 f   LIBCMTD:typinfo.obj
 0002:00074630       ??9type_info@@QBE_NABV0@@Z 400db630 f   LIBCMTD:typinfo.obj
 0002:00074670       ?before@type_info@@QBEHABV1@@Z 400db670 f   LIBCMTD:typinfo.obj
 0002:000746b0       ?raw_name@type_info@@QBEPBDXZ 400db6b0 f   LIBCMTD:typinfo.obj
 0002:000746d0       ??0type_info@@AAE@ABV0@@Z  400db6d0 f   LIBCMTD:typinfo.obj
 0002:00074700       ??4type_info@@AAEAAV0@ABV0@@Z 400db700 f   LIBCMTD:typinfo.obj
 0002:00074720       ?_JumpToContinuation@@YGXPAXPAUEHRegistrationNode@@@Z 400db720 f   LIBCMTD:_trnsctrl_.obj
 0002:00074770       ?_CallMemberFunction0@@YGXPAX0@Z 400db770 f   LIBCMTD:_trnsctrl_.obj
 0002:00074780       ?_CallMemberFunction1@@YGXPAX00@Z 400db780 f   LIBCMTD:_trnsctrl_.obj
 0002:00074790       ?_CallMemberFunction2@@YGXPAX00H@Z 400db790 f   LIBCMTD:_trnsctrl_.obj
 0002:000747a0       ?_UnwindNestedFrames@@YGXPAUEHRegistrationNode@@PAUEHExceptionRecord@@@Z 400db7a0 f   LIBCMTD:_trnsctrl_.obj
 0002:00074810       ___CxxFrameHandler         400db810 f   LIBCMTD:_trnsctrl_.obj
 0002:00074860       ___CxxFrameHandler3        400db860 f   LIBCMTD:_trnsctrl_.obj
 0002:000748b0       ___CxxFrameHandler2        400db8b0 f   LIBCMTD:_trnsctrl_.obj
 0002:00074900       ___CxxLongjmpUnwind@4      400db900 f   LIBCMTD:_trnsctrl_.obj
 0002:00074940       ?_CallCatchBlock2@@YAPAXPAUEHRegistrationNode@@PBU_s_FuncInfo@@PAXHK@Z 400db940 f   LIBCMTD:_trnsctrl_.obj
 0002:00074a30       ?_CallSETranslator@@YAHPAUEHExceptionRecord@@PAUEHRegistrationNode@@PAX2PBU_s_FuncInfo@@H1@Z 400dba30 f   LIBCMTD:_trnsctrl_.obj
 0002:00074c40       ?_GetRangeOfTrysToCheck@@YAPBU_s_TryBlockMapEntry@@PBU_s_FuncInfo@@HHPAI1@Z 400dbc40 f   LIBCMTD:_trnsctrl_.obj
 0002:00074ce0       __CreateFrameInfo          400dbce0 f   LIBCMTD:_trnsctrl_.obj
 0002:00074d20       __IsExceptionObjectToBeDestroyed 400dbd20 f   LIBCMTD:_trnsctrl_.obj
 0002:00074d60       __FindAndUnlinkFrame       400dbd60 f   LIBCMTD:_trnsctrl_.obj
 0002:00074dd0       ___RTCastToVoid            400dbdd0 f   LIBCMTD:rtti.obj
 0002:00074ed0       ___RTtypeid                400dbed0 f   LIBCMTD:rtti.obj
 0002:00075050       ___RTDynamicCast           400dc050 f   LIBCMTD:rtti.obj
 0002:00075910       __CxxThrowException@8      400dc910 f   LIBCMTD:throw.obj
 0002:00075980       __initp_misc_invarg        400dc980 f   LIBCMTD:invarg.obj
 0002:000759a0       __invalid_parameter        400dc9a0 f   LIBCMTD:invarg.obj
 0002:00075a10       __invoke_watson            400dca10 f   LIBCMTD:invarg.obj
 0002:00075a50       __call_reportfault         400dca50 f   LIBCMTD:invarg.obj
 0002:00075c00       __set_invalid_parameter_handler 400dcc00 f   LIBCMTD:invarg.obj
 0002:00075c50       __get_invalid_parameter_handler 400dcc50 f   LIBCMTD:invarg.obj
 0002:00075c90       ?_invalid_parameter@@YAXPBG00II@Z 400dcc90 f   LIBCMTD:invarg.obj
 0002:00075cc0       ?_invoke_watson@@YAXPBG00II@Z 400dccc0 f   LIBCMTD:invarg.obj
 0002:00075cf0       __CrtSetReportHookW2       400dccf0 f   LIBCMTD:dbgrptw.obj
 0002:000760e0       __CrtDbgReportW            400dd0e0 f   LIBCMTD:dbgrptw.obj
 0002:00076130       __CrtDbgReportWV           400dd130 f i LIBCMTD:dbgrptw.obj
 0002:00076160       ___crtMessageWindowW       400dd160 f   LIBCMTD:dbgrptw.obj
 0002:00076660       __invoke_watson_if_oneof   400dd660 f i LIBCMTD:dbgrptw.obj
 0002:000766b0       ?_CrtDbgReportW@@YAHHPBGH00ZZ 400dd6b0 f   LIBCMTD:dbgrptw.obj
 0002:00076700       ??3@YAXPAX@Z               400dd700 f   LIBCMTD:dbgdel.obj
 0002:00076820       ??2@YAPAXI@Z               400dd820 f   LIBCMTD:new.obj
 0002:000768c0       ??0bad_alloc@std@@QAE@XZ   400dd8c0 f i LIBCMTD:new.obj
 0002:00076900       ??0exception@std@@QAE@XZ   400dd900 f   LIBCMTD:stdexcpt.obj
 0002:00076940       ??_Eexception@std@@UAEPAXI@Z 400dd940 f i LIBCMTD:stdexcpt.obj
 0002:00076940       ??_Gexception@std@@UAEPAXI@Z 400dd940 f i LIBCMTD:stdexcpt.obj
 0002:00076980       ??0exception@std@@QAE@ABQBD@Z 400dd980 f   LIBCMTD:stdexcpt.obj
 0002:000769d0       ??0exception@std@@QAE@ABQBDH@Z 400dd9d0 f   LIBCMTD:stdexcpt.obj
 0002:00076a10       ??0exception@std@@QAE@ABV01@@Z 400dda10 f   LIBCMTD:stdexcpt.obj
 0002:00076a60       ??4exception@std@@QAEAAV01@ABV01@@Z 400dda60 f   LIBCMTD:stdexcpt.obj
 0002:00076ac0       ??1exception@std@@UAE@XZ   400ddac0 f   LIBCMTD:stdexcpt.obj
 0002:00076af0       ?what@exception@std@@UBEPBDXZ 400ddaf0 f   LIBCMTD:stdexcpt.obj
 0002:00076b30       ?_Copy_str@exception@std@@AAEXPBD@Z 400ddb30 f   LIBCMTD:stdexcpt.obj
 0002:00076bb0       ?_Tidy@exception@std@@AAEXXZ 400ddbb0 f   LIBCMTD:stdexcpt.obj
 0002:00076c00       ??0bad_cast@std@@QAE@PBD@Z 400ddc00 f   LIBCMTD:stdexcpt.obj
 0002:00076c30       ??_Ebad_cast@std@@UAEPAXI@Z 400ddc30 f i LIBCMTD:stdexcpt.obj
 0002:00076c30       ??_Gbad_cast@std@@UAEPAXI@Z 400ddc30 f i LIBCMTD:stdexcpt.obj
 0002:00076c70       ??0bad_cast@std@@QAE@ABV01@@Z 400ddc70 f   LIBCMTD:stdexcpt.obj
 0002:00076ca0       ??1bad_cast@std@@UAE@XZ    400ddca0 f   LIBCMTD:stdexcpt.obj
 0002:00076cd0       ??0bad_typeid@std@@QAE@PBD@Z 400ddcd0 f   LIBCMTD:stdexcpt.obj
 0002:00076d00       ??_Gbad_typeid@std@@UAEPAXI@Z 400ddd00 f i LIBCMTD:stdexcpt.obj
 0002:00076d00       ??_Ebad_typeid@std@@UAEPAXI@Z 400ddd00 f i LIBCMTD:stdexcpt.obj
 0002:00076d40       ??0bad_typeid@std@@QAE@ABV01@@Z 400ddd40 f   LIBCMTD:stdexcpt.obj
 0002:00076d70       ??1bad_typeid@std@@UAE@XZ  400ddd70 f   LIBCMTD:stdexcpt.obj
 0002:00076da0       ??0__non_rtti_object@std@@QAE@PBD@Z 400ddda0 f   LIBCMTD:stdexcpt.obj
 0002:00076dd0       ??_E__non_rtti_object@std@@UAEPAXI@Z 400dddd0 f i LIBCMTD:stdexcpt.obj
 0002:00076dd0       ??_G__non_rtti_object@std@@UAEPAXI@Z 400dddd0 f i LIBCMTD:stdexcpt.obj
 0002:00076e10       ??0__non_rtti_object@std@@QAE@ABV01@@Z 400dde10 f   LIBCMTD:stdexcpt.obj
 0002:00076e40       ??1__non_rtti_object@std@@UAE@XZ 400dde40 f   LIBCMTD:stdexcpt.obj
 0002:00076e70       _strstr                    400dde70 f   LIBCMTD:strstr.obj
 0002:00076f20       _sscanf                    400ddf20 f   LIBCMTD:sscanf.obj
 0002:00077110       __sscanf_l                 400de110 f   LIBCMTD:sscanf.obj
 0002:00077150       _sscanf_s                  400de150 f   LIBCMTD:sscanf.obj
 0002:00077190       __sscanf_s_l               400de190 f   LIBCMTD:sscanf.obj
 0002:000771d0       _ceil                      400de1d0 f   LIBCMTD:_ceil_pentium4_.obj
 0002:00077210       __ceil_pentium4            400de210 f   LIBCMTD:_ceil_pentium4_.obj
 0002:00077340       _floor                     400de340 f   LIBCMTD:_floor_pentium4_.obj
 0002:00077380       __floor_pentium4           400de380 f   LIBCMTD:_floor_pentium4_.obj
 0002:000774b0       _qsort                     400de4b0 f   LIBCMTD:qsort.obj
 0002:00077bd0       _sprintf                   400debd0 f   LIBCMTD:sprintf.obj
 0002:00077dd0       __sprintf_l                400dedd0 f   LIBCMTD:sprintf.obj
 0002:00077e10       _sprintf_s                 400dee10 f   LIBCMTD:sprintf.obj
 0002:00077e50       __sprintf_s_l              400dee50 f   LIBCMTD:sprintf.obj
 0002:00077e90       __snprintf_s               400dee90 f   LIBCMTD:sprintf.obj
 0002:00077ed0       __snprintf_s_l             400deed0 f   LIBCMTD:sprintf.obj
 0002:00077f10       __sprintf_p                400def10 f   LIBCMTD:sprintf.obj
 0002:00077f50       __sprintf_p_l              400def50 f   LIBCMTD:sprintf.obj
 0002:00077f90       __scprintf                 400def90 f   LIBCMTD:sprintf.obj
 0002:00077fc0       __scprintf_p               400defc0 f   LIBCMTD:sprintf.obj
 0002:00077ff0       __scprintf_l               400deff0 f   LIBCMTD:sprintf.obj
 0002:00078020       __scprintf_p_l             400df020 f   LIBCMTD:sprintf.obj
 0002:00078050       _strrchr                   400df050 f   LIBCMTD:strrchr.obj
 0002:00078090       _strncat                   400df090 f   LIBCMTD:strncat.obj
 0002:00078220       _abs                       400df220 f   LIBCMTD:abs.obj
 0002:00078250       __abs64                    400df250 f   LIBCMTD:abs.obj
 0002:000782b0       _free                      400df2b0 f   LIBCMTD:dbgfree.obj
 0002:000782d0       __strtod_l                 400df2d0 f   LIBCMTD:strtod.obj
 0002:00078550       _strtod                    400df550 f   LIBCMTD:strtod.obj
 0002:00078570       _srand                     400df570 f   LIBCMTD:rand.obj
 0002:00078590       _rand                      400df590 f   LIBCMTD:rand.obj
 0002:000785e0       _memmove                   400df5e0 f   LIBCMTD:memmove.obj
 0002:00078a20       __onexit                   400dfa20 f   LIBCMTD:onexit.obj
 0002:00078c60       _atexit                    400dfc60 f   LIBCMTD:onexit.obj
 0002:00078c90       ___onexitinit              400dfc90 f   LIBCMTD:onexit.obj
 0002:00078d00       ?_RTC_Failure@@YAXPAXH@Z   400dfd00 f   LIBCMTD:_error_.obj
 0002:00079190       ?_RTC_StackFailure@@YAXPAXPBD@Z 400e0190 f   LIBCMTD:_error_.obj
 0002:000792d0       ?_RTC_AllocaFailure@@YAXPAXPAU_RTC_ALLOCA_NODE@@H@Z 400e02d0 f   LIBCMTD:_error_.obj
 0002:000794e0       __RTC_UninitUse            400e04e0 f   LIBCMTD:_error_.obj
 0002:00079610       _tan                       400e0610 f   LIBCMTD:_tan_.obj
 0002:00079650       __CItan                    400e0650 f   LIBCMTD:_tan_.obj
 0002:0007968b       __CItan_default            400e068b f   LIBCMTD:_tan_.obj
 0002:0007969f       __tan_default              400e069f     LIBCMTD:_tan_.obj
 0002:00079790       __CRT_INIT@12              400e0790 f   LIBCMTD:dllcrt0.obj
 0002:00079a30       __DllMainCRTStartup@12     400e0a30 f   LIBCMTD:dllcrt0.obj
 0002:00079c90       __RTC_NumErrors            400e0c90 f   LIBCMTD:_userapi_.obj
 0002:00079ca0       __RTC_GetErrDesc           400e0ca0 f   LIBCMTD:_userapi_.obj
 0002:00079cc0       __RTC_SetErrorType         400e0cc0 f   LIBCMTD:_userapi_.obj
 0002:00079cf0       __RTC_SetErrorFunc         400e0cf0 f   LIBCMTD:_userapi_.obj
 0002:00079d20       __RTC_SetErrorFuncW        400e0d20 f   LIBCMTD:_userapi_.obj
 0002:00079d50       ?_RTC_GetErrorFunc@@YAP6AHHPBDH00ZZPBX@Z 400e0d50 f   LIBCMTD:_userapi_.obj
 0002:00079d60       ?_RTC_GetErrorFuncW@@YAP6AHHPB_WH00ZZPBX@Z 400e0d60 f   LIBCMTD:_userapi_.obj
 0002:00079d70       __chkesp                   400e0d70 f   LIBCMTD:chkesp.obj
 0002:00079dc0       __CRT_RTC_INIT             400e0dc0 f   LIBCMTD:chkesp.obj
 0002:00079dd0       __CRT_RTC_INITW            400e0dd0 f   LIBCMTD:chkesp.obj
 0002:00079de0       _strtol                    400e0de0 f   LIBCMTD:strtol.obj
 0002:0007a460       __strtol_l                 400e1460 f   LIBCMTD:strtol.obj
 0002:0007a490       _strtoul                   400e1490 f   LIBCMTD:strtol.obj
 0002:0007a4f0       __strtoul_l                400e14f0 f   LIBCMTD:strtol.obj
 0002:0007a520       __strtoi64                 400e1520 f   LIBCMTD:strtoq.obj
 0002:0007abf0       __strtoi64_l               400e1bf0 f   LIBCMTD:strtoq.obj
 0002:0007ac20       __strtoui64                400e1c20 f   LIBCMTD:strtoq.obj
 0002:0007ac80       __strtoui64_l              400e1c80 f   LIBCMTD:strtoq.obj
 0002:0007acb0       __VEC_memzero              400e1cb0 f   LIBCMTD:p4_memset.obj
 0002:0007ada0       ___sse2_available_init     400e1da0 f   LIBCMTD:cpu_disp.obj
 0002:0007adc0       ___report_gsfailure        400e1dc0 f   LIBCMTD:gs_report.obj
 0002:0007af20       __setdefaultprecision      400e1f20 f   LIBCMTD:fp8.obj
 0002:0007af70       __forcdecpt                400e1f70 f   LIBCMTD:cvt.obj
 0002:0007af90       __forcdecpt_l              400e1f90 f   LIBCMTD:cvt.obj
 0002:0007b080       __cropzeros                400e2080 f   LIBCMTD:cvt.obj
 0002:0007b0a0       __cropzeros_l              400e20a0 f   LIBCMTD:cvt.obj
 0002:0007b1f0       __positive                 400e21f0 f   LIBCMTD:cvt.obj
 0002:0007b230       __fassign_l                400e2230 f   LIBCMTD:cvt.obj
 0002:0007b2a0       __fassign                  400e22a0 f   LIBCMTD:cvt.obj
 0002:0007b2d0       __cftoe_l                  400e22d0 f   LIBCMTD:cvt.obj
 0002:0007b970       __cftoe                    400e2970 f   LIBCMTD:cvt.obj
 0002:0007b9a0       __cftoa_l                  400e29a0 f   LIBCMTD:cvt.obj
 0002:0007c370       __cftoa                    400e3370 f   LIBCMTD:cvt.obj
 0002:0007c3a0       __cftof_l                  400e33a0 f   LIBCMTD:cvt.obj
 0002:0007c8a0       __cftof                    400e38a0 f   LIBCMTD:cvt.obj
 0002:0007c8d0       __cftog_l                  400e38d0 f   LIBCMTD:cvt.obj
 0002:0007cb90       __cftog                    400e3b90 f   LIBCMTD:cvt.obj
 0002:0007cbc0       __cfltcvt_l                400e3bc0 f   LIBCMTD:cvt.obj
 0002:0007ccb0       __cfltcvt                  400e3cb0 f   LIBCMTD:cvt.obj
 0002:0007cd30       __initp_misc_cfltcvt_tab   400e3d30 f   LIBCMTD:cmiscdat.obj
 0002:0007cd9c       __fFATN2                   400e3d9c     LIBCMTD:_87triga_.obj
 0002:0007cdec       __rtpiby2                  400e3dec     LIBCMTD:_87triga_.obj
 0002:0007ce60       __cintrindisp2             400e3e60 f   LIBCMTD:_87cdisp_.obj
 0002:0007ce9e       __cintrindisp1             400e3e9e f   LIBCMTD:_87cdisp_.obj
 0002:0007cedb       __ctrandisp2               400e3edb f   LIBCMTD:_87cdisp_.obj
 0002:0007d06a       __ctrandisp1               400e406a f   LIBCMTD:_87cdisp_.obj
 0002:0007d09d       __fload                    400e409d f   LIBCMTD:_87cdisp_.obj
 0002:0007d180       __set_SSE2_enable          400e4180 f   LIBCMTD:_mathfcns_.obj
 0002:0007d1b0       __sse2_mathfcns_init       400e41b0 f   LIBCMTD:_mathfcns_.obj
 0002:0007d1d0       __CIcos_pentium4           400e41d0 f   LIBCMTD:_cos_pentium4_.obj
 0002:0007d1e8       __cos_pentium4             400e41e8     LIBCMTD:_cos_pentium4_.obj
 0002:0007d3f0       __trandisp1                400e43f0 f   LIBCMTD:_87disp_.obj
 0002:0007d457       __trandisp2                400e4457 f   LIBCMTD:_87disp_.obj
 0002:0007d4e3       __rttospopde               400e44e3     LIBCMTD:_87disp_.obj
 0002:0007d4e8       __rttospop                 400e44e8     LIBCMTD:_87disp_.obj
 0002:0007d4ea       __rtnospop                 400e44ea     LIBCMTD:_87disp_.obj
 0002:0007d4ec       __rttosnpop                400e44ec     LIBCMTD:_87disp_.obj
 0002:0007d4ed       __rtnospopde               400e44ed     LIBCMTD:_87disp_.obj
 0002:0007d4f4       __rtzeropop                400e44f4     LIBCMTD:_87disp_.obj
 0002:0007d4f6       __rtzeronpop               400e44f6     LIBCMTD:_87disp_.obj
 0002:0007d4fb       __rtonepop                 400e44fb     LIBCMTD:_87disp_.obj
 0002:0007d4fd       __rtonenpop                400e44fd     LIBCMTD:_87disp_.obj
 0002:0007d502       __tosnan1                  400e4502     LIBCMTD:_87disp_.obj
 0002:0007d52d       __nosnan2                  400e452d     LIBCMTD:_87disp_.obj
 0002:0007d52f       __tosnan2                  400e452f     LIBCMTD:_87disp_.obj
 0002:0007d557       __nan2                     400e4557     LIBCMTD:_87disp_.obj
 0002:0007d596       __rtindfpop                400e4596     LIBCMTD:_87disp_.obj
 0002:0007d598       __rtindfnpop               400e4598     LIBCMTD:_87disp_.obj
 0002:0007d5a9       __rttosnpopde              400e45a9     LIBCMTD:_87disp_.obj
 0002:0007d5b3       __rtchsifneg               400e45b3     LIBCMTD:_87disp_.obj
 0002:0007d630       __twoToTOS                 400e4630 f   LIBCMTD:_common_.obj
 0002:0007d645       __load_CW                  400e4645 f   LIBCMTD:_common_.obj
 0002:0007d65c       __convertTOStoQNaN         400e465c f   LIBCMTD:_common_.obj
 0002:0007d675       __fload_withFB             400e4675 f   LIBCMTD:_common_.obj
 0002:0007d6b8       __checkTOS_withFB          400e46b8 f   LIBCMTD:_common_.obj
 0002:0007d6ce       __fast_exit                400e46ce f   LIBCMTD:_common_.obj
 0002:0007d6db       __math_exit                400e46db f   LIBCMTD:_common_.obj
 0002:0007d705       __check_overflow_exit      400e4705 f   LIBCMTD:_common_.obj
 0002:0007d719       __check_range_exit         400e4719 f   LIBCMTD:_common_.obj
 0002:0007d820       __startTwoArgErrorHandling 400e4820 f   LIBCMTD:_genexcep_.obj
 0002:0007d837       __startOneArgErrorHandling 400e4837 f   LIBCMTD:_genexcep_.obj
 0002:0007d890       __CIsin_pentium4           400e4890 f   LIBCMTD:_sin_pentium4_.obj
 0002:0007d8a8       __sin_pentium4             400e48a8     LIBCMTD:_sin_pentium4_.obj
 0002:0007dad0       __handle_qnan1             400e4ad0 f   LIBCMTD:_fpexcept_.obj
 0002:0007db50       __handle_qnan2             400e4b50 f   LIBCMTD:_fpexcept_.obj
 0002:0007dbe0       __except1                  400e4be0 f   LIBCMTD:_fpexcept_.obj
 0002:0007dd20       __except2                  400e4d20 f   LIBCMTD:_fpexcept_.obj
 0002:0007de70       __raise_exc_ex             400e4e70 f   LIBCMTD:_fpexcept_.obj
 0002:0007e4f0       __raise_exc                400e54f0 f   LIBCMTD:_fpexcept_.obj
 0002:0007e530       __raise_excf               400e5530 f   LIBCMTD:_fpexcept_.obj
 0002:0007e570       __handle_exc               400e5570 f   LIBCMTD:_fpexcept_.obj
 0002:0007e940       __umatherr                 400e5940 f   LIBCMTD:_fpexcept_.obj
 0002:0007ea10       __set_errno_from_matherr   400e5a10 f   LIBCMTD:_fpexcept_.obj
 0002:0007eac0       __errcode                  400e5ac0 f   LIBCMTD:_fpexcept_.obj
 0002:0007eb50       __set_exp                  400e5b50 f   LIBCMTD:_util_.obj
 0002:0007eba0       __get_exp                  400e5ba0 f   LIBCMTD:_util_.obj
 0002:0007ebe0       __add_exp                  400e5be0 f   LIBCMTD:_util_.obj
 0002:0007ec20       __set_bexp                 400e5c20 f   LIBCMTD:_util_.obj
 0002:0007ec60       __sptype                   400e5c60 f   LIBCMTD:_util_.obj
 0002:0007ed00       __decomp                   400e5d00 f   LIBCMTD:_util_.obj
 0002:0007ee70       __statfp                   400e5e70 f   LIBCMTD:_fpctrl_.obj
 0002:0007ee90       __clrfp                    400e5e90 f   LIBCMTD:_fpctrl_.obj
 0002:0007eeb0       __ctrlfp                   400e5eb0 f   LIBCMTD:_fpctrl_.obj
 0002:0007eef0       __set_statfp               400e5ef0 f   LIBCMTD:_fpctrl_.obj
 0002:0007ef70       ___get_fpsr_sse2           400e5f70 f   LIBCMTD:_fpctrl_.obj
 0002:0007efa0       ___set_fpsr_sse2           400e5fa0 f   LIBCMTD:_fpctrl_.obj
 0002:0007f0b0       ___fclrf_sse2              400e60b0 f   LIBCMTD:_fpctrl_.obj
 0002:0007f0e0       ___statfp_sse2             400e60e0 f   LIBCMTD:_fpctrl_.obj
 0002:0007f120       ___clrfp_sse2              400e6120 f   LIBCMTD:_fpctrl_.obj
 0002:0007f170       ___ctrlfp_sse2             400e6170 f   LIBCMTD:_fpctrl_.obj
 0002:0007f1e0       ___set_statfp_sse2         400e61e0 f   LIBCMTD:_fpctrl_.obj
 0002:0007f220       __cinit                    400e6220 f   LIBCMTD:crt0dat.obj
 0002:0007f2f0       _exit                      400e62f0 f   LIBCMTD:crt0dat.obj
 0002:0007f310       __exit                     400e6310 f   LIBCMTD:crt0dat.obj
 0002:0007f330       __cexit                    400e6330 f   LIBCMTD:crt0dat.obj
 0002:0007f350       __c_exit                   400e6350 f   LIBCMTD:crt0dat.obj
 0002:0007f370       __amsg_exit                400e6370 f   LIBCMTD:crt0dat.obj
 0002:0007f3a0       ___freeCrtMemory           400e63a0 f   LIBCMTD:crt0dat.obj
 0002:0007f7b0       ___crtCorExitProcess       400e67b0 f   LIBCMTD:crt0dat.obj
 0002:0007f800       ___crtExitProcess          400e6800 f   LIBCMTD:crt0dat.obj
 0002:0007f830       __lockexit                 400e6830 f   LIBCMTD:crt0dat.obj
 0002:0007f850       __unlockexit               400e6850 f   LIBCMTD:crt0dat.obj
 0002:0007f870       __init_pointers            400e6870 f   LIBCMTD:crt0dat.obj
 0002:0007f920       __initterm_e               400e6920 f   LIBCMTD:crt0dat.obj
 0002:0007f970       __get_wpgmptr              400e6970 f   LIBCMTD:crt0dat.obj
 0002:0007faa0       __get_pgmptr               400e6aa0 f   LIBCMTD:crt0dat.obj
 0002:0007fbd0       __initp_misc_winsig        400e6bd0 f   LIBCMTD:winsig.obj
 0002:0007fc10       _signal                    400e6c10 f   LIBCMTD:winsig.obj
 0002:000801c0       _raise                     400e71c0 f   LIBCMTD:winsig.obj
 0002:00080610       ___get_sigabrt             400e7610 f   LIBCMTD:winsig.obj
 0002:00080630       ___fpecode                 400e7630 f   LIBCMTD:winsig.obj
 0002:00080650       ___pxcptinfoptrs           400e7650 f   LIBCMTD:winsig.obj
 0002:00080670       ___crtMessageBoxW          400e7670 f   LIBCMTD:crtmboxw.obj
 0002:00080920       __itow_s                   400e7920 f   LIBCMTD:xtows.obj
 0002:00080df0       __ltow_s                   400e7df0 f   LIBCMTD:xtows.obj
 0002:00080e40       __ultow_s                  400e7e40 f   LIBCMTD:xtows.obj
 0002:00080e70       __i64tow_s                 400e7e70 f   LIBCMTD:xtows.obj
 0002:00081390       __ui64tow_s                400e8390 f   LIBCMTD:xtows.obj
 0002:000813c0       _wcsncat_s                 400e83c0 f   LIBCMTD:wcsncat_s.obj
 0002:000819a0       _wcsncpy_s                 400e89a0 f   LIBCMTD:wcsncpy_s.obj
 0002:00081eb0       _wcscat_s                  400e8eb0 f   LIBCMTD:wcscat_s.obj
 0002:00082390       _wcscpy_s                  400e9390 f   LIBCMTD:wcscpy_s.obj
 0002:00082730       _fflush                    400e9730 f   LIBCMTD:fflush.obj
 0002:000827f0       __fflush_nolock            400e97f0 f   LIBCMTD:fflush.obj
 0002:00082860       __flush                    400e9860 f   LIBCMTD:fflush.obj
 0002:00082950       __flushall                 400e9950 f   LIBCMTD:fflush.obj
 0002:00082b80       _fwprintf                  400e9b80 f   LIBCMTD:fwprintf.obj
 0002:00082d60       __fwprintf_l               400e9d60 f   LIBCMTD:fwprintf.obj
 0002:00082da0       __fwprintf_s_l             400e9da0 f   LIBCMTD:fwprintf.obj
 0002:00082de0       _fwprintf_s                400e9de0 f   LIBCMTD:fwprintf.obj
 0002:00082e10       __fwprintf_p_l             400e9e10 f   LIBCMTD:fwprintf.obj
 0002:00082e50       __fwprintf_p               400e9e50 f   LIBCMTD:fwprintf.obj
 0002:00082e80       _setvbuf                   400e9e80 f   LIBCMTD:setvbuf.obj
 0002:00083210       ___iob_func                400ea210 f   LIBCMTD:_file.obj
 0002:00083220       ___initstdio               400ea220 f   LIBCMTD:_file.obj
 0002:000833c0       ___endstdio                400ea3c0 f   LIBCMTD:_file.obj
 0002:00083400       __lock_file                400ea400 f   LIBCMTD:_file.obj
 0002:00083470       __lock_file2               400ea470 f   LIBCMTD:_file.obj
 0002:000834c0       __unlock_file              400ea4c0 f   LIBCMTD:_file.obj
 0002:00083530       __unlock_file2             400ea530 f   LIBCMTD:_file.obj
 0002:00083580       _abort                     400ea580 f   LIBCMTD:abort.obj
 0002:00083600       __set_abort_behavior       400ea600 f   LIBCMTD:abort.obj
 0002:00083640       _wcslen                    400ea640 f   LIBCMTD:wcslen.obj
 0002:00083680       __set_error_mode           400ea680 f   LIBCMTD:errmode.obj
 0002:00083770       ___set_app_type            400ea770 f   LIBCMTD:errmode.obj
 0002:00083790       __vswprintf_helper         400ea790 f   LIBCMTD:vswprnc.obj
 0002:00083a80       __vswprintf_c              400eaa80 f   LIBCMTD:vswprnc.obj
 0002:00083ae0       __vswprintf_c_l            400eaae0 f   LIBCMTD:vswprnc.obj
 0002:00083b40       __vswprintf_s_l            400eab40 f   LIBCMTD:vswprnc.obj
 0002:00083e40       _vswprintf_s               400eae40 f   LIBCMTD:vswprnc.obj
 0002:00083e70       __vsnwprintf_s_l           400eae70 f   LIBCMTD:vswprnc.obj
 0002:00084310       __vsnwprintf_s             400eb310 f   LIBCMTD:vswprnc.obj
 0002:00084340       __vswprintf_p              400eb340 f   LIBCMTD:vswprnc.obj
 0002:000843a0       __vswprintf_p_l            400eb3a0 f   LIBCMTD:vswprnc.obj
 0002:00084400       __VEC_memcpy               400eb400 f   LIBCMTD:p4_memcpy.obj
 0002:00084550       __fltin2                   400eb550 f   LIBCMTD:_cfin_.obj
 0002:00084660       __chvalidator              400eb660 f   LIBCMTD:isctype.obj
 0002:000846c0       __chvalidator_l            400eb6c0 f   LIBCMTD:isctype.obj
 0002:000847a0       __isctype_l                400eb7a0 f   LIBCMTD:isctype.obj
 0002:00084900       __isctype                  400eb900 f   LIBCMTD:isctype.obj
 0002:00084950       __dosmaperr                400eb950 f   LIBCMTD:dosmap.obj
 0002:00084990       __get_errno_from_oserr     400eb990 f   LIBCMTD:dosmap.obj
 0002:00084a30       __set_errno                400eba30 f   LIBCMTD:dosmap.obj
 0002:00084a70       __get_errno                400eba70 f   LIBCMTD:dosmap.obj
 0002:00084b10       __set_doserrno             400ebb10 f   LIBCMTD:dosmap.obj
 0002:00084b50       __get_doserrno             400ebb50 f   LIBCMTD:dosmap.obj
 0002:00084bf0       __errno                    400ebbf0 f   LIBCMTD:dosmap.obj
 0002:00084c20       ___doserrno                400ebc20 f   LIBCMTD:dosmap.obj
 0002:00084c50       ___updatetmbcinfo          400ebc50 f   LIBCMTD:mbctype.obj
 0002:00084da0       __setmbcp                  400ebda0 f   LIBCMTD:mbctype.obj
 0002:00085230       __setmbcp_nolock           400ec230 f   LIBCMTD:mbctype.obj
 0002:00085c10       __getmbcp                  400ecc10 f   LIBCMTD:mbctype.obj
 0002:00085ca0       ___initmbctable            400ecca0 f   LIBCMTD:mbctype.obj
 0002:00085cd0       ___addlocaleref            400eccd0 f   LIBCMTD:localref.obj
 0002:00085e40       ___removelocaleref         400ece40 f   LIBCMTD:localref.obj
 0002:00085fc0       ___freetlocinfo            400ecfc0 f   LIBCMTD:localref.obj
 0002:00086360       __updatetlocinfoEx_nolock  400ed360 f   LIBCMTD:localref.obj
 0002:00086400       ___updatetlocinfo          400ed400 f   LIBCMTD:localref.obj
 0002:00086500       __encoded_null             400ed500 f   LIBCMTD:tidtable.obj
 0002:00086520       ___crtTlsAlloc@4           400ed520 f   LIBCMTD:tidtable.obj
 0002:00086540       ___fls_getvalue@4          400ed540 f   LIBCMTD:tidtable.obj
 0002:00086570       ___get_flsindex            400ed570 f   LIBCMTD:tidtable.obj
 0002:00086580       ___set_flsgetvalue         400ed580 f   LIBCMTD:tidtable.obj
 0002:000865e0       ___fls_setvalue@8          400ed5e0 f   LIBCMTD:tidtable.obj
 0002:00086610       __mtinit                   400ed610 f   LIBCMTD:tidtable.obj
 0002:00086890       __mtterm                   400ed890 f   LIBCMTD:tidtable.obj
 0002:00086900       __initptd                  400ed900 f   LIBCMTD:tidtable.obj
 0002:00086a70       __getptd_noexit            400eda70 f   LIBCMTD:tidtable.obj
 0002:00086b60       __getptd                   400edb60 f   LIBCMTD:tidtable.obj
 0002:00086b90       __freefls@4                400edb90 f   LIBCMTD:tidtable.obj
 0002:00086e20       __freeptd                  400ede20 f   LIBCMTD:tidtable.obj
 0002:00086ec0       ___threadid                400edec0 f   LIBCMTD:tidtable.obj
 0002:00086ed0       ___threadhandle            400eded0 f   LIBCMTD:tidtable.obj
 0002:00086ee0       ___strgtold12_l            400edee0 f   LIBCMTD:_strgtold_.obj
 0002:00087c40       ___multtenpow12            400eec40 f i LIBCMTD:_strgtold_.obj
 0002:00087d50       ___ld12mul                 400eed50 f i LIBCMTD:_strgtold_.obj
 0002:00088250       ___addl                    400ef250 f i LIBCMTD:_strgtold_.obj
 0002:000882a0       ___shl_12                  400ef2a0 f i LIBCMTD:_strgtold_.obj
 0002:00088320       ___shr_12                  400ef320 f i LIBCMTD:_strgtold_.obj
 0002:000883a0       ___STRINGTOLD_L            400ef3a0 f   LIBCMTD:_strgtold_.obj
 0002:00088430       __CIacos_pentium4          400ef430 f   LIBCMTD:_acos_pentium4_.obj
 0002:00088448       __acos_pentium4            400ef448     LIBCMTD:_acos_pentium4_.obj
 0002:00088ae0       __flsbuf                   400efae0 f   LIBCMTD:_flsbuf.obj
 0002:00088e50       __output_l                 400efe50 f   LIBCMTD:output.obj
 0002:0008a7d0       _get_int_arg               400f17d0 f i LIBCMTD:output.obj
 0002:0008a800       _get_int64_arg             400f1800 f i LIBCMTD:output.obj
 0002:0008a830       _get_short_arg             400f1830 f i LIBCMTD:output.obj
 0002:0008a860       __validate_param_reuseA    400f1860 f   LIBCMTD:outputp.obj
 0002:0008ab70       __output_p_l               400f1b70 f   LIBCMTD:outputp.obj
 0002:0008f660       _get_crtdouble_arg         400f6660 f i LIBCMTD:outputp.obj
 0002:0008f690       ___crtLCMapStringA         400f6690 f   LIBCMTD:a_map.obj
 0002:0008fa40       __MarkAllocaS              400f6a40 f i LIBCMTD:a_map.obj
 0002:0008fa70       __freea                    400f6a70 f i LIBCMTD:a_map.obj
 0002:0008fb50       __isleadbyte_l             400f6b50 f i LIBCMTD:_wctype.obj
 0002:0008fbb0       _isleadbyte                400f6bb0 f i LIBCMTD:_wctype.obj
 0002:0008fbd0       __iswalpha_l               400f6bd0 f i LIBCMTD:_wctype.obj
 0002:0008fbf0       _iswalpha                  400f6bf0 f i LIBCMTD:_wctype.obj
 0002:0008fc10       __iswupper_l               400f6c10 f i LIBCMTD:_wctype.obj
 0002:0008fc30       _iswupper                  400f6c30 f i LIBCMTD:_wctype.obj
 0002:0008fc50       __iswlower_l               400f6c50 f i LIBCMTD:_wctype.obj
 0002:0008fc70       _iswlower                  400f6c70 f i LIBCMTD:_wctype.obj
 0002:0008fc90       __iswdigit_l               400f6c90 f i LIBCMTD:_wctype.obj
 0002:0008fcb0       _iswdigit                  400f6cb0 f i LIBCMTD:_wctype.obj
 0002:0008fcd0       __iswxdigit_l              400f6cd0 f i LIBCMTD:_wctype.obj
 0002:0008fcf0       _iswxdigit                 400f6cf0 f i LIBCMTD:_wctype.obj
 0002:0008fd10       __iswspace_l               400f6d10 f i LIBCMTD:_wctype.obj
 0002:0008fd30       _iswspace                  400f6d30 f i LIBCMTD:_wctype.obj
 0002:0008fd50       __iswpunct_l               400f6d50 f i LIBCMTD:_wctype.obj
 0002:0008fd70       _iswpunct                  400f6d70 f i LIBCMTD:_wctype.obj
 0002:0008fd90       __iswalnum_l               400f6d90 f i LIBCMTD:_wctype.obj
 0002:0008fdb0       _iswalnum                  400f6db0 f i LIBCMTD:_wctype.obj
 0002:0008fdd0       __iswprint_l               400f6dd0 f i LIBCMTD:_wctype.obj
 0002:0008fdf0       _iswprint                  400f6df0 f i LIBCMTD:_wctype.obj
 0002:0008fe10       __iswgraph_l               400f6e10 f i LIBCMTD:_wctype.obj
 0002:0008fe30       _iswgraph                  400f6e30 f i LIBCMTD:_wctype.obj
 0002:0008fe50       __iswcntrl_l               400f6e50 f i LIBCMTD:_wctype.obj
 0002:0008fe70       _iswcntrl                  400f6e70 f i LIBCMTD:_wctype.obj
 0002:0008fe90       _iswascii                  400f6e90 f i LIBCMTD:_wctype.obj
 0002:0008feb0       __iswcsym_l                400f6eb0 f i LIBCMTD:_wctype.obj
 0002:0008ff00       ___iswcsym                 400f6f00 f i LIBCMTD:_wctype.obj
 0002:0008ff50       __iswcsymf_l               400f6f50 f i LIBCMTD:_wctype.obj
 0002:0008ffa0       ___iswcsymf                400f6fa0 f i LIBCMTD:_wctype.obj
 0002:0008fff0       ____setlc_active_func      400f6ff0 f   LIBCMTD:setlocal.obj
 0002:00090000       ____unguarded_readlc_active_add_func 400f7000 f   LIBCMTD:setlocal.obj
 0002:00090010       __configthreadlocale       400f7010 f   LIBCMTD:setlocal.obj
 0002:00090160       __locterm                  400f7160 f   LIBCMTD:setlocal.obj
 0002:00090220       __free_locale              400f7220 f   LIBCMTD:setlocal.obj
 0002:000903b0       ___free_locale             400f73b0 f   LIBCMTD:setlocal.obj
 0002:000903d0       __create_locale            400f73d0 f   LIBCMTD:setlocal.obj
 0002:00090690       ___create_locale           400f7690 f   LIBCMTD:setlocal.obj
 0002:000906b0       __get_current_locale       400f76b0 f   LIBCMTD:setlocal.obj
 0002:00090810       ___get_current_locale      400f7810 f   LIBCMTD:setlocal.obj
 0002:00090820       _setlocale                 400f7820 f   LIBCMTD:setlocal.obj
 0002:00091a80       __expandlocale             400f8a80 f   LIBCMTD:setlocal.obj
 0002:00091dd0       ___init_dummy              400f8dd0 f   LIBCMTD:setlocal.obj
 0002:00091de0       __strcats                  400f8de0 f   LIBCMTD:setlocal.obj
 0002:00091e80       ___lc_strtolc              400f8e80 f   LIBCMTD:setlocal.obj
 0002:00092100       ___lc_lctostr              400f9100 f   LIBCMTD:setlocal.obj
 0002:000921c0       ?_Type_info_dtor@type_info@@CAXPAV1@@Z 400f91c0 f   LIBCMTD:typname.obj
 0002:00092310       ?_Name_base@type_info@@CAPBDPBV1@PAU__type_info_node@@@Z 400f9310 f   LIBCMTD:typname.obj
 0002:00092520       ?_Type_info_dtor_internal@type_info@@CAXPAV1@@Z 400f9520 f   LIBCMTD:typname.obj
 0002:00092670       ___unDNameHelper           400f9670 f   LIBCMTD:typname.obj
 0002:000926c0       ?_Name_base_internal@type_info@@CAPBDPBV1@PAU__type_info_node@@@Z 400f96c0 f   LIBCMTD:typname.obj
 0002:000928f0       ___clean_type_info_names_internal 400f98f0 f   LIBCMTD:typname.obj
 0002:000929d0       ___InternalCxxFrameHandler 400f99d0 f   LIBCMTD:frame.obj
 0002:00093140       ??0bad_exception@std@@QAE@PBD@Z 400fa140 f i LIBCMTD:frame.obj
 0002:00093170       ??1bad_exception@std@@UAE@XZ 400fa170 f i LIBCMTD:frame.obj
 0002:000931a0       ??_Ebad_exception@std@@UAEPAXI@Z 400fa1a0 f i LIBCMTD:frame.obj
 0002:000931a0       ??_Gbad_exception@std@@UAEPAXI@Z 400fa1a0 f i LIBCMTD:frame.obj
 0002:000931e0       ??0bad_exception@std@@QAE@ABV01@@Z 400fa1e0 f i LIBCMTD:frame.obj
 0002:00093400       ___TypeMatch               400fa400 f   LIBCMTD:frame.obj
 0002:000934e0       ___FrameUnwindFilter       400fa4e0 f   LIBCMTD:frame.obj
 0002:00093580       ___FrameUnwindToState      400fa580 f   LIBCMTD:frame.obj
 0002:00093c10       ___BuildCatchObjectHelper  400fac10 f   LIBCMTD:frame.obj
 0002:00093f20       ___BuildCatchObject        400faf20 f   LIBCMTD:frame.obj
 0002:00094070       ___DestructExceptionObject 400fb070 f   LIBCMTD:frame.obj
 0002:00094150       ___AdjustPointer           400fb150 f   LIBCMTD:frame.obj
 0002:000941b0       ?__uncaught_exception@@YA_NXZ 400fb1b0 f   LIBCMTD:frame.obj
 0002:000941d0       ___CxxExceptionFilter      400fb1d0 f   LIBCMTD:frame.obj
 0002:00094440       ___CxxRegisterExceptionObject 400fb440 f   LIBCMTD:frame.obj
 0002:000945c0       ___CxxDetectRethrow        400fb5c0 f   LIBCMTD:frame.obj
 0002:00094670       ___CxxUnregisterExceptionObject 400fb670 f   LIBCMTD:frame.obj
 0002:00094850       ___CxxQueryExceptionSize   400fb850 f   LIBCMTD:frame.obj
 0002:00094860       ___CxxCallUnwindDtor       400fb860 f   LIBCMTD:frame.obj
 0002:00094900       ___CxxCallUnwindDelDtor    400fb900 f   LIBCMTD:frame.obj
 0002:000949a0       ___CxxCallUnwindStdDelDtor 400fb9a0 f   LIBCMTD:frame.obj
 0002:00094a40       ___CxxCallUnwindVecDtor    400fba40 f   LIBCMTD:frame.obj
 0002:00094d10       ?_is_exception_typeof@@YAHABVtype_info@@PAU_EXCEPTION_POINTERS@@@Z 400fbd10 f   LIBCMTD:frame.obj
 0002:00094e20       __CallSettingFrame@12      400fbe20 f   LIBCMTD:lowhelpr.obj
 0002:00094e47       __NLG_Return               400fbe47     LIBCMTD:lowhelpr.obj
 0002:00094e80       __initp_eh_hooks           400fbe80 f   LIBCMTD:hooks.obj
 0002:00094ea0       ?terminate@@YAXXZ          400fbea0 f   LIBCMTD:hooks.obj
 0002:00094f40       ?unexpected@@YAXXZ         400fbf40 f   LIBCMTD:hooks.obj
 0002:00094f70       ?_inconsistency@@YAXXZ     400fbf70 f   LIBCMTD:hooks.obj
 0002:00095020       __except_handler4          400fc020 f   LIBCMTD:chandler4.obj
 0002:000952d0       __CrtDefaultAllocHook      400fc2d0 f   LIBCMTD:dbghook.obj
 0002:000952e0       __crt_debugger_hook        400fc2e0 f   LIBCMTD:dbghook.obj
 0002:00095300       __mtinitlocks              400fc300 f   LIBCMTD:mlock.obj
 0002:000953b0       __mtdeletelocks            400fc3b0 f   LIBCMTD:mlock.obj
 0002:000954a0       __mtinitlocknum            400fc4a0 f   LIBCMTD:mlock.obj
 0002:00095640       __lock                     400fc640 f   LIBCMTD:mlock.obj
 0002:00095690       __unlock                   400fc690 f   LIBCMTD:mlock.obj
 0002:000956b0       __lockerr_exit             400fc6b0 f   LIBCMTD:mlock.obj
 0002:000956e0       __malloc_dbg               400fc6e0 f   LIBCMTD:dbgheap.obj
 0002:00095720       __nh_malloc                400fc720 f   LIBCMTD:dbgheap.obj
 0002:00095750       __nh_malloc_dbg            400fc750 f   LIBCMTD:dbgheap.obj
 0002:00095850       __heap_alloc               400fc850 f   LIBCMTD:dbgheap.obj
 0002:00095d20       __heap_alloc_dbg           400fcd20 f   LIBCMTD:dbgheap.obj
 0002:00095d90       __calloc_dbg_impl          400fcd90 f   LIBCMTD:dbgheap.obj
 0002:00095e30       __calloc_dbg               400fce30 f   LIBCMTD:dbgheap.obj
 0002:00095ea0       __recalloc                 400fcea0 f   LIBCMTD:dbgheap.obj
 0002:00095ee0       __realloc_dbg              400fcee0 f   LIBCMTD:dbgheap.obj
 0002:00096720       __recalloc_dbg             400fd720 f   LIBCMTD:dbgheap.obj
 0002:00096800       __expand                   400fd800 f   LIBCMTD:dbgheap.obj
 0002:00096830       __expand_dbg               400fd830 f   LIBCMTD:dbgheap.obj
 0002:00096980       __free_nolock              400fd980 f   LIBCMTD:dbgheap.obj
 0002:000969a0       __free_dbg                 400fd9a0 f   LIBCMTD:dbgheap.obj
 0002:00096a40       __free_dbg_nolock          400fda40 f   LIBCMTD:dbgheap.obj
 0002:00097060       __msize                    400fe060 f   LIBCMTD:dbgheap.obj
 0002:00097080       __msize_dbg                400fe080 f   LIBCMTD:dbgheap.obj
 0002:000972e0       __CrtSetBreakAlloc         400fe2e0 f   LIBCMTD:dbgheap.obj
 0002:00097310       __CrtSetDbgBlockType       400fe310 f   LIBCMTD:dbgheap.obj
 0002:00097430       __CrtSetAllocHook          400fe430 f   LIBCMTD:dbgheap.obj
 0002:00097460       __CrtGetAllocHook          400fe460 f   LIBCMTD:dbgheap.obj
 0002:000974c0       __CrtCheckMemory           400fe4c0 f   LIBCMTD:dbgheap.obj
 0002:00097a30       __CrtSetDbgFlag            400fea30 f   LIBCMTD:dbgheap.obj
 0002:00097bd0       __CrtDoForAllClientObjects 400febd0 f   LIBCMTD:dbgheap.obj
 0002:00097d40       __CrtIsValidPointer        400fed40 f   LIBCMTD:dbgheap.obj
 0002:00097d60       __CrtIsValidHeapPointer    400fed60 f   LIBCMTD:dbgheap.obj
 0002:00097dc0       __CrtIsMemoryBlock         400fedc0 f   LIBCMTD:dbgheap.obj
 0002:00097f90       __CrtReportBlockType       400fef90 f   LIBCMTD:dbgheap.obj
 0002:00097fd0       __CrtSetDumpClient         400fefd0 f   LIBCMTD:dbgheap.obj
 0002:00098000       __CrtGetDumpClient         400ff000 f   LIBCMTD:dbgheap.obj
 0002:00098010       __CrtMemCheckpoint         400ff010 f   LIBCMTD:dbgheap.obj
 0002:000982b0       __CrtMemDifference         400ff2b0 f   LIBCMTD:dbgheap.obj
 0002:00098550       __CrtMemDumpAllObjectsSince 400ff550 f   LIBCMTD:dbgheap.obj
 0002:00098b80       __CrtDumpMemoryLeaks       400ffb80 f   LIBCMTD:dbgheap.obj
 0002:00098c20       __CrtMemDumpStatistics     400ffc20 f   LIBCMTD:dbgheap.obj
 0002:00098d70       __aligned_malloc           400ffd70 f   LIBCMTD:dbgheap.obj
 0002:00098da0       __aligned_malloc_dbg       400ffda0 f   LIBCMTD:dbgheap.obj
 0002:00098dd0       __aligned_realloc          400ffdd0 f   LIBCMTD:dbgheap.obj
 0002:00098e00       __aligned_recalloc         400ffe00 f   LIBCMTD:dbgheap.obj
 0002:00098e30       __aligned_realloc_dbg      400ffe30 f   LIBCMTD:dbgheap.obj
 0002:00098e60       __aligned_recalloc_dbg     400ffe60 f   LIBCMTD:dbgheap.obj
 0002:00098ea0       __aligned_offset_malloc    400ffea0 f   LIBCMTD:dbgheap.obj
 0002:00098ed0       __aligned_offset_malloc_dbg 400ffed0 f   LIBCMTD:dbgheap.obj
 0002:00099100       __aligned_offset_realloc   40100100 f   LIBCMTD:dbgheap.obj
 0002:00099130       __aligned_offset_recalloc  40100130 f   LIBCMTD:dbgheap.obj
 0002:00099160       __aligned_offset_realloc_dbg 40100160 f   LIBCMTD:dbgheap.obj
 0002:00099510       __aligned_offset_recalloc_dbg 40100510 f   LIBCMTD:dbgheap.obj
 0002:00099600       __aligned_free             40100600 f   LIBCMTD:dbgheap.obj
 0002:00099620       __aligned_free_dbg         40100620 f   LIBCMTD:dbgheap.obj
 0002:00099700       __CrtSetDebugFillThreshold 40100700 f   LIBCMTD:dbgheap.obj
 0002:00099730       __CrtSetCheckCount         40100730 f   LIBCMTD:dbgheap.obj
 0002:00099750       __CrtGetCheckCount         40100750 f   LIBCMTD:dbgheap.obj
 0002:00099760       __aligned_msize            40100760 f   LIBCMTD:dbgheap.obj
 0002:00099790       __aligned_msize_dbg        40100790 f   LIBCMTD:dbgheap.obj
 0002:000998e0       __CrtDbgBreak              401008e0 f   LIBCMTD:dbgrptt.obj
 0002:000998f0       __CrtSetReportMode         401008f0 f   LIBCMTD:dbgrptt.obj
 0002:00099a80       __CrtSetReportFile         40100a80 f   LIBCMTD:dbgrptt.obj
 0002:00099bb0       __CrtSetReportHook         40100bb0 f   LIBCMTD:dbgrptt.obj
 0002:00099be0       __CrtGetReportHook         40100be0 f   LIBCMTD:dbgrptt.obj
 0002:00099bf0       __VCrtDbgReportA           40100bf0 f   LIBCMTD:dbgrptt.obj
 0002:0009a620       __VCrtDbgReportW           40101620 f   LIBCMTD:dbgrptt.obj
 0002:0009b1a0       __swprintf                 401021a0 f   LIBCMTD:swprintf.obj
 0002:0009b420       ___swprintf_l              40102420 f   LIBCMTD:swprintf.obj
 0002:0009b460       _swprintf_s                40102460 f   LIBCMTD:swprintf.obj
 0002:0009b4a0       __snwprintf_s              401024a0 f   LIBCMTD:swprintf.obj
 0002:0009b4e0       __swprintf_p               401024e0 f   LIBCMTD:swprintf.obj
 0002:0009b520       __swprintf_s_l             40102520 f   LIBCMTD:swprintf.obj
 0002:0009b560       __snwprintf_s_l            40102560 f   LIBCMTD:swprintf.obj
 0002:0009b5a0       __swprintf_p_l             401025a0 f   LIBCMTD:swprintf.obj
 0002:0009b5e0       __scwprintf                401025e0 f   LIBCMTD:swprintf.obj
 0002:0009b610       __scwprintf_p              40102610 f   LIBCMTD:swprintf.obj
 0002:0009b640       __scwprintf_l              40102640 f   LIBCMTD:swprintf.obj
 0002:0009b670       __scwprintf_p_l            40102670 f   LIBCMTD:swprintf.obj
 0002:0009b6a0       _memcpy_s                  401026a0 f   LIBCMTD:memcpy_s.obj
 0002:0009b890       __initp_heap_handler       40102890 f   LIBCMTD:handler.obj
 0002:0009b8b0       ?_set_new_handler@@YAP6AHI@ZP6AHI@Z@Z 401028b0 f   LIBCMTD:handler.obj
 0002:0009b900       ?_set_new_handler@@YAP6AHI@ZH@Z 40102900 f   LIBCMTD:handler.obj
 0002:0009b950       ?_query_new_handler@@YAP6AHI@ZXZ 40102950 f   LIBCMTD:handler.obj
 0002:0009b970       __callnewh                 40102970 f   LIBCMTD:handler.obj
 0002:0009b9c0       _malloc                    401029c0 f   LIBCMTD:dbgmalloc.obj
 0002:0009ba00       _strcpy_s                  40102a00 f   LIBCMTD:strcpy_s.obj
 0002:0009bd90       __input_l                  40102d90 f   LIBCMTD:input.obj
 0002:0009dc20       __INTRN_LOCALE_CONV        40104c20 f i LIBCMTD:input.obj
 0002:0009dd90       __input_s_l                40104d90 f   LIBCMTD:inputs.obj
 0002:000a0200       ___libm_setusermatherr     40107200 f   LIBCMTD:_libm_error_.obj
 0002:000a0240       ___libm_error_support      40107240 f   LIBCMTD:_libm_error_.obj
 0002:000a1040       __ceil_default             40108040 f   LIBCMTD:_ceil_.obj
 0002:000a11d0       __floor_default            401081d0 f   LIBCMTD:_floor_.obj
 0002:000a1360       __vsnprintf_helper         40108360 f   LIBCMTD:vsnprnc.obj
 0002:000a15c0       __vsnprintf_c              401085c0 f   LIBCMTD:vsnprnc.obj
 0002:000a1620       __vsnprintf_c_l            40108620 f   LIBCMTD:vsnprnc.obj
 0002:000a1680       __vsprintf_s_l             40108680 f   LIBCMTD:vsnprnc.obj
 0002:000a1980       _vsprintf_s                40108980 f   LIBCMTD:vsnprnc.obj
 0002:000a19b0       __vsnprintf_s_l            401089b0 f   LIBCMTD:vsnprnc.obj
 0002:000a1e30       __vsnprintf_s              40108e30 f   LIBCMTD:vsnprnc.obj
 0002:000a1e60       __vsprintf_p               40108e60 f   LIBCMTD:vsnprnc.obj
 0002:000a1ec0       __vsprintf_p_l             40108ec0 f   LIBCMTD:vsnprnc.obj
 0002:000a1f20       ?_RTC_GetSrcLine@@YAHPAEPA_WKPAH1K@Z 40108f20 f   LIBCMTD:_pdblkup_.obj
 0002:000a2500       __CItan_pentium4           40109500 f   LIBCMTD:_tan_pentium4_.obj
 0002:000a2518       __tan_pentium4             40109518     LIBCMTD:_tan_pentium4_.obj
 0002:000a2800       __ioinit                   40109800 f   LIBCMTD:ioinit.obj
 0002:000a2d20       __ioterm                   40109d20 f   LIBCMTD:ioinit.obj
 0002:000a2df0       __setenvp                  40109df0 f   LIBCMTD:stdenvp.obj
 0002:000a3000       __setargv                  4010a000 f   LIBCMTD:stdargv.obj
 0002:000a3160       __set_pgmptr               4010a160 f i LIBCMTD:stdargv.obj
 0002:000a35c0       ___crtGetEnvironmentStringsA 4010a5c0 f   LIBCMTD:a_env.obj
 0002:000a3700       __RTC_Initialize           4010a700 f   LIBCMTD:_initsect_.obj
 0002:000a3730       __RTC_Terminate            4010a730 f   LIBCMTD:_initsect_.obj
 0002:000a3760       __heap_init                4010a760 f   LIBCMTD:heapinit.obj
 0002:000a37b0       __heap_term                4010a7b0 f   LIBCMTD:heapinit.obj
 0002:000a37e0       __get_heap_handle          4010a7e0 f   LIBCMTD:heapinit.obj
 0002:000a3820       ___security_init_cookie    4010a820 f   LIBCMTD:gs_support.obj
 0002:000a3940       ___CppXcptFilter           4010a940 f   LIBCMTD:winxfltr.obj
 0002:000a3970       __XcptFilter               4010a970 f   LIBCMTD:winxfltr.obj
 0002:000a3c60       _DllMain@12                4010ac60 f   LIBCMTD:dllmain.obj
 0002:000a3c80       __CrtSetReportHook2        4010ac80 f   LIBCMTD:dbgrpt.obj
 0002:000a4070       __CrtDbgReport             4010b070 f   LIBCMTD:dbgrpt.obj
 0002:000a40c0       __CrtDbgReportV            4010b0c0 f i LIBCMTD:dbgrpt.obj
 0002:000a40f0       ___crtMessageWindowA       4010b0f0 f   LIBCMTD:dbgrpt.obj
 0002:000a45f0       __allmul                   4010b5f0 f   LIBCMTD:llmul.obj
 0002:000a4640       __aullrem                  4010b640 f   LIBCMTD:ullrem.obj
 0002:000a46e0       __aulldiv                  4010b6e0 f   LIBCMTD:ulldiv.obj
 0002:000a4770       __controlfp_s              4010b770 f   LIBCMTD:_contrlfp_.obj
 0002:000a4890       __isalpha_l                4010b890 f i LIBCMTD:_ctype.obj
 0002:000a4940       _isalpha                   4010b940 f i LIBCMTD:_ctype.obj
 0002:000a4980       __isupper_l                4010b980 f i LIBCMTD:_ctype.obj
 0002:000a4a20       _isupper                   4010ba20 f i LIBCMTD:_ctype.obj
 0002:000a4a60       __islower_l                4010ba60 f i LIBCMTD:_ctype.obj
 0002:000a4b00       _islower                   4010bb00 f i LIBCMTD:_ctype.obj
 0002:000a4b40       __isdigit_l                4010bb40 f i LIBCMTD:_ctype.obj
 0002:000a4be0       _isdigit                   4010bbe0 f i LIBCMTD:_ctype.obj
 0002:000a4c20       __isxdigit_l               4010bc20 f i LIBCMTD:_ctype.obj
 0002:000a4cd0       _isxdigit                  4010bcd0 f i LIBCMTD:_ctype.obj
 0002:000a4d10       __isspace_l                4010bd10 f i LIBCMTD:_ctype.obj
 0002:000a4db0       _isspace                   4010bdb0 f i LIBCMTD:_ctype.obj
 0002:000a4df0       __ispunct_l                4010bdf0 f i LIBCMTD:_ctype.obj
 0002:000a4e90       _ispunct                   4010be90 f i LIBCMTD:_ctype.obj
 0002:000a4ed0       __isalnum_l                4010bed0 f i LIBCMTD:_ctype.obj
 0002:000a4f80       _isalnum                   4010bf80 f i LIBCMTD:_ctype.obj
 0002:000a4fc0       __isprint_l                4010bfc0 f i LIBCMTD:_ctype.obj
 0002:000a5070       _isprint                   4010c070 f i LIBCMTD:_ctype.obj
 0002:000a50b0       __isgraph_l                4010c0b0 f i LIBCMTD:_ctype.obj
 0002:000a5160       _isgraph                   4010c160 f i LIBCMTD:_ctype.obj
 0002:000a51a0       __iscntrl_l                4010c1a0 f i LIBCMTD:_ctype.obj
 0002:000a5240       _iscntrl                   4010c240 f i LIBCMTD:_ctype.obj
 0002:000a5280       ___isascii                 4010c280 f i LIBCMTD:_ctype.obj
 0002:000a52a0       ___toascii                 4010c2a0 f i LIBCMTD:_ctype.obj
 0002:000a52b0       __iscsymf_l                4010c2b0 f i LIBCMTD:_ctype.obj
 0002:000a5300       ___iscsymf                 4010c300 f i LIBCMTD:_ctype.obj
 0002:000a5340       __iscsym_l                 4010c340 f i LIBCMTD:_ctype.obj
 0002:000a5390       ___iscsym                  4010c390 f i LIBCMTD:_ctype.obj
 0002:000a53e0       __atodbl_l                 4010c3e0 f   LIBCMTD:atodbl.obj
 0002:000a5530       __atodbl                   4010c530 f   LIBCMTD:atodbl.obj
 0002:000a5550       __atoldbl_l                4010c550 f   LIBCMTD:atodbl.obj
 0002:000a56a0       __atoldbl                  4010c6a0 f   LIBCMTD:atodbl.obj
 0002:000a56c0       __atoflt_l                 4010c6c0 f   LIBCMTD:atodbl.obj
 0002:000a5810       __atoflt                   4010c810 f   LIBCMTD:atodbl.obj
 0002:000a5830       __fptostr                  4010c830 f   LIBCMTD:_fptostr.obj
 0002:000a5b80       __fltout2                  4010cb80 f   LIBCMTD:_cfout_.obj
 0002:000a5c60       ___dtold                   4010cc60 f   LIBCMTD:_cfout_.obj
 0002:000a5e10       __set_output_format        4010ce10 f   LIBCMTD:outputformat.obj
 0002:000a5eb0       __get_output_format        4010ceb0 f   LIBCMTD:outputformat.obj
 0002:000a5ec0       __allrem                   4010cec0 f   LIBCMTD:llrem.obj
 0002:000a5fa0       __alldiv                   4010cfa0 f   LIBCMTD:lldiv.obj
 0002:000a6080       __allshl                   4010d080 f   LIBCMTD:llshl.obj
 0002:000a60b0       __aullshr                  4010d0b0 f   LIBCMTD:ullshr.obj
 0002:000a60e0       __fptrap                   4010d0e0 f   LIBCMTD:crt0fp.obj
 0002:000a6100       __87except                 4010d100 f   LIBCMTD:_87except_.obj
 0002:000a6320       __matherr                  4010d320 f   LIBCMTD:_matherr_.obj
 0002:000a6330       __ValidateImageBase        4010d330 f   LIBCMTD:pesect.obj
 0002:000a63b0       __FindPESection            4010d3b0 f   LIBCMTD:pesect.obj
 0002:000a6450       __IsNonwritableInCurrentImage 4010d450 f   LIBCMTD:pesect.obj
 0002:000a65b0       __FF_MSGBANNER             4010d5b0 f   LIBCMTD:crt0msg.obj
 0002:000a6610       __GET_RTERRMSG             4010d610 f   LIBCMTD:crt0msg.obj
 0002:000a6670       __NMSG_WRITE               4010d670 f   LIBCMTD:crt0msg.obj
 0002:000a6a70       __initp_misc_rand_s        4010da70 f   LIBCMTD:rand_s.obj
 0002:000a6a90       _rand_s                    4010da90 f   LIBCMTD:rand_s.obj
 0002:000a6d30       ___getlocaleinfo           4010dd30 f   LIBCMTD:inithelp.obj
 0002:000a70c0       __initp_misc_purevirt      4010e0c0 f   LIBCMTD:inithelp.obj
 0002:000a70e0       __commit                   4010e0e0 f   LIBCMTD:commit.obj
 0002:000a7380       __fileno                   4010e380 f   LIBCMTD:fileno.obj
 0002:000a7410       __write                    4010e410 f   LIBCMTD:write.obj
 0002:000a76c0       __write_nolock             4010e6c0 f   LIBCMTD:write.obj
 0002:000a84d0       __stbuf                    4010f4d0 f   LIBCMTD:_sftbuf.obj
 0002:000a8680       __ftbuf                    4010f680 f   LIBCMTD:_sftbuf.obj
 0002:000a8730       __woutput_l                4010f730 f   LIBCMTD:woutput.obj
 0002:000a9db0       _vfwprintf_helper          40110db0 f   LIBCMTD:vfwprint.obj
 0002:000a9f90       __vfwprintf_l              40110f90 f   LIBCMTD:vfwprint.obj
 0002:000a9fc0       __vfwprintf_s_l            40110fc0 f   LIBCMTD:vfwprint.obj
 0002:000a9ff0       __vfwprintf_p_l            40110ff0 f   LIBCMTD:vfwprint.obj
 0002:000aa020       _vfwprintf                 40111020 f   LIBCMTD:vfwprint.obj
 0002:000aa050       _vfwprintf_s               40111050 f   LIBCMTD:vfwprint.obj
 0002:000aa080       __vfwprintf_p              40111080 f   LIBCMTD:vfwprint.obj
 0002:000aa0b0       __freebuf                  401110b0 f   LIBCMTD:_freebuf.obj
 0002:000aa160       __fcloseall                40111160 f   LIBCMTD:closeall.obj
 0002:000aa2e0       __woutput_s_l              401112e0 f   LIBCMTD:woutputs.obj
 0002:000abb10       __validate_param_reuseW    40112b10 f   LIBCMTD:woutputp.obj
 0002:000abe20       __woutput_p_l              40112e20 f   LIBCMTD:woutputp.obj
 0002:000b0390       __ld12tod                  40117390 f   LIBCMTD:_intrncvt_.obj
 0002:000b03c0       __ld12cvt                  401173c0 f i LIBCMTD:_intrncvt_.obj
 0002:000b06c0       __RoundMan                 401176c0 f i LIBCMTD:_intrncvt_.obj
 0002:000b07d0       __ZeroTail                 401177d0 f i LIBCMTD:_intrncvt_.obj
 0002:000b0880       __IncMan                   40117880 f i LIBCMTD:_intrncvt_.obj
 0002:000b0960       __CopyMan                  40117960 f i LIBCMTD:_intrncvt_.obj
 0002:000b09d0       __FillZeroMan              401179d0 f i LIBCMTD:_intrncvt_.obj
 0002:000b0a10       __IsZeroMan                40117a10 f i LIBCMTD:_intrncvt_.obj
 0002:000b0a60       __ShrMan                   40117a60 f i LIBCMTD:_intrncvt_.obj
 0002:000b0b90       __ld12tof                  40117b90 f   LIBCMTD:_intrncvt_.obj
 0002:000b0bc0       __ld12told                 40117bc0 f   LIBCMTD:_intrncvt_.obj
 0002:000b0cc0       ___crtGetStringTypeA       40117cc0 f   LIBCMTD:a_str.obj
 0002:000b0e80       ___init_time               40117e80 f   LIBCMTD:inittime.obj
 0002:000b1ef0       ___free_lc_time            40118ef0 f   LIBCMTD:inittime.obj
 0002:000b2700       ___init_numeric            40119700 f   LIBCMTD:initnum.obj
 0002:000b2ba0       ___free_lconv_num          40119ba0 f   LIBCMTD:initnum.obj
 0002:000b2c80       ___init_monetary           40119c80 f   LIBCMTD:initmon.obj
 0002:000b33e0       ___free_lconv_mon          4011a3e0 f   LIBCMTD:initmon.obj
 0002:000b35f0       _localeconv                4011a5f0 f   LIBCMTD:lconv.obj
 0002:000b3650       ___pwctype_func            4011a650 f   LIBCMTD:ctype.obj
 0002:000b3660       ___pctype_func             4011a660 f   LIBCMTD:ctype.obj
 0002:000b36c0       ___mtold12                 4011a6c0 f   LIBCMTD:_mantold_.obj
 0002:000b3870       ___add_12                  4011a870 f i LIBCMTD:_mantold_.obj
 0002:000b3950       __lseeki64                 4011a950 f   LIBCMTD:lseeki64.obj
 0002:000b3c30       __lseeki64_nolock          4011ac30 f   LIBCMTD:lseeki64.obj
 0002:000b3d60       __getbuf                   4011ad60 f   LIBCMTD:_getbuf.obj
 0002:000b3e60       __isatty                   4011ae60 f   LIBCMTD:isatty.obj
 0002:000b3f50       _printf                    4011af50 f   LIBCMTD:printf.obj
 0002:000b40e0       __printf_l                 4011b0e0 f   LIBCMTD:printf.obj
 0002:000b4110       __printf_s_l               4011b110 f   LIBCMTD:printf.obj
 0002:000b4140       _printf_s                  4011b140 f   LIBCMTD:printf.obj
 0002:000b4170       __printf_p_l               4011b170 f   LIBCMTD:printf.obj
 0002:000b41a0       __printf_p                 4011b1a0 f   LIBCMTD:printf.obj
 0002:000b41d0       __set_printf_count_output  4011b1d0 f   LIBCMTD:printf.obj
 0002:000b4230       __get_printf_count_output  4011b230 f   LIBCMTD:printf.obj
 0002:000b4260       __wctomb_s_l               4011b260 f   LIBCMTD:wctomb.obj
 0002:000b4620       _wctomb_s                  4011b620 f   LIBCMTD:wctomb.obj
 0002:000b4650       __wctomb_l                 4011b650 f   LIBCMTD:wctomb.obj
 0002:000b46f0       _wctomb                    4011b6f0 f   LIBCMTD:wctomb.obj
 0002:000b4750       __output_s_l               4011b750 f   LIBCMTD:outputs.obj
 0002:000b6280       __iswctype_l               4011d280 f   LIBCMTD:iswctype.obj
 0002:000b62a0       _iswctype                  4011d2a0 f   LIBCMTD:iswctype.obj
 0002:000b6320       _is_wctype                 4011d320 f   LIBCMTD:iswctype.obj
 0002:000b6340       ___init_ctype              4011d340 f   LIBCMTD:initctyp.obj
 0002:000b6a60       ____mb_cur_max_func        4011da60 f   LIBCMTD:initctyp.obj
 0002:000b6ac0       ____mb_cur_max_l_func      4011dac0 f   LIBCMTD:initctyp.obj
 0002:000b6b00       ____lc_codepage_func       4011db00 f   LIBCMTD:initctyp.obj
 0002:000b6b60       ____lc_collate_cp_func     4011db60 f   LIBCMTD:initctyp.obj
 0002:000b6bc0       ____lc_handle_func         4011dbc0 f   LIBCMTD:initctyp.obj
 0002:000b6c20       ___init_collate            4011dc20 f   LIBCMTD:initcoll.obj
 0002:000b6c30       _strncpy_s                 4011dc30 f   LIBCMTD:strncpy_s.obj
 0002:000b7120       _strcspn                   4011e120 f   LIBCMTD:strcspn.obj
 0002:000b7180       _strncmp                   4011e180 f   LIBCMTD:strncmp.obj
 0002:000b7350       _strpbrk                   4011e350 f   LIBCMTD:strpbrk.obj
 0002:000b73a0       _memcmp                    4011e3a0 f   LIBCMTD:memcmp.obj
 0002:000b80c0       _strcat_s                  4011f0c0 f   LIBCMTD:strcat_s.obj
 0002:000b8590       ___get_qualified_locale    4011f590 f   LIBCMTD:getqloc.obj
 0002:000b9760       ___unDName                 40120760 f   LIBCMTD:undname.obj
 0002:000b9870       ?Constructor@_HeapManager@@QAEXP6APAXI@ZP6AXPAX@Z@Z 40120870 f i LIBCMTD:undname.obj
 0002:000b98c0       ?Destructor@_HeapManager@@QAEXXZ 401208c0 f i LIBCMTD:undname.obj
 0002:000b9920       ___unDNameEx               40120920 f   LIBCMTD:undname.obj
 0002:000b9a30       ??0UnDecorator@@QAE@PADPBDHP6APADJ@ZK@Z 40120a30 f i LIBCMTD:undname.obj
 0002:000b9af0       ??BUnDecorator@@QAEPADXZ   40120af0 f i LIBCMTD:undname.obj
 0002:000b9db0       ?dbGetString@DName@@QBEPADXZ 40120db0 f   LIBCMTD:undname.obj
 0002:000b9de0       ?getDecoratedName@UnDecorator@@CA?AVDName@@XZ 40120de0 f   LIBCMTD:undname.obj
 0002:000ba1c0       ?getSymbolName@UnDecorator@@CA?AVDName@@XZ 401211c0 f i LIBCMTD:undname.obj
 0002:000ba250       ?getZName@UnDecorator@@CA?AVDName@@_N0@Z 40121250 f   LIBCMTD:undname.obj
 0002:000ba5a0       ?getOperatorName@UnDecorator@@CA?AVDName@@_NPA_N@Z 401215a0 f i LIBCMTD:undname.obj
 0002:000bb160       ?getStringEncoding@UnDecorator@@CA?AVDName@@PADH@Z 40122160 f   LIBCMTD:undname.obj
 0002:000bb2a0       ?getScope@UnDecorator@@CA?AVDName@@XZ 401222a0 f   LIBCMTD:undname.obj
 0002:000bb770       ?getSignedDimension@UnDecorator@@CA?AVDName@@XZ 40122770 f   LIBCMTD:undname.obj
 0002:000bb810       ?getDimension@UnDecorator@@CA?AVDName@@_N@Z 40122810 f   LIBCMTD:undname.obj
 0002:000bbb70       ?getNumberOfDimensions@UnDecorator@@CAHXZ 40122b70 f   LIBCMTD:undname.obj
 0002:000bbcb0       ?getTemplateName@UnDecorator@@CA?AVDName@@_N@Z 40122cb0 f   LIBCMTD:undname.obj
 0002:000bbee0       ?getTemplateArgumentList@UnDecorator@@CA?AVDName@@XZ 40122ee0 f   LIBCMTD:undname.obj
 0002:000bc200       ?getTemplateConstant@UnDecorator@@CA?AVDName@@XZ 40123200 f   LIBCMTD:undname.obj
 0002:000bc7b0       ?composeDeclaration@UnDecorator@@CA?AVDName@@ABV2@@Z 401237b0 f i LIBCMTD:undname.obj
 0002:000be320       ?getTypeEncoding@UnDecorator@@CAHXZ 40125320 f i LIBCMTD:undname.obj
 0002:000beff0       ?getBasedType@UnDecorator@@CA?AVDName@@XZ 40125ff0 f   LIBCMTD:undname.obj
 0002:000bf0e0       ?getScopedName@UnDecorator@@CA?AVDName@@XZ 401260e0 f   LIBCMTD:undname.obj
 0002:000bf240       ?getCallingConvention@UnDecorator@@CA?AVDName@@XZ 40126240 f   LIBCMTD:undname.obj
 0002:000bf410       ?getReturnType@UnDecorator@@CA?AVDName@@PAV2@@Z 40126410 f   LIBCMTD:undname.obj
 0002:000bf470       ?getDataType@UnDecorator@@CA?AVDName@@PAV2@@Z 40126470 f   LIBCMTD:undname.obj
 0002:000bf5d0       ?getPrimaryDataType@UnDecorator@@CA?AVDName@@ABV2@@Z 401265d0 f   LIBCMTD:undname.obj
 0002:000bfa50       ?getArgumentTypes@UnDecorator@@CA?AVDName@@XZ 40126a50 f   LIBCMTD:undname.obj
 0002:000bfc00       ?getArgumentList@UnDecorator@@CA?AVDName@@XZ 40126c00 f   LIBCMTD:undname.obj
 0002:000bfda0       ?getThrowTypes@UnDecorator@@CA?AVDName@@XZ 40126da0 f   LIBCMTD:undname.obj
 0002:000bfe80       ?getBasicDataType@UnDecorator@@CA?AVDName@@ABV2@@Z 40126e80 f   LIBCMTD:undname.obj
 0002:000c05b0       ?getECSUDataType@UnDecorator@@CA?AVDName@@XZ 401275b0 f   LIBCMTD:undname.obj
 0002:000c0800       ?getECSUName@UnDecorator@@CA?AVDName@@XZ 40127800 f i LIBCMTD:undname.obj
 0002:000c0820       ?getEnumType@UnDecorator@@CA?AVDName@@XZ 40127820 f i LIBCMTD:undname.obj
 0002:000c09c0       ?getFunctionIndirectType@UnDecorator@@CA?AVDName@@ABV2@@Z 401279c0 f   LIBCMTD:undname.obj
 0002:000c0f10       ?getPtrRefType@UnDecorator@@CA?AVDName@@ABV2@0PBD@Z 40127f10 f   LIBCMTD:undname.obj
 0002:000c10d0       ?getExtendedDataIndirectType@UnDecorator@@CA?AVDName@@AAPBDAA_NH@Z 401280d0 f   LIBCMTD:undname.obj
 0002:000c1380       ?getDataIndirectType@UnDecorator@@CA?AVDName@@ABV2@PBD0H@Z 40128380 f   LIBCMTD:undname.obj
 0002:000c1c40       ?getPtrRefDataType@UnDecorator@@CA?AVDName@@ABV2@H@Z 40128c40 f i LIBCMTD:undname.obj
 0002:000c1dd0       ?getArrayType@UnDecorator@@CA?AVDName@@ABV2@@Z 40128dd0 f i LIBCMTD:undname.obj
 0002:000c2090       ?getLexicalFrame@UnDecorator@@CA?AVDName@@XZ 40129090 f i LIBCMTD:undname.obj
 0002:000c20e0       ?getThisType@UnDecorator@@CA?AVDName@@XZ 401290e0 f i LIBCMTD:undname.obj
 0002:000c2130       ?getPointerType@UnDecorator@@CA?AVDName@@ABV2@0@Z 40129130 f i LIBCMTD:undname.obj
 0002:000c2170       ?getPointerTypeArray@UnDecorator@@CA?AVDName@@ABV2@0@Z 40129170 f i LIBCMTD:undname.obj
 0002:000c21b0       ?getReferenceType@UnDecorator@@CA?AVDName@@ABV2@0PBD@Z 401291b0 f i LIBCMTD:undname.obj
 0002:000c21e0       ?getDisplacement@UnDecorator@@CA?AVDName@@XZ 401291e0 f i LIBCMTD:undname.obj
 0002:000c2200       ?getCallIndex@UnDecorator@@CA?AVDName@@XZ 40129200 f i LIBCMTD:undname.obj
 0002:000c2220       ?getGuardNumber@UnDecorator@@CA?AVDName@@XZ 40129220 f i LIBCMTD:undname.obj
 0002:000c2240       ?getVbTableType@UnDecorator@@CA?AVDName@@ABV2@@Z 40129240 f i LIBCMTD:undname.obj
 0002:000c2260       ?getVCallThunkType@UnDecorator@@CA?AVDName@@XZ 40129260 f i LIBCMTD:undname.obj
 0002:000c22e0       ?getVfTableType@UnDecorator@@CA?AVDName@@ABV2@@Z 401292e0 f i LIBCMTD:undname.obj
 0002:000c2510       ?getStorageConvention@UnDecorator@@CA?AVDName@@XZ 40129510 f i LIBCMTD:undname.obj
 0002:000c2530       ?getDataIndirectType@UnDecorator@@CA?AVDName@@XZ 40129530 f i LIBCMTD:undname.obj
 0002:000c2580       ?getVdispMapType@UnDecorator@@CA?AVDName@@ABV2@@Z 40129580 f i LIBCMTD:undname.obj
 0002:000c2610       ?getExternalDataType@UnDecorator@@CA?AVDName@@ABV2@@Z 40129610 f i LIBCMTD:undname.obj
 0002:000c26d0       ?doMSKeywords@UnDecorator@@SAHXZ 401296d0 f i LIBCMTD:undname.obj
 0002:000c26f0       ?doPtr64@UnDecorator@@SAHXZ 401296f0 f i LIBCMTD:undname.obj
 0002:000c2710       ?doFunctionReturns@UnDecorator@@SAHXZ 40129710 f i LIBCMTD:undname.obj
 0002:000c2730       ?doAllocationModel@UnDecorator@@SAHXZ 40129730 f i LIBCMTD:undname.obj
 0002:000c2750       ?doAllocationLanguage@UnDecorator@@SAHXZ 40129750 f i LIBCMTD:undname.obj
 0002:000c2770       ?doThisTypes@UnDecorator@@SAHXZ 40129770 f i LIBCMTD:undname.obj
 0002:000c2790       ?doAccessSpecifiers@UnDecorator@@SAHXZ 40129790 f i LIBCMTD:undname.obj
 0002:000c27b0       ?doThrowTypes@UnDecorator@@SAHXZ 401297b0 f i LIBCMTD:undname.obj
 0002:000c27d0       ?doMemberTypes@UnDecorator@@SAHXZ 401297d0 f i LIBCMTD:undname.obj
 0002:000c27f0       ?doNameOnly@UnDecorator@@SAHXZ 401297f0 f i LIBCMTD:undname.obj
 0002:000c2810       ?doTypeOnly@UnDecorator@@SAHXZ 40129810 f i LIBCMTD:undname.obj
 0002:000c2830       ?haveTemplateParameters@UnDecorator@@SAHXZ 40129830 f i LIBCMTD:undname.obj
 0002:000c2850       ?doEcsu@UnDecorator@@SAHXZ 40129850 f i LIBCMTD:undname.obj
 0002:000c2870       ?doEllipsis@UnDecorator@@SAHXZ 40129870 f i LIBCMTD:undname.obj
 0002:000c2890       ?UScore@UnDecorator@@SAPBDW4Tokens@@@Z 40129890 f   LIBCMTD:undname.obj
 0002:000c28d0       ?doUnderScore@UnDecorator@@SAHXZ 401298d0 f i LIBCMTD:undname.obj
 0002:000c28f0       ??2@YAPAXIAAV_HeapManager@@H@Z 401298f0 f i LIBCMTD:undname.obj
 0002:000c2910       ?getMemory@_HeapManager@@QAEPAXIH@Z 40129910 f   LIBCMTD:undname.obj
 0002:000c2a60       ??0Block@_HeapManager@@QAE@XZ 40129a60 f i LIBCMTD:undname.obj
 0002:000c2a80       ??H@YA?AVDName@@DABV0@@Z   40129a80 f i LIBCMTD:undname.obj
 0002:000c2ac0       ??H@YA?AVDName@@W4DNameStatus@@ABV0@@Z 40129ac0 f i LIBCMTD:undname.obj
 0002:000c2b00       ??H@YA?AVDName@@PBDABV0@@Z 40129b00 f i LIBCMTD:undname.obj
 0002:000c2b40       ??0DName@@QAE@XZ           40129b40 f i LIBCMTD:undname.obj
 0002:000c2c30       ??0DName@@QAE@D@Z          40129c30 f   LIBCMTD:undname.obj
 0002:000c2d40       ??0DName@@QAE@ABV0@@Z      40129d40 f i LIBCMTD:undname.obj
 0002:000c2d70       ??0DName@@QAE@PAV0@@Z      40129d70 f   LIBCMTD:undname.obj
 0002:000c2ef0       ??0DName@@QAE@PBD@Z        40129ef0 f   LIBCMTD:undname.obj
 0002:000c3020       ??0DName@@QAE@AAPBDD@Z     4012a020 f   LIBCMTD:undname.obj
 0002:000c3390       ?doNoIdentCharCheck@UnDecorator@@SAHXZ 4012a390 f i LIBCMTD:undname.obj
 0002:000c33b0       ??0DName@@QAE@_K@Z         4012a3b0 f   LIBCMTD:undname.obj
 0002:000c3540       ??0DName@@QAE@_J@Z         4012a540 f   LIBCMTD:undname.obj
 0002:000c3720       ??0DName@@QAE@W4DNameStatus@@@Z 4012a720 f   LIBCMTD:undname.obj
 0002:000c3880       ?isValid@DName@@QBEHXZ     4012a880 f i LIBCMTD:undname.obj
 0002:000c38b0       ?isEmpty@DName@@QBEHXZ     4012a8b0 f i LIBCMTD:undname.obj
 0002:000c38d0       ?status@DName@@QBE?AW4DNameStatus@@XZ 4012a8d0 f i LIBCMTD:undname.obj
 0002:000c38f0       ?setPtrRef@DName@@QAEAAV1@XZ 4012a8f0 f i LIBCMTD:undname.obj
 0002:000c3920       ?isPtrRef@DName@@QBEHXZ    4012a920 f i LIBCMTD:undname.obj
 0002:000c3940       ?isUDC@DName@@QBEHXZ       4012a940 f i LIBCMTD:undname.obj
 0002:000c3990       ?setIsUDC@DName@@QAEXXZ    4012a990 f i LIBCMTD:undname.obj
 0002:000c39d0       ?isUDTThunk@DName@@QBEHXZ  4012a9d0 f i LIBCMTD:undname.obj
 0002:000c3a20       ?setIsArray@DName@@QAEXXZ  4012aa20 f i LIBCMTD:undname.obj
 0002:000c3a50       ?isArray@DName@@QBEHXZ     4012aa50 f i LIBCMTD:undname.obj
 0002:000c3a70       ?isNoTE@DName@@QBEHXZ      4012aa70 f i LIBCMTD:undname.obj
 0002:000c3a90       ?setIsNoTE@DName@@QAEXXZ   4012aa90 f i LIBCMTD:undname.obj
 0002:000c3ac0       ?isPinPtr@DName@@QBEHXZ    4012aac0 f i LIBCMTD:undname.obj
 0002:000c3ae0       ?setIsPinPtr@DName@@QAEXXZ 4012aae0 f i LIBCMTD:undname.obj
 0002:000c3b10       ?isComArray@DName@@QBEHXZ  4012ab10 f i LIBCMTD:undname.obj
 0002:000c3b30       ?setIsComArray@DName@@QAEXXZ 4012ab30 f i LIBCMTD:undname.obj
 0002:000c3b60       ?isVCallThunk@DName@@QBEHXZ 4012ab60 f i LIBCMTD:undname.obj
 0002:000c3b80       ?setIsVCallThunk@DName@@QAEXXZ 4012ab80 f i LIBCMTD:undname.obj
 0002:000c3bb0       ?length@DName@@QBEHXZ      4012abb0 f i LIBCMTD:undname.obj
 0002:000c3bf0       ?getLastChar@DName@@QBEDXZ 4012abf0 f i LIBCMTD:undname.obj
 0002:000c3c30       ?getString@DName@@QBEPADPADH@Z 4012ac30 f i LIBCMTD:undname.obj
 0002:000c3ce0       ?getString@DName@@QBEPADPAD0@Z 4012ace0 f i LIBCMTD:undname.obj
 0002:000c3d30       ??HDName@@QBE?AV0@D@Z      4012ad30 f   LIBCMTD:undname.obj
 0002:000c3d80       ??HDName@@QBE?AV0@PBD@Z    4012ad80 f   LIBCMTD:undname.obj
 0002:000c3dd0       ??HDName@@QBE?AV0@ABV0@@Z  4012add0 f   LIBCMTD:undname.obj
 0002:000c3e20       ??HDName@@QBE?AV0@PAV0@@Z  4012ae20 f   LIBCMTD:undname.obj
 0002:000c3e70       ??HDName@@QBE?AV0@W4DNameStatus@@@Z 4012ae70 f   LIBCMTD:undname.obj
 0002:000c3ec0       ?append@DName@@AAEXPAVDNameNode@@@Z 4012aec0 f   LIBCMTD:undname.obj
 0002:000c3f70       ??YDName@@QAEAAV0@D@Z      4012af70 f   LIBCMTD:undname.obj
 0002:000c4020       ??YDName@@QAEAAV0@PBD@Z    4012b020 f   LIBCMTD:undname.obj
 0002:000c40e0       ??YDName@@QAEAAV0@ABV0@@Z  4012b0e0 f   LIBCMTD:undname.obj
 0002:000c4160       ??YDName@@QAEAAV0@PAV0@@Z  4012b160 f   LIBCMTD:undname.obj
 0002:000c4240       ??YDName@@QAEAAV0@W4DNameStatus@@@Z 4012b240 f   LIBCMTD:undname.obj
 0002:000c42c0       ??_5DName@@QAEAAV0@ABV0@@Z 4012b2c0 f   LIBCMTD:undname.obj
 0002:000c4330       ??4DName@@QAEAAV0@D@Z      4012b330 f i LIBCMTD:undname.obj
 0002:000c4440       ??4DName@@QAEAAV0@PBD@Z    4012b440 f   LIBCMTD:undname.obj
 0002:000c4550       ??4DName@@QAEAAV0@ABV0@@Z  4012b550 f   LIBCMTD:undname.obj
 0002:000c4580       ??4DName@@QAEAAV0@PAV0@@Z  4012b580 f   LIBCMTD:undname.obj
 0002:000c4700       ??4DName@@QAEAAV0@W4DNameStatus@@@Z 4012b700 f   LIBCMTD:undname.obj
 0002:000c4840       ?doPchar@DName@@AAEXPBDH@Z 4012b840 f   LIBCMTD:undname.obj
 0002:000c49d0       ?isFull@Replicator@@QBEHXZ 4012b9d0 f i LIBCMTD:undname.obj
 0002:000c49f0       ??0Replicator@@QAE@XZ      4012b9f0 f i LIBCMTD:undname.obj
 0002:000c4a10       ??YReplicator@@QAEAAV0@ABVDName@@@Z 4012ba10 f   LIBCMTD:undname.obj
 0002:000c4ac0       ??AReplicator@@QBE?AVDName@@H@Z 4012bac0 f   LIBCMTD:undname.obj
 0002:000c4b40       ??0DNameNode@@IAE@XZ       4012bb40 f   LIBCMTD:undname.obj
 0002:000c4b60       ??0charNode@@QAE@D@Z       4012bb60 f   LIBCMTD:undname.obj
 0002:000c4ba0       ?length@charNode@@UBEHXZ   4012bba0 f i LIBCMTD:undname.obj
 0002:000c4bc0       ?getLastChar@charNode@@UBEDXZ 4012bbc0 f i LIBCMTD:undname.obj
 0002:000c4be0       ?getString@charNode@@UBEPADPAD0@Z 4012bbe0 f i LIBCMTD:undname.obj
 0002:000c4c20       ??0pcharNode@@QAE@PBDH@Z   4012bc20 f   LIBCMTD:undname.obj
 0002:000c4ce0       ?length@pcharNode@@UBEHXZ  4012bce0 f i LIBCMTD:undname.obj
 0002:000c4d00       ?getLastChar@pcharNode@@UBEDXZ 4012bd00 f i LIBCMTD:undname.obj
 0002:000c4d50       ?getString@pcharNode@@UBEPADPAD0@Z 4012bd50 f i LIBCMTD:undname.obj
 0002:000c4d90       ?getStringHelper@@YAPADPAD00H@Z 4012bd90 f i LIBCMTD:undname.obj
 0002:000c4de0       ??0pDNameNode@@QAE@PAVDName@@@Z 4012bde0 f   LIBCMTD:undname.obj
 0002:000c4e60       ?length@pDNameNode@@UBEHXZ 4012be60 f i LIBCMTD:undname.obj
 0002:000c4ea0       ?getLastChar@pDNameNode@@UBEDXZ 4012bea0 f i LIBCMTD:undname.obj
 0002:000c4ee0       ?getString@pDNameNode@@UBEPADPAD0@Z 4012bee0 f i LIBCMTD:undname.obj
 0002:000c4f30       ??0DNameStatusNode@@AAE@W4DNameStatus@@@Z 4012bf30 f   LIBCMTD:undname.obj
 0002:000c4f90       ?length@DNameStatusNode@@UBEHXZ 4012bf90 f i LIBCMTD:undname.obj
 0002:000c4fb0       ?getLastChar@DNameStatusNode@@UBEDXZ 4012bfb0 f i LIBCMTD:undname.obj
 0002:000c4fe0       ?getString@DNameStatusNode@@UBEPADPAD0@Z 4012bfe0 f i LIBCMTD:undname.obj
 0002:000c5030       ?make@DNameStatusNode@@SAPAV1@W4DNameStatus@@@Z 4012c030 f i LIBCMTD:undname.obj
 0002:000c5110       ??0pairNode@@QAE@PAVDNameNode@@0@Z 4012c110 f   LIBCMTD:undname.obj
 0002:000c5160       ?length@pairNode@@UBEHXZ   4012c160 f i LIBCMTD:undname.obj
 0002:000c51c0       ?getLastChar@pairNode@@UBEDXZ 4012c1c0 f i LIBCMTD:undname.obj
 0002:000c5220       ?getString@pairNode@@UBEPADPAD0@Z 4012c220 f i LIBCMTD:undname.obj
 0002:000c53a0       __malloc_base              4012c3a0 f   LIBCMTD:malloc.obj
 0002:000c5450       __heap_alloc_base          4012c450 f i LIBCMTD:malloc.obj
 0002:000c54c0       __free_base                4012c4c0 f   LIBCMTD:free.obj
 0002:000c5530       __local_unwind4            4012c530 f   LIBCMTD:exsup4.obj
 0002:000c5606       __seh_longjmp_unwind4@4    4012c606 f   LIBCMTD:exsup4.obj
 0002:000c5622       @_EH4_CallFilterFunc@8     4012c622 f   LIBCMTD:exsup4.obj
 0002:000c5639       @_EH4_TransferToHandler@8  4012c639 f   LIBCMTD:exsup4.obj
 0002:000c5652       @_EH4_GlobalUnwind2@8      4012c652 f   LIBCMTD:exsup4.obj
 0002:000c566b       @_EH4_LocalUnwind@16       4012c66b f   LIBCMTD:exsup4.obj
 0002:000c56e0       ?_ValidateRead@@YAHPBXI@Z  4012c6e0 f   LIBCMTD:validate.obj
 0002:000c5710       ?_ValidateWrite@@YAHPAXI@Z 4012c710 f   LIBCMTD:validate.obj
 0002:000c5740       ?_ValidateExecute@@YAHP6GHXZ@Z 4012c740 f   LIBCMTD:validate.obj
 0002:000c5770       __global_unwind2           4012c770 f   LIBCMTD:exsup.obj
 0002:000c57d5       __local_unwind2            4012c7d5 f   LIBCMTD:exsup.obj
 0002:000c5859       __abnormal_termination     4012c859 f   LIBCMTD:exsup.obj
 0002:000c587c       __NLG_Notify1              4012c87c f   LIBCMTD:exsup.obj
 0002:000c5885       __NLG_Notify               4012c885 f   LIBCMTD:exsup.obj
 0002:000c589c       __NLG_Dispatch2            4012c89c     LIBCMTD:exsup.obj
 0002:000c589c       __NLG_Dispatch             4012c89c     LIBCMTD:exsup.obj
 0002:000c58a4       __NLG_Call                 4012c8a4 f   LIBCMTD:exsup.obj
 0002:000c58a6       __NLG_Return2              4012c8a6     LIBCMTD:exsup.obj
 0002:000c5900       __expand_base              4012c900 f   LIBCMTD:expand.obj
 0002:000c5ab0       __realloc_base             4012cab0 f   LIBCMTD:realloc.obj
 0002:000c5bf0       __heapchk                  4012cbf0 f   LIBCMTD:heapchk.obj
 0002:000c5c30       __heapset                  4012cc30 f   LIBCMTD:heapchk.obj
 0002:000c5c40       __mbstowcs_l_helper        4012cc40 f   LIBCMTD:mbstowcs.obj
 0002:000c6070       __mbstowcs_l               4012d070 f   LIBCMTD:mbstowcs.obj
 0002:000c60a0       _mbstowcs                  4012d0a0 f   LIBCMTD:mbstowcs.obj
 0002:000c6100       __mbstowcs_s_l             4012d100 f   LIBCMTD:mbstowcs.obj
 0002:000c6560       _mbstowcs_s                4012d560 f   LIBCMTD:mbstowcs.obj
 0002:000c6590       __itoa_s                   4012d590 f   LIBCMTD:xtoas.obj
 0002:000c6a40       __ltoa_s                   4012da40 f   LIBCMTD:xtoas.obj
 0002:000c6a90       __ultoa_s                  4012da90 f   LIBCMTD:xtoas.obj
 0002:000c6ac0       __i64toa_s                 4012dac0 f   LIBCMTD:xtoas.obj
 0002:000c6fc0       __ui64toa_s                4012dfc0 f   LIBCMTD:xtoas.obj
 0002:000c6ff0       __wcstombs_l_helper        4012dff0 f   LIBCMTD:wcstombs.obj
 0002:000c7690       __wcstombs_l               4012e690 f   LIBCMTD:wcstombs.obj
 0002:000c76c0       _wcstombs                  4012e6c0 f   LIBCMTD:wcstombs.obj
 0002:000c76f0       __wcstombs_s_l             4012e6f0 f   LIBCMTD:wcstombs.obj
 0002:000c7ae0       _wcstombs_s                4012eae0 f   LIBCMTD:wcstombs.obj
 0002:000c7b10       __vswprintf_l              4012eb10 f   LIBCMTD:vswprint.obj
 0002:000c7d80       __vswprintf                4012ed80 f   LIBCMTD:vswprint.obj
 0002:000c7db0       ___vswprintf_l             4012edb0 f   LIBCMTD:vswprint.obj
 0002:000c7de0       __vscwprintf_helper        4012ede0 f   LIBCMTD:vswprint.obj
 0002:000c7ef0       __vscwprintf               4012eef0 f   LIBCMTD:vswprint.obj
 0002:000c7f20       __vscwprintf_l             4012ef20 f   LIBCMTD:vswprint.obj
 0002:000c7f50       __vscwprintf_p             4012ef50 f   LIBCMTD:vswprint.obj
 0002:000c7f80       __vscwprintf_p_l           4012ef80 f   LIBCMTD:vswprint.obj
 0002:000c7fb0       __mbtowc_l                 4012efb0 f   LIBCMTD:mbtowc.obj
 0002:000c8250       _mbtowc                    4012f250 f   LIBCMTD:mbtowc.obj
 0002:000c8280       __filbuf                   4012f280 f   LIBCMTD:_filbuf.obj
 0002:000c8560       _ungetc                    4012f560 f   LIBCMTD:ungetc.obj
 0002:000c8690       __ungetc_nolock            4012f690 f   LIBCMTD:ungetc.obj
 0002:000c8940       __frnd                     4012f940 f   LIBCMTD:_frnd_.obj
 0002:000c8960       __ismbbkalnum_l            4012f960 f   LIBCMTD:ismbbyte.obj
 0002:000c8990       __ismbbkalnum              4012f990 f   LIBCMTD:ismbbyte.obj
 0002:000c89b0       __ismbbkprint_l            4012f9b0 f   LIBCMTD:ismbbyte.obj
 0002:000c89e0       __ismbbkprint              4012f9e0 f   LIBCMTD:ismbbyte.obj
 0002:000c8a00       __ismbbkpunct_l            4012fa00 f   LIBCMTD:ismbbyte.obj
 0002:000c8a30       __ismbbkpunct              4012fa30 f   LIBCMTD:ismbbyte.obj
 0002:000c8a50       __ismbbalnum_l             4012fa50 f   LIBCMTD:ismbbyte.obj
 0002:000c8a80       __ismbbalnum               4012fa80 f   LIBCMTD:ismbbyte.obj
 0002:000c8ab0       __ismbbalpha_l             4012fab0 f   LIBCMTD:ismbbyte.obj
 0002:000c8ae0       __ismbbalpha               4012fae0 f   LIBCMTD:ismbbyte.obj
 0002:000c8b10       __ismbbgraph_l             4012fb10 f   LIBCMTD:ismbbyte.obj
 0002:000c8b40       __ismbbgraph               4012fb40 f   LIBCMTD:ismbbyte.obj
 0002:000c8b70       __ismbbprint_l             4012fb70 f   LIBCMTD:ismbbyte.obj
 0002:000c8ba0       __ismbbprint               4012fba0 f   LIBCMTD:ismbbyte.obj
 0002:000c8bd0       __ismbbpunct_l             4012fbd0 f   LIBCMTD:ismbbyte.obj
 0002:000c8c00       __ismbbpunct               4012fc00 f   LIBCMTD:ismbbyte.obj
 0002:000c8c20       __ismbblead_l              4012fc20 f   LIBCMTD:ismbbyte.obj
 0002:000c8c50       __ismbblead                4012fc50 f   LIBCMTD:ismbbyte.obj
 0002:000c8c70       __ismbbtrail_l             4012fc70 f   LIBCMTD:ismbbyte.obj
 0002:000c8ca0       __ismbbtrail               4012fca0 f   LIBCMTD:ismbbyte.obj
 0002:000c8cc0       __ismbbkana_l              4012fcc0 f   LIBCMTD:ismbbyte.obj
 0002:000c8d50       __ismbbkana                4012fd50 f   LIBCMTD:ismbbyte.obj
 0002:000c8e70       ___crtMessageBoxA          4012fe70 f   LIBCMTD:crtmbox.obj
 0002:000c9120       __statusfp2                40130120 f   LIBCMTD:_ieee87_.obj
 0002:000c9170       __statusfp                 40130170 f   LIBCMTD:_ieee87_.obj
 0002:000c91d0       __clearfp                  401301d0 f   LIBCMTD:_ieee87_.obj
 0002:000c9230       ___control87_2             40130230 f   LIBCMTD:_ieee87_.obj
 0002:000c9300       __controlfp                40130300 f   LIBCMTD:_ieee87_.obj
 0002:000c9330       __control87                40130330 f i LIBCMTD:_ieee87_.obj
 0002:000c9410       __set_controlfp            40130410 f   LIBCMTD:_ieee87_.obj
 0002:000c94c0       __fpreset                  401304c0 f   LIBCMTD:_ieee87_.obj
 0002:000c9e60       _$I10_OUTPUT               40130e60 f   LIBCMTD:_x10fout_.obj
 0002:000ca570       ___crtGetLocaleInfoA       40131570 f   LIBCMTD:a_loc.obj
 0002:000ca720       __alloc_osfhnd             40131720 f   LIBCMTD:osfinfo.obj
 0002:000caa80       __set_osfhnd               40131a80 f   LIBCMTD:osfinfo.obj
 0002:000cab80       __free_osfhnd              40131b80 f   LIBCMTD:osfinfo.obj
 0002:000caca0       __get_osfhandle            40131ca0 f   LIBCMTD:osfinfo.obj
 0002:000cae60       __open_osfhandle           40131e60 f   LIBCMTD:osfinfo.obj
 0002:000cb120       ___lock_fhandle            40132120 f   LIBCMTD:osfinfo.obj
 0002:000cb260       __unlock_fhandle           40132260 f   LIBCMTD:osfinfo.obj
 0002:000cb2a0       __putwch                   401322a0 f   LIBCMTD:putwch.obj
 0002:000cb350       __putwch_nolock            40132350 f   LIBCMTD:putwch.obj
 0002:000cb3c0       _fputwc                    401323c0 f   LIBCMTD:fputwc.obj
 0002:000cb500       __fputwc_nolock            40132500 f   LIBCMTD:fputwc.obj
 0002:000cb8b0       _putwc                     401328b0 f   LIBCMTD:fputwc.obj
 0002:000cb8d0       _fclose                    401328d0 f   LIBCMTD:fclose.obj
 0002:000cba20       __fclose_nolock            40132a20 f   LIBCMTD:fclose.obj
 0002:000cbb60       _wcstol                    40132b60 f   LIBCMTD:wcstol.obj
 0002:000cc020       __wcstol_l                 40133020 f   LIBCMTD:wcstol.obj
 0002:000cc050       _wcstoul                   40133050 f   LIBCMTD:wcstol.obj
 0002:000cc080       __wcstoul_l                40133080 f   LIBCMTD:wcstol.obj
 0002:000cc0b0       _vprintf_helper            401330b0 f   LIBCMTD:vprintf.obj
 0002:000cc210       __vprintf_l                40133210 f   LIBCMTD:vprintf.obj
 0002:000cc240       __vprintf_s_l              40133240 f   LIBCMTD:vprintf.obj
 0002:000cc270       __vprintf_p_l              40133270 f   LIBCMTD:vprintf.obj
 0002:000cc2a0       _vprintf                   401332a0 f   LIBCMTD:vprintf.obj
 0002:000cc2d0       _vprintf_s                 401332d0 f   LIBCMTD:vprintf.obj
 0002:000cc300       __vprintf_p                40133300 f   LIBCMTD:vprintf.obj
 0002:000cc330       __stricmp_l                40133330 f   LIBCMTD:stricmp.obj
 0002:000cc540       ___ascii_stricmp           40133540 f   LIBCMTD:stricmp.obj
 0002:000cc5d0       _stricmp                   401335d0 f   LIBCMTD:stricmp.obj
 0002:000cc5d0       __stricmp                  401335d0 f   LIBCMTD:stricmp.obj
 0002:000cc720       __strnicmp_l               40133720 f   LIBCMTD:strnicmp.obj
 0002:000cc9f0       _strnicmp                  401339f0 f   LIBCMTD:strnicmp.obj
 0002:000cc9f0       __strnicmp                 401339f0 f   LIBCMTD:strnicmp.obj
 0002:000ccbe0       __purecall                 40133be0 f   LIBCMTD:purevirt.obj
 0002:000ccc30       __set_purecall_handler     40133c30 f   LIBCMTD:purevirt.obj
 0002:000ccc70       __get_purecall_handler     40133c70 f   LIBCMTD:purevirt.obj
 0002:000ccc90       __read                     40133c90 f   LIBCMTD:read.obj
 0002:000ccfd0       __read_nolock              40133fd0 f   LIBCMTD:read.obj
 0002:000ce2f0       ___initconout              401352f0 f   LIBCMTD:initcon.obj
 0002:000ce320       ___termconout              40135320 f   LIBCMTD:initcon.obj
 0002:000ce350       __flswbuf                  40135350 f   LIBCMTD:_flswbuf.obj
 0002:000ce6e0       __close                    401356e0 f   LIBCMTD:close.obj
 0002:000ce980       __close_nolock             40135980 f   LIBCMTD:close.obj
 0002:000cea80       __wchartodigit             40135a80 f   LIBCMTD:wchtodig.obj
 0002:000cee70       ___ascii_strnicmp          40135e70 f   LIBCMTD:_strnicm.obj
 0002:000ceeea       _InterlockedIncrement@4    40135eea f   kernel32:KERNEL32.dll
 0002:000ceef0       _InterlockedDecrement@4    40135ef0 f   kernel32:KERNEL32.dll
 0002:000ceef6       _Sleep@4                   40135ef6 f   kernel32:KERNEL32.dll
 0002:000ceefc       _InterlockedExchange@8     40135efc f   kernel32:KERNEL32.dll
 0002:000cef02       _InitializeCriticalSection@4 40135f02 f   kernel32:KERNEL32.dll
 0002:000cef08       _DeleteCriticalSection@4   40135f08 f   kernel32:KERNEL32.dll
 0002:000cef0e       _EnterCriticalSection@4    40135f0e f   kernel32:KERNEL32.dll
 0002:000cef14       _LeaveCriticalSection@4    40135f14 f   kernel32:KERNEL32.dll
 0002:000cef1a       _GetModuleFileNameW@12     40135f1a f   kernel32:KERNEL32.dll
 0002:000cef20       _WriteConsoleW@20          40135f20 f   kernel32:KERNEL32.dll
 0002:000cef26       _GetFileType@4             40135f26 f   kernel32:KERNEL32.dll
 0002:000cef2c       _GetStdHandle@4            40135f2c f   kernel32:KERNEL32.dll
 0002:000cef32       _RtlUnwind@16              40135f32 f   kernel32:KERNEL32.dll
 0002:000cef38       _RaiseException@16         40135f38 f   kernel32:KERNEL32.dll
 0002:000cef3e       _DecodePointer@4           40135f3e f   kernel32:KERNEL32.dll
 0002:000cef44       _TerminateProcess@8        40135f44 f   kernel32:KERNEL32.dll
 0002:000cef4a       _GetCurrentProcess@0       40135f4a f   kernel32:KERNEL32.dll
 0002:000cef50       _UnhandledExceptionFilter@4 40135f50 f   kernel32:KERNEL32.dll
 0002:000cef56       _SetUnhandledExceptionFilter@4 40135f56 f   kernel32:KERNEL32.dll
 0002:000cef5c       _IsDebuggerPresent@0       40135f5c f   kernel32:KERNEL32.dll
 0002:000cef62       _EncodePointer@4           40135f62 f   kernel32:KERNEL32.dll
 0002:000cef68       _WideCharToMultiByte@32    40135f68 f   kernel32:KERNEL32.dll
 0002:000cef6e       _MultiByteToWideChar@24    40135f6e f   kernel32:KERNEL32.dll
 0002:000cef74       _lstrlenA@4                40135f74 f   kernel32:KERNEL32.dll
 0002:000cef7a       _GetProcAddress@8          40135f7a f   kernel32:KERNEL32.dll
 0002:000cef80       _LoadLibraryW@4            40135f80 f   kernel32:KERNEL32.dll
 0002:000cef86       _GetCurrentThreadId@0      40135f86 f   kernel32:KERNEL32.dll
 0002:000cef8c       _GetCommandLineA@0         40135f8c f   kernel32:KERNEL32.dll
 0002:000cef92       _IsProcessorFeaturePresent@4 40135f92 f   kernel32:KERNEL32.dll
 0002:000cef98       _GetModuleHandleW@4        40135f98 f   kernel32:KERNEL32.dll
 0002:000cef9e       _ExitProcess@4             40135f9e f   kernel32:KERNEL32.dll
 0002:000cefa4       _GetLastError@0            40135fa4 f   kernel32:KERNEL32.dll
 0002:000cefaa       _SetConsoleCtrlHandler@8   40135faa f   kernel32:KERNEL32.dll
 0002:000cefb0       _GetACP@0                  40135fb0 f   kernel32:KERNEL32.dll
 0002:000cefb6       _GetOEMCP@0                40135fb6 f   kernel32:KERNEL32.dll
 0002:000cefbc       _GetCPInfo@8               40135fbc f   kernel32:KERNEL32.dll
 0002:000cefc2       _IsValidCodePage@4         40135fc2 f   kernel32:KERNEL32.dll
 0002:000cefc8       _TlsAlloc@0                40135fc8 f   kernel32:KERNEL32.dll
 0002:000cefce       _TlsGetValue@4             40135fce f   kernel32:KERNEL32.dll
 0002:000cefd4       _TlsSetValue@8             40135fd4 f   kernel32:KERNEL32.dll
 0002:000cefda       _TlsFree@4                 40135fda f   kernel32:KERNEL32.dll
 0002:000cefe0       _SetLastError@4            40135fe0 f   kernel32:KERNEL32.dll
 0002:000cefe6       _GetCurrentThread@0        40135fe6 f   kernel32:KERNEL32.dll
 0002:000cefec       _LCMapStringW@24           40135fec f   kernel32:KERNEL32.dll
 0002:000ceff2       _InitializeCriticalSectionAndSpinCount@8 40135ff2 f   kernel32:KERNEL32.dll
 0002:000ceff8       _FatalAppExitA@8           40135ff8 f   kernel32:KERNEL32.dll
 0002:000ceffe       _HeapValidate@12           40135ffe f   kernel32:KERNEL32.dll
 0002:000cf004       _IsBadReadPtr@8            40136004 f   kernel32:KERNEL32.dll
 0002:000cf00a       _WriteFile@20              4013600a f   kernel32:KERNEL32.dll
 0002:000cf010       _OutputDebugStringA@4      40136010 f   kernel32:KERNEL32.dll
 0002:000cf016       _OutputDebugStringW@4      40136016 f   kernel32:KERNEL32.dll
 0002:000cf01c       _HeapFree@12               4013601c f   kernel32:KERNEL32.dll
 0002:000cf022       _HeapAlloc@12              40136022 f   kernel32:KERNEL32.dll
 0002:000cf028       _GetProcessHeap@0          40136028 f   kernel32:KERNEL32.dll
 0002:000cf02e       _VirtualQuery@12           4013602e f   kernel32:KERNEL32.dll
 0002:000cf034       _FreeLibrary@4             40136034 f   kernel32:KERNEL32.dll
 0002:000cf03a       _SetHandleCount@4          4013603a f   kernel32:KERNEL32.dll
 0002:000cf040       _GetStartupInfoW@4         40136040 f   kernel32:KERNEL32.dll
 0002:000cf046       _GetModuleFileNameA@12     40136046 f   kernel32:KERNEL32.dll
 0002:000cf04c       _FreeEnvironmentStringsW@4 4013604c f   kernel32:KERNEL32.dll
 0002:000cf052       _GetEnvironmentStringsW@0  40136052 f   kernel32:KERNEL32.dll
 0002:000cf058       _HeapCreate@12             40136058 f   kernel32:KERNEL32.dll
 0002:000cf05e       _HeapDestroy@4             4013605e f   kernel32:KERNEL32.dll
 0002:000cf064       _QueryPerformanceCounter@4 40136064 f   kernel32:KERNEL32.dll
 0002:000cf06a       _GetTickCount@0            4013606a f   kernel32:KERNEL32.dll
 0002:000cf070       _GetCurrentProcessId@0     40136070 f   kernel32:KERNEL32.dll
 0002:000cf076       _GetSystemTimeAsFileTime@4 40136076 f   kernel32:KERNEL32.dll
 0002:000cf07c       _GetLocaleInfoW@16         4013607c f   kernel32:KERNEL32.dll
 0002:000cf082       _FlushFileBuffers@4        40136082 f   kernel32:KERNEL32.dll
 0002:000cf088       _GetConsoleCP@0            40136088 f   kernel32:KERNEL32.dll
 0002:000cf08e       _GetConsoleMode@8          4013608e f   kernel32:KERNEL32.dll
 0002:000cf094       _GetStringTypeW@16         40136094 f   kernel32:KERNEL32.dll
 0002:000cf09a       _SetFilePointer@16         4013609a f   kernel32:KERNEL32.dll
 0002:000cf0a0       _GetLocaleInfoA@16         401360a0 f   kernel32:KERNEL32.dll
 0002:000cf0a6       _IsValidLocale@8           401360a6 f   kernel32:KERNEL32.dll
 0002:000cf0ac       _EnumSystemLocalesA@8      401360ac f   kernel32:KERNEL32.dll
 0002:000cf0b2       _GetUserDefaultLCID@0      401360b2 f   kernel32:KERNEL32.dll
 0002:000cf0b8       _HeapReAlloc@16            401360b8 f   kernel32:KERNEL32.dll
 0002:000cf0be       _HeapSize@12               401360be f   kernel32:KERNEL32.dll
 0002:000cf0c4       _HeapQueryInformation@20   401360c4 f   kernel32:KERNEL32.dll
 0002:000cf0ca       _SetStdHandle@8            401360ca f   kernel32:KERNEL32.dll
 0002:000cf0d0       _ReadFile@20               401360d0 f   kernel32:KERNEL32.dll
 0002:000cf0d6       _CreateFileW@28            401360d6 f   kernel32:KERNEL32.dll
 0002:000cf0dc       _CloseHandle@4             401360dc f   kernel32:KERNEL32.dll
 0002:000cf0f0       __strupr_l                 401360f0 f   LIBCMTD:strupr.obj
 0002:000cf120       __strupr                   40136120 f   LIBCMTD:strupr.obj
 0002:000cf120       _strupr                    40136120 f   LIBCMTD:strupr.obj
 0002:000cf230       __strupr_s_l               40136230 f   LIBCMTD:strupr.obj
 0002:000cf7b0       __strupr_s                 401367b0 f   LIBCMTD:strupr.obj
 0002:000cf7d0       _strnlen                   401367d0 f   LIBCMTD:strlen_s.obj
 0003:00000000       ___xc_a                    4013c000     LIBCMTD:crt0init.obj
 0003:0000031c       ___xc_z                    4013c31c     LIBCMTD:crt0init.obj
 0003:00000420       ___xi_a                    4013c420     LIBCMTD:crt0init.obj
 0003:0000063c       ___xi_z                    4013c63c     LIBCMTD:crt0init.obj
 0003:00000740       ___xp_a                    4013c740     LIBCMTD:crt0init.obj
 0003:00000a54       ___xp_z                    4013ca54     LIBCMTD:crt0init.obj
 0003:00000b58       ___xt_a                    4013cb58     LIBCMTD:crt0init.obj
 0003:00000c5c       ___xt_z                    4013cc5c     LIBCMTD:crt0init.obj
 0003:00000d7c       ??_C@_0BG@LLNBCDKB@EV_PLAY_EFFECT_BOLTED?$AA@ 4013cd7c     bg_misc.obj
 0003:00000d98       ??_C@_08GBKLDCBE@EV_TAUNT?$AA@ 4013cd98     bg_misc.obj
 0003:00000da4       ??_C@_0BF@EAHNFOOG@EV_STARTLOOPINGSOUND?$AA@ 4013cda4     bg_misc.obj
 0003:00000dc0       ??_C@_0BE@OHJHDFJH@EV_STOPLOOPINGSOUND?$AA@ 4013cdc0     bg_misc.obj
 0003:00000dd8       ??_C@_0M@LDAKOPJP@EV_TESTLINE?$AA@ 4013cdd8     bg_misc.obj
 0003:00000de8       ??_C@_0O@PBPAKHP@EV_DEBUG_LINE?$AA@ 4013cde8     bg_misc.obj
 0003:00000df8       ??_C@_0O@CBLOOGHB@EV_SHIELD_HIT?$AA@ 4013cdf8     bg_misc.obj
 0003:00000e08       ??_C@_0BF@LLJHJACN@EV_WEAPON_CHARGE_ALT?$AA@ 4013ce08     bg_misc.obj
 0003:00000e24       ??_C@_0BB@HAHOHAKJ@EV_WEAPON_CHARGE?$AA@ 4013ce24     bg_misc.obj
 0003:00000e38       ??_C@_0BF@KFICFFCM@EV_SET_FORCE_DISABLE?$AA@ 4013ce38     bg_misc.obj
 0003:00000e54       ??_C@_0BC@DDJADHAK@EV_SET_FREE_SABER?$AA@ 4013ce54     bg_misc.obj
 0003:00000e6c       ??_C@_0BB@JIHOLMBD@EV_GIVE_NEW_RANK?$AA@ 4013ce6c     bg_misc.obj
 0003:00000e80       ??_C@_0BI@CEGPCIEH@EV_DESTROY_WEAPON_MODEL?$AA@ 4013ce80     bg_misc.obj
 0003:00000e9c       ??_C@_0BL@DNICLAEN@EV_DESTROY_GHOUL2_INSTANCE?$AA@ 4013ce9c     bg_misc.obj
 0003:00000ebc       ??_C@_0BL@CGBBFEIE@EV_SIEGE_OBJECTIVECOMPLETE?$AA@ 4013cebc     bg_misc.obj
 0003:00000edc       ??_C@_0BD@LACADBAO@EV_SIEGE_ROUNDOVER?$AA@ 4013cedc     bg_misc.obj
 0003:00000ef4       ??_C@_0M@GBGEMMKK@EV_BODYFADE?$AA@ 4013cef4     bg_misc.obj
 0003:00000f04       ??_C@_0O@NEHCEMNJ@EV_CTFMESSAGE?$AA@ 4013cf04     bg_misc.obj
 0003:00000f14       ??_C@_0N@GAJBP@EV_SCOREPLUM?$AA@ 4013cf14     bg_misc.obj
 0003:00000f24       ??_C@_0O@JLGFLKBE@EV_GIB_PLAYER?$AA@ 4013cf24     bg_misc.obj
 0003:00000f34       ??_C@_0BB@KGMADNKO@EV_FORCE_DRAINED?$AA@ 4013cf34     bg_misc.obj
 0003:00000f48       ??_C@_0BG@CHAMNADK@EV_POWERUP_BATTLESUIT?$AA@ 4013cf48     bg_misc.obj
 0003:00000f64       ??_C@_0BA@HLHGHIIE@EV_POWERUP_QUAD?$AA@ 4013cf64     bg_misc.obj
 0003:00000f78       ??_C@_0M@PPLCDPP@EV_OBITUARY?$AA@ 4013cf78     bg_misc.obj
 0003:00000f88       ??_C@_09KNGHBIAK@EV_DEATH3?$AA@ 4013cf88     bg_misc.obj
 0003:00000f94       ??_C@_09LEHMCJEL@EV_DEATH2?$AA@ 4013cf94     bg_misc.obj
 0003:00000fa0       ??_C@_09JPFBHKII@EV_DEATH1?$AA@ 4013cfa0     bg_misc.obj
 0003:00000fac       ??_C@_07EMHHKOOH@EV_PAIN?$AA@ 4013cfac     bg_misc.obj
 0003:00000fb8       ??_C@_09ICDIPKFJ@EV_BULLET?$AA@ 4013cfb8     bg_misc.obj
 0003:00000fc4       ??_C@_0BG@LPAHEABB@EV_MISSILE_MISS_METAL?$AA@ 4013cfc4     bg_misc.obj
 0003:00000fe0       ??_C@_0BA@CAHALNAE@EV_MISSILE_MISS?$AA@ 4013cfe0     bg_misc.obj
 0003:00000ff4       ??_C@_0P@JFMFNBMO@EV_MISSILE_HIT?$AA@ 4013cff4     bg_misc.obj
 0003:00001008       ??_C@_0BD@PIOAMKHB@EV_CONC_ALT_IMPACT?$AA@ 4013d008     bg_misc.obj
 0003:00001020       ??_C@_0BC@MLGOBNCG@EV_MISC_MODEL_EXP?$AA@ 4013d020     bg_misc.obj
 0003:00001038       ??_C@_09KLJDDMJG@EV_DEBRIS?$AA@ 4013d038     bg_misc.obj
 0003:00001044       ??_C@_0BB@HHFJBAND@EV_GLASS_SHATTER?$AA@ 4013d044     bg_misc.obj
 0003:00001058       ??_C@_0N@BEKJCCJE@EV_PLAY_ROFF?$AA@ 4013d058     bg_misc.obj
 0003:00001068       ??_C@_0BA@LLJGBFCE@EV_ENTITY_SOUND?$AA@ 4013d068     bg_misc.obj
 0003:0000107c       ??_C@_0BF@DDOIKLHD@EV_GLOBAL_TEAM_SOUND?$AA@ 4013d07c     bg_misc.obj
 0003:00001098       ??_C@_0BA@JAMKLOPJ@EV_GLOBAL_SOUND?$AA@ 4013d098     bg_misc.obj
 0003:000010ac       ??_C@_0BB@LJGGMAII@EV_GENERAL_SOUND?$AA@ 4013d0ac     bg_misc.obj
 0003:000010c0       ??_C@_0BC@GMNGJAOD@EV_VOICECMD_SOUND?$AA@ 4013d0c0     bg_misc.obj
 0003:000010d8       ??_C@_0O@JHBKAOKG@EV_MUTE_SOUND?$AA@ 4013d0d8     bg_misc.obj
 0003:000010e8       ??_C@_0BA@EGLCGAMO@EV_BMODEL_SOUND?$AA@ 4013d0e8     bg_misc.obj
 0003:000010fc       ??_C@_0BF@BLAPJAMF@EV_PLAYDOORLOOPSOUND?$AA@ 4013d0fc     bg_misc.obj
 0003:00001118       ??_C@_0BB@OGNONJKP@EV_PLAYDOORSOUND?$AA@ 4013d118     bg_misc.obj
 0003:0000112c       ??_C@_0BJ@CGDHKBCK@EV_PLAY_PORTAL_EFFECT_ID?$AA@ 4013d12c     bg_misc.obj
 0003:0000114c       ??_C@_0BC@LCOMFDPL@EV_PLAY_EFFECT_ID?$AA@ 4013d14c     bg_misc.obj
 0003:00001164       ??_C@_0P@PLIFONPM@EV_PLAY_EFFECT?$AA@ 4013d164     bg_misc.obj
 0003:00001178       ??_C@_0BB@JGOOAGDJ@EV_MISSILE_STICK?$AA@ 4013d178     bg_misc.obj
 0003:0000118c       ??_C@_0BC@ECIIAFLJ@EV_GRENADE_BOUNCE?$AA@ 4013d18c     bg_misc.obj
 0003:000011a4       ??_C@_0BH@FNNILPIN@EV_PLAYER_TELEPORT_OUT?$AA@ 4013d1a4     bg_misc.obj
 0003:000011c0       ??_C@_0BG@HBBJKNDP@EV_PLAYER_TELEPORT_IN?$AA@ 4013d1c0     bg_misc.obj
 0003:000011dc       ??_C@_0M@ECGFPIMP@EV_ITEM_POP?$AA@ 4013d1dc     bg_misc.obj
 0003:000011ec       ??_C@_0BA@GJNCODNG@EV_ITEM_RESPAWN?$AA@ 4013d1ec     bg_misc.obj
 0003:00001200       ??_C@_0P@JFHCOBFC@EV_ITEMUSEFAIL?$AA@ 4013d200     bg_misc.obj
 0003:00001214       ??_C@_0O@HHGOLJPJ@EV_USE_ITEM15?$AA@ 4013d214     bg_misc.obj
 0003:00001224       ??_C@_0O@GOHFIILI@EV_USE_ITEM14?$AA@ 4013d224     bg_misc.obj
 0003:00001234       ??_C@_0O@CBDEBOHP@EV_USE_ITEM13?$AA@ 4013d234     bg_misc.obj
 0003:00001244       ??_C@_0O@DICPCPDO@EV_USE_ITEM12?$AA@ 4013d244     bg_misc.obj
 0003:00001254       ??_C@_0O@BDACHMPN@EV_USE_ITEM11?$AA@ 4013d254     bg_misc.obj
 0003:00001264       ??_C@_0O@KBJENLM@EV_USE_ITEM10?$AA@ 4013d264     bg_misc.obj
 0003:00001274       ??_C@_0N@PHODCBCK@EV_USE_ITEM9?$AA@ 4013d274     bg_misc.obj
 0003:00001284       ??_C@_0N@OOPIBAGL@EV_USE_ITEM8?$AA@ 4013d284     bg_misc.obj
 0003:00001294       ??_C@_0N@GJGAAMKE@EV_USE_ITEM7?$AA@ 4013d294     bg_misc.obj
 0003:000012a4       ??_C@_0N@HAHLDNOF@EV_USE_ITEM6?$AA@ 4013d2a4     bg_misc.obj
 0003:000012b4       ??_C@_0N@FLFGGOCG@EV_USE_ITEM5?$AA@ 4013d2b4     bg_misc.obj
 0003:000012c4       ??_C@_0N@ECENFPGH@EV_USE_ITEM4?$AA@ 4013d2c4     bg_misc.obj
 0003:000012d4       ??_C@_0N@NAMMJKA@EV_USE_ITEM3?$AA@ 4013d2d4     bg_misc.obj
 0003:000012e4       ??_C@_0N@BEBHPIOB@EV_USE_ITEM2?$AA@ 4013d2e4     bg_misc.obj
 0003:000012f4       ??_C@_0N@DPDKKLCC@EV_USE_ITEM1?$AA@ 4013d2f4     bg_misc.obj
 0003:00001304       ??_C@_0N@CGCBJKGD@EV_USE_ITEM0?$AA@ 4013d304     bg_misc.obj
 0003:00001314       ??_C@_06LBDBNJG@EV_USE?$AA@ 4013d314     bg_misc.obj
 0003:0000131c       ??_C@_0O@GLOAIHAI@EV_LOCALTIMER?$AA@ 4013d31c     bg_misc.obj
 0003:0000132c       ??_C@_0P@EIHBPBOL@EV_SCREENSHAKE?$AA@ 4013d32c     bg_misc.obj
 0003:00001340       ??_C@_0O@GMONIJJI@EV_TEAM_POWER?$AA@ 4013d340     bg_misc.obj
 0003:00001350       ??_C@_0P@MDPKBHNH@EV_PREDEFSOUND?$AA@ 4013d350     bg_misc.obj
 0003:00001364       ??_C@_0BH@GCPNKPAL@EV_DISRUPTOR_ZOOMSOUND?$AA@ 4013d364     bg_misc.obj
 0003:00001380       ??_C@_0BB@JNGCFFFI@EV_DISRUPTOR_HIT?$AA@ 4013d380     bg_misc.obj
 0003:00001394       ??_C@_0BJ@POMLOPMI@EV_DISRUPTOR_SNIPER_MISS?$AA@ 4013d394     bg_misc.obj
 0003:000013b4       ??_C@_0BJ@MDNKGNJN@EV_DISRUPTOR_SNIPER_SHOT?$AA@ 4013d3b4     bg_misc.obj
 0003:000013d4       ??_C@_0BH@KDGLLAMO@EV_DISRUPTOR_MAIN_SHOT?$AA@ 4013d3d4     bg_misc.obj
 0003:000013f0       ??_C@_0BF@MBILLJJH@EV_BECOME_JEDIMASTER?$AA@ 4013d3f0     bg_misc.obj
 0003:0000140c       ??_C@_0BD@FFJMPGGA@EV_SABER_UNHOLSTER?$AA@ 4013d40c     bg_misc.obj
 0003:00001424       ??_C@_0BE@HNEOPGEL@EV_SABER_CLASHFLARE?$AA@ 4013d424     bg_misc.obj
 0003:0000143c       ??_C@_0P@MNCBBKHB@EV_SABER_BLOCK?$AA@ 4013d43c     bg_misc.obj
 0003:00001450       ??_C@_0N@IKFBFHKB@EV_SABER_HIT?$AA@ 4013d450     bg_misc.obj
 0003:00001460       ??_C@_0BA@FJAFFDLF@EV_SABER_ATTACK?$AA@ 4013d460     bg_misc.obj
 0003:00001474       ??_C@_0M@LKPOHPHC@EV_ALT_FIRE?$AA@ 4013d474     bg_misc.obj
 0003:00001484       ??_C@_0P@PFJPAFGH@EV_FIRE_WEAPON?$AA@ 4013d484     bg_misc.obj
 0003:00001498       ??_C@_0BB@ENKPHJLP@EV_CHANGE_WEAPON?$AA@ 4013d498     bg_misc.obj
 0003:000014ac       ??_C@_09NMIICG@EV_NOAMMO?$AA@ 4013d4ac     bg_misc.obj
 0003:000014b8       ??_C@_0M@MNGOLNFL@EV_VEH_FIRE?$AA@ 4013d4b8     bg_misc.obj
 0003:000014c8       ??_C@_0BG@KFILGAMN@EV_GLOBAL_ITEM_PICKUP?$AA@ 4013d4c8     bg_misc.obj
 0003:000014e4       ??_C@_0P@BGIOEPCB@EV_ITEM_PICKUP?$AA@ 4013d4e4     bg_misc.obj
 0003:000014f8       ??_C@_0P@NIPCJOBG@EV_WATER_CLEAR?$AA@ 4013d4f8     bg_misc.obj
 0003:0000150c       ??_C@_0P@MIAIODEJ@EV_WATER_UNDER?$AA@ 4013d50c     bg_misc.obj
 0003:00001520       ??_C@_0P@LHDMOIIG@EV_WATER_LEAVE?$AA@ 4013d520     bg_misc.obj
 0003:00001534       ??_C@_0P@GCDBKPMP@EV_WATER_TOUCH?$AA@ 4013d534     bg_misc.obj
 0003:00001548       ??_C@_07OCJFCKNN@EV_ROLL?$AA@ 4013d548     bg_misc.obj
 0003:00001554       ??_C@_07GKBEHGAP@EV_JUMP?$AA@ 4013d554     bg_misc.obj
 0003:00001560       ??_C@_0BA@NCAJLGNF@EV_PRIVATE_DUEL?$AA@ 4013d560     bg_misc.obj
 0003:00001574       ??_C@_0P@MHGGNABN@EV_GLOBAL_DUEL?$AA@ 4013d574     bg_misc.obj
 0003:00001588       ??_C@_0P@BMAPLDAL@EV_GHOUL2_MARK?$AA@ 4013d588     bg_misc.obj
 0003:0000159c       ??_C@_0N@PAALAJAC@EV_SABERLOCK?$AA@ 4013d59c     bg_misc.obj
 0003:000015ac       ??_C@_07JHCKGMKM@EV_FALL?$AA@ 4013d5ac     bg_misc.obj
 0003:000015b8       ??_C@_0L@HOOIOPKF@EV_STEP_16?$AA@ 4013d5b8     bg_misc.obj
 0003:000015c8       ??_C@_0L@BKIECKKB@EV_STEP_12?$AA@ 4013d5c8     bg_misc.obj
 0003:000015d8       ??_C@_09EHOLDGNN@EV_STEP_8?$AA@ 4013d5d8     bg_misc.obj
 0003:000015e4       ??_C@_09OLFOHJNB@EV_STEP_4?$AA@ 4013d5e4     bg_misc.obj
 0003:000015f0       ??_C@_07FFIIIPLH@EV_SWIM?$AA@ 4013d5f0     bg_misc.obj
 0003:000015fc       ??_C@_0M@NPJBGELA@EV_FOOTWADE?$AA@ 4013d5fc     bg_misc.obj
 0003:0000160c       ??_C@_0O@HLJHKIDH@EV_FOOTSPLASH?$AA@ 4013d60c     bg_misc.obj
 0003:0000161c       ??_C@_0BC@DIJMAMMI@EV_FOOTSTEP_METAL?$AA@ 4013d61c     bg_misc.obj
 0003:00001634       ??_C@_0M@HLKBOJPO@EV_FOOTSTEP?$AA@ 4013d634     bg_misc.obj
 0003:00001644       ??_C@_0O@JHBAELOC@EV_CLIENTJOIN?$AA@ 4013d644     bg_misc.obj
 0003:00001654       ??_C@_07JFMDDPHJ@EV_NONE?$AA@ 4013d654     bg_misc.obj
 0003:00001660       ??_C@_0N@EFNACPEM@Tusken?5Rifle?$AA@ 4013d660     bg_misc.obj
 0003:00001670       ??_C@_0CO@CJLJGOME@models?1weapons2?1tusken_rifle?1tus@ 4013d670     bg_misc.obj
 0003:000016a8       ??_C@_0DA@CKHMHCHN@models?1weapons2?1tusken_rifle?1tus@ 4013d6a8     bg_misc.obj
 0003:000016e4       ??_C@_0BE@JFFHIOON@weapon_tusken_rifle?$AA@ 4013d6e4     bg_misc.obj
 0003:000016fc       ??_C@_0BB@JKNLMJAB@icons?1iconh_borb?$AA@ 4013d6fc     bg_misc.obj
 0003:00001710       ??_C@_0BO@CMJEFEFK@models?1powerups?1orb?1b_orb?4md3?$AA@ 4013d710     bg_misc.obj
 0003:00001734       ??_C@_0O@NHDOFNIN@item_bluecube?$AA@ 4013d734     bg_misc.obj
 0003:00001744       ??_C@_0BB@PKDLFOID@icons?1iconh_rorb?$AA@ 4013d744     bg_misc.obj
 0003:00001758       ??_C@_0BO@LDKNFLC@models?1powerups?1orb?1r_orb?4md3?$AA@ 4013d758     bg_misc.obj
 0003:0000177c       ??_C@_0N@IDOEINCB@item_redcube?$AA@ 4013d77c     bg_misc.obj
 0003:0000178c       ??_C@_0BF@OGGGKBMJ@icons?1iconf_neutral1?$AA@ 4013d78c     bg_misc.obj
 0003:000017a8       ??_C@_0BI@FAJILPEC@models?1flags?1n_flag?4md3?$AA@ 4013d7a8     bg_misc.obj
 0003:000017c4       ??_C@_0BF@NFGOPKAE@team_CTF_neutralflag?$AA@ 4013d7c4     bg_misc.obj
 0003:000017e0       ??_C@_0BC@JDBDOHJA@gfx?1hud?1mpi_bflag?$AA@ 4013d7e0     bg_misc.obj
 0003:000017f8       ??_C@_0BN@NABGHIBA@models?1flags?1b_flag_ysal?4md3?$AA@ 4013d7f8     bg_misc.obj
 0003:0000181c       ??_C@_0BI@FKICCNIF@models?1flags?1b_flag?4md3?$AA@ 4013d81c     bg_misc.obj
 0003:00001838       ??_C@_0BC@NLKCOFAB@team_CTF_blueflag?$AA@ 4013d838     bg_misc.obj
 0003:00001850       ??_C@_0BC@JAMFOFAL@gfx?1hud?1mpi_rflag?$AA@ 4013d850     bg_misc.obj
 0003:00001868       ??_C@_0BN@DGDBEGIO@models?1flags?1r_flag_ysal?4md3?$AA@ 4013d868     bg_misc.obj
 0003:0000188c       ??_C@_0BI@PEHEOJEO@models?1flags?1r_flag?4md3?$AA@ 4013d88c     bg_misc.obj
 0003:000018a8       ??_C@_0BB@JNMMCIHG@team_CTF_redflag?$AA@ 4013d8a8     bg_misc.obj
 0003:000018bc       ??_C@_0BJ@DIDDNCPE@models?1items?1battery?4md3?$AA@ 4013d8bc     bg_misc.obj
 0003:000018dc       ??_C@_08LLJPIFOF@ammo_all?$AA@ 4013d8dc     bg_misc.obj
 0003:000018e8       ??_C@_0BE@IIEBFJHN@gfx?1mp?1ammo_rockets?$AA@ 4013d8e8     bg_misc.obj
 0003:00001900       ??_C@_0BJ@BCBNBFGD@models?1items?1rockets?4md3?$AA@ 4013d900     bg_misc.obj
 0003:00001920       ??_C@_0N@CLEPKBOE@ammo_rockets?$AA@ 4013d920     bg_misc.obj
 0003:00001930       ??_C@_0BL@IPLJCMOM@gfx?1mp?1ammo_metallic_bolts?$AA@ 4013d930     bg_misc.obj
 0003:00001950       ??_C@_0CA@POKDMLNN@models?1items?1metallic_bolts?4md3?$AA@ 4013d950     bg_misc.obj
 0003:00001978       ??_C@_0BE@OMMGIMPN@ammo_metallic_bolts?$AA@ 4013d978     bg_misc.obj
 0003:00001990       ??_C@_0BH@KBMOAFPH@gfx?1mp?1ammo_power_cell?$AA@ 4013d990     bg_misc.obj
 0003:000019ac       ??_C@_0BM@GDMBBHDI@models?1items?1power_cell?4md3?$AA@ 4013d9ac     bg_misc.obj
 0003:000019d0       ??_C@_0P@GBMHNHF@ammo_powercell?$AA@ 4013d9d0     bg_misc.obj
 0003:000019e4       ??_C@_0BH@MFDMPLPM@gfx?1hud?1i_icon_battery?$AA@ 4013d9e4     bg_misc.obj
 0003:00001a00       ??_C@_0N@JHBODPOG@ammo_blaster?$AA@ 4013da00     bg_misc.obj
 0003:00001a10       ??_C@_0BN@BKBHFNLE@models?1items?1energy_cell?4md3?$AA@ 4013da10     bg_misc.obj
 0003:00001a34       ??_C@_0BO@EBHMDMMM@sound?1player?1pickupenergy?4wav?$AA@ 4013da34     bg_misc.obj
 0003:00001a58       ??_C@_0L@GKDELMG@ammo_force?$AA@ 4013da58     bg_misc.obj
 0003:00001a68       ??_C@_0BA@EENDCNMH@weapon_turretwp?$AA@ 4013da68     bg_misc.obj
 0003:00001a7c       ??_C@_0BA@PHDHEKAE@weapon_emplaced?$AA@ 4013da7c     bg_misc.obj
 0003:00001a90       ??_C@_0BA@DBJEACCG@weapon_det_pack?$AA@ 4013da90     bg_misc.obj
 0003:00001aa4       ??_C@_0BB@KBIODFKP@weapon_trip_mine?$AA@ 4013daa4     bg_misc.obj
 0003:00001ab8       ??_C@_0P@OJLAIIJD@weapon_thermal?$AA@ 4013dab8     bg_misc.obj
 0003:00001acc       ??_C@_0BM@MOLHJNKH@?$EAMENUS_A_DETONATION_PACK_IS?$AA@ 4013dacc     bg_misc.obj
 0003:00001af0       ??_C@_0BH@EBPPNJFB@gfx?1hud?1w_icon_detpack?$AA@ 4013daf0     bg_misc.obj
 0003:00001b0c       ??_C@_0CF@NONMEFGL@models?1weapons2?1detpack?1det_pack@ 4013db0c     bg_misc.obj
 0003:00001b38       ??_C@_0CH@KPFPNMHO@models?1weapons2?1detpack?1det_pack@ 4013db38     bg_misc.obj
 0003:00001b68       ??_C@_0CK@CDFEGPDE@models?1weapons2?1detpack?1det_pack@ 4013db68     bg_misc.obj
 0003:00001b9c       ??_C@_0CI@CBJMGLP@models?1weapons2?1detpack?1det_pack@ 4013db9c     bg_misc.obj
 0003:00001bcc       ??_C@_0N@CIBIOIEN@ammo_detpack?$AA@ 4013dbcc     bg_misc.obj
 0003:00001bdc       ??_C@_0BN@CMMDBNGF@?$EAMENUS_TRIP_MINES_CONSIST_OF?$AA@ 4013dbdc     bg_misc.obj
 0003:00001c00       ??_C@_0BI@HEJGEJJK@gfx?1hud?1w_icon_tripmine?$AA@ 4013dc00     bg_misc.obj
 0003:00001c1c       ??_C@_0CK@BPCANEAG@models?1weapons2?1laser_trap?1laser@ 4013dc1c     bg_misc.obj
 0003:00001c50       ??_C@_0CM@PIAEKLLK@models?1weapons2?1laser_trap?1laser@ 4013dc50     bg_misc.obj
 0003:00001c84       ??_C@_0CN@JOEHJLGB@models?1weapons2?1laser_trap?1laser@ 4013dc84     bg_misc.obj
 0003:00001cbc       ??_C@_0O@GAPOPCOE@ammo_tripmine?$AA@ 4013dcbc     bg_misc.obj
 0003:00001ccc       ??_C@_0BN@FMFLLCGL@?$EAMENUS_THE_THERMAL_DETONATOR?$AA@ 4013dccc     bg_misc.obj
 0003:00001cf0       ??_C@_0BH@OIMKPGPF@gfx?1hud?1w_icon_thermal?$AA@ 4013dcf0     bg_misc.obj
 0003:00001d0c       ??_C@_0CE@PJGNCPEG@models?1weapons2?1thermal?1thermal?4@ 4013dd0c     bg_misc.obj
 0003:00001d38       ??_C@_0CG@CCBCCJGG@models?1weapons2?1thermal?1thermal_@ 4013dd38     bg_misc.obj
 0003:00001d68       ??_C@_0CH@BBPIBDBM@models?1weapons2?1thermal?1thermal_@ 4013dd68     bg_misc.obj
 0003:00001d98       ??_C@_0N@IBCNMHOJ@ammo_thermal?$AA@ 4013dd98     bg_misc.obj
 0003:00001da8       ??_C@_0CC@EJOKBHDJ@?$EAMENUS_THE_PLX_2M_IS_AN_EXTREMEL@ 4013dda8     bg_misc.obj
 0003:00001dd0       ??_C@_0BI@DDNFEDEJ@gfx?1hud?1w_icon_merrsonn?$AA@ 4013ddd0     bg_misc.obj
 0003:00001dec       ??_C@_0CI@CPIMDKHH@models?1weapons2?1merr_sonn?1merr_s@ 4013ddec     bg_misc.obj
 0003:00001e1c       ??_C@_0CK@IJJCBMNO@models?1weapons2?1merr_sonn?1merr_s@ 4013de1c     bg_misc.obj
 0003:00001e50       ??_C@_0BH@CFPMIEJH@weapon_rocket_launcher?$AA@ 4013de50     bg_misc.obj
 0003:00001e6c       ??_C@_0CE@HHDMNMLP@?$EAMENUS_WIDELY_USED_BY_THE_CORPOR@ 4013de6c     bg_misc.obj
 0003:00001e98       ??_C@_0BJ@PJJJCKNF@gfx?1hud?1w_icon_flechette?$AA@ 4013de98     bg_misc.obj
 0003:00001eb8       ??_C@_0CK@CNAHGKMH@models?1weapons2?1golan_arms?1golan@ 4013deb8     bg_misc.obj
 0003:00001eec       ??_C@_0CM@GDMOBBJ@models?1weapons2?1golan_arms?1golan@ 4013deec     bg_misc.obj
 0003:00001f20       ??_C@_0BB@HNIDLLLF@weapon_flechette?$AA@ 4013df20     bg_misc.obj
 0003:00001f34       ??_C@_0BM@BCDPDFEB@?$EAMENUS_COMMONLY_REFERRED_TO?$AA@ 4013df34     bg_misc.obj
 0003:00001f58       ??_C@_0BF@BPEBOIFE@gfx?1hud?1w_icon_demp2?$AA@ 4013df58     bg_misc.obj
 0003:00001f74       ??_C@_0CA@PKACJAPI@models?1weapons2?1demp2?1demp2?4md3?$AA@ 4013df74     bg_misc.obj
 0003:00001f9c       ??_C@_0CC@DIKAHCC@models?1weapons2?1demp2?1demp2_w?4gl@ 4013df9c     bg_misc.obj
 0003:00001fc4       ??_C@_0N@MBLCNHPF@weapon_demp2?$AA@ 4013dfc4     bg_misc.obj
 0003:00001fd4       ??_C@_0CD@FCKGGFFG@?$EAMENUS_THIS_DESTRUCTIVE_PROJECTI@ 4013dfd4     bg_misc.obj
 0003:00002000       ??_C@_0BI@LOPKELCD@gfx?1hud?1w_icon_repeater?$AA@ 4013e000     bg_misc.obj
 0003:0000201c       ??_C@_0DC@FAHGABEB@models?1weapons2?1heavy_repeater?1h@ 4013e01c     bg_misc.obj
 0003:00002058       ??_C@_0DE@LBIFBLHF@models?1weapons2?1heavy_repeater?1h@ 4013e058     bg_misc.obj
 0003:00002098       ??_C@_0BA@BKCKPFDA@weapon_repeater?$AA@ 4013e098     bg_misc.obj
 0003:000020ac       ??_C@_0BM@MHHBLDA@?$EAMENUS_THIS_ARCHAIC_LOOKING?$AA@ 4013e0ac     bg_misc.obj
 0003:000020d0       ??_C@_0BJ@CHKJPOAH@gfx?1hud?1w_icon_bowcaster?$AA@ 4013e0d0     bg_misc.obj
 0003:000020f0       ??_C@_0CI@MANABGJH@models?1weapons2?1bowcaster?1bowcas@ 4013e0f0     bg_misc.obj
 0003:00002120       ??_C@_0CK@OFDEGMIN@models?1weapons2?1bowcaster?1bowcas@ 4013e120     bg_misc.obj
 0003:00002154       ??_C@_0BB@KDLDGPGH@weapon_bowcaster?$AA@ 4013e154     bg_misc.obj
 0003:00002168       ??_C@_0BN@PDALGMFE@?$EAMENUS_THIS_NEFARIOUS_WEAPON?$AA@ 4013e168     bg_misc.obj
 0003:0000218c       ??_C@_0BJ@MODONBMB@gfx?1hud?1w_icon_disruptor?$AA@ 4013e18c     bg_misc.obj
 0003:000021ac       ??_C@_0CI@KNAINLEF@models?1weapons2?1disruptor?1disrup@ 4013e1ac     bg_misc.obj
 0003:000021dc       ??_C@_0CK@LDOPBIMF@models?1weapons2?1disruptor?1disrup@ 4013e1dc     bg_misc.obj
 0003:00002210       ??_C@_0BB@EKCEEAKB@weapon_disruptor?$AA@ 4013e210     bg_misc.obj
 0003:00002224       ??_C@_0BN@KLDCJACF@?$EAMENUS_THE_PRIMARY_WEAPON_OF?$AA@ 4013e224     bg_misc.obj
 0003:00002248       ??_C@_0BH@POPJAOPK@gfx?1hud?1w_icon_blaster?$AA@ 4013e248     bg_misc.obj
 0003:00002264       ??_C@_0CG@IJILPHPH@models?1weapons2?1blaster_r?1blaste@ 4013e264     bg_misc.obj
 0003:00002294       ??_C@_0CI@FHMEJMJP@models?1weapons2?1blaster_r?1blaste@ 4013e294     bg_misc.obj
 0003:000022c4       ??_C@_0P@PPIDHAJM@weapon_blaster?$AA@ 4013e2c4     bg_misc.obj
 0003:000022d8       ??_C@_0BK@JHPMONHL@?$EASP_INGAME_BLASTER_PISTOL?$AA@ 4013e2d8     bg_misc.obj
 0003:000022f8       ??_C@_0BF@HJCHFBMO@gfx?1hud?1w_icon_briar?$AA@ 4013e2f8     bg_misc.obj
 0003:00002314       ??_C@_0CO@LMBDAEMJ@models?1weapons2?1briar_pistol?1bri@ 4013e314     bg_misc.obj
 0003:0000234c       ??_C@_0DA@DCLFBBNM@models?1weapons2?1briar_pistol?1bri@ 4013e34c     bg_misc.obj
 0003:00002388       ??_C@_0BE@NCEGAEHJ@weapon_bryar_pistol?$AA@ 4013e388     bg_misc.obj
 0003:000023a0       ??_C@_0BH@OEFKMKID@?$EAMENUS_CONC_RIFLE_DESC?$AA@ 4013e3a0     bg_misc.obj
 0003:000023bc       ??_C@_0BH@PEIIGOLA@gfx?1hud?1w_icon_c_rifle?$AA@ 4013e3bc     bg_misc.obj
 0003:000023d8       ??_C@_0CH@PIBGBJPN@models?1weapons2?1concussion?1c_rif@ 4013e3d8     bg_misc.obj
 0003:00002408       ??_C@_0CJ@OKJJMKPH@models?1weapons2?1concussion?1c_rif@ 4013e408     bg_misc.obj
 0003:0000243c       ??_C@_0BI@JFLEEDJH@weapon_concussion_rifle?$AA@ 4013e43c     bg_misc.obj
 0003:00002458       ??_C@_0BL@EJPJHBLO@?$EAMENUS_BLASTER_PISTOL_DESC?$AA@ 4013e458     bg_misc.obj
 0003:00002478       ??_C@_0BO@EGOADNOO@gfx?1hud?1w_icon_blaster_pistol?$AA@ 4013e478     bg_misc.obj
 0003:0000249c       ??_C@_0DC@EGNBDNKO@models?1weapons2?1blaster_pistol?1b@ 4013e49c     bg_misc.obj
 0003:000024d8       ??_C@_0DE@EHAMJOHG@models?1weapons2?1blaster_pistol?1b@ 4013e4d8     bg_misc.obj
 0003:00002518       ??_C@_0BG@JEHALHIL@weapon_blaster_pistol?$AA@ 4013e518     bg_misc.obj
 0003:00002534       ??_C@_0BN@GPMHMMHO@?$EAMENUS_AN_ELEGANT_WEAPON_FOR?$AA@ 4013e534     bg_misc.obj
 0003:00002558       ??_C@_0BK@DENAAEJI@gfx?1hud?1w_icon_lightsaber?$AA@ 4013e558     bg_misc.obj
 0003:00002578       ??_C@_0CC@LELHOPDH@models?1weapons2?1saber?1saber_w?4md@ 4013e578     bg_misc.obj
 0003:000025a0       ??_C@_0CC@PBCBCODB@models?1weapons2?1saber?1saber_w?4gl@ 4013e5a0     bg_misc.obj
 0003:000025c8       ??_C@_0N@JIBGHNNO@weapon_saber?$AA@ 4013e5c8     bg_misc.obj
 0003:000025d8       ??_C@_0BC@CEFBGLCB@?$EAMENUS_MELEE_DESC?$AA@ 4013e5d8     bg_misc.obj
 0003:000025f0       ??_C@_0BF@GPOFHEPB@gfx?1hud?1w_icon_melee?$AA@ 4013e5f0     bg_misc.obj
 0003:0000260c       ??_C@_0CF@INEBKGM@models?1weapons2?1stun_baton?1baton@ 4013e60c     bg_misc.obj
 0003:00002638       ??_C@_0CH@BLMKNANE@models?1weapons2?1stun_baton?1baton@ 4013e638     bg_misc.obj
 0003:00002668       ??_C@_0N@LBBGELFA@weapon_melee?$AA@ 4013e668     bg_misc.obj
 0003:00002678       ??_C@_0BE@OEFHDNBF@gfx?1hud?1mpi_ysamari?$AA@ 4013e678     bg_misc.obj
 0003:00002690       ??_C@_0CE@KCIGBHIN@models?1map_objects?1mp?1ysalimari?4@ 4013e690     bg_misc.obj
 0003:000026bc       ??_C@_0BL@LEFKKCEP@sound?1player?1ysalimari?4wav?$AA@ 4013e6bc     bg_misc.obj
 0003:000026dc       ??_C@_0P@BMGIHJKN@item_ysalimari?$AA@ 4013e6dc     bg_misc.obj
 0003:000026f0       ??_C@_0BC@DEOLDKOL@gfx?1hud?1mpi_fboon?$AA@ 4013e6f0     bg_misc.obj
 0003:00002708       ??_C@_0CF@JPDLAKMB@models?1map_objects?1mp?1force_boon@ 4013e708     bg_misc.obj
 0003:00002734       ??_C@_0BG@GFIPDGIH@sound?1player?1boon?4wav?$AA@ 4013e734     bg_misc.obj
 0003:00002750       ??_C@_0BA@HALIIJIE@item_force_boon?$AA@ 4013e750     bg_misc.obj
 0003:00002764       ??_C@_0BE@NFHAGLDO@gfx?1hud?1mpi_dklight?$AA@ 4013e764     bg_misc.obj
 0003:0000277c       ??_C@_0CL@IJLGBCPL@models?1map_objects?1mp?1dk_enlight@ 4013e77c     bg_misc.obj
 0003:000027b0       ??_C@_0BK@JFKBFAGB@item_force_enlighten_dark?$AA@ 4013e7b0     bg_misc.obj
 0003:000027d0       ??_C@_0BD@MPGMMGMB@gfx?1hud?1mpi_jlight?$AA@ 4013e7d0     bg_misc.obj
 0003:000027e8       ??_C@_0CN@DIMKCGKC@models?1map_objects?1mp?1jedi_enlig@ 4013e7e8     bg_misc.obj
 0003:00002820       ??_C@_0BP@GFNNPIJO@sound?1player?1enlightenment?4wav?$AA@ 4013e820     bg_misc.obj
 0003:00002848       ??_C@_0BL@MINBJMDE@item_force_enlighten_light?$AA@ 4013e848     bg_misc.obj
 0003:00002868       ??_C@_0N@LDKIPHF@Flamethrower?$AA@ 4013e868     bg_misc.obj
 0003:00002878       ??_C@_0BC@FEOIGMFL@item_flamethrower?$AA@ 4013e878     bg_misc.obj
 0003:00002890       ??_C@_0BC@GHMKCCIP@?$EAMENUS_CLOAK_DESC?$AA@ 4013e890     bg_misc.obj
 0003:000028a8       ??_C@_0BF@JNCBPHCG@gfx?1hud?1i_icon_cloak?$AA@ 4013e8a8     bg_misc.obj
 0003:000028c4       ??_C@_0L@LGDPDIAF@item_cloak?$AA@ 4013e8c4     bg_misc.obj
 0003:000028d4       ??_C@_0BB@BOLMLFOH@?$EAMENUS_EWEB_DESC?$AA@ 4013e8d4     bg_misc.obj
 0003:000028e8       ??_C@_0BE@HACMCHO@gfx?1hud?1i_icon_eweb?$AA@ 4013e8e8     bg_misc.obj
 0003:00002900       ??_C@_0CH@FJBCGPDI@models?1map_objects?1hoth?1eweb_mod@ 4013e900     bg_misc.obj
 0003:00002930       ??_C@_0CA@PCDIFNM@sound?1interface?1shieldcon_empty?$AA@ 4013e930     bg_misc.obj
 0003:00002958       ??_C@_0BD@FNDPGFNF@item_eweb_holdable?$AA@ 4013e958     bg_misc.obj
 0003:00002970       ??_C@_0BI@NJGLIFAN@gfx?1hud?1i_icon_ammodisp?$AA@ 4013e970     bg_misc.obj
 0003:0000298c       ??_C@_0O@FFANILHN@item_ammodisp?$AA@ 4013e98c     bg_misc.obj
 0003:0000299c       ??_C@_0BK@CIGOJBM@gfx?1hud?1i_icon_healthdisp?$AA@ 4013e99c     bg_misc.obj
 0003:000029bc       ??_C@_0BA@MKABDBIL@item_healthdisp?$AA@ 4013e9bc     bg_misc.obj
 0003:000029d0       ??_C@_0BE@JOMGFMAF@?$EAMENUS_JETPACK_DESC?$AA@ 4013e9d0     bg_misc.obj
 0003:000029e8       ??_C@_0FD@EDGCAKBF@sound?1chars?1boba?1JETON?4wav?5sound@ 4013e9e8     bg_misc.obj
 0003:00002a4c       ??_C@_0BF@CHFBNMLA@effects?1boba?1jet?4efx?$AA@ 4013ea4c     bg_misc.obj
 0003:00002a68       ??_C@_0BH@PNGEEMFJ@gfx?1hud?1i_icon_jetpack?$AA@ 4013ea68     bg_misc.obj
 0003:00002a84       ??_C@_0N@EIBGMPAH@item_jetpack?$AA@ 4013ea84     bg_misc.obj
 0003:00002a94       ??_C@_0BN@MFHKBDDJ@?$EAMENUS_THIS_DEADLY_WEAPON_IS?$AA@ 4013ea94     bg_misc.obj
 0003:00002ab8       ??_C@_0BJ@JKBMBJCM@gfx?1hud?1i_icon_sentrygun?$AA@ 4013eab8     bg_misc.obj
 0003:00002ad8       ??_C@_0BH@PFALJFOC@models?1items?1psgun?4glm?$AA@ 4013ead8     bg_misc.obj
 0003:00002af4       ??_C@_0BA@HKIJMOIG@item_sentry_gun?$AA@ 4013eaf4     bg_misc.obj
 0003:00002b08       ??_C@_0BL@PADDACKM@?$EASP_INGAME_LA_GOGGLES_DESC?$AA@ 4013eb08     bg_misc.obj
 0003:00002b28       ??_C@_0BE@PKBACEEE@gfx?1hud?1i_icon_zoom?$AA@ 4013eb28     bg_misc.obj
 0003:00002b40       ??_C@_0BM@HNHCIOH@models?1items?1binoculars?4md3?$AA@ 4013eb40     bg_misc.obj
 0003:00002b64       ??_C@_0BA@KBLOKIGM@item_binoculars?$AA@ 4013eb64     bg_misc.obj
 0003:00002b78       ??_C@_0BJ@DMMPEJNE@gfx?1hud?1i_icon_big_bacta?$AA@ 4013eb78     bg_misc.obj
 0003:00002b98       ??_C@_0BL@HEJMELJJ@models?1items?1big_bacta?4md3?$AA@ 4013eb98     bg_misc.obj
 0003:00002bb8       ??_C@_0BA@JADGBDOO@item_medpac_big?$AA@ 4013ebb8     bg_misc.obj
 0003:00002bcc       ??_C@_0BG@BFJBNBGL@?$EASP_INGAME_BACTA_DESC?$AA@ 4013ebcc     bg_misc.obj
 0003:00002be8       ??_C@_0BF@EDJNGJL@gfx?1hud?1i_icon_bacta?$AA@ 4013ebe8     bg_misc.obj
 0003:00002c04       ??_C@_0CA@COCFAODK@models?1map_objects?1mp?1bacta?4md3?$AA@ 4013ec04     bg_misc.obj
 0003:00002c2c       ??_C@_0M@NLNOFNHL@item_medpac?$AA@ 4013ec2c     bg_misc.obj
 0003:00002c3c       ??_C@_0BO@HHEDFEHB@?$EAMENUS_THIS_STATIONARY_ENERGY?$AA@ 4013ec3c     bg_misc.obj
 0003:00002c60       ??_C@_0KM@PHBHELNF@sound?1weapons?1detpack?1stick?4wav?5@ 4013ec60     bg_misc.obj
 0003:00002d30       ??_C@_0BK@OODCPGGP@gfx?1hud?1i_icon_shieldwall?$AA@ 4013ed30     bg_misc.obj
 0003:00002d50       ??_C@_0CB@EAKHAPIK@models?1map_objects?1mp?1shield?4md3@ 4013ed50     bg_misc.obj
 0003:00002d78       ??_C@_0M@IIGPMPLO@item_shield?$AA@ 4013ed78     bg_misc.obj
 0003:00002d88       ??_C@_0BP@JJMOPAPI@?$EAMENUS_AN_ATTACK_DRONE_SIMILAR?$AA@ 4013ed88     bg_misc.obj
 0003:00002db0       ??_C@_0BG@KANLKHLH@gfx?1hud?1i_icon_seeker?$AA@ 4013edb0     bg_misc.obj
 0003:00002dcc       ??_C@_0BI@PEKMFNBP@models?1items?1remote?4md3?$AA@ 4013edcc     bg_misc.obj
 0003:00002de8       ??_C@_0BJ@IBMECGJM@sound?1weapons?1w_pkup?4wav?$AA@ 4013ede8     bg_misc.obj
 0003:00002e08       ??_C@_0M@CJHMIAK@item_seeker?$AA@ 4013ee08     bg_misc.obj
 0003:00002e18       ??_C@_0BG@PFBKDHHG@gfx?1hud?1i_icon_medkit?$AA@ 4013ee18     bg_misc.obj
 0003:00002e34       ??_C@_0CB@PABPOCJH@models?1map_objects?1mp?1medpac?4md3@ 4013ee34     bg_misc.obj
 0003:00002e5c       ??_C@_0BO@NIGJKPEE@sound?1player?1pickuphealth?4wav?$AA@ 4013ee5c     bg_misc.obj
 0003:00002e80       ??_C@_0BE@MEFMIHAD@item_medpak_instant?$AA@ 4013ee80     bg_misc.obj
 0003:00002e98       ??_C@_0BE@JKBNBKPH@gfx?1mp?1large_shield?$AA@ 4013ee98     bg_misc.obj
 0003:00002eb0       ??_C@_0BO@JPJCNECL@models?1map_objects?1mp?1psd?4md3?$AA@ 4013eeb0     bg_misc.obj
 0003:00002ed4       ??_C@_0BI@HGJKGJEB@item_shield_lrg_instant?$AA@ 4013eed4     bg_misc.obj
 0003:00002ef0       ??_C@_0BE@GPDHMLPP@gfx?1mp?1small_shield?$AA@ 4013eef0     bg_misc.obj
 0003:00002f08       ??_C@_0CB@FFNAAGJJ@models?1map_objects?1mp?1psd_sm?4md3@ 4013ef08     bg_misc.obj
 0003:00002f30       ??_C@_0BO@CHCEMMJK@sound?1player?1pickupshield?4wav?$AA@ 4013ef30     bg_misc.obj
 0003:00002f54       ??_C@_0BH@DINJFPKN@item_shield_sm_instant?$AA@ 4013ef54     bg_misc.obj
 0003:00002f6f       ??_C@_00CNPNBAHC@?$AA@     4013ef6f     bg_misc.obj
 0003:00002f70       ??_C@_08FEEDNBKC@MASTERY7?$AA@ 4013ef70     bg_misc.obj
 0003:00002f7c       ??_C@_08ENFIOAOD@MASTERY6?$AA@ 4013ef7c     bg_misc.obj
 0003:00002f88       ??_C@_08GGHFLDCA@MASTERY5?$AA@ 4013ef88     bg_misc.obj
 0003:00002f94       ??_C@_08HPGOICGB@MASTERY4?$AA@ 4013ef94     bg_misc.obj
 0003:00002fa0       ??_C@_08DACPBEKG@MASTERY3?$AA@ 4013efa0     bg_misc.obj
 0003:00002fac       ??_C@_08CJDECFOH@MASTERY2?$AA@ 4013efac     bg_misc.obj
 0003:00002fb8       ??_C@_08CBJHGCE@MASTERY1?$AA@ 4013efb8     bg_misc.obj
 0003:00002fc4       ??_C@_08BLACEHGF@MASTERY0?$AA@ 4013efc4     bg_misc.obj
 0003:00002fd0       ??_C@_0O@GKPNHIOC@?$CKtac_together?$AA@ 4013efd0     bg_misc.obj
 0003:00002fe0       ??_C@_0L@MGMJIMAF@?$CKtac_split?$AA@ 4013efe0     bg_misc.obj
 0003:00002ff0       ??_C@_09DINJJNAI@?$CKtac_hold?$AA@ 4013eff0     bg_misc.obj
 0003:00002ffc       ??_C@_0M@PABJGNLG@?$CKtac_follow?$AA@ 4013effc     bg_misc.obj
 0003:0000300c       ??_C@_0O@NFGMPNBH@?$CKtac_fallback?$AA@ 4013f00c     bg_misc.obj
 0003:0000301c       ??_C@_0L@EHELGHNE@?$CKtac_cover?$AA@ 4013f01c     bg_misc.obj
 0003:0000302c       ??_C@_0N@KDPAKEEJ@?$CKspot_troops?$AA@ 4013f02c     bg_misc.obj
 0003:0000303c       ??_C@_0N@JGIPLKJE@?$CKspot_sniper?$AA@ 4013f03c     bg_misc.obj
 0003:0000304c       ??_C@_0P@LLDGJFLE@?$CKspot_emplaced?$AA@ 4013f04c     bg_misc.obj
 0003:00003060       ??_C@_0P@ILGDCGKG@?$CKspot_defenses?$AA@ 4013f060     bg_misc.obj
 0003:00003074       ??_C@_09KPOPDKGM@?$CKspot_air?$AA@ 4013f074     bg_misc.obj
 0003:00003080       ??_C@_09FCIMPFEJ@?$CKreq_tech?$AA@ 4013f080     bg_misc.obj
 0003:0000308c       ??_C@_08EHGAEMIC@?$CKreq_sup?$AA@ 4013f08c     bg_misc.obj
 0003:00003098       ??_C@_0L@PJEOEMHI@?$CKreq_medic?$AA@ 4013f098     bg_misc.obj
 0003:000030a8       ??_C@_08BDPMJJAM@?$CKreq_hvy?$AA@ 4013f0a8     bg_misc.obj
 0003:000030b4       ??_C@_09HHLDNJAG@?$CKreq_demo?$AA@ 4013f0b4     bg_misc.obj
 0003:000030c0       ??_C@_0M@MJLNGIKA@?$CKreq_assist?$AA@ 4013f0c0     bg_misc.obj
 0003:000030d0       ??_C@_0L@DOBCHHPE@?$CKreply_yes?$AA@ 4013f0d0     bg_misc.obj
 0003:000030e0       ??_C@_0M@PJKELJII@?$CKreply_stay?$AA@ 4013f0e0     bg_misc.obj
 0003:000030f0       ??_C@_09FGIKFCBO@?$CKreply_no?$AA@ 4013f0f0     bg_misc.obj
 0003:000030fc       ??_C@_09FJFLGJJB@?$CKreply_go?$AA@ 4013f0fc     bg_misc.obj
 0003:00003108       ??_C@_0O@LCDECPIN@?$CKreply_coming?$AA@ 4013f108     bg_misc.obj
 0003:00003118       ??_C@_0M@HJCGMPNN@?$CKdef_second?$AA@ 4013f118     bg_misc.obj
 0003:00003128       ??_C@_0N@LBIDFACI@?$CKdef_primary?$AA@ 4013f128     bg_misc.obj
 0003:00003138       ??_C@_0O@EGEINPEB@?$CKdef_position?$AA@ 4013f138     bg_misc.obj
 0003:00003148       ??_C@_09PJJIIOPG@?$CKdef_guns?$AA@ 4013f148     bg_misc.obj
 0003:00003154       ??_C@_0M@ECCLODLO@?$CKatt_second?$AA@ 4013f154     bg_misc.obj
 0003:00003164       ??_C@_0N@GFADGNOG@?$CKatt_primary?$AA@ 4013f164     bg_misc.obj
 0003:00003174       ??_C@_0M@MHLPAMFK@?$CKatt_attack?$AA@ 4013f174     bg_misc.obj
 0003:00003184       ??_C@_0N@ODJGPHCM@force_shield?$AA@ 4013f184     bg_misc.obj
 0003:00003194       ??_C@_0BI@KPCBHBOL@head_light_blaster_cann?$AA@ 4013f194     bg_misc.obj
 0003:000031b0       ??_C@_0BI@FPANAMDK@head_concussion_charger?$AA@ 4013f1b0     bg_misc.obj
 0003:000031cc       ??_C@_04NEODDMOL@head?$AA@ 4013f1cc     bg_misc.obj
 0003:000031d4       ??_C@_06BCDCLMEB@helmet?$AA@ 4013f1d4     bg_misc.obj
 0003:000031dc       ??_C@_06INLMLPMC@r_hand?$AA@ 4013f1dc     bg_misc.obj
 0003:000031e4       ??_C@_06LKFNFIFB@l_hand?$AA@ 4013f1e4     bg_misc.obj
 0003:000031ec       ??_C@_05DAKMKCAJ@blah5?$AA@ 4013f1ec     bg_misc.obj
 0003:000031f4       ??_C@_05CJLHJDEI@blah4?$AA@ 4013f1f4     bg_misc.obj
 0003:000031fc       ??_C@_04DCKHGPHA@nose?$AA@ 4013f1fc     bg_misc.obj
 0003:00003204       ??_C@_06KAKLKKDN@l_gear?$AA@ 4013f204     bg_misc.obj
 0003:0000320c       ??_C@_06JHEKENKO@r_gear?$AA@ 4013f20c     bg_misc.obj
 0003:00003214       ??_C@_07DBBACNJN@l_wing2?$AA@ 4013f214     bg_misc.obj
 0003:00003220       ??_C@_07BKDNHOFO@l_wing1?$AA@ 4013f220     bg_misc.obj
 0003:0000322c       ??_C@_07FICBAOIE@r_wing2?$AA@ 4013f22c     bg_misc.obj
 0003:00003238       ??_C@_07HDAMFNEH@r_wing1?$AA@ 4013f238     bg_misc.obj
 0003:00003244       ??_C@_0N@FODOKFMD@torso_collar?$AA@ 4013f244     bg_misc.obj
 0003:00003254       ??_C@_0BB@FPOHHKLE@torso_galaktorso?$AA@ 4013f254     bg_misc.obj
 0003:00003268       ??_C@_0N@IFENOPML@torso_shield?$AA@ 4013f268     bg_misc.obj
 0003:00003278       ??_C@_05IPPEPANF@l_arm?$AA@ 4013f278     bg_misc.obj
 0003:00003280       ??_C@_05LGCIJDDO@r_arm?$AA@ 4013f280     bg_misc.obj
 0003:00003288       ??_C@_0M@HACAOHEH@torso_tube6?$AA@ 4013f288     bg_misc.obj
 0003:00003298       ??_C@_0M@FLANLEIE@torso_tube5?$AA@ 4013f298     bg_misc.obj
 0003:000032a8       ??_C@_0M@ECBGIFMF@torso_tube4?$AA@ 4013f2a8     bg_misc.obj
 0003:000032b8       ??_C@_0M@NFHBDAC@torso_tube3?$AA@ 4013f2b8     bg_misc.obj
 0003:000032c8       ??_C@_0M@BEEMCCED@torso_tube2?$AA@ 4013f2c8     bg_misc.obj
 0003:000032d8       ??_C@_0M@DPGBHBIA@torso_tube1?$AA@ 4013f2d8     bg_misc.obj
 0003:000032e8       ??_C@_0BA@DHJPAGAH@torso_canister3?$AA@ 4013f2e8     bg_misc.obj
 0003:000032fc       ??_C@_0BA@COIEDHEG@torso_canister2?$AA@ 4013f2fc     bg_misc.obj
 0003:00003310       ??_C@_0BA@FKJGEIF@torso_canister1?$AA@ 4013f310     bg_misc.obj
 0003:00003324       ??_C@_09EPBMGDBP@l_arm_key?$AA@ 4013f324     bg_misc.obj
 0003:00003330       ?has_denorm@_Num_base@std@@2W4float_denorm_style@2@B 4013f330     bg_misc.obj
 0003:00003334       ?has_denorm_loss@_Num_base@std@@2_NB 4013f334     bg_misc.obj
 0003:00003335       ?has_infinity@_Num_base@std@@2_NB 4013f335     bg_misc.obj
 0003:00003336       ?has_quiet_NaN@_Num_base@std@@2_NB 4013f336     bg_misc.obj
 0003:00003337       ?has_signaling_NaN@_Num_base@std@@2_NB 4013f337     bg_misc.obj
 0003:00003338       ?is_bounded@_Num_base@std@@2_NB 4013f338     bg_misc.obj
 0003:00003339       ?is_exact@_Num_base@std@@2_NB 4013f339     bg_misc.obj
 0003:0000333a       ?is_iec559@_Num_base@std@@2_NB 4013f33a     bg_misc.obj
 0003:0000333b       ?is_integer@_Num_base@std@@2_NB 4013f33b     bg_misc.obj
 0003:0000333c       ?is_modulo@_Num_base@std@@2_NB 4013f33c     bg_misc.obj
 0003:0000333d       ?is_signed@_Num_base@std@@2_NB 4013f33d     bg_misc.obj
 0003:0000333e       ?is_specialized@_Num_base@std@@2_NB 4013f33e     bg_misc.obj
 0003:0000333f       ?tinyness_before@_Num_base@std@@2_NB 4013f33f     bg_misc.obj
 0003:00003340       ?traps@_Num_base@std@@2_NB 4013f340     bg_misc.obj
 0003:00003344       ?round_style@_Num_base@std@@2W4float_round_style@2@B 4013f344     bg_misc.obj
 0003:00003348       ?digits@_Num_base@std@@2HB 4013f348     bg_misc.obj
 0003:0000334c       ?digits10@_Num_base@std@@2HB 4013f34c     bg_misc.obj
 0003:00003350       ?max_digits10@_Num_base@std@@2HB 4013f350     bg_misc.obj
 0003:00003354       ?max_exponent@_Num_base@std@@2HB 4013f354     bg_misc.obj
 0003:00003358       ?max_exponent10@_Num_base@std@@2HB 4013f358     bg_misc.obj
 0003:0000335c       ?min_exponent@_Num_base@std@@2HB 4013f35c     bg_misc.obj
 0003:00003360       ?min_exponent10@_Num_base@std@@2HB 4013f360     bg_misc.obj
 0003:00003364       ?radix@_Num_base@std@@2HB  4013f364     bg_misc.obj
 0003:00003368       ?is_bounded@_Num_int_base@std@@2_NB 4013f368     bg_misc.obj
 0003:00003369       ?is_exact@_Num_int_base@std@@2_NB 4013f369     bg_misc.obj
 0003:0000336a       ?is_integer@_Num_int_base@std@@2_NB 4013f36a     bg_misc.obj
 0003:0000336b       ?is_modulo@_Num_int_base@std@@2_NB 4013f36b     bg_misc.obj
 0003:0000336c       ?is_specialized@_Num_int_base@std@@2_NB 4013f36c     bg_misc.obj
 0003:00003370       ?radix@_Num_int_base@std@@2HB 4013f370     bg_misc.obj
 0003:00003374       ?has_denorm@_Num_float_base@std@@2W4float_denorm_style@2@B 4013f374     bg_misc.obj
 0003:00003378       ?has_denorm_loss@_Num_float_base@std@@2_NB 4013f378     bg_misc.obj
 0003:00003379       ?has_infinity@_Num_float_base@std@@2_NB 4013f379     bg_misc.obj
 0003:0000337a       ?has_quiet_NaN@_Num_float_base@std@@2_NB 4013f37a     bg_misc.obj
 0003:0000337b       ?has_signaling_NaN@_Num_float_base@std@@2_NB 4013f37b     bg_misc.obj
 0003:0000337c       ?is_bounded@_Num_float_base@std@@2_NB 4013f37c     bg_misc.obj
 0003:0000337d       ?is_exact@_Num_float_base@std@@2_NB 4013f37d     bg_misc.obj
 0003:0000337e       ?is_iec559@_Num_float_base@std@@2_NB 4013f37e     bg_misc.obj
 0003:0000337f       ?is_integer@_Num_float_base@std@@2_NB 4013f37f     bg_misc.obj
 0003:00003380       ?is_modulo@_Num_float_base@std@@2_NB 4013f380     bg_misc.obj
 0003:00003381       ?is_signed@_Num_float_base@std@@2_NB 4013f381     bg_misc.obj
 0003:00003382       ?is_specialized@_Num_float_base@std@@2_NB 4013f382     bg_misc.obj
 0003:00003383       ?tinyness_before@_Num_float_base@std@@2_NB 4013f383     bg_misc.obj
 0003:00003384       ?traps@_Num_float_base@std@@2_NB 4013f384     bg_misc.obj
 0003:00003388       ?round_style@_Num_float_base@std@@2W4float_round_style@2@B 4013f388     bg_misc.obj
 0003:0000338c       ?radix@_Num_float_base@std@@2HB 4013f38c     bg_misc.obj
 0003:00003390       ?is_signed@?$numeric_limits@D@std@@2_NB 4013f390     bg_misc.obj
 0003:00003394       ?digits@?$numeric_limits@D@std@@2HB 4013f394     bg_misc.obj
 0003:00003398       ?digits10@?$numeric_limits@D@std@@2HB 4013f398     bg_misc.obj
 0003:0000339c       ?max_digits10@?$numeric_limits@D@std@@2HB 4013f39c     bg_misc.obj
 0003:000033a0       ?is_signed@?$numeric_limits@_W@std@@2_NB 4013f3a0     bg_misc.obj
 0003:000033a4       ?digits@?$numeric_limits@_W@std@@2HB 4013f3a4     bg_misc.obj
 0003:000033a8       ?digits10@?$numeric_limits@_W@std@@2HB 4013f3a8     bg_misc.obj
 0003:000033ac       ?max_digits10@?$numeric_limits@_W@std@@2HB 4013f3ac     bg_misc.obj
 0003:000033b0       ?is_modulo@?$numeric_limits@_N@std@@2_NB 4013f3b0     bg_misc.obj
 0003:000033b1       ?is_signed@?$numeric_limits@_N@std@@2_NB 4013f3b1     bg_misc.obj
 0003:000033b4       ?digits@?$numeric_limits@_N@std@@2HB 4013f3b4     bg_misc.obj
 0003:000033b8       ?digits10@?$numeric_limits@_N@std@@2HB 4013f3b8     bg_misc.obj
 0003:000033bc       ?max_digits10@?$numeric_limits@_N@std@@2HB 4013f3bc     bg_misc.obj
 0003:000033c0       ?is_signed@?$numeric_limits@C@std@@2_NB 4013f3c0     bg_misc.obj
 0003:000033c4       ?digits@?$numeric_limits@C@std@@2HB 4013f3c4     bg_misc.obj
 0003:000033c8       ?digits10@?$numeric_limits@C@std@@2HB 4013f3c8     bg_misc.obj
 0003:000033cc       ?max_digits10@?$numeric_limits@C@std@@2HB 4013f3cc     bg_misc.obj
 0003:000033d0       ?is_signed@?$numeric_limits@E@std@@2_NB 4013f3d0     bg_misc.obj
 0003:000033d4       ?digits@?$numeric_limits@E@std@@2HB 4013f3d4     bg_misc.obj
 0003:000033d8       ?digits10@?$numeric_limits@E@std@@2HB 4013f3d8     bg_misc.obj
 0003:000033dc       ?max_digits10@?$numeric_limits@E@std@@2HB 4013f3dc     bg_misc.obj
 0003:000033e0       ?is_signed@?$numeric_limits@F@std@@2_NB 4013f3e0     bg_misc.obj
 0003:000033e4       ?digits@?$numeric_limits@F@std@@2HB 4013f3e4     bg_misc.obj
 0003:000033e8       ?digits10@?$numeric_limits@F@std@@2HB 4013f3e8     bg_misc.obj
 0003:000033ec       ?max_digits10@?$numeric_limits@F@std@@2HB 4013f3ec     bg_misc.obj
 0003:000033f0       ?is_signed@?$numeric_limits@G@std@@2_NB 4013f3f0     bg_misc.obj
 0003:000033f4       ?digits@?$numeric_limits@G@std@@2HB 4013f3f4     bg_misc.obj
 0003:000033f8       ?digits10@?$numeric_limits@G@std@@2HB 4013f3f8     bg_misc.obj
 0003:000033fc       ?max_digits10@?$numeric_limits@G@std@@2HB 4013f3fc     bg_misc.obj
 0003:00003400       ?is_signed@?$numeric_limits@H@std@@2_NB 4013f400     bg_misc.obj
 0003:00003404       ?digits@?$numeric_limits@H@std@@2HB 4013f404     bg_misc.obj
 0003:00003408       ?digits10@?$numeric_limits@H@std@@2HB 4013f408     bg_misc.obj
 0003:0000340c       ?max_digits10@?$numeric_limits@H@std@@2HB 4013f40c     bg_misc.obj
 0003:00003410       ?is_signed@?$numeric_limits@I@std@@2_NB 4013f410     bg_misc.obj
 0003:00003414       ?digits@?$numeric_limits@I@std@@2HB 4013f414     bg_misc.obj
 0003:00003418       ?digits10@?$numeric_limits@I@std@@2HB 4013f418     bg_misc.obj
 0003:0000341c       ?max_digits10@?$numeric_limits@I@std@@2HB 4013f41c     bg_misc.obj
 0003:00003420       ?is_signed@?$numeric_limits@J@std@@2_NB 4013f420     bg_misc.obj
 0003:00003424       ?digits@?$numeric_limits@J@std@@2HB 4013f424     bg_misc.obj
 0003:00003428       ?digits10@?$numeric_limits@J@std@@2HB 4013f428     bg_misc.obj
 0003:0000342c       ?max_digits10@?$numeric_limits@J@std@@2HB 4013f42c     bg_misc.obj
 0003:00003430       ?is_signed@?$numeric_limits@K@std@@2_NB 4013f430     bg_misc.obj
 0003:00003434       ?digits@?$numeric_limits@K@std@@2HB 4013f434     bg_misc.obj
 0003:00003438       ?digits10@?$numeric_limits@K@std@@2HB 4013f438     bg_misc.obj
 0003:0000343c       ?max_digits10@?$numeric_limits@K@std@@2HB 4013f43c     bg_misc.obj
 0003:00003440       ?is_signed@?$numeric_limits@_J@std@@2_NB 4013f440     bg_misc.obj
 0003:00003444       ?digits@?$numeric_limits@_J@std@@2HB 4013f444     bg_misc.obj
 0003:00003448       ?digits10@?$numeric_limits@_J@std@@2HB 4013f448     bg_misc.obj
 0003:0000344c       ?max_digits10@?$numeric_limits@_J@std@@2HB 4013f44c     bg_misc.obj
 0003:00003450       ?is_signed@?$numeric_limits@_K@std@@2_NB 4013f450     bg_misc.obj
 0003:00003454       ?digits@?$numeric_limits@_K@std@@2HB 4013f454     bg_misc.obj
 0003:00003458       ?digits10@?$numeric_limits@_K@std@@2HB 4013f458     bg_misc.obj
 0003:0000345c       ?max_digits10@?$numeric_limits@_K@std@@2HB 4013f45c     bg_misc.obj
 0003:00003460       ?digits@?$numeric_limits@M@std@@2HB 4013f460     bg_misc.obj
 0003:00003464       ?digits10@?$numeric_limits@M@std@@2HB 4013f464     bg_misc.obj
 0003:00003468       ?max_digits10@?$numeric_limits@M@std@@2HB 4013f468     bg_misc.obj
 0003:0000346c       ?max_exponent@?$numeric_limits@M@std@@2HB 4013f46c     bg_misc.obj
 0003:00003470       ?max_exponent10@?$numeric_limits@M@std@@2HB 4013f470     bg_misc.obj
 0003:00003474       ?min_exponent@?$numeric_limits@M@std@@2HB 4013f474     bg_misc.obj
 0003:00003478       ?min_exponent10@?$numeric_limits@M@std@@2HB 4013f478     bg_misc.obj
 0003:0000347c       ?digits@?$numeric_limits@N@std@@2HB 4013f47c     bg_misc.obj
 0003:00003480       ?digits10@?$numeric_limits@N@std@@2HB 4013f480     bg_misc.obj
 0003:00003484       ?max_digits10@?$numeric_limits@N@std@@2HB 4013f484     bg_misc.obj
 0003:00003488       ?max_exponent@?$numeric_limits@N@std@@2HB 4013f488     bg_misc.obj
 0003:0000348c       ?max_exponent10@?$numeric_limits@N@std@@2HB 4013f48c     bg_misc.obj
 0003:00003490       ?min_exponent@?$numeric_limits@N@std@@2HB 4013f490     bg_misc.obj
 0003:00003494       ?min_exponent10@?$numeric_limits@N@std@@2HB 4013f494     bg_misc.obj
 0003:00003498       ?digits@?$numeric_limits@O@std@@2HB 4013f498     bg_misc.obj
 0003:0000349c       ?digits10@?$numeric_limits@O@std@@2HB 4013f49c     bg_misc.obj
 0003:000034a0       ?max_digits10@?$numeric_limits@O@std@@2HB 4013f4a0     bg_misc.obj
 0003:000034a4       ?max_exponent@?$numeric_limits@O@std@@2HB 4013f4a4     bg_misc.obj
 0003:000034a8       ?max_exponent10@?$numeric_limits@O@std@@2HB 4013f4a8     bg_misc.obj
 0003:000034ac       ?min_exponent@?$numeric_limits@O@std@@2HB 4013f4ac     bg_misc.obj
 0003:000034b0       ?min_exponent10@?$numeric_limits@O@std@@2HB 4013f4b0     bg_misc.obj
 0003:000034b4       ?value@?$integral_constant@_N$0A@@tr1@std@@2_NB 4013f4b4     bg_misc.obj
 0003:000034b5       ?value@?$integral_constant@_N$00@tr1@std@@2_NB 4013f4b5     bg_misc.obj
 0003:000034b8       ?value@?$integral_constant@I$0A@@tr1@std@@2IB 4013f4b8     bg_misc.obj
 0003:000034bc       ?_Rank@?$_Arithmetic_traits@_N@std@@2HB 4013f4bc     bg_misc.obj
 0003:000034c0       ?_Rank@?$_Arithmetic_traits@D@std@@2HB 4013f4c0     bg_misc.obj
 0003:000034c4       ?_Rank@?$_Arithmetic_traits@C@std@@2HB 4013f4c4     bg_misc.obj
 0003:000034c8       ?_Rank@?$_Arithmetic_traits@E@std@@2HB 4013f4c8     bg_misc.obj
 0003:000034cc       ?_Rank@?$_Arithmetic_traits@F@std@@2HB 4013f4cc     bg_misc.obj
 0003:000034d0       ?_Rank@?$_Arithmetic_traits@G@std@@2HB 4013f4d0     bg_misc.obj
 0003:000034d4       ?_Rank@?$_Arithmetic_traits@H@std@@2HB 4013f4d4     bg_misc.obj
 0003:000034d8       ?_Rank@?$_Arithmetic_traits@I@std@@2HB 4013f4d8     bg_misc.obj
 0003:000034dc       ?_Rank@?$_Arithmetic_traits@J@std@@2HB 4013f4dc     bg_misc.obj
 0003:000034e0       ?_Rank@?$_Arithmetic_traits@K@std@@2HB 4013f4e0     bg_misc.obj
 0003:000034e4       ?_Rank@?$_Arithmetic_traits@_J@std@@2HB 4013f4e4     bg_misc.obj
 0003:000034e8       ?_Rank@?$_Arithmetic_traits@_K@std@@2HB 4013f4e8     bg_misc.obj
 0003:000034ec       ?_Rank@?$_Arithmetic_traits@M@std@@2HB 4013f4ec     bg_misc.obj
 0003:000034f0       ?_Rank@?$_Arithmetic_traits@N@std@@2HB 4013f4f0     bg_misc.obj
 0003:000034f4       ?_Rank@?$_Arithmetic_traits@O@std@@2HB 4013f4f4     bg_misc.obj
 0003:000034f8       ?bgToggleableSurfaceDebris@@3QBHB 4013f4f8     bg_misc.obj
 0003:0000358c       ??_C@_02IKAHHCAI@?$CFi?$AA@ 4013f58c     bg_misc.obj
 0003:00003590       ??_C@_03COHLNFKP@?$CFi?9?$AA@ 4013f590     bg_misc.obj
 0003:00003594       ??_C@_0CI@GINMDDBF@5?91?90000000000000000000000000000@ 4013f594     bg_misc.obj
 0003:000035c8       __real@4076800000000000    4013f5c8     bg_misc.obj
 0003:000035d4       __real@43870000            4013f5d4     bg_misc.obj
 0003:000035d8       __real@42b40000            4013f5d8     bg_misc.obj
 0003:000035e0       __real@400921fb60000000    4013f5e0     bg_misc.obj
 0003:000035f0       __real@4066800000000000    4013f5f0     bg_misc.obj
 0003:000035fc       __real@00000000            4013f5fc     bg_misc.obj
 0003:00003600       __real@0000000000000000    4013f600     bg_misc.obj
 0003:0000360c       ??_C@_0BH@MFGKJDLM@HoldableItem?5not?5found?$AA@ 4013f60c     bg_misc.obj
 0003:00003628       ??_C@_0CB@DEACFJO@Couldn?8t?5find?5item?5for?5weapon?5?$CFi@ 4013f628     bg_misc.obj
 0003:00003650       ??_C@_0BP@LHPKGFBO@Couldn?8t?5find?5item?5for?5ammo?5?$CFi?$AA@ 4013f650     bg_misc.obj
 0003:00003678       __real@c042000000000000    4013f678     bg_misc.obj
 0003:00003688       __real@4042000000000000    4013f688     bg_misc.obj
 0003:00003698       __real@c049000000000000    4013f698     bg_misc.obj
 0003:000036a8       __real@4046000000000000    4013f6a8     bg_misc.obj
 0003:000036b4       ??_C@_0CG@HNLFCMEK@BG_CanItemBeGrabbed?3?5unknown?5enu@ 4013f6b4     bg_misc.obj
 0003:000036e4       ??_C@_0BM@NECGLAIF@BG_CanItemBeGrabbed?3?5IT_BAD?$AA@ 4013f6e4     bg_misc.obj
 0003:00003708       ??_C@_0CI@MFONMA@BG_CanItemBeGrabbed?3?5index?5out?5o@ 4013f708     bg_misc.obj
 0003:00003738       ??_C@_0DM@PPIGHFEL@BG_EvaluateTrajectory?3?5?$FLCLIENTGA@ 4013f738     bg_misc.obj
 0003:00003780       __real@4079000000000000    4013f780     bg_misc.obj
 0003:00003790       __real@4056800000000000    4013f790     bg_misc.obj
 0003:000037a0       __real@3f50624de0000000    4013f7a0     bg_misc.obj
 0003:000037b0       __real@3f50624dd2f1a9fc    4013f7b0     bg_misc.obj
 0003:000037bc       ??_C@_0CP@MCFPOIMF@BG_EvaluateTrajectoryDelta?3?5unkn@ 4013f7bc     bg_misc.obj
 0003:000037f8       __real@4089000000000000    4013f7f8     bg_misc.obj
 0003:00003808       __real@3fe0000000000000    4013f808     bg_misc.obj
 0003:00003814       ??_C@_0DA@KOPJLGJF@Cgame?5event?5svt?5?$CF5d?5?9?$DO?5?$CF5d?3?5num?5@ 4013f814     bg_misc.obj
 0003:00003850       ??_C@_0L@MNPDPHLD@showevents?$AA@ 4013f850     bg_misc.obj
 0003:00003860       ??_C@_01GBGANLPD@0?$AA@    4013f860     bg_misc.obj
 0003:00003868       __real@4046800000000000    4013f868     bg_misc.obj
 0003:00003878       __real@bff0000000000000    4013f878     bg_misc.obj
 0003:00003888       __real@3ff0000000000000    4013f888     bg_misc.obj
 0003:00003894       ??_C@_05LKGOKJFG@fpls3?$AA@ 4013f894     bg_misc.obj
 0003:0000389c       ??_C@_05KDHFJIBH@fpls2?$AA@ 4013f89c     bg_misc.obj
 0003:000038a4       ??_C@_04BEPDCOC@fpls?$AA@  4013f8a4     bg_misc.obj
 0003:000038ac       ??_C@_04JIEPAMAO@kyle?$AA@ 4013f8ac     bg_misc.obj
 0003:000038b4       ??_C@_04EEIGNHLG@menu?$AA@ 4013f8b4     bg_misc.obj
 0003:000038bc       ??_C@_05GLFHLNLB@_blue?$AA@ 4013f8bc     bg_misc.obj
 0003:000038c4       ??_C@_0CA@ODGGEHPP@models?1players?1?$CFs?1model_?$CFs?4skin?$AA@ 4013f8c4     bg_misc.obj
 0003:000038ec       ??_C@_04NCFJPIH@_red?$AA@  4013f8ec     bg_misc.obj
 0003:000038f4       ??_C@_07DLHCIBDH@default?$AA@ 4013f8f4     bg_misc.obj
 0003:00003900       ??_C@_04OBGPFBCN@blue?$AA@ 4013f900     bg_misc.obj
 0003:00003908       ??_C@_03FAAAOPJM@red?$AA@  4013f908     bg_misc.obj
 0003:0000390c       __real@3f800000            4013f90c     bg_misc.obj
 0003:00003910       ??_C@_05HIOBFLDN@jedi_?$AA@ 4013f910     bg_misc.obj
 0003:00003918       ??_C@_0CJ@BDGLLNGN@BG_Alloc?3?5buffer?5exceeded?5tail?5?$CI@ 4013f918     bg_misc.obj
 0003:0000394c       ??_C@_0DC@MINDOIGG@BG_AllocUnaligned?3?5buffer?5exceed@ 4013f94c     bg_misc.obj
 0003:00003988       ??_C@_0CN@JLGNNLBK@BG_TempAlloc?3?5buffer?5exceeded?5he@ 4013f988     bg_misc.obj
 0003:000039c0       ??_C@_0CO@IIHBNEDD@BG_TempFree?3?5tail?5greater?5than?5s@ 4013f9c0     bg_misc.obj
 0003:000039f8       ??_C@_15DMJFFMOP@?$AAp?$AAs?$AA?$AA@ 4013f9f8     bg_misc.obj
 0003:00003a00       ??_C@_1FA@KLMFIENC@?$AAd?$AA?3?$AA?2?$AAo?$AAj?$AAp?$AA?2?$AAe?$AAn?$AAh?$AAa?$AAn?$AAc?$AAe?$AAd?$AA?2?$AAs?$AAo?$AAu?$AAr?$AAc?$AAe?$AA?2?$AAg?$AAa?$AAm?$AAe?$AA?2?$AAb?$AAg?$AA_?$AAm@ 4013fa00     bg_misc.obj
 0003:00003a60       ??_C@_0O@OALEAKPJ@heavy_weapons?$AA@ 4013fa60     bg_saga.obj
 0003:00003a70       ??_C@_0O@FEHNADND@demolitionist?$AA@ 4013fa70     bg_saga.obj
 0003:00003a80       ??_C@_0N@DFCFOLOG@jedi_general?$AA@ 4013fa80     bg_saga.obj
 0003:00003a90       ??_C@_07ILMBEDPO@support?$AA@ 4013fa90     bg_saga.obj
 0003:00003a9c       ??_C@_08KMDKBEDF@vanguard?$AA@ 4013fa9c     bg_saga.obj
 0003:00003aa8       ??_C@_08GMEOELGB@infantry?$AA@ 4013faa8     bg_saga.obj
 0003:00003ab4       ??_C@_0N@POBOEFDG@PW_YSALAMIRI?$AA@ 4013fab4     bg_saga.obj
 0003:00003ac4       ??_C@_0O@IGDAJBEG@PW_FORCE_BOON?$AA@ 4013fac4     bg_saga.obj
 0003:00003ad4       ??_C@_0BK@MOILIMDA@PW_FORCE_ENLIGHTENED_DARK?$AA@ 4013fad4     bg_saga.obj
 0003:00003af4       ??_C@_0BL@EBGCPDCI@PW_FORCE_ENLIGHTENED_LIGHT?$AA@ 4013faf4     bg_saga.obj
 0003:00003b14       ??_C@_0L@LJAIJPE@PW_CLOAKED?$AA@ 4013fb14     bg_saga.obj
 0003:00003b24       ??_C@_08BNFNBBBB@PW_SPEED?$AA@ 4013fb24     bg_saga.obj
 0003:00003b30       ??_C@_0M@FBGLLBBK@PW_DISINT_4?$AA@ 4013fb30     bg_saga.obj
 0003:00003b40       ??_C@_0O@ENGHHLHL@PW_SPEEDBURST?$AA@ 4013fb40     bg_saga.obj
 0003:00003b50       ??_C@_0N@GHPJGBHC@PW_SHIELDHIT?$AA@ 4013fb50     bg_saga.obj
 0003:00003b60       ??_C@_0P@IBLDCDDO@PW_NEUTRALFLAG?$AA@ 4013fb60     bg_saga.obj
 0003:00003b74       ??_C@_0M@MJPEKDEL@PW_BLUEFLAG?$AA@ 4013fb74     bg_saga.obj
 0003:00003b84       ??_C@_0L@EHANBCOH@PW_REDFLAG?$AA@ 4013fb84     bg_saga.obj
 0003:00003b94       ??_C@_07DFNNPKLN@PW_PULL?$AA@ 4013fb94     bg_saga.obj
 0003:00003ba0       ??_C@_0O@MMBFHIEB@PW_BATTLESUIT?$AA@ 4013fba0     bg_saga.obj
 0003:00003bb0       ??_C@_07MILMMKFG@PW_QUAD?$AA@ 4013fbb0     bg_saga.obj
 0003:00003bbc       ??_C@_07HOPALIC@PW_NONE?$AA@ 4013fbbc     bg_saga.obj
 0003:00003bc8       ??_C@_0BA@NGNCJBLG@HI_FLAMETHROWER?$AA@ 4013fbc8     bg_saga.obj
 0003:00003bdc       ??_C@_08CKJOPOAO@HI_CLOAK?$AA@ 4013fbdc     bg_saga.obj
 0003:00003be8       ??_C@_07DODJPBMI@HI_EWEB?$AA@ 4013fbe8     bg_saga.obj
 0003:00003bf4       ??_C@_0M@GINCEKMK@HI_AMMODISP?$AA@ 4013fbf4     bg_saga.obj
 0003:00003c04       ??_C@_0O@CACPKEEP@HI_HEALTHDISP?$AA@ 4013fc04     bg_saga.obj
 0003:00003c14       ??_C@_0L@HECMIPKK@HI_JETPACK?$AA@ 4013fc14     bg_saga.obj
 0003:00003c24       ??_C@_0O@FBGGHEEG@HI_SENTRY_GUN?$AA@ 4013fc24     bg_saga.obj
 0003:00003c34       ??_C@_0O@ELJADNKI@HI_BINOCULARS?$AA@ 4013fc34     bg_saga.obj
 0003:00003c44       ??_C@_0O@LLNJKJCO@HI_MEDPAC_BIG?$AA@ 4013fc44     bg_saga.obj
 0003:00003c54       ??_C@_09NJBEABJH@HI_MEDPAC?$AA@ 4013fc54     bg_saga.obj
 0003:00003c60       ??_C@_09IKKFJDFC@HI_SHIELD?$AA@ 4013fc60     bg_saga.obj
 0003:00003c6c       ??_C@_09FNJEOG@HI_SEEKER?$AA@ 4013fc6c     bg_saga.obj
 0003:00003c78       ??_C@_07JPFAMGIP@HI_NONE?$AA@ 4013fc78     bg_saga.obj
 0003:00003c84       ??_C@_0O@HFIJJPHA@FP_SABERTHROW?$AA@ 4013fc84     bg_saga.obj
 0003:00003c94       ??_C@_0BB@OENPHNCL@FP_SABER_DEFENSE?$AA@ 4013fc94     bg_saga.obj
 0003:00003ca8       ??_C@_0BB@IIFNHLOA@FP_SABER_OFFENSE?$AA@ 4013fca8     bg_saga.obj
 0003:00003cbc       ??_C@_06NBGCGEAI@FP_SEE?$AA@ 4013fcbc     bg_saga.obj
 0003:00003cc4       ??_C@_08NAMGMEAJ@FP_DRAIN?$AA@ 4013fcc4     bg_saga.obj
 0003:00003cd0       ??_C@_07HKPNHDLE@FP_LIFT?$AA@ 4013fcd0     bg_saga.obj
 0003:00003cdc       ??_C@_0N@MKMKNEAO@FP_TEAM_HEAL?$AA@ 4013fcdc     bg_saga.obj
 0003:00003cec       ??_C@_09MANKLPPB@FP_ABSORB?$AA@ 4013fcec     bg_saga.obj
 0003:00003cf8       ??_C@_0O@LLPKDGJJ@FP_MANIPULATE?$AA@ 4013fcf8     bg_saga.obj
 0003:00003d08       ??_C@_07DCICDLJP@FP_RAGE?$AA@ 4013fd08     bg_saga.obj
 0003:00003d14       ??_C@_0N@MLCJOEAL@FP_LIGHTNING?$AA@ 4013fd14     bg_saga.obj
 0003:00003d24       ??_C@_07OFAFBAAC@FP_GRIP?$AA@ 4013fd24     bg_saga.obj
 0003:00003d30       ??_C@_0N@PNHJFILG@FP_MINDTRICK?$AA@ 4013fd30     bg_saga.obj
 0003:00003d40       ??_C@_07EKKOPMJP@FP_PULL?$AA@ 4013fd40     bg_saga.obj
 0003:00003d4c       ??_C@_07DJLINNNG@FP_PUSH?$AA@ 4013fd4c     bg_saga.obj
 0003:00003d58       ??_C@_08MIECCDPD@FP_SPEED?$AA@ 4013fd58     bg_saga.obj
 0003:00003d64       ??_C@_0O@GOCMKMCC@FP_LEVITATION?$AA@ 4013fd64     bg_saga.obj
 0003:00003d74       ??_C@_07ECPPOEBA@FP_HEAL?$AA@ 4013fd74     bg_saga.obj
 0003:00003d80       ??_C@_09LJGBHCLN@WP_TURRET?$AA@ 4013fd80     bg_saga.obj
 0003:00003d8c       ??_C@_0BA@HPLIMHOO@WP_EMPLACED_GUN?$AA@ 4013fd8c     bg_saga.obj
 0003:00003da0       ??_C@_0N@OIFGJENP@WP_BRYAR_OLD?$AA@ 4013fda0     bg_saga.obj
 0003:00003db0       ??_C@_0O@MNNKJNKC@WP_CONCUSSION?$AA@ 4013fdb0     bg_saga.obj
 0003:00003dc0       ??_C@_0M@EOMDDGDC@WP_DET_PACK?$AA@ 4013fdc0     bg_saga.obj
 0003:00003dd0       ??_C@_0L@CHHDGBMC@WP_GRENADE?$AA@ 4013fdd0     bg_saga.obj
 0003:00003de0       ??_C@_0L@COCGCIBD@WP_THERMAL?$AA@ 4013fde0     bg_saga.obj
 0003:00003df0       ??_C@_0BD@JBJHCOEB@WP_ROCKET_LAUNCHER?$AA@ 4013fdf0     bg_saga.obj
 0003:00003e08       ??_C@_0N@DNBPCFMC@WP_FLECHETTE?$AA@ 4013fe08     bg_saga.obj
 0003:00003e18       ??_C@_08GDBGMIBE@WP_DEMP2?$AA@ 4013fe18     bg_saga.obj
 0003:00003e24       ??_C@_0M@GCNBMEBC@WP_REPEATER?$AA@ 4013fe24     bg_saga.obj
 0003:00003e34       ??_C@_0N@ODCPPBBA@WP_BOWCASTER?$AA@ 4013fe34     bg_saga.obj
 0003:00003e44       ??_C@_0N@KLINONG@WP_DISRUPTOR?$AA@ 4013fe44     bg_saga.obj
 0003:00003e54       ??_C@_0L@DIBFNABM@WP_BLASTER?$AA@ 4013fe54     bg_saga.obj
 0003:00003e64       ??_C@_0BC@LEINJGEK@WP_BLASTER_PISTOL?$AA@ 4013fe64     bg_saga.obj
 0003:00003e7c       ??_C@_0BA@GBAOKNDN@WP_BRYAR_PISTOL?$AA@ 4013fe7c     bg_saga.obj
 0003:00003e90       ??_C@_08KPDGEGJN@WP_SABER?$AA@ 4013fe90     bg_saga.obj
 0003:00003e9c       ??_C@_08IGDGHABD@WP_MELEE?$AA@ 4013fe9c     bg_saga.obj
 0003:00003ea8       ??_C@_0BA@BANEHMGD@WP_TUSKEN_RIFLE?$AA@ 4013fea8     bg_saga.obj
 0003:00003ebc       ??_C@_07MIINDMBF@WP_NONE?$AA@ 4013febc     bg_saga.obj
 0003:00003ec8       ??_C@_04HIBGFPH@NULL?$AA@  4013fec8     bg_saga.obj
 0003:00003ed0       ??_C@_08OKAIMOGC@SS_STAFF?$AA@ 4013fed0     bg_saga.obj
 0003:00003edc       ??_C@_07NCKFHLFM@SS_DUAL?$AA@ 4013fedc     bg_saga.obj
 0003:00003ee8       ??_C@_09NOGCKHNM@SS_TAVION?$AA@ 4013fee8     bg_saga.obj
 0003:00003ef4       ??_C@_09COLLLEKM@SS_DESANN?$AA@ 4013fef4     bg_saga.obj
 0003:00003f00       ??_C@_09EIDFCCBI@SS_STRONG?$AA@ 4013ff00     bg_saga.obj
 0003:00003f0c       ??_C@_09JHAJINFA@SS_MEDIUM?$AA@ 4013ff0c     bg_saga.obj
 0003:00003f18       ??_C@_07OKKHAHLD@SS_FAST?$AA@ 4013ff18     bg_saga.obj
 0003:00003f24       ??_C@_07HNCPCIHC@SS_NONE?$AA@ 4013ff24     bg_saga.obj
 0003:00003f30       ??_C@_0P@KICFDAJ@CFL_EXTRA_AMMO?$AA@ 4013ff30     bg_saga.obj
 0003:00003f44       ??_C@_0P@LBJDDHDM@CFL_CUSTOMSKEL?$AA@ 4013ff44     bg_saga.obj
 0003:00003f58       ??_C@_0BC@LICHKKD@CFL_SINGLE_ROCKET?$AA@ 4013ff58     bg_saga.obj
 0003:00003f70       ??_C@_0P@NCLEBEDM@CFL_HEAVYMELEE?$AA@ 4013ff70     bg_saga.obj
 0003:00003f84       ??_C@_0P@DKGINMOP@CFL_STATVIEWER?$AA@ 4013ff84     bg_saga.obj
 0003:00003f98       ??_C@_0BD@DNMLPLIL@CFL_FASTFORCEREGEN?$AA@ 4013ff98     bg_saga.obj
 0003:00003fb0       ??_C@_0BK@JLDBMALB@CFL_STRONGAGAINSTPHYSICAL?$AA@ 4013ffb0     bg_saga.obj
 0003:00003fd0       ??_C@_0BB@OIJDKHFE@CFL_MORESABERDMG?$AA@ 4013ffd0     bg_saga.obj
 0003:00003fe8       ??_C@_0EE@DLMGDLJO@BG_GetNextValueGroup?5couldn?8t?5fi@ 4013ffe8     bg_saga.obj
 0003:00004040       ??_C@_0FJ@KOGMAIHK@Found?5an?5opening?5bracket?5without@ 40140040     bg_saga.obj
 0003:000040b0       ??_C@_0GA@DIGHOEOC@Error?5parsing?5group?5in?5file?0?5une@ 401400b0     bg_saga.obj
 0003:00004124       ??_C@_0CI@BBIKCBO@Group?5?8?$CFs?8?5is?5missing?5a?5closing?5@ 40140124     bg_saga.obj
 0003:00004158       ??_C@_0FA@EHNNLFND@Found?5a?5closing?5bracket?5without?5@ 40140158     bg_saga.obj
 0003:000041b8       ??_C@_0CM@DMIPCGDB@Unexpected?5EOF?5while?5looking?5for@ 401401b8     bg_saga.obj
 0003:000041ec       ??_C@_0DL@MANGCKOJ@Error?5parsing?5file?0?5found?5commen@ 401401ec     bg_saga.obj
 0003:00004238       ??_C@_0EA@CICFFHLL@Error?5parsing?5file?0?5unexpected?5E@ 40140238     bg_saga.obj
 0003:00004288       ??_C@_0FH@PHDPJEBI@Unexpected?5EOF?5while?5looking?5for@ 40140288     bg_saga.obj
 0003:000042f0       ??_C@_0EP@OCHOIPPN@Unexpected?5EOF?5while?5looking?5for@ 401402f0     bg_saga.obj
 0003:00004350       ??_C@_0EJ@GJJGBCAC@Unexpected?5closing?5bracket?5?$CItoo?5@ 40140350     bg_saga.obj
 0003:000043a8       ??_C@_06PFGBHLNK@FP_ALL?$AA@ 401403a8     bg_saga.obj
 0003:000043b0       ??_C@_08BOHIELLL@powerups?$AA@ 401403b0     bg_saga.obj
 0003:000043bc       ??_C@_09LOIGNDON@holdables?$AA@ 401403bc     bg_saga.obj
 0003:000043c8       ??_C@_0CN@HKDFKNIC@ERROR?3?5no?5class_shader?5defined?5f@ 401403c8     bg_saga.obj
 0003:00004400       ??_C@_0DE@BHILLBOP@ERROR?3?5could?5not?5find?5class_shad@ 40140400     bg_saga.obj
 0003:00004440       ??_C@_1FM@IIMKICLF@?$AAb?$AAg?$AAS?$AAi?$AAe?$AAg?$AAe?$AAC?$AAl?$AAa?$AAs?$AAs?$AAe?$AAs?$AA?$FL?$AAb?$AAg?$AAN?$AAu?$AAm?$AAS?$AAi?$AAe?$AAg?$AAe?$AAC?$AAl?$AAa?$AAs?$AAs?$AAe?$AAs@ 40140440     bg_saga.obj
 0003:000044b0       ??_C@_0N@NNMCCMOK@class_shader?$AA@ 401404b0     bg_saga.obj
 0003:000044c0       ??_C@_0CD@GDIFDMKP@Siege?5class?5without?5uishader?5ent@ 401404c0     bg_saga.obj
 0003:000044ec       ??_C@_08BGECLNMM@uishader?$AA@ 401404ec     bg_saga.obj
 0003:000044f8       ??_C@_05HJCMGBKF@speed?$AA@ 401404f8     bg_saga.obj
 0003:00004500       ??_C@_0L@GGCEHPNG@startarmor?$AA@ 40140500     bg_saga.obj
 0003:00004510       ??_C@_08KAGIGECM@maxarmor?$AA@ 40140510     bg_saga.obj
 0003:0000451c       ??_C@_0M@JKHBPLJM@starthealth?$AA@ 4014051c     bg_saga.obj
 0003:0000452c       ??_C@_09MHNPKMIF@maxhealth?$AA@ 4014052c     bg_saga.obj
 0003:00004538       ??_C@_0L@GKKNICAL@classflags?$AA@ 40140538     bg_saga.obj
 0003:00004548       ??_C@_0M@IOJHBENM@forcepowers?$AA@ 40140548     bg_saga.obj
 0003:00004558       ??_C@_0CC@FAKKFGGN@Siege?5class?5without?5weapons?5entr@ 40140558     bg_saga.obj
 0003:00004580       ??_C@_07PKKCMMCH@weapons?$AA@ 40140580     bg_saga.obj
 0003:0000458c       ??_C@_0M@OOLLFDOG@saber2color?$AA@ 4014058c     bg_saga.obj
 0003:0000459c       ??_C@_0L@OGIEJBOK@sabercolor?$AA@ 4014059c     bg_saga.obj
 0003:000045ac       ??_C@_0L@JCGAKIIA@saberstyle?$AA@ 401405ac     bg_saga.obj
 0003:000045bc       ??_C@_06CJLEPNJL@saber2?$AA@ 401405bc     bg_saga.obj
 0003:000045c4       ??_C@_06CJJKOFI@saber1?$AA@ 401405c4     bg_saga.obj
 0003:000045cc       ??_C@_04NHPAFEHJ@skin?$AA@ 401405cc     bg_saga.obj
 0003:000045d4       ??_C@_05NCCFOPHA@model?$AA@ 401405d4     bg_saga.obj
 0003:000045dc       ??_C@_0BP@JPFHBDB@Siege?5class?5without?5name?5entry?$AA@ 401405dc     bg_saga.obj
 0003:00004604       ??_C@_04MEMAJGDJ@name?$AA@ 40140604     bg_saga.obj
 0003:0000460c       ??_C@_09LPPNDGJE@ClassInfo?$AA@ 4014060c     bg_saga.obj
 0003:00004618       ??_C@_1GA@KPDGBOOO@?$AAs?$AAt?$AAr?$AAl?$AAe?$AAn?$AA?$CI?$AAd?$AAe?$AAs?$AAc?$AAB?$AAu?$AAf?$AAf?$AAe?$AAr?$AA?9?$AA?$DO?$AAd?$AAe?$AAs?$AAc?$AA?$CJ?$AA?5?$AA?$DM?$AA?5?$AAS?$AAI?$AAE?$AAG?$AAE@ 40140618     bg_saga.obj
 0003:00004690       ??_C@_1FA@HMHNHIOE@?$AAd?$AA?3?$AA?2?$AAo?$AAj?$AAp?$AA?2?$AAe?$AAn?$AAh?$AAa?$AAn?$AAc?$AAe?$AAd?$AA?2?$AAs?$AAo?$AAu?$AAr?$AAc?$AAe?$AA?2?$AAg?$AAa?$AAm?$AAe?$AA?2?$AAb?$AAg?$AA_?$AAs@ 40140690     bg_saga.obj
 0003:000046f0       ??_C@_0BI@JBHHAHFA@DESCRIPTION?5UNAVAILABLE?$AA@ 401406f0     bg_saga.obj
 0003:0000470c       ??_C@_0M@PPJNHBMP@description?$AA@ 4014070c     bg_saga.obj
 0003:0000471c       ??_C@_0BI@HBENBDF@ext_data?1Siege?1Classes?1?$AA@ 4014071c     bg_saga.obj
 0003:00004738       ??_C@_0BH@NCMEBBFN@ext_data?1Siege?1Classes?$AA@ 40140738     bg_saga.obj
 0003:00004754       ??_C@_04LNHPMHCH@?4scl?$AA@ 40140754     bg_saga.obj
 0003:0000475c       ??_C@_0CI@JBGGEKDP@Team?5defined?5with?5no?5allowable?5c@ 4014075c     bg_saga.obj
 0003:0000478c       ??_C@_0BO@LFIIBAMC@Invalid?5class?5specified?3?5?8?$CFs?8?$AA@ 4014078c     bg_saga.obj
 0003:000047b0       ??_C@_07GEGLMCI@class?$CFi?$AA@ 401407b0     bg_saga.obj
 0003:000047bc       ??_C@_07DPIHKJGF@Classes?$AA@ 401407bc     bg_saga.obj
 0003:000047c8       ??_C@_0CD@FDGFFIBB@Siege?5team?5with?5no?5name?5definiti@ 401407c8     bg_saga.obj
 0003:000047f4       ??_C@_0BG@DPLOPEAL@ext_data?1Siege?1Teams?1?$AA@ 401407f4     bg_saga.obj
 0003:00004810       ??_C@_0BF@KACDOLPP@ext_data?1Siege?1Teams?$AA@ 40140810     bg_saga.obj
 0003:0000482c       ??_C@_05OKHHMPNJ@?4team?$AA@ 4014082c     bg_saga.obj
 0003:00004838       __real@40f0000000000000    40140838     q_math.obj
 0003:00004848       __real@4000000000000000    40140848     q_math.obj
 0003:00004858       __real@406fe00000000000    40140858     q_math.obj
 0003:00004864       ??_C@_1DE@EJPCDGJI@?$AAQ?$AA_?$AAf?$AAa?$AAb?$AAs?$AA?$CI?$AAi?$AAn?$AAv?$AA_?$AAd?$AAe?$AAn?$AAo?$AAm?$AA?$CJ?$AA?5?$AA?$CB?$AA?$DN?$AA?5?$AA0?$AA?4?$AA0?$AAf?$AA?$AA@ 40140864     q_math.obj
 0003:000048a8       ??_C@_1EO@EBMJKBMI@?$AAd?$AA?3?$AA?2?$AAo?$AAj?$AAp?$AA?2?$AAe?$AAn?$AAh?$AAa?$AAn?$AAc?$AAe?$AAd?$AA?2?$AAs?$AAo?$AAu?$AAr?$AAc?$AAe?$AA?2?$AAg?$AAa?$AAm?$AAe?$AA?2?$AAq?$AA_?$AAm?$AAa@ 401408a8     q_math.obj
 0003:00004908       __real@3fc00000            40140908     q_math.obj
 0003:00004910       __real@c066800000000000    40140910     q_math.obj
 0003:0000491c       __real@43b40000            4014091c     q_math.obj
 0003:00004920       __real@3f76800000000000    40140920     q_math.obj
 0003:00004930       __real@4066c16c16c16c17    40140930     q_math.obj
 0003:0000493c       __real@c7c34f80            4014093c     q_math.obj
 0003:00004940       __real@47c34f80            40140940     q_math.obj
 0003:00004948       __real@3f91df46a0000000    40140948     q_math.obj
 0003:00004958       __real@3fe6aaaaa0000000    40140958     q_math.obj
 0003:00004968       __real@40e0000000000000    40140968     q_math.obj
 0003:00004974       ??_C@_1CI@GDMNBGE@?$AA?$CI?$AAm?$AAa?$AAx?$AA?5?$AA?9?$AA?5?$AAm?$AAi?$AAn?$AA?$CJ?$AA?5?$AA?$DM?$AA?5?$AA3?$AA2?$AA7?$AA6?$AA8?$AA?$AA@ 40140974     q_math.obj
 0003:000049a8       __real@3e45798ee2308c3a    401409a8     q_math.obj
 0003:000049b4       __real@4b800000            401409b4     q_math.obj
 0003:000049b8       ??_C@_0O@POMOIINL@Bounty?5Hunter?$AA@ 401409b8     q_shared.obj
 0003:000049c8       ??_C@_0BD@ENBHFNCG@Outlaw?5Dreadnought?$AA@ 401409c8     q_shared.obj
 0003:000049e0       ??_C@_0BC@GDMKNAFE@Outlaw?5Juggernaut?$AA@ 401409e0     q_shared.obj
 0003:000049f8       ??_C@_0O@JIDLBAKG@Space?5Militia?$AA@ 401409f8     q_shared.obj
 0003:00004a08       ??_C@_0BD@MJDAEPAN@Electronics?5Outlaw?$AA@ 40140a08     q_shared.obj
 0003:00004a20       ??_C@_0P@IAIBAEIL@Mercenary?5Tech?$AA@ 40140a20     q_shared.obj
 0003:00004a34       ??_C@_0BD@GNKCFLEK@Private?5Technician?$AA@ 40140a34     q_shared.obj
 0003:00004a4c       ??_C@_0BB@PBIHMALE@Renegade?5Officer?$AA@ 40140a4c     q_shared.obj
 0003:00004a60       ??_C@_0P@EIKGMFOH@Renegade?5Troop?$AA@ 40140a60     q_shared.obj
 0003:00004a74       ??_C@_0BD@KJMBPLGC@Renegade?5Combatant?$AA@ 40140a74     q_shared.obj
 0003:00004a8c       ??_C@_09EJFGJKCI@Commander?$AA@ 40140a8c     q_shared.obj
 0003:00004a98       ??_C@_0M@IIDDELOE@ARC?5Trooper?$AA@ 40140a98     q_shared.obj
 0003:00004aa8       ??_C@_0BA@HCLOLJLM@Assault?5Officer?$AA@ 40140aa8     q_shared.obj
 0003:00004abc       ??_C@_0BC@BEKBEHOC@Mercenary?5Officer?$AA@ 40140abc     q_shared.obj
 0003:00004ad4       ??_C@_0BB@OICICJNG@Mercenary?5Leader?$AA@ 40140ad4     q_shared.obj
 0003:00004ae8       ??_C@_0M@IIDMHLAO@ARC?5Trainee?$AA@ 40140ae8     q_shared.obj
 0003:00004af8       ??_C@_0O@GDNBFFPE@Demo?4?5Soldier?$AA@ 40140af8     q_shared.obj
 0003:00004b08       ??_C@_0M@PDCJPAMB@Arms?5Dealer?$AA@ 40140b08     q_shared.obj
 0003:00004b18       ??_C@_09KLDPCLGN@Privateer?$AA@ 40140b18     q_shared.obj
 0003:00004b24       ??_C@_0BB@LADEDFAG@Engineer?5General?$AA@ 40140b24     q_shared.obj
 0003:00004b38       ??_C@_0BC@IHPMHKCG@Adv?4?5Assault?5Tech?$AA@ 40140b38     q_shared.obj
 0003:00004b50       ??_C@_08LLJBBCLP@Smuggler?$AA@ 40140b50     q_shared.obj
 0003:00004b5c       ??_C@_0O@FLEFNOKF@Adv?4?5Vanguard?$AA@ 40140b5c     q_shared.obj
 0003:00004b6c       ??_C@_0BA@BKAPFDDF@Tech?4?5Privateer?$AA@ 40140b6c     q_shared.obj
 0003:00004b80       ??_C@_08COMLJGJG@Vanguard?$AA@ 40140b80     q_shared.obj
 0003:00004b8c       ??_C@_0M@ICMOIMEO@Armed?5Tech?4?$AA@ 40140b8c     q_shared.obj
 0003:00004b9c       ??_C@_0P@KPHACHOG@Tech?4?5Survivor?$AA@ 40140b9c     q_shared.obj
 0003:00004bb0       ??_C@_0BB@BOABDBGD@Tech?4?5Lieutenant?$AA@ 40140bb0     q_shared.obj
 0003:00004bc4       ??_C@_0BC@CPEEFKDB@Informations?5Merc?$AA@ 40140bc4     q_shared.obj
 0003:00004bdc       ??_C@_0BF@EHMKNGEF@Informations?5Soldier?$AA@ 40140bdc     q_shared.obj
 0003:00004bf8       ??_C@_0M@PAGFNNFH@Heavy?5Tech?4?$AA@ 40140bf8     q_shared.obj
 0003:00004c08       ??_C@_06LHHPKIEA@Hacker?$AA@ 40140c08     q_shared.obj
 0003:00004c10       ??_C@_05POIADINN@Fixer?$AA@ 40140c10     q_shared.obj
 0003:00004c18       ??_C@_0O@BFPPDAFC@Tech?4?5Trainee?$AA@ 40140c18     q_shared.obj
 0003:00004c28       ??_C@_0O@NKNBGFIH@Tech?4?5Private?$AA@ 40140c28     q_shared.obj
 0003:00004c38       ??_C@_0BA@ICPNHAAB@Assault?5General?$AA@ 40140c38     q_shared.obj
 0003:00004c4c       ??_C@_0BC@KOEKNJI@Light?5Mandalorian?$AA@ 40140c4c     q_shared.obj
 0003:00004c64       ??_C@_0BD@NCGDLLIG@Weapons?5Specialist?$AA@ 40140c64     q_shared.obj
 0003:00004c7c       ??_C@_0BB@NOOJLBLB@Assault?5Engineer?$AA@ 40140c7c     q_shared.obj
 0003:00004c90       ??_C@_0BA@HGJOOOIP@Heavy?5Mercenary?$AA@ 40140c90     q_shared.obj
 0003:00004ca4       ??_C@_0O@BCMEEBJK@Heavy?5Trooper?$AA@ 40140ca4     q_shared.obj
 0003:00004cb4       ??_C@_0O@NIEPHJBG@Assault?5Tech?4?$AA@ 40140cb4     q_shared.obj
 0003:00004cc4       ??_C@_09GBMHKGMF@Mercenary?$AA@ 40140cc4     q_shared.obj
 0003:00004cd0       ??_C@_0N@BMCCMHHK@Heavy?5Gunner?$AA@ 40140cd0     q_shared.obj
 0003:00004ce0       ??_C@_0BD@DKPGMMAN@Armored?5Lieutenant?$AA@ 40140ce0     q_shared.obj
 0003:00004cf8       ??_C@_0N@NEMKGGLG@Merc?5Trainee?$AA@ 40140cf8     q_shared.obj
 0003:00004d08       ??_C@_0M@DJBKEKAM@Shock?5Troop?$AA@ 40140d08     q_shared.obj
 0003:00004d18       ??_C@_0BA@ILOLMNPF@Mech?4?5Ensign?5II?$AA@ 40140d18     q_shared.obj
 0003:00004d2c       ??_C@_09IKCKOGCJ@Roughneck?$AA@ 40140d2c     q_shared.obj
 0003:00004d38       ??_C@_0O@HMGJJPHG@Demo?4?5Private?$AA@ 40140d38     q_shared.obj
 0003:00004d48       ??_C@_0N@GIOPFBIE@Mech?4?5Ensign?$AA@ 40140d48     q_shared.obj
 0003:00004d58       ??_C@_06NPPGPJPB@Outlaw?$AA@ 40140d58     q_shared.obj
 0003:00004d60       ??_C@_07CFINJGKH@Private?$AA@ 40140d60     q_shared.obj
 0003:00004d6c       ??_C@_08IGKEGMJH@Mechanic?$AA@ 40140d6c     q_shared.obj
 0003:00004d78       ??_C@_06IOEKNGP@Ensign?$AA@ 40140d78     q_shared.obj
 0003:00004d80       ??_C@_0O@LBOHCNGK@Jedi?5Sentinel?$AA@ 40140d80     q_shared.obj
 0003:00004d90       ??_C@_0N@MEBAPIAH@Jedi?5Duelist?$AA@ 40140d90     q_shared.obj
 0003:00004da0       ??_C@_0M@HJAOLBL@Jedi?5Medici?$AA@ 40140da0     q_shared.obj
 0003:00004db0       ??_C@_04POJMCEFD@Sith?$AA@ 40140db0     q_shared.obj
 0003:00004db8       ??_C@_0M@EBAJNKPF@Jedi?5Master?$AA@ 40140db8     q_shared.obj
 0003:00004dc8       ??_C@_0BD@MEHDMPEJ@Jedi?5Weapon?5Master?$AA@ 40140dc8     q_shared.obj
 0003:00004de0       ??_C@_09IBNLEFGD@Sith?5Lord?$AA@ 40140de0     q_shared.obj
 0003:00004dec       ??_C@_0P@CFKIHPBA@Jedi?5Commander?$AA@ 40140dec     q_shared.obj
 0003:00004e00       ??_C@_0M@IGDNCHLD@Triumvirati?$AA@ 40140e00     q_shared.obj
 0003:00004e10       ??_C@_0P@OEDBDCAN@Force?5Overseer?$AA@ 40140e10     q_shared.obj
 0003:00004e24       ??_C@_0L@OBGLFEL@Force?5User?$AA@ 40140e24     q_shared.obj
 0003:00004e34       ??_C@_0BA@PPBJANHC@Force?5Debutante?$AA@ 40140e34     q_shared.obj
 0003:00004e48       ??_C@_0BB@BGDFCFCP@Enlightened?5Jedi?$AA@ 40140e48     q_shared.obj
 0003:00004e5c       ??_C@_08KBDFECAK@Renegade?$AA@ 40140e5c     q_shared.obj
 0003:00004e68       ??_C@_0P@HALBFCCO@Force?5Wanderer?$AA@ 40140e68     q_shared.obj
 0003:00004e7c       ??_C@_0L@KEAFLICH@Light?5Jedi?$AA@ 40140e7c     q_shared.obj
 0003:00004e8c       ??_C@_07GCELLNPO@Arbiter?$AA@ 40140e8c     q_shared.obj
 0003:00004e98       ??_C@_0BB@PEGNONJ@Straying?5Warrior?$AA@ 40140e98     q_shared.obj
 0003:00004eac       ??_C@_0L@JKJPGIF@Grey?5Talon?$AA@ 40140eac     q_shared.obj
 0003:00004ebc       ??_C@_0BA@DFMNOFLE@Jedi?5of?5Balance?$AA@ 40140ebc     q_shared.obj
 0003:00004ed0       ??_C@_09PANAJFHF@Grey?5Hand?$AA@ 40140ed0     q_shared.obj
 0003:00004edc       ??_C@_0M@EKHEPIFL@Dark?5Flayer?$AA@ 40140edc     q_shared.obj
 0003:00004eec       ??_C@_0BC@EPLPFLLD@Force?5Peacekeeper?$AA@ 40140eec     q_shared.obj
 0003:00004f04       ??_C@_0O@KKCMOLGC@Force?5Soldier?$AA@ 40140f04     q_shared.obj
 0003:00004f14       ??_C@_0BB@JEAKPGJM@Jedi?5Sabermaster?$AA@ 40140f14     q_shared.obj
 0003:00004f28       ??_C@_0BB@JHKMNAFD@Saber?5Of?5Balance?$AA@ 40140f28     q_shared.obj
 0003:00004f3c       ??_C@_0P@DBEEDGDK@Cruel?5Saberist?$AA@ 40140f3c     q_shared.obj
 0003:00004f50       ??_C@_0O@LFBIAJIA@Sith?5Saberist?$AA@ 40140f50     q_shared.obj
 0003:00004f60       ??_C@_0O@MLBHNFIO@Saber?5Veteran?$AA@ 40140f60     q_shared.obj
 0003:00004f70       ??_C@_09BPFBLJKF@Jedi?5Hero?$AA@ 40140f70     q_shared.obj
 0003:00004f7c       ??_C@_0N@CHNAJAEA@Jedi?5Warrior?$AA@ 40140f7c     q_shared.obj
 0003:00004f8c       ??_C@_0BA@HLFMILPE@Jedi?5Instructor?$AA@ 40140f8c     q_shared.obj
 0003:00004fa0       ??_C@_09PIBCNKAM@Sith?5Hero?$AA@ 40140fa0     q_shared.obj
 0003:00004fac       ??_C@_0BE@DOEANICE@Balance?5Manipulator?$AA@ 40140fac     q_shared.obj
 0003:00004fc4       ??_C@_0M@BKNGJMKM@Fallen?5Jedi?$AA@ 40140fc4     q_shared.obj
 0003:00004fd4       ??_C@_0M@BLGJCDBM@Grey?5Master?$AA@ 40140fd4     q_shared.obj
 0003:00004fe4       ??_C@_0P@BCOPIMKI@Sith?5Commander?$AA@ 40140fe4     q_shared.obj
 0003:00004ff8       ??_C@_0N@ENELLMHM@Sith?5Captain?$AA@ 40140ff8     q_shared.obj
 0003:00005008       ??_C@_0P@FDMOPFFC@Dark?5Influence?$AA@ 40141008     q_shared.obj
 0003:0000501c       ??_C@_0BB@DILOOMIL@Sith?5Manipulator?$AA@ 4014101c     q_shared.obj
 0003:00005030       ??_C@_09EEFAPDOJ@Ex?9Lumini?$AA@ 40141030     q_shared.obj
 0003:0000503c       ??_C@_0O@JPNBMGCM@Scelequilibri?$AA@ 4014103c     q_shared.obj
 0003:0000504c       ??_C@_0BA@GKOLPBHB@Sith?5Leiutenant?$AA@ 4014104c     q_shared.obj
 0003:00005060       ??_C@_0M@EOIPMOJM@Sith?5Knight?$AA@ 40141060     q_shared.obj
 0003:00005070       ??_C@_0BB@GJJACPB@Jedi?5Hospitalier?$AA@ 40141070     q_shared.obj
 0003:00005084       ??_C@_0N@OIBAINKG@Jedi?5Templar?$AA@ 40141084     q_shared.obj
 0003:00005094       ??_C@_0O@JIAJDLNP@Jedi?5Crusader?$AA@ 40141094     q_shared.obj
 0003:000050a4       ??_C@_0P@KMHOGCAJ@Force?5Marauder?$AA@ 401410a4     q_shared.obj
 0003:000050b8       ??_C@_0BC@FKDECIGF@Force?5Manipulator?$AA@ 401410b8     q_shared.obj
 0003:000050d0       ??_C@_0M@NIIANELI@Shadow?5Jedi?$AA@ 401410d0     q_shared.obj
 0003:000050e0       ??_C@_0N@FDEGGENM@Dark?5Templar?$AA@ 401410e0     q_shared.obj
 0003:000050f0       ??_C@_0M@LIFPGHCI@Dark?5Knight?$AA@ 401410f0     q_shared.obj
 0003:00005100       ??_C@_0M@OFPBBOJN@Jedi?5Knight?$AA@ 40141100     q_shared.obj
 0003:00005110       ??_C@_0O@ENLDGGGA@Jedi?5Consular?$AA@ 40141110     q_shared.obj
 0003:00005120       ??_C@_09LNELKKNJ@Grey?5Jedi?$AA@ 40141120     q_shared.obj
 0003:0000512c       ??_C@_0O@EMBJKKJO@Jedi?5Guardian?$AA@ 4014112c     q_shared.obj
 0003:0000513c       ??_C@_07JBIOPIKL@Padawan?$AA@ 4014113c     q_shared.obj
 0003:00005148       ??_C@_08DJIJBBHL@Civilian?$AA@ 40141148     q_shared.obj
 0003:00005154       ??_C@_04HDOCAJNK@?$CFs?$CFs?$AA@ 40141154     q_shared.obj
 0003:0000515c       ??_C@_02DKCKIIND@?$CFs?$AA@ 4014115c     q_shared.obj
 0003:00005160       ??_C@_0BI@KPLEBEJF@ERROR?3?5?$CFs?0?5line?5?$CFd?3?5?$CFs?6?$AA@ 40141160     q_shared.obj
 0003:0000517c       ??_C@_0BK@DJMKDJBL@WARNING?3?5?$CFs?0?5line?5?$CFd?3?5?$CFs?6?$AA@ 4014117c     q_shared.obj
 0003:0000519c       ??_C@_0BA@FOCLBKAP@unexpected?5EOF?6?$AA@ 4014119c     q_shared.obj
 0003:000051b0       ??_C@_0BF@BFEJCABG@MatchToken?3?5?$CFs?5?$CB?$DN?5?$CFs?$AA@ 401411b0     q_shared.obj
 0003:000051cc       ??_C@_01PKGAHCOL@?$CJ?$AA@ 401411cc     q_shared.obj
 0003:000051d0       ??_C@_01ODHLEDKK@?$CI?$AA@ 401411d0     q_shared.obj
 0003:000051d4       ??_C@_0BJ@OLBOPICM@Q_strncpyz?3?5destsize?5?$DM?51?$AA@ 401411d4     q_shared.obj
 0003:000051f4       ??_C@_0BF@BJHHBLMD@Q_strncpyz?3?5NULL?5src?$AA@ 401411f4     q_shared.obj
 0003:00005210       ??_C@_0BG@EKAPNPCH@Q_strncpyz?3?5NULL?5dest?$AA@ 40141210     q_shared.obj
 0003:0000522c       ??_C@_0BN@EFOOAHFL@Q_strcat?3?5already?5overflowed?$AA@ 4014122c     q_shared.obj
 0003:00005250       ??_C@_0CL@PJCCCJHN@Com_sprintf2?3?5overflow?5of?5?$CFi?5byt@ 40141250     q_shared.obj
 0003:00005284       ??_C@_0CO@NIJHFKAJ@Attempted?5to?5overrun?5string?5in?5c@ 40141284     q_shared.obj
 0003:000052bc       ??_C@_0CG@FLHABLN@Info_ValueForKey?3?5oversize?5infos@ 401412bc     q_shared.obj
 0003:000052ec       ??_C@_0CE@HMPLGKDK@Info_RemoveKey?3?5oversize?5infostr@ 401412ec     q_shared.obj
 0003:00005318       ??_C@_0CI@CPIEPBLO@Info_RemoveKey_Big?3?5oversize?5inf@ 40141318     q_shared.obj
 0003:00005348       ??_C@_0BN@CAOBGKLE@Info?5string?5length?5exceeded?6?$AA@ 40141348     q_shared.obj
 0003:0000536c       ??_C@_06NELKLDPM@?2?$CFs?2?$CFs?$AA@ 4014136c     q_shared.obj
 0003:00005374       ??_C@_0CD@MGFMEBLE@Can?8t?5use?5keys?5or?5values?5with?5a?5@ 40141374     q_shared.obj
 0003:000053a0       ??_C@_0CL@JCFAGLFD@Can?8t?5use?5keys?5or?5values?5with?5a?5@ 401413a0     q_shared.obj
 0003:000053d4       ??_C@_0CD@JIDDAEOO@Can?8t?5use?5keys?5or?5values?5with?5a?5@ 401413d4     q_shared.obj
 0003:00005400       ??_C@_0CJ@CEEBDGNA@Info_SetValueForKey?3?5oversize?5in@ 40141400     q_shared.obj
 0003:00005434       ??_C@_0CB@EMDOOGBI@BIG?5Info?5string?5length?5exceeded?6@ 40141434     q_shared.obj
 0003:00005460       ??_7StackPanel@@6B@        40141460     StackPanel.obj
 0003:00005470       ??_7ContainerElement@@6B@  40141470     StackPanel.obj
 0003:00005480       ??_7UIElement@@6B@         40141480     StackPanel.obj
 0003:0000548c       ??_C@_1DC@POOIKBAO@?$AAI?$AAT?$AAE?$AAR?$AAA?$AAT?$AAO?$AAR?$AA?5?$AAL?$AAI?$AAS?$AAT?$AA?5?$AAC?$AAO?$AAR?$AAR?$AAU?$AAP?$AAT?$AAE?$AAD?$AA?$CB?$AA?$AA@ 4014148c     StackPanel.obj
 0003:000054c8       ??_C@_1IE@MNKNPHOP@?$AAc?$AA?3?$AA?2?$AAp?$AAr?$AAo?$AAg?$AAr?$AAa?$AAm?$AA?5?$AAf?$AAi?$AAl?$AAe?$AAs?$AA?2?$AAm?$AAi?$AAc?$AAr?$AAo?$AAs?$AAo?$AAf?$AAt?$AA?5?$AAv?$AAi?$AAs?$AAu?$AAa@ 401414c8     StackPanel.obj
 0003:00005568       ??_C@_1BO@MEPPHOO@?$AA?$CC?$AAo?$AAu?$AAt?$AA?5?$AAo?$AAf?$AA?5?$AAr?$AAa?$AAn?$AAg?$AAe?$AA?$CC?$AA?$AA@ 40141568     StackPanel.obj
 0003:00005590       ??_C@_1PG@CHOJFGOP@?$AAs?$AAt?$AAd?$AA?3?$AA?3?$AA_?$AAL?$AAi?$AAs?$AAt?$AA_?$AAc?$AAo?$AAn?$AAs?$AAt?$AA_?$AAi?$AAt?$AAe?$AAr?$AAa?$AAt?$AAo?$AAr?$AA?$DM?$AAc?$AAl?$AAa?$AAs?$AAs?$AA?5@ 40141590     StackPanel.obj
 0003:000056b8       ??_C@_1FG@IBPIFFN@?$AA?$CC?$AAS?$AAt?$AAa?$AAn?$AAd?$AAa?$AAr?$AAd?$AA?5?$AAC?$AA?$CL?$AA?$CL?$AA?5?$AAL?$AAi?$AAb?$AAr?$AAa?$AAr?$AAi?$AAe?$AAs?$AA?5?$AAO?$AAu?$AAt?$AA?5?$AAo?$AAf?$AA?5?$AAR@ 401416b8     StackPanel.obj
 0003:00005720       ??_C@_0CE@OFMIGAMM@Standard?5C?$CL?$CL?5Libraries?5Out?5of?5Ra@ 40141720     StackPanel.obj
 0003:00005750       ??_C@_1EC@HILJLMMC@?$AAl?$AAi?$AAs?$AAt?$AA?5?$AAi?$AAt?$AAe?$AAr?$AAa?$AAt?$AAo?$AAr?$AA?5?$AAn?$AAo?$AAt?$AA?5?$AAd?$AAe?$AAr?$AAe?$AAf?$AAe?$AAr?$AAe?$AAn?$AAc?$AAa?$AAb?$AAl?$AAe@ 40141750     StackPanel.obj
 0003:000057a0       ??_C@_1HM@HFCHPLAK@?$AAc?$AA?3?$AA?2?$AAp?$AAr?$AAo?$AAg?$AAr?$AAa?$AAm?$AA?5?$AAf?$AAi?$AAl?$AAe?$AAs?$AA?2?$AAm?$AAi?$AAc?$AAr?$AAo?$AAs?$AAo?$AAf?$AAt?$AA?5?$AAv?$AAi?$AAs?$AAu?$AAa@ 401417a0     StackPanel.obj
 0003:00005838       ??_C@_1PI@OHIBMHJB@?$AAs?$AAt?$AAd?$AA?3?$AA?3?$AA_?$AAL?$AAi?$AAs?$AAt?$AA_?$AAc?$AAo?$AAn?$AAs?$AAt?$AA_?$AAi?$AAt?$AAe?$AAr?$AAa?$AAt?$AAo?$AAr?$AA?$DM?$AAc?$AAl?$AAa?$AAs?$AAs?$AA?5@ 40141838     StackPanel.obj
 0003:00005968       ??_C@_1EA@DOGAGKDH@?$AAl?$AAi?$AAs?$AAt?$AA?5?$AAi?$AAt?$AAe?$AAr?$AAa?$AAt?$AAo?$AAr?$AA?5?$AAn?$AAo?$AAt?$AA?5?$AAi?$AAn?$AAc?$AAr?$AAe?$AAm?$AAe?$AAn?$AAt?$AAa?$AAb?$AAl?$AAe?$AA?$AA@ 40141968     StackPanel.obj
 0003:000059b4       ??_C@_1CG@JNLFBNGN@?$AA?$CC?$AAi?$AAn?$AAv?$AAa?$AAl?$AAi?$AAd?$AA?5?$AAa?$AAr?$AAg?$AAu?$AAm?$AAe?$AAn?$AAt?$AA?$CC?$AA?$AA@ 401419b4     StackPanel.obj
 0003:000059e8       ??_C@_1PI@EHHMCOFE@?$AAs?$AAt?$AAd?$AA?3?$AA?3?$AA_?$AAL?$AAi?$AAs?$AAt?$AA_?$AAc?$AAo?$AAn?$AAs?$AAt?$AA_?$AAi?$AAt?$AAe?$AAr?$AAa?$AAt?$AAo?$AAr?$AA?$DM?$AAc?$AAl?$AAa?$AAs?$AAs?$AA?5@ 401419e8     StackPanel.obj
 0003:00005b18       ??_C@_1FO@GJIHNDLM@?$AA?$CC?$AAS?$AAt?$AAa?$AAn?$AAd?$AAa?$AAr?$AAd?$AA?5?$AAC?$AA?$CL?$AA?$CL?$AA?5?$AAL?$AAi?$AAb?$AAr?$AAa?$AAr?$AAi?$AAe?$AAs?$AA?5?$AAI?$AAn?$AAv?$AAa?$AAl?$AAi?$AAd?$AA?5@ 40141b18     StackPanel.obj
 0003:00005b88       ??_C@_0CI@FNPHFCCM@Standard?5C?$CL?$CL?5Libraries?5Invalid?5A@ 40141b88     StackPanel.obj
 0003:00005bb8       ??_C@_1DI@MDELDGPI@?$AAl?$AAi?$AAs?$AAt?$AA?5?$AAi?$AAt?$AAe?$AAr?$AAa?$AAt?$AAo?$AAr?$AAs?$AA?5?$AAi?$AAn?$AAc?$AAo?$AAm?$AAp?$AAa?$AAt?$AAi?$AAb?$AAl?$AAe?$AA?$AA@ 40141bb8     StackPanel.obj
 0003:00005c00       ??_C@_1PC@CFFEHFPO@?$AAs?$AAt?$AAd?$AA?3?$AA?3?$AA_?$AAL?$AAi?$AAs?$AAt?$AA_?$AAc?$AAo?$AAn?$AAs?$AAt?$AA_?$AAi?$AAt?$AAe?$AAr?$AAa?$AAt?$AAo?$AAr?$AA?$DM?$AAc?$AAl?$AAa?$AAs?$AAs?$AA?5@ 40141c00     StackPanel.obj
 0003:00005d28       ??_C@_1PE@BGDPJHEO@?$AAs?$AAt?$AAd?$AA?3?$AA?3?$AA_?$AAL?$AAi?$AAs?$AAt?$AA_?$AAc?$AAo?$AAn?$AAs?$AAt?$AA_?$AAi?$AAt?$AAe?$AAr?$AAa?$AAt?$AAo?$AAr?$AA?$DM?$AAc?$AAl?$AAa?$AAs?$AAs?$AA?5@ 40141d28     StackPanel.obj
 0003:00005e50       ??_C@_1PE@LGMCHOIL@?$AAs?$AAt?$AAd?$AA?3?$AA?3?$AA_?$AAL?$AAi?$AAs?$AAt?$AA_?$AAc?$AAo?$AAn?$AAs?$AAt?$AA_?$AAi?$AAt?$AAe?$AAr?$AAa?$AAt?$AAo?$AAr?$AA?$DM?$AAc?$AAl?$AAa?$AAs?$AAs?$AA?5@ 40141e50     StackPanel.obj
 0003:00005f78       ??_7bad_alloc@std@@6B@     40141f78     StackPanel.obj
 0003:00005f88       ??_C@_1EG@BPNHNPIG@?$AAl?$AAi?$AAs?$AAt?$AA?5?$AAi?$AAn?$AAs?$AAe?$AAr?$AAt?$AA?5?$AAi?$AAt?$AAe?$AAr?$AAa?$AAt?$AAo?$AAr?$AA?5?$AAo?$AAu?$AAt?$AAs?$AAi?$AAd?$AAe?$AA?5?$AAr?$AAa?$AAn@ 40141f88     StackPanel.obj
 0003:00005fdc       ??_C@_0BB@MOGOBHAF@list?$DMT?$DO?5too?5long?$AA@ 40141fdc     StackPanel.obj
 0003:00005ff0       ??_C@_1EE@BBMFLDOC@?$AAl?$AAi?$AAs?$AAt?$AA?5?$AAe?$AAr?$AAa?$AAs?$AAe?$AA?5?$AAi?$AAt?$AAe?$AAr?$AAa?$AAt?$AAo?$AAr?$AA?5?$AAo?$AAu?$AAt?$AAs?$AAi?$AAd?$AAe?$AA?5?$AAr?$AAa?$AAn?$AAg@ 40141ff0     StackPanel.obj
 0003:00006048       ??_C@_1PI@BELDHLFA@?$AAs?$AAt?$AAd?$AA?3?$AA?3?$AA_?$AAL?$AAi?$AAs?$AAt?$AA_?$AAc?$AAo?$AAn?$AAs?$AAt?$AA_?$AAi?$AAt?$AAe?$AAr?$AAa?$AAt?$AAo?$AAr?$AA?$DM?$AAc?$AAl?$AAa?$AAs?$AAs?$AA?5@ 40142048     StackPanel.obj
 0003:00006178       ??_C@_1EA@JDNDELPC@?$AAl?$AAi?$AAs?$AAt?$AA?5?$AAi?$AAt?$AAe?$AAr?$AAa?$AAt?$AAo?$AAr?$AA?5?$AAn?$AAo?$AAt?$AA?5?$AAd?$AAe?$AAc?$AAr?$AAe?$AAm?$AAe?$AAn?$AAt?$AAa?$AAb?$AAl?$AAe?$AA?$AA@ 40142178     StackPanel.obj
 0003:000061c8       ??_C@_1PE@OFANCLIP@?$AAs?$AAt?$AAd?$AA?3?$AA?3?$AA_?$AAL?$AAi?$AAs?$AAt?$AA_?$AAc?$AAo?$AAn?$AAs?$AAt?$AA_?$AAi?$AAt?$AAe?$AAr?$AAa?$AAt?$AAo?$AAr?$AA?$DM?$AAc?$AAl?$AAa?$AAs?$AAs?$AA?5@ 401421c8     StackPanel.obj
 0003:000062ec       ??_C@_03LFLJCHJK@d1?6?$AA@ 401422ec     ui_atoms.obj
 0003:000062f0       ??_C@_0BC@CDFKGPLF@ui_scoreCaptures2?$AA@ 401422f0     ui_atoms.obj
 0003:00006308       ??_C@_0O@HCNFDDJ@ui_scoreTime2?$AA@ 40142308     ui_atoms.obj
 0003:00006318       ??_C@_0BG@GJEMFEOF@ui_scoreShutoutBonus2?$AA@ 40142318     ui_atoms.obj
 0003:00006334       ??_C@_0BE@CJNDOHKG@ui_scoreSkillBonus2?$AA@ 40142334     ui_atoms.obj
 0003:0000634c       ??_C@_0BD@NOLDEPJB@ui_scoreTimeBonus2?$AA@ 4014234c     ui_atoms.obj
 0003:00006364       ??_C@_0O@FCBENJNC@ui_scoreBase2?$AA@ 40142364     ui_atoms.obj
 0003:00006374       ??_C@_0O@IGBIFADI@ui_scoreTeam2?$AA@ 40142374     ui_atoms.obj
 0003:00006384       ??_C@_0BB@PPJKIJPL@ui_scorePerfect2?$AA@ 40142384     ui_atoms.obj
 0003:00006398       ??_C@_0P@ILDOILB@ui_scoreScore2?$AA@ 40142398     ui_atoms.obj
 0003:000063ac       ??_C@_0BD@DCEJOFCC@ui_scoreGauntlets2?$AA@ 401423ac     ui_atoms.obj
 0003:000063c4       ??_C@_0BB@IOPFEFIF@ui_scoreAssists2?$AA@ 401423c4     ui_atoms.obj
 0003:000063d8       ??_C@_0BB@PEPLEPNI@ui_scoreDefends2?$AA@ 401423d8     ui_atoms.obj
 0003:000063ec       ??_C@_0BE@MAMGCNCA@ui_scoreExcellents2?$AA@ 401423ec     ui_atoms.obj
 0003:00006404       ??_C@_0BF@EEGABJJM@ui_scoreImpressives2?$AA@ 40142404     ui_atoms.obj
 0003:00006420       ??_C@_0BC@EPKDKNJC@ui_scoreAccuracy2?$AA@ 40142420     ui_atoms.obj
 0003:00006438       ??_C@_0BB@ELNPFLHH@ui_scoreCaptures?$AA@ 40142438     ui_atoms.obj
 0003:0000644c       ??_C@_0N@IIEAHBIE@ui_scoreTime?$AA@ 4014244c     ui_atoms.obj
 0003:0000645c       ??_C@_09INMNFPPH@?$CF02i?3?$CF02i?$AA@ 4014245c     ui_atoms.obj
 0003:00006468       ??_C@_0BF@ICEBEKBD@ui_scoreShutoutBonus?$AA@ 40142468     ui_atoms.obj
 0003:00006484       ??_C@_0BD@MCPJGPPJ@ui_scoreSkillBonus?$AA@ 40142484     ui_atoms.obj
 0003:0000649c       ??_C@_0BC@MAAGAFGN@ui_scoreTimeBonus?$AA@ 4014249c     ui_atoms.obj
 0003:000064b4       ??_C@_0N@LEOMLFDD@ui_scoreBase?$AA@ 401424b4     ui_atoms.obj
 0003:000064c4       ??_C@_0N@DFFLNFA@ui_scoreTeam?$AA@ 401424c4     ui_atoms.obj
 0003:000064d4       ??_C@_08HANDPKCB@?$CFi?5to?5?$CFi?$AA@ 401424d4     ui_atoms.obj
 0003:000064e0       ??_C@_0BA@FNDENKFJ@ui_scorePerfect?$AA@ 401424e0     ui_atoms.obj
 0003:000064f4       ??_C@_0O@BGACMNMN@ui_scoreScore?$AA@ 401424f4     ui_atoms.obj
 0003:00006504       ??_C@_0BC@FJFOJAKM@ui_scoreGauntlets?$AA@ 40142504     ui_atoms.obj
 0003:0000651c       ??_C@_0BA@IDHNCNBN@ui_scoreAssists?$AA@ 4014251c     ui_atoms.obj
 0003:00006530       ??_C@_0BA@OHCNNIJG@ui_scoreDefends?$AA@ 40142530     ui_atoms.obj
 0003:00006544       ??_C@_0BD@LEJGNMPP@ui_scoreExcellents?$AA@ 40142544     ui_atoms.obj
 0003:0000655c       ??_C@_0BE@KMODLOOM@ui_scoreImpressives?$AA@ 4014255c     ui_atoms.obj
 0003:00006574       ??_C@_0BB@LEIIJBCD@ui_scoreAccuracy?$AA@ 40142574     ui_atoms.obj
 0003:00006588       ??_C@_04KAKHEEPD@?$CFi?$CF?$CF?$AA@ 40142588     ui_atoms.obj
 0003:00006590       ??_C@_0BC@CFMHHAMH@demos?1?$CFs_?$CFd?4dm_?$CFd?$AA@ 40142590     ui_atoms.obj
 0003:000065a8       ??_C@_08FCFPNNHF@protocol?$AA@ 401425a8     ui_atoms.obj
 0003:000065b4       ??_C@_0BB@MNGNFDI@games?1?$CFs_?$CFi?4game?$AA@ 401425b4     ui_atoms.obj
 0003:000065c8       ??_C@_08PDFKJPJM@games?1?$CFs?$AA@ 401425c8     ui_atoms.obj
 0003:000065d4       ??_C@_05HMNMDDGD@games?$AA@ 401425d4     ui_atoms.obj
 0003:000065dc       ??_C@_04MJNAPEEI@game?$AA@ 401425dc     ui_atoms.obj
 0003:000065e4       ??_C@_08HOPFIAK@ui_cdkey?$AA@ 401425e4     ui_atoms.obj
 0003:000065f0       ??_C@_0O@DJEGGJPO@ui_teamOrders?$AA@ 401425f0     ui_atoms.obj
 0003:00006600       ??_C@_08OEBEDBJL@ui_cache?$AA@ 40142600     ui_atoms.obj
 0003:0000660c       ??_C@_08FNKAODFI@postgame?$AA@ 4014260c     ui_atoms.obj
 0003:00006618       ??_C@_0M@OCOELHNF@ui_openmenu?$AA@ 40142618     ui_atoms.obj
 0003:00006628       __real@401c000000000000    40142628     ui_atoms.obj
 0003:00006634       ??_C@_0L@GFINLBEC@g_gametype?$AA@ 40142634     ui_atoms.obj
 0003:00006644       ??_C@_0BB@FEAJPNFL@ui_opensiegemenu?$AA@ 40142644     ui_atoms.obj
 0003:00006658       ??_C@_07OKJIHONL@ui_load?$AA@ 40142658     ui_atoms.obj
 0003:00006664       ??_C@_09NFKMFHHN@ui_report?$AA@ 40142664     ui_atoms.obj
 0003:00006670       ??_C@_07IANFCHLD@ui_test?$AA@ 40142670     ui_atoms.obj
 0003:0000667c       ??_C@_09LDNKBKJF@model?5?$CFs?6?$AA@ 4014267c     ui_atoms.obj
 0003:00006688       ??_C@_0P@IEOFAMLI@g_friendlyFire?$AA@ 40142688     ui_atoms.obj
 0003:0000669c       ??_C@_0BA@PHMBDCHA@ui_friendlyFire?$AA@ 4014269c     ui_atoms.obj
 0003:000066b0       ??_C@_07CAKOHKGL@sv_pure?$AA@ 401426b0     ui_atoms.obj
 0003:000066bc       ??_C@_07HHFHJPML@ui_pure?$AA@ 401426bc     ui_atoms.obj
 0003:000066c8       ??_C@_08LPHDKCKM@g_Warmup?$AA@ 401426c8     ui_atoms.obj
 0003:000066d4       ??_C@_09GCFCELDK@ui_Warmup?$AA@ 401426d4     ui_atoms.obj
 0003:000066e0       ??_C@_0L@LPENDGCI@g_doWarmup?$AA@ 401426e0     ui_atoms.obj
 0003:000066f0       ??_C@_0M@EBIAJMEJ@ui_doWarmup?$AA@ 401426f0     ui_atoms.obj
 0003:00006700       ??_C@_0N@FOINMAON@cg_drawTimer?$AA@ 40142700     ui_atoms.obj
 0003:00006710       ??_C@_0N@KDFOGKPE@ui_drawTimer?$AA@ 40142710     ui_atoms.obj
 0003:00006720       ??_C@_0P@CFJBJECC@duel_fraglimit?$AA@ 40142720     ui_atoms.obj
 0003:00006734       ??_C@_0BB@OHGHBGMG@ui_saveDuelLimit?$AA@ 40142734     ui_atoms.obj
 0003:00006748       ??_C@_09GCIEGDDN@fraglimit?$AA@ 40142748     ui_atoms.obj
 0003:00006754       ??_C@_0BB@BLOPBDC@ui_saveFragLimit?$AA@ 40142754     ui_atoms.obj
 0003:00006768       ??_C@_0N@FCAHJCDA@capturelimit?$AA@ 40142768     ui_atoms.obj
 0003:00006778       ??_C@_0BE@FJHNGDNB@ui_saveCaptureLimit?$AA@ 40142778     ui_atoms.obj
 0003:00006790       ??_C@_09OGEBNCBM@g_spSkill?$AA@ 40142790     ui_atoms.obj
 0003:000067a0       __real@408f400000000000    401427a0     ui_atoms.obj
 0003:000067ac       ??_C@_0BC@FKLDKIMG@ui_matchStartTime?$AA@ 401427ac     ui_atoms.obj
 0003:000067c4       ??_C@_07KMNEBLH@mapname?$AA@ 401427c4     ui_atoms.obj
 0003:000067d0       ??_C@_0BG@LGBCBLLK@menu?1art?1saber_purple?$AA@ 401427d0     ui_force.obj
 0003:000067ec       ??_C@_0BE@MGJKKEPD@menu?1art?1saber_blue?$AA@ 401427ec     ui_force.obj
 0003:00006804       ??_C@_0BF@IJAOE@menu?1art?1saber_green?$AA@ 40142804     ui_force.obj
 0003:00006820       ??_C@_0BG@JPPBFDLM@menu?1art?1saber_yellow?$AA@ 40142820     ui_force.obj
 0003:0000683c       ??_C@_0BG@KBFCOFDK@menu?1art?1saber_orange?$AA@ 4014283c     ui_force.obj
 0003:00006858       ??_C@_0BD@KHLEJLON@menu?1art?1saber_red?$AA@ 40142858     ui_force.obj
 0003:00006870       ??_C@_0BG@LGFJINFK@gfx?1menus?1forcestar10?$AA@ 40142870     ui_force.obj
 0003:0000688c       ??_C@_0BI@MACAIAEC@gfx?1menus?1forcecircle10?$AA@ 4014288c     ui_force.obj
 0003:000068a8       ??_C@_0BF@NBKANNJL@gfx?1menus?1forcestar9?$AA@ 401428a8     ui_force.obj
 0003:000068c4       ??_C@_0BH@HEOMFFNL@gfx?1menus?1forcecircle9?$AA@ 401428c4     ui_force.obj
 0003:000068e0       ??_C@_0L@BHNOMLBP@forcestar8?$AA@ 401428e0     ui_force.obj
 0003:000068f0       ??_C@_0N@HOHACNJP@forcecircle8?$AA@ 401428f0     ui_force.obj
 0003:00006900       ??_C@_0L@JAEGNHNA@forcestar7?$AA@ 40142900     ui_force.obj
 0003:00006910       ??_C@_0N@PJOIDBFA@forcecircle7?$AA@ 40142910     ui_force.obj
 0003:00006920       ??_C@_0L@IJFNOGJB@forcestar6?$AA@ 40142920     ui_force.obj
 0003:00006930       ??_C@_0N@OAPDAABB@forcecircle6?$AA@ 40142930     ui_force.obj
 0003:00006940       ??_C@_0L@KCHALFFC@forcestar5?$AA@ 40142940     ui_force.obj
 0003:00006950       ??_C@_0N@MLNOFDNC@forcecircle5?$AA@ 40142950     ui_force.obj
 0003:00006960       ??_C@_0L@LLGLIEBD@forcestar4?$AA@ 40142960     ui_force.obj
 0003:00006970       ??_C@_0N@NCMFGCJD@forcecircle4?$AA@ 40142970     ui_force.obj
 0003:00006980       ??_C@_0L@PECKBCNE@forcestar3?$AA@ 40142980     ui_force.obj
 0003:00006990       ??_C@_0N@JNIEPEFE@forcecircle3?$AA@ 40142990     ui_force.obj
 0003:000069a0       ??_C@_0L@ONDBCDJF@forcestar2?$AA@ 401429a0     ui_force.obj
 0003:000069b0       ??_C@_0N@IEJPMFBF@forcecircle2?$AA@ 401429b0     ui_force.obj
 0003:000069c0       ??_C@_0L@MGBMHAFG@forcestar1?$AA@ 401429c0     ui_force.obj
 0003:000069d0       ??_C@_0N@KPLCJGNG@forcecircle1?$AA@ 401429d0     ui_force.obj
 0003:000069e0       ??_C@_0L@NPAHEBBH@forcestar0?$AA@ 401429e0     ui_force.obj
 0003:000069f0       __real@4018000000000000    401429f0     ui_force.obj
 0003:000069fc       __real@3e4ccccd            401429fc     ui_force.obj
 0003:00006a00       ??_C@_0BD@KFGFOEKO@forcechanged?5x?5?$CFs?6?$AA@ 40142a00     ui_force.obj
 0003:00006a18       ??_C@_0BG@EMKCEHIJ@forcechanged?5?$CC?$CFs?$CC?5?$CFs?6?$AA@ 40142a18     ui_force.obj
 0003:00006a34       ??_C@_06BJHMHGNB@?$CFi?9?$CFi?9?$AA@ 40142a34     ui_force.obj
 0003:00006a3c       ??_C@_0BJ@DHONGHAN@Template?5saved?5as?5?$CC?$CFs?$CC?4?6?$AA@ 40142a3c     ui_force.obj
 0003:00006a5c       ??_C@_0DM@BFNMJPFC@There?5was?5an?5error?5writing?5the?5t@ 40142a5c     ui_force.obj
 0003:00006aa4       ??_C@_0BF@EMDAAAIC@forcecfg?1dark?1?$CFs?4fcf?$AA@ 40142aa4     ui_force.obj
 0003:00006ac0       ??_C@_0BG@JAIAENKC@forcecfg?1light?1?$CFs?4fcf?$AA@ 40142ac0     ui_force.obj
 0003:00006adc       ??_C@_0CO@EONCPKBJ@You?5did?5not?5provide?5a?5name?5for?5t@ 40142adc     ui_force.obj
 0003:00006b14       ??_C@_0L@ILFFGINB@ui_SaveFCF?$AA@ 40142b14     ui_force.obj
 0003:00006b24       ??_C@_0M@HPNGNDDK@lightpowers?$AA@ 40142b24     ui_force.obj
 0003:00006b34       ??_C@_0L@BICDFDBI@darkpowers?$AA@ 40142b34     ui_force.obj
 0003:00006b44       ??_C@_0O@LHILFHLO@neutralpowers?$AA@ 40142b44     ui_force.obj
 0003:00006b54       ??_C@_0BC@PIECDPPG@notforcesensitive?$AA@ 40142b54     ui_force.obj
 0003:00006b6c       ??_C@_0BC@CFLPDLAM@blasterrateoffire?$AA@ 40142b6c     ui_force.obj
 0003:00006b84       ??_C@_0BA@JNOKIJCL@repeaterupgrade?$AA@ 40142b84     ui_force.obj
 0003:00006b98       ??_C@_0BB@BMIGHIH@setsk_empgrenade?$AA@ 40142b98     ui_force.obj
 0003:00006bac       ??_C@_0O@FOGOIEML@setsk_cryoban?$AA@ 40142bac     ui_force.obj
 0003:00006bbc       ??_C@_0BD@LHCJLNLK@setsk_smokegrenade?$AA@ 40142bbc     ui_force.obj
 0003:00006bd4       ??_C@_0BD@BCOEOJFB@setsk_flashgrenade?$AA@ 40142bd4     ui_force.obj
 0003:00006bec       ??_C@_0O@NBDAKBOI@setsk_jetpack?$AA@ 40142bec     ui_force.obj
 0003:00006bfc       ??_C@_0O@GNIPJMHO@setsk_thermal?$AA@ 40142bfc     ui_force.obj
 0003:00006c0c       ??_C@_0O@MELKLDNK@setsk_detpack?$AA@ 40142c0c     ui_force.obj
 0003:00006c1c       ??_C@_0BF@PEKILPCF@ingame_playergunnery?$AA@ 40142c1c     ui_force.obj
 0003:00006c38       ??_C@_0BC@CMIFKGJ@setfp_saberdefend?$AA@ 40142c38     ui_force.obj
 0003:00006c50       ??_C@_0BB@KNAOCGEJ@setfp_staffstyle?$AA@ 40142c50     ui_force.obj
 0003:00006c64       ??_C@_0BA@PKHBAGBG@setfp_dualstyle?$AA@ 40142c64     ui_force.obj
 0003:00006c78       ??_C@_0BC@KKDJLJMH@setfp_purplestyle?$AA@ 40142c78     ui_force.obj
 0003:00006c90       ??_C@_0BB@FOLDPJMP@setfp_greenstyle?$AA@ 40142c90     ui_force.obj
 0003:00006ca4       ??_C@_0P@MLFPKLOP@setfp_redstyle?$AA@ 40142ca4     ui_force.obj
 0003:00006cb8       ??_C@_0BA@JKGFPIHJ@setfp_bluestyle?$AA@ 40142cb8     ui_force.obj
 0003:00006ccc       ??_C@_0BC@ICHIHINJ@setfp_saberattack?$AA@ 40142ccc     ui_force.obj
 0003:00006ce4       ??_C@_07MJJMKCLG@nosaber?$AA@ 40142ce4     ui_force.obj
 0003:00006cf0       ??_C@_0M@GNPPPOC@effectfield?$AA@ 40142cf0     ui_force.obj
 0003:00006d00       ??_C@_0M@DDBKIDMA@effectentry?$AA@ 40142d00     ui_force.obj
 0003:00006d10       ??_C@_0BB@FNLMOMKO@setfp_saberthrow?$AA@ 40142d10     ui_force.obj
 0003:00006d24       ??_C@_0BE@NFEIFFCB@setFP_SABER_DEFENSE?$AA@ 40142d24     ui_force.obj
 0003:00006d3c       ??_C@_0BD@JLILJGFF@ingame_playerforce?$AA@ 40142d3c     ui_force.obj
 0003:00006d54       ??_C@_09CPHDILCP@ui_myteam?$AA@ 40142d54     ui_force.obj
 0003:00006d60       ??_C@_0BC@PJKMCDAC@g_forceBasedTeams?$AA@ 40142d60     ui_force.obj
 0003:00006d78       __real@41400000            40142d78     ui_force.obj
 0003:00006d7c       ??_C@_0P@CHCANPBO@g_maxForceRank?$AA@ 40142d7c     ui_force.obj
 0003:00006d90       ??_C@_0M@BMHCFBAN@personality?$AA@ 40142d90     ui_gameinfo.obj
 0003:00006da0       ??_C@_0BA@MOHNLIKA@com_buildScript?$AA@ 40142da0     ui_gameinfo.obj
 0003:00006db4       ??_C@_02DPKJAMEF@?$CFd?$AA@ 40142db4     ui_gameinfo.obj
 0003:00006db8       ??_C@_05BJJDEFHJ@?2num?2?$AA@ 40142db8     ui_gameinfo.obj
 0003:00006dc0       ??_C@_06CBHGEMFM@?$DMNULL?$DO?$AA@ 40142dc0     ui_gameinfo.obj
 0003:00006dc8       ??_C@_01CELHOKLL@?$HN?$AA@ 40142dc8     ui_gameinfo.obj
 0003:00006dcc       ??_C@_0BN@HAJDHEGK@Unexpected?5end?5of?5info?5file?6?$AA@ 40142dcc     ui_gameinfo.obj
 0003:00006df0       ??_C@_0BE@IKMJLADL@Max?5infos?5exceeded?6?$AA@ 40142df0     ui_gameinfo.obj
 0003:00006e08       ??_C@_0BI@BMEIBPEH@Missing?5?$HL?5in?5info?5file?6?$AA@ 40142e08     ui_gameinfo.obj
 0003:00006e24       ??_C@_01HCONENDN@?$HL?$AA@ 40142e24     ui_gameinfo.obj
 0003:00006e28       ??_C@_03FKCNHKDN@cty?$AA@  40142e28     ui_gameinfo.obj
 0003:00006e2c       ??_C@_03JHHHHEKD@ctf?$AA@  40142e2c     ui_gameinfo.obj
 0003:00006e30       ??_C@_05OEDHBHJ@siege?$AA@ 40142e30     ui_gameinfo.obj
 0003:00006e38       ??_C@_09OHBAKHCG@powerduel?$AA@ 40142e38     ui_gameinfo.obj
 0003:00006e44       ??_C@_04IONKKEKB@duel?$AA@ 40142e44     ui_gameinfo.obj
 0003:00006e4c       ??_C@_0L@PPBFGKBC@jedimaster?$AA@ 40142e4c     ui_gameinfo.obj
 0003:00006e5c       ??_C@_08OFGDEOFK@holocron?$AA@ 40142e5c     ui_gameinfo.obj
 0003:00006e68       ??_C@_04OILOBHMB@coop?$AA@ 40142e68     ui_gameinfo.obj
 0003:00006e70       ??_C@_04KADBPNCB@team?$AA@ 40142e70     ui_gameinfo.obj
 0003:00006e78       ??_C@_03PAEKGFEI@ffa?$AA@  40142e78     ui_gameinfo.obj
 0003:00006e7c       ??_C@_04GPMDFGEJ@type?$AA@ 40142e7c     ui_gameinfo.obj
 0003:00006e84       ??_C@_0O@OBEFLHGN@levelshots?1?$CFs?$AA@ 40142e84     ui_gameinfo.obj
 0003:00006e94       ??_C@_08JJAPLNHH@longname?$AA@ 40142e94     ui_gameinfo.obj
 0003:00006ea0       ??_C@_03HBNNNHNM@map?$AA@  40142ea0     ui_gameinfo.obj
 0003:00006ea4       ??_C@_0DJ@KGDBIAGM@?$FO3WARNING?3?5not?5anough?5memory?5in?5@ 40142ea4     ui_gameinfo.obj
 0003:00006ee8       ??_C@_08IDJEBFOJ@scripts?1?$AA@ 40142ee8     ui_gameinfo.obj
 0003:00006ef4       ??_C@_07OMEBBDEO@scripts?$AA@ 40142ef4     ui_gameinfo.obj
 0003:00006f00       ??_C@_06IPPMLGON@?4arena?$AA@ 40142f00     ui_gameinfo.obj
 0003:00006f08       ??_C@_0CO@OKDDPLPD@?$FO1file?5too?5large?3?5?$CFs?5is?5?$CFi?0?5max?5@ 40142f08     ui_gameinfo.obj
 0003:00006f40       ??_C@_0BG@BJEIGKLP@?$FO1file?5not?5found?3?5?$CFs?6?$AA@ 40142f40     ui_gameinfo.obj
 0003:00006f5c       ??_C@_04NONLJGOA@?4bot?$AA@ 40142f5c     ui_gameinfo.obj
 0003:00006f64       ??_C@_0BC@BOHIEOJI@botfiles?1bots?4txt?$AA@ 40142f64     ui_gameinfo.obj
 0003:00006f7c       ??_C@_0L@IDJNDIMJ@g_botsFile?$AA@ 40142f7c     ui_gameinfo.obj
 0003:00006f8c       ??_C@_09IAMOOHNI@?$EASTOPHERE?$AA@ 40142f8c     ui_gameinfo.obj
 0003:00006f98       ??_C@_0BK@DFMGEDHJ@?$FO1Invalid?5bot?5number?3?5?$CFi?6?$AA@ 40142f98     ui_gameinfo.obj
 0003:00006fb8       ??_C@_04FJIOCDAK@Kyle?$AA@ 40142fb8     ui_gameinfo.obj
 0003:00006fc0       ??_C@_09OHAAGNCG@ui_sab2_b?$AA@ 40142fc0     ui_main.obj
 0003:00006fcc       ??_C@_09JKHHJJGD@ui_sab2_g?$AA@ 40142fcc     ui_main.obj
 0003:00006fd8       ??_C@_09KNMCHPHH@ui_sab2_r?$AA@ 40142fd8     ui_main.obj
 0003:00006fe4       ??_C@_09PFLFMCMI@ui_sab1_b?$AA@ 40142fe4     ui_main.obj
 0003:00006ff0       ??_C@_09IIMCDGIN@ui_sab1_g?$AA@ 40142ff0     ui_main.obj
 0003:00006ffc       ??_C@_09LPHHNAJJ@ui_sab1_r?$AA@ 40142ffc     ui_main.obj
 0003:00007008       ??_C@_0BG@PHKLMOCP@ui_bypassMainMenuLoad?$AA@ 40143008     ui_main.obj
 0003:00007024       ??_C@_07CNNBJDHA@english?$AA@ 40143024     ui_main.obj
 0003:00007030       ??_C@_0M@DBLGOKHK@se_language?$AA@ 40143030     ui_main.obj
 0003:00007040       ??_C@_04CBNKEHLG@7000?$AA@ 40143040     ui_main.obj
 0003:00007048       ??_C@_0BH@CNJFJKJI@ui_serverStatusTimeOut?$AA@ 40143048     ui_main.obj
 0003:00007064       ??_C@_08HAMOJLDA@g_warmup?$AA@ 40143064     ui_main.obj
 0003:00007070       ??_C@_0BA@OHINOCDN@ui_recordSPDemo?$AA@ 40143070     ui_main.obj
 0003:00007084       ??_C@_0O@GPABEMKP@ui_findPlayer?$AA@ 40143084     ui_main.obj
 0003:00007094       ??_C@_0BA@FGIINJDJ@ui_captureLimit?$AA@ 40143094     ui_main.obj
 0003:000070a8       ??_C@_0N@HALAPIBD@ui_fragLimit?$AA@ 401430a8     ui_main.obj
 0003:000070b8       ??_C@_05IPNNCKNB@00?300?$AA@ 401430b8     ui_main.obj
 0003:000070c0       ??_C@_06EFEAFBKM@0?5to?50?$AA@ 401430c0     ui_main.obj
 0003:000070c8       ??_C@_0BG@JDIGCOKJ@ui_singlePlayerActive?$AA@ 401430c8     ui_main.obj
 0003:000070e4       ??_C@_0BH@KBDKNJIJ@ui_lastServerRefresh_3?$AA@ 401430e4     ui_main.obj
 0003:00007100       ??_C@_0BH@LICBOIMI@ui_lastServerRefresh_2?$AA@ 40143100     ui_main.obj
 0003:0000711c       ??_C@_0BH@JDAMLLAL@ui_lastServerRefresh_1?$AA@ 4014311c     ui_main.obj
 0003:00007138       ??_C@_0BH@IKBHIKEK@ui_lastServerRefresh_0?$AA@ 40143138     ui_main.obj
 0003:00007154       ??_C@_0BG@ICIOFDPB@cg_selectedPlayerName?$AA@ 40143154     ui_main.obj
 0003:00007170       ??_C@_0BC@HCNILCAE@cg_selectedPlayer?$AA@ 40143170     ui_main.obj
 0003:00007188       ??_C@_0BD@NCLFMBGL@ui_currentOpponent?$AA@ 40143188     ui_main.obj
 0003:000071a0       ??_C@_0M@BFKLKEBI@ui_mapIndex?$AA@ 401431a0     ui_main.obj
 0003:000071b0       ??_C@_0BB@GFAHJNNM@ui_currentNetMap?$AA@ 401431b0     ui_main.obj
 0003:000071c4       ??_C@_0O@IGABJOOG@ui_currentMap?$AA@ 401431c4     ui_main.obj
 0003:000071d4       ??_C@_0BB@BEFKGBGO@ui?1jampmenus?4txt?$AA@ 401431d4     ui_main.obj
 0003:000071e8       ??_C@_0P@JHKJFGCC@ui_menuFilesMP?$AA@ 401431e8     ui_main.obj
 0003:000071fc       ??_C@_0N@LBKNMFEF@ui_netSource?$AA@ 401431fc     ui_main.obj
 0003:0000720c       ??_C@_0N@EOPNJANO@ui_blueteam8?$AA@ 4014320c     ui_main.obj
 0003:0000721c       ??_C@_0N@MJGFIMBB@ui_blueteam7?$AA@ 4014321c     ui_main.obj
 0003:0000722c       ??_C@_0N@NAHOLNFA@ui_blueteam6?$AA@ 4014322c     ui_main.obj
 0003:0000723c       ??_C@_0N@PLFDOOJD@ui_blueteam5?$AA@ 4014323c     ui_main.obj
 0003:0000724c       ??_C@_0N@OCEINPNC@ui_blueteam4?$AA@ 4014324c     ui_main.obj
 0003:0000725c       ??_C@_0N@KNAJEJBF@ui_blueteam3?$AA@ 4014325c     ui_main.obj
 0003:0000726c       ??_C@_0N@LEBCHIFE@ui_blueteam2?$AA@ 4014326c     ui_main.obj
 0003:0000727c       ??_C@_0N@JPDPCLJH@ui_blueteam1?$AA@ 4014327c     ui_main.obj
 0003:0000728c       ??_C@_0M@HHIJFEHC@ui_redteam8?$AA@ 4014328c     ui_main.obj
 0003:0000729c       ??_C@_0M@PABBEILN@ui_redteam7?$AA@ 4014329c     ui_main.obj
 0003:000072ac       ??_C@_0M@OJAKHJPM@ui_redteam6?$AA@ 401432ac     ui_main.obj
 0003:000072bc       ??_C@_0M@MCCHCKDP@ui_redteam5?$AA@ 401432bc     ui_main.obj
 0003:000072cc       ??_C@_0M@NLDMBLHO@ui_redteam4?$AA@ 401432cc     ui_main.obj
 0003:000072dc       ??_C@_0M@JEHNINLJ@ui_redteam3?$AA@ 401432dc     ui_main.obj
 0003:000072ec       ??_C@_0M@INGGLMPI@ui_redteam2?$AA@ 401432ec     ui_main.obj
 0003:000072fc       ??_C@_0M@KGELOPDL@ui_redteam1?$AA@ 401432fc     ui_main.obj
 0003:0000730c       ??_C@_01EKENIIDA@3?$AA@    4014330c     ui_main.obj
 0003:00007310       ??_C@_0BF@HAOCHBD@ui_actualNetGametype?$AA@ 40143310     ui_main.obj
 0003:0000732c       ??_C@_0P@EMDAIJBA@ui_netGametype?$AA@ 4014332c     ui_main.obj
 0003:00007340       ??_C@_0BA@DLIBAHLB@ui_joinGametype?$AA@ 40143340     ui_main.obj
 0003:00007354       ??_C@_0M@JLEABLCD@ui_gametype?$AA@ 40143354     ui_main.obj
 0003:00007364       ??_C@_0N@MHIHNKN@ui_dedicated?$AA@ 40143364     ui_main.obj
 0003:00007374       ??_C@_0M@NBBBDCHM@ui_blueteam?$AA@ 40143374     ui_main.obj
 0003:00007384       ??_C@_06DAMJBNEB@Empire?$AA@ 40143384     ui_main.obj
 0003:0000738c       ??_C@_0L@KGGGFMJP@ui_redteam?$AA@ 4014338c     ui_main.obj
 0003:0000739c       ??_C@_0BF@LBOIACLJ@ui_forcePowerDisable?$AA@ 4014339c     ui_main.obj
 0003:000073b8       ??_C@_0N@KGLGFCPL@ui_freeSaber?$AA@ 401433b8     ui_main.obj
 0003:000073c8       ??_C@_0O@LNLHFCCF@ui_rankChange?$AA@ 401433c8     ui_main.obj
 0003:000073d8       ??_C@_09CBAPOGED@Rebellion?$AA@ 401433d8     ui_main.obj
 0003:000073e4       ??_C@_0BA@FLODEJIK@ui_opponentName?$AA@ 401433e4     ui_main.obj
 0003:000073f8       ??_C@_0P@GEBMJNJK@ui_initialized?$AA@ 401433f8     ui_main.obj
 0003:0000740c       ??_C@_08JCOFJCCH@ui_debug?$AA@ 4014340c     ui_main.obj
 0003:00007418       ??_C@_08OCDFECFG@cg_marks?$AA@ 40143418     ui_main.obj
 0003:00007424       ??_C@_0BG@PFLNOEEN@cg_drawCrosshairNames?$AA@ 40143424     ui_main.obj
 0003:00007440       ??_C@_0BB@KBADOJHA@cg_drawCrosshair?$AA@ 40143440     ui_main.obj
 0003:00007454       ??_C@_0BE@NJOHIGEF@ui_browserShowEmpty?$AA@ 40143454     ui_main.obj
 0003:0000746c       ??_C@_0BD@FNCPJHJM@ui_browserShowFull?$AA@ 4014346c     ui_main.obj
 0003:00007484       ??_C@_01FAMBOPH@4?$AA@     40143484     ui_main.obj
 0003:00007488       ??_C@_0BC@OHDOHLCL@ui_browserSortKey?$AA@ 40143488     ui_main.obj
 0003:000074a0       ??_C@_0BD@POMFLHHE@ui_browserGameType?$AA@ 401434a0     ui_main.obj
 0003:000074b8       ??_C@_0BB@KIFEKFLJ@ui_browserMaster?$AA@ 401434b8     ui_main.obj
 0003:000074cc       ??_C@_0L@LCIJJLAJ@ui_bottype?$AA@ 401434cc     ui_main.obj
 0003:000074dc       ??_C@_01FDFGLJHB@2?$AA@    401434dc     ui_main.obj
 0003:000074e0       ??_C@_0BA@DNMONKHI@ui_ctf_friendly?$AA@ 401434e0     ui_main.obj
 0003:000074f4       ??_C@_0BB@INPGKJAK@ui_ctf_timelimit?$AA@ 401434f4     ui_main.obj
 0003:00007508       ??_C@_01KJLJFBPL@8?$AA@    40143508     ui_main.obj
 0003:0000750c       ??_C@_0BE@FLADFGIH@ui_ctf_capturelimit?$AA@ 4014350c     ui_main.obj
 0003:00007524       ??_C@_01HIHLOKLC@1?$AA@    40143524     ui_main.obj
 0003:00007528       ??_C@_0BB@LCPLFLFK@ui_team_friendly?$AA@ 40143528     ui_main.obj
 0003:0000753c       ??_C@_0BC@FIBJNNGP@ui_team_timelimit?$AA@ 4014353c     ui_main.obj
 0003:00007554       ??_C@_0BC@JFOHFEHA@ui_team_fraglimit?$AA@ 40143554     ui_main.obj
 0003:0000756c       ??_C@_0BC@FMPOBOM@ui_PrecacheModels?$AA@ 4014356c     ui_main.obj
 0003:00007584       ??_C@_0BD@OMJOJKIN@ui_char_color_blue?$AA@ 40143584     ui_main.obj
 0003:0000759c       ??_C@_0BE@LHJPMIOB@ui_char_color_green?$AA@ 4014359c     ui_main.obj
 0003:000075b4       ??_C@_03EAIPFAE@255?$AA@   401435b4     ui_main.obj
 0003:000075b8       ??_C@_0BC@MMKBHBBG@ui_char_color_red?$AA@ 401435b8     ui_main.obj
 0003:000075d0       ??_C@_0BA@OEHEDBF@ui_saber2_color?$AA@ 401435d0     ui_main.obj
 0003:000075e4       ??_C@_06ENJNJKEL@yellow?$AA@ 401435e4     ui_main.obj
 0003:000075ec       ??_C@_0P@JBHGENEB@ui_saber_color?$AA@ 401435ec     ui_main.obj
 0003:00007600       ??_C@_04CGFJFPFD@none?$AA@ 40143600     ui_main.obj
 0003:00007608       ??_C@_09DLPENCNK@ui_saber2?$AA@ 40143608     ui_main.obj
 0003:00007614       ??_C@_08CAIDFEMJ@single_1?$AA@ 40143614     ui_main.obj
 0003:00007620       ??_C@_08FCCFEDKA@ui_saber?$AA@ 40143620     ui_main.obj
 0003:0000762c       ??_C@_06EJFMBPJF@single?$AA@ 4014362c     ui_main.obj
 0003:00007634       ??_C@_0O@OEELDHBB@ui_saber_type?$AA@ 40143634     ui_main.obj
 0003:00007644       ??_C@_0N@KGBGHFND@ui_char_anim?$AA@ 40143644     ui_main.obj
 0003:00007654       ??_C@_08EEKIFBEE@lower_a1?$AA@ 40143654     ui_main.obj
 0003:00007660       ??_C@_0BC@MOAOEPEC@ui_char_skin_legs?$AA@ 40143660     ui_main.obj
 0003:00007678       ??_C@_08EMHHCMDP@torso_a1?$AA@ 40143678     ui_main.obj
 0003:00007684       ??_C@_0BD@LIILGGGB@ui_char_skin_torso?$AA@ 40143684     ui_main.obj
 0003:0000769c       ??_C@_07PDGBEMPJ@head_a1?$AA@ 4014369c     ui_main.obj
 0003:000076a8       ??_C@_0BC@DKIABBKG@ui_char_skin_head?$AA@ 401436a8     ui_main.obj
 0003:000076c0       ??_C@_07PGAOLEIO@jedi_tf?$AA@ 401436c0     ui_main.obj
 0003:000076cc       ??_C@_0O@GAOPNBBO@ui_char_model?$AA@ 401436cc     ui_main.obj
 0003:000076dc       ??_C@_02KMALDIDP@16?$AA@   401436dc     ui_main.obj
 0003:000076e0       ??_C@_0BG@JJNEEMEL@ui_selectedModelIndex?$AA@ 401436e0     ui_main.obj
 0003:000076fc       ??_C@_0BB@KJJGDNHJ@ui_ffa_timelimit?$AA@ 401436fc     ui_main.obj
 0003:00007710       ??_C@_0BB@GEGILEGG@ui_ffa_fraglimit?$AA@ 40143710     ui_main.obj
 0003:00007724       ??_C@_09KPHKOKCC@timelimit?$AA@ 40143724     ui_main.obj
 0003:00007730       ??_C@_07CPCPJPKL@version?$AA@ 40143730     ui_main.obj
 0003:0000773c       ??_C@_03NBOPHIOC@Map?$AA@  4014373c     ui_main.obj
 0003:00007740       ??_C@_09OINJJDAC@Game?5type?$AA@ 40143740     ui_main.obj
 0003:0000774c       ??_C@_09EDNKFDHC@Game?5name?$AA@ 4014374c     ui_main.obj
 0003:00007758       ??_C@_08HCPAIKAO@gamename?$AA@ 40143758     ui_main.obj
 0003:00007764       ??_C@_07EODJIPPN@Address?$AA@ 40143764     ui_main.obj
 0003:00007770       ??_C@_04FABLJDN@Name?$AA@  40143770     ui_main.obj
 0003:00007778       ??_C@_0M@NHCIKFPA@sv_hostname?$AA@ 40143778     ui_main.obj
 0003:00007788       ??_C@_01BMBHCPLG@5?$AA@    40143788     ui_main.obj
 0003:0000778c       ??_C@_02PKFBJPLJ@10?$AA@   4014378c     ui_main.obj
 0003:00007790       ??_C@_02IHCGGLPM@15?$AA@   40143790     ui_main.obj
 0003:00007794       ??_C@_02PIBHCBOA@20?$AA@   40143794     ui_main.obj
 0003:00007798       ??_C@_02IFGANFKF@25?$AA@   40143798     ui_main.obj
 0003:0000779c       ??_C@_02PJNFELNH@30?$AA@   4014379c     ui_main.obj
 0003:000077a0       ??_C@_02IEKCLPJC@35?$AA@   401437a0     ui_main.obj
 0003:000077a4       ??_C@_02PMJKFNFC@40?$AA@   401437a4     ui_main.obj
 0003:000077a8       ??_C@_02IBONKJBH@45?$AA@   401437a8     ui_main.obj
 0003:000077ac       ??_C@_02PNFIDHGF@50?$AA@   401437ac     ui_main.obj
 0003:000077b0       ??_C@_02IACPMDCA@55?$AA@   401437b0     ui_main.obj
 0003:000077b4       ??_C@_02PPBOIJDM@60?$AA@   401437b4     ui_main.obj
 0003:000077b8       ??_C@_02ICGJHNHJ@65?$AA@   401437b8     ui_main.obj
 0003:000077bc       ??_C@_02PONMODAL@70?$AA@   401437bc     ui_main.obj
 0003:000077c0       ??_C@_02IDKLBHEO@75?$AA@   401437c0     ui_main.obj
 0003:000077c4       ??_C@_02PFIAKEDG@80?$AA@   401437c4     ui_main.obj
 0003:000077c8       ??_C@_02IIPHFAHD@85?$AA@   401437c8     ui_main.obj
 0003:000077cc       ??_C@_02PEECMOAB@90?$AA@   401437cc     ui_main.obj
 0003:000077d0       ??_C@_02IJDFDKEE@95?$AA@   401437d0     ui_main.obj
 0003:000077d4       ??_C@_04OHJIHAFH@None?$AA@ 401437d4     ui_main.obj
 0003:000077dc       ??_C@_03CGHJMOLI@IPX?$AA@  401437dc     ui_main.obj
 0003:000077e0       ??_C@_03OPEAKHDL@UDP?$AA@  401437e0     ui_main.obj
 0003:000077e4       ??_C@_03BBKEAIF@?$DP?$DP?$DP?$AA@ 401437e4     ui_main.obj
 0003:000077e8       ??_C@_0P@IBIEBGEO@TeamTournament?$AA@ 401437e8     ui_main.obj
 0003:000077fc       ??_C@_03FHNGLHEB@CTY?$AA@  401437fc     ui_main.obj
 0003:00007800       ??_C@_03JKIMLJNP@CTF?$AA@  40143800     ui_main.obj
 0003:00007804       ??_C@_05JOPHEEP@Siege?$AA@ 40143804     ui_main.obj
 0003:0000780c       ??_C@_08NFCDKJPC@Team?5FFA?$AA@ 4014380c     ui_main.obj
 0003:00007818       ??_C@_02NEPPOLFA@SP?$AA@   40143818     ui_main.obj
 0003:0000781c       ??_C@_09GJIMILPC@PowerDuel?$AA@ 4014381c     ui_main.obj
 0003:00007828       ??_C@_04EPBLILKF@Duel?$AA@ 40143828     ui_main.obj
 0003:00007830       ??_C@_0L@LGDENMFJ@JediMaster?$AA@ 40143830     ui_main.obj
 0003:00007840       ??_C@_08GHJCMMPJ@Holocron?$AA@ 40143840     ui_main.obj
 0003:0000784c       ??_C@_03PNLBKIDE@FFA?$AA@  4014384c     ui_main.obj
 0003:00007850       ??_C@_06EKKBECKL@SKILL5?$AA@ 40143850     ui_main.obj
 0003:00007858       ??_C@_06FDLKHDOK@SKILL4?$AA@ 40143858     ui_main.obj
 0003:00007860       ??_C@_06BMPLOFCN@SKILL3?$AA@ 40143860     ui_main.obj
 0003:00007868       ??_C@_06FOANEGM@SKILL2?$AA@ 40143868     ui_main.obj
 0003:00007870       ??_C@_06COMNIHKP@SKILL1?$AA@ 40143870     ui_main.obj
 0003:00007878       ??_C@_0M@HCKGBPHL@ojpenhanced?$AA@ 40143878     ui_main.obj
 0003:00007888       ??_C@_0BH@DGPNFOJE@OJP_MENUS_OJP_ENHANCED?$AA@ 40143888     ui_main.obj
 0003:000078a4       ??_C@_0BN@PFEDOOIN@?$EAMENUS_BUTTERFLY_ATTACK_DESC?$AA@ 401438a4     ui_main.obj
 0003:000078c8       ??_C@_0BI@EAPBGPJK@?$EAMENUS_BUTTERFLY_ATTACK?$AA@ 401438c8     ui_main.obj
 0003:000078e4       ??_C@_0BG@LGDPINKM@?$EAMENUS_JUMP_KICK_DESC?$AA@ 401438e4     ui_main.obj
 0003:00007900       ??_C@_0BB@POJMFBKP@?$EAMENUS_JUMP_KICK?$AA@ 40143900     ui_main.obj
 0003:00007914       ??_C@_0BC@EMMGIDH@?$EAMENUS_KICK1_DESC?$AA@ 40143914     ui_main.obj
 0003:0000792c       ??_C@_0N@PBBICHOD@?$EAMENUS_KICK1?$AA@ 4014392c     ui_main.obj
 0003:0000793c       ??_C@_0BK@JAPGPAID@?$EAMENUS_SPINNING_KATA_DESC?$AA@ 4014393c     ui_main.obj
 0003:0000795c       ??_C@_0BF@NLMBPCKL@?$EAMENUS_SPINNING_KATA?$AA@ 4014395c     ui_main.obj
 0003:00007978       ??_C@_0BO@DLAMKMKE@?$EAMENUS_SABER_STAFF_TWIRL_DESC?$AA@ 40143978     ui_main.obj
 0003:0000799c       ??_C@_0BJ@MKDOPHHG@?$EAMENUS_SABER_STAFF_TWIRL?$AA@ 4014399c     ui_main.obj
 0003:000079bc       ??_C@_0BN@MMBMIEGK@?$EAMENUS_BACK_FLIP_ATTACK_DESC?$AA@ 401439bc     ui_main.obj
 0003:000079e0       ??_C@_0BI@LEMBDGKI@?$EAMENUS_BACK_FLIP_ATTACK?$AA@ 401439e0     ui_main.obj
 0003:000079fc       ??_C@_0BL@NFPELNNO@?$EAMENUS_BOTH_ROLL_STAB_DESC?$AA@ 401439fc     ui_main.obj
 0003:00007a1c       ??_C@_0CB@OHOKBOIB@?$EAMENUS_DUAL_STAB_LEFT_RIGHT_DESC@ 40143a1c     ui_main.obj
 0003:00007a44       ??_C@_0BM@EJIDIEIO@?$EAMENUS_DUAL_STAB_LEFT_RIGHT?$AA@ 40143a44     ui_main.obj
 0003:00007a68       ??_C@_0CB@BBDEJAEB@?$EAMENUS_DUAL_STAB_FRONT_BACK_DESC@ 40143a68     ui_main.obj
 0003:00007a90       ??_C@_0BM@CKLBFLF@?$EAMENUS_DUAL_STAB_FRONT_BACK?$AA@ 40143a90     ui_main.obj
 0003:00007ab4       ??_C@_0BP@HNDJBJIM@?$EAMENUS_DUAL_SABER_BARRIER_DESC?$AA@ 40143ab4     ui_main.obj
 0003:00007adc       ??_C@_0BK@KBKBOOBJ@?$EAMENUS_DUAL_SABER_BARRIER?$AA@ 40143adc     ui_main.obj
 0003:00007afc       ??_C@_0BO@DLHAHADI@?$EAMENUS_DUAL_SABERS_TWIRL_DESC?$AA@ 40143afc     ui_main.obj
 0003:00007b20       ??_C@_0BJ@HJOMIECG@?$EAMENUS_DUAL_SABERS_TWIRL?$AA@ 40143b20     ui_main.obj
 0003:00007b40       ??_C@_0CA@PKLJCAFA@?$EAMENUS_FLIP_FORWARD_ATTACK_DESC?$AA@ 40143b40     ui_main.obj
 0003:00007b68       ??_C@_0BL@FPJCKKOC@?$EAMENUS_FLIP_FORWARD_ATTACK?$AA@ 40143b68     ui_main.obj
 0003:00007b88       ??_C@_0BP@OFNKLMEA@?$EAMENUS_STRONG_ATTACK_KATA_DESC?$AA@ 40143b88     ui_main.obj
 0003:00007bb0       ??_C@_0BK@MHBLPKJA@?$EAMENUS_STRONG_ATTACK_KATA?$AA@ 40143bb0     ui_main.obj
 0003:00007bd0       ??_C@_0BI@HDKGCGPE@?$EAMENUS_JUMP_ATTACK_DESC?$AA@ 40143bd0     ui_main.obj
 0003:00007bec       ??_C@_0BD@PCOHHPHC@?$EAMENUS_JUMP_ATTACK?$AA@ 40143bec     ui_main.obj
 0003:00007c04       ??_C@_0BP@OABKPPCF@?$EAMENUS_MEDIUM_ATTACK_KATA_DESC?$AA@ 40143c04     ui_main.obj
 0003:00007c2c       ??_C@_0BK@CKIAJJEO@?$EAMENUS_MEDIUM_ATTACK_KATA?$AA@ 40143c2c     ui_main.obj
 0003:00007c4c       ??_C@_0BI@FHJOBLIG@?$EAMENUS_FLIP_ATTACK_DESC?$AA@ 40143c4c     ui_main.obj
 0003:00007c68       ??_C@_0BD@CLLNGIMH@?$EAMENUS_FLIP_ATTACK?$AA@ 40143c68     ui_main.obj
 0003:00007c80       ??_C@_0BH@FHBJDKPD@?$EAMENUS_SLASH_BACK_DESC?$AA@ 40143c80     ui_main.obj
 0003:00007c9c       ??_C@_0BC@NKFFFKJC@?$EAMENUS_SLASH_BACK?$AA@ 40143c9c     ui_main.obj
 0003:00007cb4       ??_C@_0BM@GNKOEKFG@?$EAMENUS_BOTH_ROLL_STAB2_DESC?$AA@ 40143cb4     ui_main.obj
 0003:00007cd8       ??_C@_0BG@HMEPFCFB@?$EAMENUS_BOTH_ROLL_STAB?$AA@ 40143cd8     ui_main.obj
 0003:00007cf4       ??_C@_0BG@JLCKPPHP@?$EAMENUS_CARTWHEEL_DESC?$AA@ 40143cf4     ui_main.obj
 0003:00007d10       ??_C@_0BB@IJIMDPM@?$EAMENUS_CARTWHEEL?$AA@ 40143d10     ui_main.obj
 0003:00007d24       ??_C@_0CB@OINHPDPA@?$EAMENUS_ATTACK_ENEMYONGROUND_DESC@ 40143d24     ui_main.obj
 0003:00007d4c       ??_C@_0BM@BPOHHCI@?$EAMENUS_ATTACK_ENEMYONGROUND?$AA@ 40143d4c     ui_main.obj
 0003:00007d70       ??_C@_0BN@DFNBDBFF@?$EAMENUS_FAST_ATTACK_KATA_DESC?$AA@ 40143d70     ui_main.obj
 0003:00007d94       ??_C@_0BI@FOFOEABM@?$EAMENUS_FAST_ATTACK_KATA?$AA@ 40143d94     ui_main.obj
 0003:00007db0       ??_C@_0BJ@GFNPHDCP@?$EAMENUS_LUNGE_ATTACK_DESC?$AA@ 40143db0     ui_main.obj
 0003:00007dd0       ??_C@_0BE@DICCJLLC@?$EAMENUS_LUNGE_ATTACK?$AA@ 40143dd0     ui_main.obj
 0003:00007de8       ??_C@_0BG@CEHEKHLA@?$EAMENUS_STAB_BACK_DESC?$AA@ 40143de8     ui_main.obj
 0003:00007e04       ??_C@_0BB@FNBGDNPI@?$EAMENUS_STAB_BACK?$AA@ 40143e04     ui_main.obj
 0003:00007e18       ??_C@_0CA@MDOPGMD@?$EAMENUS_ROLL_FROM_KNOCKDOWN_DESC?$AA@ 40143e18     ui_main.obj
 0003:00007e40       ??_C@_0BL@LNMGDDJH@?$EAMENUS_ROLL_FROM_KNOCKDOWN?$AA@ 40143e40     ui_main.obj
 0003:00007e60       ??_C@_0CE@JEPAFPII@?$EAMENUS_JUMPKICK_FROM_KNOCKDOWN_D@ 40143e60     ui_main.obj
 0003:00007e8c       ??_C@_0BP@GKDGAGAD@?$EAMENUS_JUMPKICK_FROM_KNOCKDOWN?$AA@ 40143e8c     ui_main.obj
 0003:00007eb4       ??_C@_0CC@CBCFOOCC@?$EAMENUS_JUMPUP_FROM_KNOCKDOWN_DES@ 40143eb4     ui_main.obj
 0003:00007edc       ??_C@_0BN@OOMLGNCB@?$EAMENUS_JUMPUP_FROM_KNOCKDOWN?$AA@ 40143edc     ui_main.obj
 0003:00007f00       ??_C@_0CB@BMLDDGAM@?$EAMENUS_RUN_UP_WALL_BACKFLIP_DESC@ 40143f00     ui_main.obj
 0003:00007f28       ??_C@_0BM@DKPAIDF@?$EAMENUS_RUN_UP_WALL_BACKFLIP?$AA@ 40143f28     ui_main.obj
 0003:00007f4c       ??_C@_0BL@KDKBPNPD@?$EAMENUS_WALL_GRAB_JUMP_DESC?$AA@ 40143f4c     ui_main.obj
 0003:00007f6c       ??_C@_0BG@NOKDPCPK@?$EAMENUS_WALL_GRAB_JUMP?$AA@ 40143f6c     ui_main.obj
 0003:00007f88       ??_C@_0BF@DMIOGGL@?$EAMENUS_WALL_RUN_DESC?$AA@ 40143f88     ui_main.obj
 0003:00007fa4       ??_C@_0BA@FDNKCOGP@?$EAMENUS_WALL_RUN?$AA@ 40143fa4     ui_main.obj
 0003:00007fb8       ??_C@_0BO@NMAPJLAB@?$EAMENUS_SIDEFLIP_OFF_WALL_DESC?$AA@ 40143fb8     ui_main.obj
 0003:00007fdc       ??_C@_0BJ@IBNDFGDL@?$EAMENUS_SIDEFLIP_OFF_WALL?$AA@ 40143fdc     ui_main.obj
 0003:00007ffc       ??_C@_0BO@IPFCBMKG@?$EAMENUS_BACKFLIP_OFF_WALL_DESC?$AA@ 40143ffc     ui_main.obj
 0003:00008020       ??_C@_0BJ@LGLIBDFM@?$EAMENUS_BACKFLIP_OFF_WALL?$AA@ 40144020     ui_main.obj
 0003:00008040       ??_C@_0BB@IDKGKPGJ@?$EAMENUS_ROLL_DESC?$AA@ 40144040     ui_main.obj
 0003:00008054       ??_C@_0M@JBJNNKDO@?$EAMENUS_ROLL?$AA@ 40144054     ui_main.obj
 0003:00008064       ??_C@_0BH@OGNMJOFA@?$EAMENUS_FORCE_FLIP_DESC?$AA@ 40144064     ui_main.obj
 0003:00008080       ??_C@_0BC@MFKJJHBG@?$EAMENUS_FORCE_FLIP?$AA@ 40144080     ui_main.obj
 0003:00008098       ??_C@_0BI@NKDILPCG@?$EAMENUS_FORCE_JUMP1_DESC?$AA@ 40144098     ui_main.obj
 0003:000080b4       ??_C@_0BD@KHBMLJKL@?$EAMENUS_FORCE_JUMP1?$AA@ 401440b4     ui_main.obj
 0003:000080cc       ??_C@_0BD@GIKBDNLJ@?$EAMENUS_SABER_STAFF?$AA@ 401440cc     ui_main.obj
 0003:000080e4       ??_C@_0BD@BHHJEHCD@?$EAMENUS_DUAL_SABERS?$AA@ 401440e4     ui_main.obj
 0003:000080fc       ??_C@_0BF@IGMENAPB@?$EAMENUS_SINGLE_STRONG?$AA@ 401440fc     ui_main.obj
 0003:00008118       ??_C@_0BF@FJPIHPLJ@?$EAMENUS_SINGLE_MEDIUM?$AA@ 40144118     ui_main.obj
 0003:00008134       ??_C@_0BD@EDMMOBLM@?$EAMENUS_SINGLE_FAST?$AA@ 40144134     ui_main.obj
 0003:0000814c       ??_C@_0BC@FGDOMIPE@?$EAMENUS_ACROBATICS?$AA@ 4014414c     ui_main.obj
 0003:00008164       ??_C@_0CC@CPCLFBLH@?$EASP_INGAME_FORCE_SABER_THROW_DES@ 40144164     ui_main.obj
 0003:0000818c       ??_C@_0CE@IFLOKFMP@?$EASP_INGAME_FORCE_SABER_DEFENSE_D@ 4014418c     ui_main.obj
 0003:000081b8       ??_C@_0CE@BFOJMIJM@?$EASP_INGAME_FORCE_SABER_OFFENSE_D@ 401441b8     ui_main.obj
 0003:000081e4       ??_C@_0BO@LIFCFJLD@?$EAMENUS_EFFECT_NAREA_OF_EFFECT?$AA@ 401441e4     ui_main.obj
 0003:00008208       ??_C@_0CA@NLHLJDDE@?$EAMENUS_VARIABLE_NAREA_OF_EFFECT?$AA@ 40144208     ui_main.obj
 0003:00008230       ??_C@_0CC@JPECEAOP@?$EAMENUS_EFFECT_JEDI_ALLIES_NEFFEC@ 40144230     ui_main.obj
 0003:00008258       ??_C@_0CF@EDKMOJBH@?$EAMENUS_OF_EFFECT_JEDI_ALLIES_NEF@ 40144258     ui_main.obj
 0003:00008284       ??_C@_0CB@OJAAOCHI@?$EAMENUS_DURATION_CONTINUOUS_NAREA@ 40144284     ui_main.obj
 0003:000082ac       ??_C@_0BP@MOHOGCJM@?$EAMENUS_DURATION_VARIABLE_NAREA?$AA@ 401442ac     ui_main.obj
 0003:000082d4       ??_C@_0BM@NPJPMBPM@?$EAMENUS_DURATION_VARIABLE_10?$AA@ 401442d4     ui_main.obj
 0003:000082f8       ??_C@_0CA@CILKADCI@?$EAMENUS_OF_EFFECT_LIVING_PERSONS?$AA@ 401442f8     ui_main.obj
 0003:00008320       ??_C@_0CE@IGOECCFO@?$EAMENUS_DURATION_INSTANTANEOUS_NA@ 40144320     ui_main.obj
 0003:0000834c       ??_C@_0BM@NNNJHPKF@?$EAMENUS_DURATION_VARIABLE_20?$AA@ 4014434c     ui_main.obj
 0003:00008370       ??_C@_0CC@EMMJLAJE@?$EAMENUS_INSTANTANEOUS_EFFECT_NARE@ 40144370     ui_main.obj
 0003:00008398       ??_C@_0BO@MLLCDKK@?$EAMENUS_DURATION_INSTANTANEOUS?$AA@ 40144398     ui_main.obj
 0003:000083bc       ??_C@_0CA@BAMODECF@?$EAMENUS_DURATION_5_SECONDS_NAREA?$AA@ 401443bc     ui_main.obj
 0003:000083e4       ??_C@_0CA@FCHFBBFK@?$EAMENUS_DURATION_IMMEDIATE_NAREA?$AA@ 401443e4     ui_main.obj
 0003:0000840c       ??_C@_0CD@JFEKEMDM@?$EAMENUS_OF_EFFECT_JEDI_ONLY_NEFFE@ 4014440c     ui_main.obj
 0003:00008438       ??_C@_0BK@FEFIMOAO@gfx?1mp?1f_icon_saber_throw?$AA@ 40144438     ui_main.obj
 0003:00008458       ??_C@_0BL@NEBHBNKD@gfx?1mp?1f_icon_saber_defend?$AA@ 40144458     ui_main.obj
 0003:00008478       ??_C@_0BL@FEKHDPBD@gfx?1mp?1f_icon_saber_attack?$AA@ 40144478     ui_main.obj
 0003:00008498       ??_C@_0BE@IDOBHAPF@gfx?1mp?1f_icon_sight?$AA@ 40144498     ui_main.obj
 0003:000084b0       ??_C@_0BH@JNFFMKGL@gfx?1mp?1f_icon_dk_drain?$AA@ 401444b0     ui_main.obj
 0003:000084cc       ??_C@_0BM@INELODPO@gfx?1mp?1f_icon_dk_forceother?$AA@ 401444cc     ui_main.obj
 0003:000084f0       ??_C@_0BL@PHMODMPE@gfx?1mp?1f_icon_lt_healother?$AA@ 401444f0     ui_main.obj
 0003:00008510       ??_C@_0BI@JGABMFHN@gfx?1mp?1f_icon_lt_absorb?$AA@ 40144510     ui_main.obj
 0003:0000852c       ??_C@_0BJ@BNJGHMKP@gfx?1mp?1f_icon_lt_protect?$AA@ 4014452c     ui_main.obj
 0003:0000854c       ??_C@_0BG@CIIDCBDH@gfx?1mp?1f_icon_dk_rage?$AA@ 4014454c     ui_main.obj
 0003:00008568       ??_C@_0BE@FIGKNCGE@gfx?1mp?1f_icon_dk_l1?$AA@ 40144568     ui_main.obj
 0003:00008580       ??_C@_0BG@PPAEAKKK@gfx?1mp?1f_icon_dk_grip?$AA@ 40144580     ui_main.obj
 0003:0000859c       ??_C@_0BL@GPKCAHJD@gfx?1mp?1f_icon_lt_telepathy?$AA@ 4014459c     ui_main.obj
 0003:000085bc       ??_C@_0BD@FAMLDPCA@gfx?1mp?1f_icon_pull?$AA@ 401445bc     ui_main.obj
 0003:000085d4       ??_C@_0BD@CDNNBOGJ@gfx?1mp?1f_icon_push?$AA@ 401445d4     ui_main.obj
 0003:000085ec       ??_C@_0BE@GACMMIP@gfx?1mp?1f_icon_speed?$AA@ 401445ec     ui_main.obj
 0003:00008604       ??_C@_0BJ@DCGHGAMM@gfx?1mp?1f_icon_levitation?$AA@ 40144604     ui_main.obj
 0003:00008624       ??_C@_0BG@BKINAJCK@gfx?1mp?1f_icon_lt_heal?$AA@ 40144624     ui_main.obj
 0003:00008640       ??_C@_0BB@DLIIJLPK@BOTH_SWEEPKICKED?$AA@ 40144640     ui_main.obj
 0003:00008654       ??_C@_0P@NONIJEBE@BOTH_SWEEPKICK?$AA@ 40144654     ui_main.obj
 0003:00008668       ??_C@_0O@OMEINLAE@BOTH_P7_S1_B_?$AA@ 40144668     ui_main.obj
 0003:00008678       ??_C@_0O@CAOCNLJK@BOTH_P6_S1_B_?$AA@ 40144678     ui_main.obj
 0003:00008688       ??_C@_0O@CKCHNCID@BOTH_P1_S1_B_?$AA@ 40144688     ui_main.obj
 0003:00008698       ??_C@_0M@JAIOEHIF@BOTH_CIN_50?$AA@ 40144698     ui_main.obj
 0003:000086a8       ??_C@_0M@EAIOJGPL@BOTH_CIN_49?$AA@ 401446a8     ui_main.obj
 0003:000086b8       ??_C@_0M@FJJFKHLK@BOTH_CIN_48?$AA@ 401446b8     ui_main.obj
 0003:000086c8       ??_C@_0M@NOANLLHF@BOTH_CIN_47?$AA@ 401446c8     ui_main.obj
 0003:000086d8       ??_C@_0M@MHBGIKDE@BOTH_CIN_46?$AA@ 401446d8     ui_main.obj
 0003:000086e8       ??_C@_0M@OMDLNJPH@BOTH_CIN_45?$AA@ 401446e8     ui_main.obj
 0003:000086f8       ??_C@_0M@PFCAOILG@BOTH_CIN_44?$AA@ 401446f8     ui_main.obj
 0003:00008708       ??_C@_0M@LKGBHOHB@BOTH_CIN_43?$AA@ 40144708     ui_main.obj
 0003:00008718       ??_C@_0M@KDHKEPDA@BOTH_CIN_42?$AA@ 40144718     ui_main.obj
 0003:00008728       ??_C@_0M@IIFHBMPD@BOTH_CIN_41?$AA@ 40144728     ui_main.obj
 0003:00008738       ??_C@_0M@JBEMCNLC@BOTH_CIN_40?$AA@ 40144738     ui_main.obj
 0003:00008748       ??_C@_0M@EFMBIAHO@BOTH_CIN_39?$AA@ 40144748     ui_main.obj
 0003:00008758       ??_C@_0M@FMNKLBDP@BOTH_CIN_38?$AA@ 40144758     ui_main.obj
 0003:00008768       ??_C@_0M@NLECKNPA@BOTH_CIN_37?$AA@ 40144768     ui_main.obj
 0003:00008778       ??_C@_0M@MCFJJMLB@BOTH_CIN_36?$AA@ 40144778     ui_main.obj
 0003:00008788       ??_C@_0M@OJHEMPHC@BOTH_CIN_35?$AA@ 40144788     ui_main.obj
 0003:00008798       ??_C@_0M@PAGPPODD@BOTH_CIN_34?$AA@ 40144798     ui_main.obj
 0003:000087a8       ??_C@_0M@LPCOGIPE@BOTH_CIN_33?$AA@ 401447a8     ui_main.obj
 0003:000087b8       ??_C@_0M@KGDFFJLF@BOTH_CIN_32?$AA@ 401447b8     ui_main.obj
 0003:000087c8       ??_C@_0M@INBIAKHG@BOTH_CIN_31?$AA@ 401447c8     ui_main.obj
 0003:000087d8       ??_C@_0M@JEADDLDH@BOTH_CIN_30?$AA@ 401447d8     ui_main.obj
 0003:000087e8       ??_C@_0M@EEADOKEJ@BOTH_CIN_29?$AA@ 401447e8     ui_main.obj
 0003:000087f8       ??_C@_0M@FNBINLAI@BOTH_CIN_28?$AA@ 401447f8     ui_main.obj
 0003:00008808       ??_C@_0M@NKIAMHMH@BOTH_CIN_27?$AA@ 40144808     ui_main.obj
 0003:00008818       ??_C@_0M@MDJLPGIG@BOTH_CIN_26?$AA@ 40144818     ui_main.obj
 0003:00008828       ??_C@_0M@OILGKFEF@BOTH_CIN_25?$AA@ 40144828     ui_main.obj
 0003:00008838       ??_C@_0M@PBKNJEAE@BOTH_CIN_24?$AA@ 40144838     ui_main.obj
 0003:00008848       ??_C@_0M@LOOMACMD@BOTH_CIN_23?$AA@ 40144848     ui_main.obj
 0003:00008858       ??_C@_0M@KHPHDDIC@BOTH_CIN_22?$AA@ 40144858     ui_main.obj
 0003:00008868       ??_C@_0M@IMNKGAEB@BOTH_CIN_21?$AA@ 40144868     ui_main.obj
 0003:00008878       ??_C@_0M@JFMBFBAA@BOTH_CIN_20?$AA@ 40144878     ui_main.obj
 0003:00008888       ??_C@_0M@EGEFFEBA@BOTH_CIN_19?$AA@ 40144888     ui_main.obj
 0003:00008898       ??_C@_0M@FPFOGFFB@BOTH_CIN_18?$AA@ 40144898     ui_main.obj
 0003:000088a8       ??_C@_0M@NIMGHJJO@BOTH_CIN_17?$AA@ 401448a8     ui_main.obj
 0003:000088b8       ??_C@_0M@MBNNEINP@BOTH_CIN_16?$AA@ 401448b8     ui_main.obj
 0003:000088c8       ??_C@_0M@OKPABLBM@BOTH_CIN_15?$AA@ 401448c8     ui_main.obj
 0003:000088d8       ??_C@_0M@PDOLCKFN@BOTH_CIN_14?$AA@ 401448d8     ui_main.obj
 0003:000088e8       ??_C@_0M@LMKKLMJK@BOTH_CIN_13?$AA@ 401448e8     ui_main.obj
 0003:000088f8       ??_C@_0M@KFLBINNL@BOTH_CIN_12?$AA@ 401448f8     ui_main.obj
 0003:00008908       ??_C@_0M@IOJMNOBI@BOTH_CIN_11?$AA@ 40144908     ui_main.obj
 0003:00008918       ??_C@_0M@JHIHOPFJ@BOTH_CIN_10?$AA@ 40144918     ui_main.obj
 0003:00008928       ??_C@_0L@LLDGGLKP@BOTH_CIN_9?$AA@ 40144928     ui_main.obj
 0003:00008938       ??_C@_0L@KCCNFKOO@BOTH_CIN_8?$AA@ 40144938     ui_main.obj
 0003:00008948       ??_C@_0L@CFLFEGCB@BOTH_CIN_7?$AA@ 40144948     ui_main.obj
 0003:00008958       ??_C@_0L@DMKOHHGA@BOTH_CIN_6?$AA@ 40144958     ui_main.obj
 0003:00008968       ??_C@_0L@BHIDCEKD@BOTH_CIN_5?$AA@ 40144968     ui_main.obj
 0003:00008978       ??_C@_0L@OJIBFOC@BOTH_CIN_4?$AA@ 40144978     ui_main.obj
 0003:00008988       ??_C@_0L@EBNJIDCF@BOTH_CIN_3?$AA@ 40144988     ui_main.obj
 0003:00008998       ??_C@_0L@FIMCLCGE@BOTH_CIN_2?$AA@ 40144998     ui_main.obj
 0003:000089a8       ??_C@_0L@HDOPOBKH@BOTH_CIN_1?$AA@ 401449a8     ui_main.obj
 0003:000089b8       ??_C@_0BI@BOCBGNDA@BOTH_SABERDESANN_STANCE?$AA@ 401449b8     ui_main.obj
 0003:000089d4       ??_C@_0BI@HFIIMGKB@BOTH_SABERTAVION_STANCE?$AA@ 401449d4     ui_main.obj
 0003:000089f0       ??_C@_0BE@GNJJNMBI@BOTH_LEDGE_MERCPULL?$AA@ 401449f0     ui_main.obj
 0003:00008a08       ??_C@_0BB@POANIEBE@BOTH_LEDGE_RIGHT?$AA@ 40144a08     ui_main.obj
 0003:00008a1c       ??_C@_0BA@MHCKFGEE@BOTH_LEDGE_LEFT?$AA@ 40144a1c     ui_main.obj
 0003:00008a30       ??_C@_0BA@BKECIHGH@BOTH_LEDGE_HOLD?$AA@ 40144a30     ui_main.obj
 0003:00008a44       ??_C@_0BA@GEODKLCB@BOTH_LEDGE_GRAB?$AA@ 40144a44     ui_main.obj
 0003:00008a58       ??_C@_0N@MEGKIHKK@LEGS_TURN180?$AA@ 40144a58     ui_main.obj
 0003:00008a68       ??_C@_0N@EEPPLEKL@LEGS_S7_RUP5?$AA@ 40144a68     ui_main.obj
 0003:00008a78       ??_C@_0N@FNOEIFOK@LEGS_S7_RUP4?$AA@ 40144a78     ui_main.obj
 0003:00008a88       ??_C@_0N@BCKFBDCN@LEGS_S7_RUP3?$AA@ 40144a88     ui_main.obj
 0003:00008a98       ??_C@_0N@LLOCCGM@LEGS_S7_RUP2?$AA@ 40144a98     ui_main.obj
 0003:00008aa8       ??_C@_0N@CAJDHBKP@LEGS_S7_RUP1?$AA@ 40144aa8     ui_main.obj
 0003:00008ab8       ??_C@_0N@JLCPJNEI@LEGS_S7_LUP5?$AA@ 40144ab8     ui_main.obj
 0003:00008ac8       ??_C@_0N@ICDEKMAJ@LEGS_S7_LUP4?$AA@ 40144ac8     ui_main.obj
 0003:00008ad8       ??_C@_0N@MNHFDKMO@LEGS_S7_LUP3?$AA@ 40144ad8     ui_main.obj
 0003:00008ae8       ??_C@_0N@NEGOALIP@LEGS_S7_LUP2?$AA@ 40144ae8     ui_main.obj
 0003:00008af8       ??_C@_0N@PPEDFIEM@LEGS_S7_LUP1?$AA@ 40144af8     ui_main.obj
 0003:00008b08       ??_C@_0N@OCIILPBP@LEGS_S6_RUP5?$AA@ 40144b08     ui_main.obj
 0003:00008b18       ??_C@_0N@PLJDIOFO@LEGS_S6_RUP4?$AA@ 40144b18     ui_main.obj
 0003:00008b28       ??_C@_0N@LENCBIJJ@LEGS_S6_RUP3?$AA@ 40144b28     ui_main.obj
 0003:00008b38       ??_C@_0N@KNMJCJNI@LEGS_S6_RUP2?$AA@ 40144b38     ui_main.obj
 0003:00008b48       ??_C@_0N@IGOEHKBL@LEGS_S6_RUP1?$AA@ 40144b48     ui_main.obj
 0003:00008b58       ??_C@_0N@DNFIJGPM@LEGS_S6_LUP5?$AA@ 40144b58     ui_main.obj
 0003:00008b68       ??_C@_0N@CEEDKHLN@LEGS_S6_LUP4?$AA@ 40144b68     ui_main.obj
 0003:00008b78       ??_C@_0N@GLACDBHK@LEGS_S6_LUP3?$AA@ 40144b78     ui_main.obj
 0003:00008b88       ??_C@_0N@HCBJAADL@LEGS_S6_LUP2?$AA@ 40144b88     ui_main.obj
 0003:00008b98       ??_C@_0N@FJDEFDPI@LEGS_S6_LUP1?$AA@ 40144b98     ui_main.obj
 0003:00008ba8       ??_C@_0N@NDGAKFIC@LEGS_S5_RUP5?$AA@ 40144ba8     ui_main.obj
 0003:00008bb8       ??_C@_0N@MKHLJEMD@LEGS_S5_RUP4?$AA@ 40144bb8     ui_main.obj
 0003:00008bc8       ??_C@_0N@IFDKACAE@LEGS_S5_RUP3?$AA@ 40144bc8     ui_main.obj
 0003:00008bd8       ??_C@_0N@JMCBDDEF@LEGS_S5_RUP2?$AA@ 40144bd8     ui_main.obj
 0003:00008be8       ??_C@_0N@LHAMGAIG@LEGS_S5_RUP1?$AA@ 40144be8     ui_main.obj
 0003:00008bf8       ??_C@_0N@MLAIMGB@LEGS_S5_LUP5?$AA@ 40144bf8     ui_main.obj
 0003:00008c08       ??_C@_0N@BFKLLNCA@LEGS_S5_LUP4?$AA@ 40144c08     ui_main.obj
 0003:00008c18       ??_C@_0N@FKOKCLOH@LEGS_S5_LUP3?$AA@ 40144c18     ui_main.obj
 0003:00008c28       ??_C@_0N@EDPBBKKG@LEGS_S5_LUP2?$AA@ 40144c28     ui_main.obj
 0003:00008c38       ??_C@_0N@GINMEJGF@LEGS_S5_LUP1?$AA@ 40144c38     ui_main.obj
 0003:00008c48       ??_C@_0N@HFBHKODG@LEGS_S4_RUP5?$AA@ 40144c48     ui_main.obj
 0003:00008c58       ??_C@_0N@GMAMJPHH@LEGS_S4_RUP4?$AA@ 40144c58     ui_main.obj
 0003:00008c68       ??_C@_0N@CDENAJLA@LEGS_S4_RUP3?$AA@ 40144c68     ui_main.obj
 0003:00008c78       ??_C@_0N@DKFGDIPB@LEGS_S4_RUP2?$AA@ 40144c78     ui_main.obj
 0003:00008c88       ??_C@_0N@BBHLGLDC@LEGS_S4_RUP1?$AA@ 40144c88     ui_main.obj
 0003:00008c98       ??_C@_0N@KKMHIHNF@LEGS_S4_LUP5?$AA@ 40144c98     ui_main.obj
 0003:00008ca8       ??_C@_0N@LDNMLGJE@LEGS_S4_LUP4?$AA@ 40144ca8     ui_main.obj
 0003:00008cb8       ??_C@_0N@PMJNCAFD@LEGS_S4_LUP3?$AA@ 40144cb8     ui_main.obj
 0003:00008cc8       ??_C@_0N@OFIGBBBC@LEGS_S4_LUP2?$AA@ 40144cc8     ui_main.obj
 0003:00008cd8       ??_C@_0N@MOKLECNB@LEGS_S4_LUP1?$AA@ 40144cd8     ui_main.obj
 0003:00008ce8       ??_C@_0N@LALAJALI@LEGS_S3_RUP5?$AA@ 40144ce8     ui_main.obj
 0003:00008cf8       ??_C@_0N@KJKLKBPJ@LEGS_S3_RUP4?$AA@ 40144cf8     ui_main.obj
 0003:00008d08       ??_C@_0N@OGOKDHDO@LEGS_S3_RUP3?$AA@ 40144d08     ui_main.obj
 0003:00008d18       ??_C@_0N@PPPBAGHP@LEGS_S3_RUP2?$AA@ 40144d18     ui_main.obj
 0003:00008d28       ??_C@_0N@NENMFFLM@LEGS_S3_RUP1?$AA@ 40144d28     ui_main.obj
 0003:00008d38       ??_C@_0N@GPGALJFL@LEGS_S3_LUP5?$AA@ 40144d38     ui_main.obj
 0003:00008d48       ??_C@_0N@HGHLIIBK@LEGS_S3_LUP4?$AA@ 40144d48     ui_main.obj
 0003:00008d58       ??_C@_0N@DJDKBONN@LEGS_S3_LUP3?$AA@ 40144d58     ui_main.obj
 0003:00008d68       ??_C@_0N@CACBCPJM@LEGS_S3_LUP2?$AA@ 40144d68     ui_main.obj
 0003:00008d78       ??_C@_0N@LAMHMFP@LEGS_S3_LUP1?$AA@ 40144d78     ui_main.obj
 0003:00008d88       ??_C@_0N@CHCPIBJB@LEGS_S1_RUP5?$AA@ 40144d88     ui_main.obj
 0003:00008d98       ??_C@_0N@DODELANA@LEGS_S1_RUP4?$AA@ 40144d98     ui_main.obj
 0003:00008da8       ??_C@_0N@HBHFCGBH@LEGS_S1_RUP3?$AA@ 40144da8     ui_main.obj
 0003:00008db8       ??_C@_0N@GIGOBHFG@LEGS_S1_RUP2?$AA@ 40144db8     ui_main.obj
 0003:00008dc8       ??_C@_0N@EDEDEEJF@LEGS_S1_RUP1?$AA@ 40144dc8     ui_main.obj
 0003:00008dd8       ??_C@_0N@PIPPKIHC@LEGS_S1_LUP5?$AA@ 40144dd8     ui_main.obj
 0003:00008de8       ??_C@_0N@OBOEJJDD@LEGS_S1_LUP4?$AA@ 40144de8     ui_main.obj
 0003:00008df8       ??_C@_0N@KOKFAPPE@LEGS_S1_LUP3?$AA@ 40144df8     ui_main.obj
 0003:00008e08       ??_C@_0N@LHLODOLF@LEGS_S1_LUP2?$AA@ 40144e08     ui_main.obj
 0003:00008e18       ??_C@_0N@JMJDGNHG@LEGS_S1_LUP1?$AA@ 40144e18     ui_main.obj
 0003:00008e28       ??_C@_0O@PPAOPDJO@LEGS_RIGHTUP5?$AA@ 40144e28     ui_main.obj
 0003:00008e38       ??_C@_0O@OGBFMCNP@LEGS_RIGHTUP4?$AA@ 40144e38     ui_main.obj
 0003:00008e48       ??_C@_0O@KJFEFEBI@LEGS_RIGHTUP3?$AA@ 40144e48     ui_main.obj
 0003:00008e58       ??_C@_0O@LAEPGFFJ@LEGS_RIGHTUP2?$AA@ 40144e58     ui_main.obj
 0003:00008e68       ??_C@_0O@JLGCDGJK@LEGS_RIGHTUP1?$AA@ 40144e68     ui_main.obj
 0003:00008e78       ??_C@_0N@DBAKPANN@LEGS_LEFTUP5?$AA@ 40144e78     ui_main.obj
 0003:00008e88       ??_C@_0N@CIBBMBJM@LEGS_LEFTUP4?$AA@ 40144e88     ui_main.obj
 0003:00008e98       ??_C@_0N@GHFAFHFL@LEGS_LEFTUP3?$AA@ 40144e98     ui_main.obj
 0003:00008ea8       ??_C@_0N@HOELGGBK@LEGS_LEFTUP2?$AA@ 40144ea8     ui_main.obj
 0003:00008eb8       ??_C@_0N@FFGGDFNJ@LEGS_LEFTUP1?$AA@ 40144eb8     ui_main.obj
 0003:00008ec8       ??_C@_0O@FPAJGKKH@LEGS_CHOKING1?$AA@ 40144ec8     ui_main.obj
 0003:00008ed8       ??_C@_0BB@HCNNJMLM@LEGS_LEAN_RIGHT1?$AA@ 40144ed8     ui_main.obj
 0003:00008eec       ??_C@_0BA@MCADBFIF@LEGS_LEAN_LEFT1?$AA@ 40144eec     ui_main.obj
 0003:00008f00       ??_C@_0L@BFOCDDKC@LEGS_TURN2?$AA@ 40144f00     ui_main.obj
 0003:00008f10       ??_C@_0L@DOMPGAGB@LEGS_TURN1?$AA@ 40144f10     ui_main.obj
 0003:00008f20       ??_C@_0BC@FAHFKMOC@TORSO_HANDSIGNAL5?$AA@ 40144f20     ui_main.obj
 0003:00008f38       ??_C@_0BC@EJGOJNKD@TORSO_HANDSIGNAL4?$AA@ 40144f38     ui_main.obj
 0003:00008f50       ??_C@_0BC@GCPALGE@TORSO_HANDSIGNAL3?$AA@ 40144f50     ui_main.obj
 0003:00008f68       ??_C@_0BC@BPDEDKCF@TORSO_HANDSIGNAL2?$AA@ 40144f68     ui_main.obj
 0003:00008f80       ??_C@_0BC@DEBJGJOG@TORSO_HANDSIGNAL1?$AA@ 40144f80     ui_main.obj
 0003:00008f98       ??_C@_0P@EDGDJEAA@TORSO_CHOKING1?$AA@ 40144f98     ui_main.obj
 0003:00008fac       ??_C@_0BF@CAMHOBIG@TORSO_SURRENDER_STOP?$AA@ 40144fac     ui_main.obj
 0003:00008fc8       ??_C@_0BG@DJHHNKPJ@TORSO_SURRENDER_START?$AA@ 40144fc8     ui_main.obj
 0003:00008fe4       ??_C@_0BD@IPNKJOGP@TORSO_WEAPONIDLE10?$AA@ 40144fe4     ui_main.obj
 0003:00008ffc       ??_C@_0BC@OEKOFEDF@TORSO_WEAPONIDLE4?$AA@ 40144ffc     ui_main.obj
 0003:00009014       ??_C@_0BC@KLOPMCPC@TORSO_WEAPONIDLE3?$AA@ 40145014     ui_main.obj
 0003:0000902c       ??_C@_0BC@LCPEPDLD@TORSO_WEAPONIDLE2?$AA@ 4014502c     ui_main.obj
 0003:00009044       ??_C@_0BE@PLMMDJNI@TORSO_WEAPONREADY10?$AA@ 40145044     ui_main.obj
 0003:0000905c       ??_C@_0BD@EDNLHJLG@TORSO_WEAPONREADY4?$AA@ 4014505c     ui_main.obj
 0003:00009074       ??_C@_0BD@MJKOPHB@TORSO_WEAPONREADY3?$AA@ 40145074     ui_main.obj
 0003:0000908c       ??_C@_0BD@BFIBNODA@TORSO_WEAPONREADY2?$AA@ 4014508c     ui_main.obj
 0003:000090a4       ??_C@_0BD@DOKMINPD@TORSO_WEAPONREADY1?$AA@ 401450a4     ui_main.obj
 0003:000090bc       ??_C@_0BB@JNFLGAHH@TORSO_RAISEWEAP4?$AA@ 401450bc     ui_main.obj
 0003:000090d0       ??_C@_0BB@OACMJEDC@TORSO_RAISEWEAP1?$AA@ 401450d0     ui_main.obj
 0003:000090e4       ??_C@_0BA@CHPACHPA@TORSO_DROPWEAP4?$AA@ 401450e4     ui_main.obj
 0003:000090f8       ??_C@_0BA@FKIHNDLF@TORSO_DROPWEAP1?$AA@ 401450f8     ui_main.obj
 0003:0000910c       ??_C@_09LOFMHEDG@BOTH_SIT7?$AA@ 4014510c     ui_main.obj
 0003:00009118       ??_C@_09KHEHEFHH@BOTH_SIT6?$AA@ 40145118     ui_main.obj
 0003:00009124       ??_C@_0BA@KMDIIEBA@BOTH_SIT5_TALK3?$AA@ 40145124     ui_main.obj
 0003:00009138       ??_C@_0BA@LFCDLFFB@BOTH_SIT5_TALK2?$AA@ 40145138     ui_main.obj
 0003:0000914c       ??_C@_0BA@JOAOOGJC@BOTH_SIT5_TALK1?$AA@ 4014514c     ui_main.obj
 0003:00009160       ??_C@_09IMGKBGLE@BOTH_SIT5?$AA@ 40145160     ui_main.obj
 0003:0000916c       ??_C@_09JFHBCHPF@BOTH_SIT4?$AA@ 4014516c     ui_main.obj
 0003:00009178       ??_C@_0BC@HMBKLJMI@BOTH_STAND1_TALK3?$AA@ 40145178     ui_main.obj
 0003:00009190       ??_C@_0BC@GFABIIIJ@BOTH_STAND1_TALK2?$AA@ 40145190     ui_main.obj
 0003:000091a8       ??_C@_0BC@EOCMNLEK@BOTH_STAND1_TALK1?$AA@ 401451a8     ui_main.obj
 0003:000091c0       ??_C@_0BF@EILOIEKG@BOTH_STAND10TOSTAND1?$AA@ 401451c0     ui_main.obj
 0003:000091dc       ??_C@_0BD@BPMBLEGP@BOTH_STAND10_TALK2?$AA@ 401451dc     ui_main.obj
 0003:000091f4       ??_C@_0BD@DEOMOHKM@BOTH_STAND10_TALK1?$AA@ 401451f4     ui_main.obj
 0003:0000920c       ??_C@_0N@EGCBKCBH@BOTH_STAND10?$AA@ 4014520c     ui_main.obj
 0003:0000921c       ??_C@_0BD@KFKLMKIP@BOTH_SONICPAIN_END?$AA@ 4014521c     ui_main.obj
 0003:00009234       ??_C@_0BE@KHIIENBG@BOTH_SONICPAIN_HOLD?$AA@ 40145234     ui_main.obj
 0003:0000924c       ??_C@_0BF@LOEEPGJI@BOTH_SONICPAIN_START?$AA@ 4014524c     ui_main.obj
 0003:00009268       ??_C@_0BB@JEOPOJAL@BOTH_COWER1_STOP?$AA@ 40145268     ui_main.obj
 0003:0000927c       ??_C@_0M@EAAAAKHE@BOTH_COWER1?$AA@ 4014527c     ui_main.obj
 0003:0000928c       ??_C@_0BC@KKMKANGM@BOTH_COWER1_START?$AA@ 4014528c     ui_main.obj
 0003:000092a4       ??_C@_0BC@KDENGKBK@BOTH_TUSKENTAUNT1?$AA@ 401452a4     ui_main.obj
 0003:000092bc       ??_C@_0BC@BIOHNIGA@BOTH_TUSKENLUNGE1?$AA@ 401452bc     ui_main.obj
 0003:000092d4       ??_C@_0BD@NFLDJLNC@BOTH_TUSKENATTACK3?$AA@ 401452d4     ui_main.obj
 0003:000092ec       ??_C@_0BD@MMKIKKJD@BOTH_TUSKENATTACK2?$AA@ 401452ec     ui_main.obj
 0003:00009304       ??_C@_0BD@OHIFPJFA@BOTH_TUSKENATTACK1?$AA@ 40145304     ui_main.obj
 0003:0000931c       ??_C@_0BE@OBEECCKH@BOTH_KNEEL_TO_STAND?$AA@ 4014531c     ui_main.obj
 0003:00009334       ??_C@_0BE@FLPJEFCO@BOTH_STAND_TO_KNEEL?$AA@ 40145334     ui_main.obj
 0003:0000934c       ??_C@_09FOHPNOGF@BOTH_WIND?$AA@ 4014534c     ui_main.obj
 0003:00009358       ??_C@_0BI@GLAHPFBH@BOTH_FORCE_PROTECT_FAST?$AA@ 40145358     ui_main.obj
 0003:00009374       ??_C@_0BD@FFPOEFNG@BOTH_FORCE_PROTECT?$AA@ 40145374     ui_main.obj
 0003:0000938c       ??_C@_0BG@CBNCOJEH@BOTH_FORCE_ABSORB_END?$AA@ 4014538c     ui_main.obj
 0003:000093a8       ??_C@_0BI@BPAAFONF@BOTH_FORCE_ABSORB_START?$AA@ 401453a8     ui_main.obj
 0003:000093c4       ??_C@_0BC@HHGANHBC@BOTH_FORCE_ABSORB?$AA@ 401453c4     ui_main.obj
 0003:000093dc       ??_C@_0BJ@GKPDEPNJ@BOTH_FORCE_DRAIN_GRABBED?$AA@ 401453dc     ui_main.obj
 0003:000093fc       ??_C@_0BK@POJHMFNL@BOTH_FORCE_DRAIN_GRAB_END?$AA@ 401453fc     ui_main.obj
 0003:0000941c       ??_C@_0BL@MLNFOEPE@BOTH_FORCE_DRAIN_GRAB_HOLD?$AA@ 4014541c     ui_main.obj
 0003:0000943c       ??_C@_0BM@PACMCIGF@BOTH_FORCE_DRAIN_GRAB_START?$AA@ 4014543c     ui_main.obj
 0003:00009460       ??_C@_0BJ@OBGKFMHF@BOTH_FORCE_DRAIN_RELEASE?$AA@ 40145460     ui_main.obj
 0003:00009480       ??_C@_0BG@JCLNDPPK@BOTH_FORCE_DRAIN_HOLD?$AA@ 40145480     ui_main.obj
 0003:0000949c       ??_C@_0BH@BHMNGNLJ@BOTH_FORCE_DRAIN_START?$AA@ 4014549c     ui_main.obj
 0003:000094b8       ??_C@_0BB@NHPCBMHH@BOTH_FORCE_DRAIN?$AA@ 401454b8     ui_main.obj
 0003:000094cc       ??_C@_0CE@NFLNPDNI@BOTH_FORCE_2HANDEDLIGHTNING_RELE@ 401454cc     ui_main.obj
 0003:000094f8       ??_C@_0CB@MNKHBDGA@BOTH_FORCE_2HANDEDLIGHTNING_HOLD@ 401454f8     ui_main.obj
 0003:00009520       ??_C@_0CC@HEIANMP@BOTH_FORCE_2HANDEDLIGHTNING_STAR@ 40145520     ui_main.obj
 0003:00009548       ??_C@_0BM@OPHDEJED@BOTH_FORCE_2HANDEDLIGHTNING?$AA@ 40145548     ui_main.obj
 0003:0000956c       ??_C@_0BA@GLJOFMJL@BOTH_FORCE_RAGE?$AA@ 4014556c     ui_main.obj
 0003:00009580       ??_C@_0L@GCDIADMB@BOTH_TOSS2?$AA@ 40145580     ui_main.obj
 0003:00009590       ??_C@_0L@EJBFFAAC@BOTH_TOSS1?$AA@ 40145590     ui_main.obj
 0003:000095a0       ??_C@_0BH@JFCMGCAP@BOTH_FORCEGRIP_RELEASE?$AA@ 401455a0     ui_main.obj
 0003:000095bc       ??_C@_0BE@JLIMFCGH@BOTH_FORCEGRIP_HOLD?$AA@ 401455bc     ui_main.obj
 0003:000095d4       ??_C@_0BF@BAAGEEBG@BOTH_FORCEGRIP3THROW?$AA@ 401455d4     ui_main.obj
 0003:000095f0       ??_C@_0BA@CBKDJPAH@BOTH_FORCEGRIP3?$AA@ 401455f0     ui_main.obj
 0003:00009604       ??_C@_0BA@BDJFPNIF@BOTH_FORCEGRIP1?$AA@ 40145604     ui_main.obj
 0003:00009618       ??_C@_0P@PONJILD@BOTH_SABERPULL?$AA@ 40145618     ui_main.obj
 0003:0000962c       ??_C@_0BF@DKJODMIL@BOTH_FORCEHEAL_QUICK?$AA@ 4014562c     ui_main.obj
 0003:00009648       ??_C@_0BE@GNHNNEFM@BOTH_FORCEHEAL_STOP?$AA@ 40145648     ui_main.obj
 0003:00009660       ??_C@_0BF@FPDMFLAG@BOTH_FORCEHEAL_START?$AA@ 40145660     ui_main.obj
 0003:0000967c       ??_C@_0BM@GCBAKCPL@BOTH_FORCELIGHTNING_RELEASE?$AA@ 4014567c     ui_main.obj
 0003:000096a0       ??_C@_0BJ@KCFBGHIB@BOTH_FORCELIGHTNING_HOLD?$AA@ 401456a0     ui_main.obj
 0003:000096c0       ??_C@_0BK@NACKCJFF@BOTH_FORCELIGHTNING_START?$AA@ 401456c0     ui_main.obj
 0003:000096e0       ??_C@_0BE@OEAHGILF@BOTH_FORCELIGHTNING?$AA@ 401456e0     ui_main.obj
 0003:000096f8       ??_C@_0BA@KMPKOPAN@BOTH_MINDTRICK2?$AA@ 401456f8     ui_main.obj
 0003:0000970c       ??_C@_0BA@IHNHLMMO@BOTH_MINDTRICK1?$AA@ 4014570c     ui_main.obj
 0003:00009720       ??_C@_0P@HBADPLP@BOTH_FORCEPULL?$AA@ 40145720     ui_main.obj
 0003:00009734       ??_C@_0P@HEAGBOPG@BOTH_FORCEPUSH?$AA@ 40145734     ui_main.obj
 0003:00009748       ??_C@_0BA@IBNLMMOO@BOTH_RESISTPUSH?$AA@ 40145748     ui_main.obj
 0003:0000975c       ??_C@_0BE@BFLOBGOL@BOTH_BUTTON_RELEASE?$AA@ 4014575c     ui_main.obj
 0003:00009774       ??_C@_0BB@FCMBEPCD@BOTH_BUTTON_HOLD?$AA@ 40145774     ui_main.obj
 0003:00009788       ??_C@_0N@JDJGEOPD@BOTH_BUTTON2?$AA@ 40145788     ui_main.obj
 0003:00009798       ??_C@_0N@LILLBNDA@BOTH_BUTTON1?$AA@ 40145798     ui_main.obj
 0003:000097a8       ??_C@_0N@JAALPHCL@BOTH_TURNOFF?$AA@ 401457a8     ui_main.obj
 0003:000097b8       ??_C@_0M@ODIMNEKC@BOTH_TURNON?$AA@ 401457b8     ui_main.obj
 0003:000097c8       ??_C@_0O@CAGOCCAO@BOTH_POWERUP1?$AA@ 401457c8     ui_main.obj
 0003:000097d8       ??_C@_0M@MGBFEGML@BOTH_CHOKE3?$AA@ 401457d8     ui_main.obj
 0003:000097e8       ??_C@_0M@NPAOHHIK@BOTH_CHOKE2?$AA@ 401457e8     ui_main.obj
 0003:000097f8       ??_C@_0M@PECDCEEJ@BOTH_CHOKE1?$AA@ 401457f8     ui_main.obj
 0003:00009808       ??_C@_0BF@ICMFFJIF@BOTH_CHOKE1STARTHOLD?$AA@ 40145808     ui_main.obj
 0003:00009824       ??_C@_0BB@OFKGJANF@BOTH_CHOKE1START?$AA@ 40145824     ui_main.obj
 0003:00009838       ??_C@_0BC@NPNJMHGC@BOTH_SLEEP1GETUP2?$AA@ 40145838     ui_main.obj
 0003:00009850       ??_C@_0BB@HBPPPACM@BOTH_SLEEP1GETUP?$AA@ 40145850     ui_main.obj
 0003:00009864       ??_C@_0BA@CINKHNGE@BOTH_SLEEP6STOP?$AA@ 40145864     ui_main.obj
 0003:00009878       ??_C@_0BB@HHHLEEDB@BOTH_SLEEP6START?$AA@ 40145878     ui_main.obj
 0003:0000988c       ??_C@_0M@LIOOPEJI@BOTH_SLEEP1?$AA@ 4014588c     ui_main.obj
 0003:0000989c       ??_C@_0BC@LJIHFCKB@BOTH_SWIMBACKWARD?$AA@ 4014589c     ui_main.obj
 0003:000098b4       ??_C@_0BB@FOFCFDFI@BOTH_SWIMFORWARD?$AA@ 401458b4     ui_main.obj
 0003:000098c8       ??_C@_0BA@PIGFMLPF@BOTH_SWIM_IDLE1?$AA@ 401458c8     ui_main.obj
 0003:000098dc       ??_C@_0BC@ODIBALPH@BOTH_FLY_SHIELDED?$AA@ 401458dc     ui_main.obj
 0003:000098f4       ??_C@_0BB@OMHFJNGP@BOTH_LADDER_IDLE?$AA@ 401458f4     ui_main.obj
 0003:00009908       ??_C@_0BB@BOJOMJDD@BOTH_LADDER_DWN1?$AA@ 40145908     ui_main.obj
 0003:0000991c       ??_C@_0BA@ILKIBIOO@BOTH_LADDER_UP1?$AA@ 4014591c     ui_main.obj
 0003:00009930       ??_C@_09PPDGHFCD@BOTH_HIT1?$AA@ 40145930     ui_main.obj
 0003:0000993c       ??_C@_0P@EHILJFLF@BOTH_HANG_PAIN?$AA@ 4014593c     ui_main.obj
 0003:00009950       ??_C@_0BB@CKCHJINN@BOTH_HANG_ATTACK?$AA@ 40145950     ui_main.obj
 0003:00009964       ??_C@_0P@PIJKILFE@BOTH_HANG_IDLE?$AA@ 40145964     ui_main.obj
 0003:00009978       ??_C@_0O@LAAPIANC@BOTH_RELEASED?$AA@ 40145978     ui_main.obj
 0003:00009988       ??_C@_0N@CFDAGGFP@BOTH_GRABBED?$AA@ 40145988     ui_main.obj
 0003:00009998       ??_C@_0P@PLIENJJJ@BOTH_HOLD_DROP?$AA@ 40145998     ui_main.obj
 0003:000099ac       ??_C@_0BA@KJAIIPAE@BOTH_HOLD_SNIFF?$AA@ 401459ac     ui_main.obj
 0003:000099c0       ??_C@_0BB@EFCJFPCD@BOTH_HOLD_ATTACK?$AA@ 401459c0     ui_main.obj
 0003:000099d4       ??_C@_0O@HFIKEJBB@BOTH_HOLD_END?$AA@ 401459d4     ui_main.obj
 0003:000099e4       ??_C@_0P@EDJFENCG@BOTH_HOLD_IDLE?$AA@ 401459e4     ui_main.obj
 0003:000099f8       ??_C@_0P@EPJNGCKB@BOTH_HOLD_MISS?$AA@ 401459f8     ui_main.obj
 0003:00009a0c       ??_C@_0BA@CFDHFDLH@BOTH_HOLD_START?$AA@ 40145a0c     ui_main.obj
 0003:00009a20       ??_C@_0BA@NKEMKFLI@BOTH_BUCK_RIDER?$AA@ 40145a20     ui_main.obj
 0003:00009a34       ??_C@_0BF@HCPCIHAG@BOTH_PLAYER_PA_3_FLY?$AA@ 40145a34     ui_main.obj
 0003:00009a50       ??_C@_0BB@KIHONIOP@BOTH_PLAYER_PA_3?$AA@ 40145a50     ui_main.obj
 0003:00009a64       ??_C@_0P@OMCEAAPC@BOTH_KYLE_PA_3?$AA@ 40145a64     ui_main.obj
 0003:00009a78       ??_C@_0BD@BPPGNPKM@BOTH_PLAYER_PA_FLY?$AA@ 40145a78     ui_main.obj
 0003:00009a90       ??_C@_0BB@LBGFOJKO@BOTH_PLAYER_PA_2?$AA@ 40145a90     ui_main.obj
 0003:00009aa4       ??_C@_0P@PFDPDBLD@BOTH_KYLE_PA_2?$AA@ 40145aa4     ui_main.obj
 0003:00009ab8       ??_C@_0BB@JKEILKGN@BOTH_PLAYER_PA_1?$AA@ 40145ab8     ui_main.obj
 0003:00009acc       ??_C@_0P@NOBCGCHA@BOTH_KYLE_PA_1?$AA@ 40145acc     ui_main.obj
 0003:00009ae0       ??_C@_0P@NNAHOJON@BOTH_KYLE_MISS?$AA@ 40145ae0     ui_main.obj
 0003:00009af4       ??_C@_0P@FMNEHFNM@BOTH_KYLE_GRAB?$AA@ 40145af4     ui_main.obj
 0003:00009b08       ??_C@_0BC@MELKBIFA@BOTH_SCEPTER_STOP?$AA@ 40145b08     ui_main.obj
 0003:00009b20       ??_C@_0BC@HIHKAHFB@BOTH_SCEPTER_HOLD?$AA@ 40145b20     ui_main.obj
 0003:00009b38       ??_C@_0BD@FGCDNAOB@BOTH_SCEPTER_START?$AA@ 40145b38     ui_main.obj
 0003:00009b50       ??_C@_0BH@HFIAAKKL@BOTH_TAVION_SWORDPOWER?$AA@ 40145b50     ui_main.obj
 0003:00009b6c       ??_C@_0BK@NBGHMOBL@BOTH_TAVION_SCEPTERGROUND?$AA@ 40145b6c     ui_main.obj
 0003:00009b8c       ??_C@_0P@ENOEHDDL@BOTH_ROSH_HEAL?$AA@ 40145b8c     ui_main.obj
 0003:00009ba0       ??_C@_0P@KODDALBF@BOTH_ROSH_PAIN?$AA@ 40145ba0     ui_main.obj
 0003:00009bb4       ??_C@_0BB@JJKGACDG@BOTH_ALORA_TAUNT?$AA@ 40145bb4     ui_main.obj
 0003:00009bc8       ??_C@_0BG@DCFBCKEL@BOTH_ALORA_SPIN_SLASH?$AA@ 40145bc8     ui_main.obj
 0003:00009be4       ??_C@_0BG@EABOBAMI@BOTH_ALORA_SPIN_THROW?$AA@ 40145be4     ui_main.obj
 0003:00009c00       ??_C@_0BC@FIDADFOL@BOTH_ALORA_FLIP_B?$AA@ 40145c00     ui_main.obj
 0003:00009c18       ??_C@_0BC@GOBEHNFM@BOTH_ALORA_FLIP_3?$AA@ 40145c18     ui_main.obj
 0003:00009c30       ??_C@_0BC@HHAPEMBN@BOTH_ALORA_FLIP_2?$AA@ 40145c30     ui_main.obj
 0003:00009c48       ??_C@_0BC@FMCCBPNO@BOTH_ALORA_FLIP_1?$AA@ 40145c48     ui_main.obj
 0003:00009c60       ??_C@_0BA@IMOMKPBA@BOTH_ALORA_SPIN?$AA@ 40145c60     ui_main.obj
 0003:00009c74       ??_C@_0N@NLKPNJAP@BOTH_A7_HILT?$AA@ 40145c74     ui_main.obj
 0003:00009c84       ??_C@_0L@PNLACCAF@BOTH_A6_LR?$AA@ 40145c84     ui_main.obj
 0003:00009c94       ??_C@_0L@LKOFLFIC@BOTH_A6_FB?$AA@ 40145c94     ui_main.obj
 0003:00009ca4       ??_C@_0BA@ECEJJOCF@BOTH_DUAL_TAUNT?$AA@ 40145ca4     ui_main.obj
 0003:00009cb8       ??_C@_0BB@IIJAHOAM@BOTH_STAFF_TAUNT?$AA@ 40145cb8     ui_main.obj
 0003:00009ccc       ??_C@_0BA@NPLLAIGE@BOTH_LOSE_SABER?$AA@ 40145ccc     ui_main.obj
 0003:00009ce0       ??_C@_0BC@BJEPANJA@BOTH_BACK_FLIP_UP?$AA@ 40145ce0     ui_main.obj
 0003:00009cf8       ??_C@_0BD@HFLMOBFH@BOTH_BUTTERFLY_FL1?$AA@ 40145cf8     ui_main.obj
 0003:00009d10       ??_C@_0BD@GDAEGPCN@BOTH_BUTTERFLY_FR1?$AA@ 40145d10     ui_main.obj
 0003:00009d28       ??_C@_0O@HINNODAG@BOTH_ARIAL_F1?$AA@ 40145d28     ui_main.obj
 0003:00009d38       ??_C@_0N@PBBFIKGE@BOTH_BASHED1?$AA@ 40145d38     ui_main.obj
 0003:00009d48       ??_C@_0BM@ELFFAKLF@BOTH_DEFLECTSLASH__R__L_FIN?$AA@ 40145d48     ui_main.obj
 0003:00009d6c       ??_C@_0BJ@PHBNOEEM@BOTH_RIGHTHANDCHOPPEDOFF?$AA@ 40145d6c     ui_main.obj
 0003:00009d8c       ??_C@_0BA@CDEAMOMG@BOTH_FJSS_TL_BR?$AA@ 40145d8c     ui_main.obj
 0003:00009da0       ??_C@_0BA@CINBNIPK@BOTH_FJSS_TR_BL?$AA@ 40145da0     ui_main.obj
 0003:00009db4       ??_C@_0BC@GKKAPGJM@BOTH_CEILING_DROP?$AA@ 40145db4     ui_main.obj
 0003:00009dcc       ??_C@_0BD@LHONGOKG@BOTH_CEILING_CLING?$AA@ 40145dcc     ui_main.obj
 0003:00009de4       ??_C@_0L@JNPKOHDB@BOTH_SPIN1?$AA@ 40145de4     ui_main.obj
 0003:00009df4       ??_C@_0BF@ECAKIGBB@BOTH_WALL_FLIP_BACK2?$AA@ 40145df4     ui_main.obj
 0003:00009e10       ??_C@_0BF@GJCHNFNC@BOTH_WALL_FLIP_BACK1?$AA@ 40145e10     ui_main.obj
 0003:00009e2c       ??_C@_0BD@EOHNHFLF@BOTH_GETUP_FROLL_R?$AA@ 40145e2c     ui_main.obj
 0003:00009e44       ??_C@_0BD@JKDMEKGK@BOTH_GETUP_FROLL_L?$AA@ 40145e44     ui_main.obj
 0003:00009e5c       ??_C@_0BD@GANDKCOA@BOTH_GETUP_FROLL_F?$AA@ 40145e5c     ui_main.obj
 0003:00009e74       ??_C@_0BD@ELPGHOE@BOTH_GETUP_FROLL_B?$AA@ 40145e74     ui_main.obj
 0003:00009e8c       ??_C@_0BD@MKDHHLEP@BOTH_GETUP_BROLL_R?$AA@ 40145e8c     ui_main.obj
 0003:00009ea4       ??_C@_0BD@BOHGEEJA@BOTH_GETUP_BROLL_L?$AA@ 40145ea4     ui_main.obj
 0003:00009ebc       ??_C@_0BD@OEJJKMBK@BOTH_GETUP_BROLL_F?$AA@ 40145ebc     ui_main.obj
 0003:00009ed4       ??_C@_0BD@IAPFGJBO@BOTH_GETUP_BROLL_B?$AA@ 40145ed4     ui_main.obj
 0003:00009eec       ??_C@_0BE@FMMHDLNN@BOTH_FORCE_GETUP_B6?$AA@ 40145eec     ui_main.obj
 0003:00009f04       ??_C@_0BE@HHOKGIBO@BOTH_FORCE_GETUP_B5?$AA@ 40145f04     ui_main.obj
 0003:00009f1c       ??_C@_0BE@GOPBFJFP@BOTH_FORCE_GETUP_B4?$AA@ 40145f1c     ui_main.obj
 0003:00009f34       ??_C@_0BE@CBLAMPJI@BOTH_FORCE_GETUP_B3?$AA@ 40145f34     ui_main.obj
 0003:00009f4c       ??_C@_0BE@DIKLPONJ@BOTH_FORCE_GETUP_B2?$AA@ 40145f4c     ui_main.obj
 0003:00009f64       ??_C@_0BE@BDIGKNBK@BOTH_FORCE_GETUP_B1?$AA@ 40145f64     ui_main.obj
 0003:00009f7c       ??_C@_0BE@DPKCFGAF@BOTH_FORCE_GETUP_F2?$AA@ 40145f7c     ui_main.obj
 0003:00009f94       ??_C@_0BE@BEIPAFMG@BOTH_FORCE_GETUP_F1?$AA@ 40145f94     ui_main.obj
 0003:00009fac       ??_C@_0BF@MJANPMOM@BOTH_GETUP_CROUCH_B1?$AA@ 40145fac     ui_main.obj
 0003:00009fc8       ??_C@_0BF@MOAEFEDA@BOTH_GETUP_CROUCH_F1?$AA@ 40145fc8     ui_main.obj
 0003:00009fe4       ??_C@_0M@GFIFDBCE@BOTH_GETUP5?$AA@ 40145fe4     ui_main.obj
 0003:00009ff4       ??_C@_0M@HMJOAAGF@BOTH_GETUP4?$AA@ 40145ff4     ui_main.obj
 0003:0000a004       ??_C@_0M@DDNPJGKC@BOTH_GETUP3?$AA@ 40146004     ui_main.obj
 0003:0000a014       ??_C@_0M@CKMEKHOD@BOTH_GETUP2?$AA@ 40146014     ui_main.obj
 0003:0000a024       ??_C@_0M@BOJPECA@BOTH_GETUP1?$AA@ 40146024     ui_main.obj
 0003:0000a034       ??_C@_0BA@OGIFEPII@BOTH_KNOCKDOWN5?$AA@ 40146034     ui_main.obj
 0003:0000a048       ??_C@_0BA@PPJOHOMJ@BOTH_KNOCKDOWN4?$AA@ 40146048     ui_main.obj
 0003:0000a05c       ??_C@_0BA@LANPOIAO@BOTH_KNOCKDOWN3?$AA@ 4014605c     ui_main.obj
 0003:0000a070       ??_C@_0BA@KJMENJEP@BOTH_KNOCKDOWN2?$AA@ 40146070     ui_main.obj
 0003:0000a084       ??_C@_0BA@ICOJIKIM@BOTH_KNOCKDOWN1?$AA@ 40146084     ui_main.obj
 0003:0000a098       ??_C@_0BE@ILAKMJOK@BOTH_WALL_FLIP_LEFT?$AA@ 40146098     ui_main.obj
 0003:0000a0b0       ??_C@_0BF@MPCPCKGE@BOTH_WALL_FLIP_RIGHT?$AA@ 401460b0     ui_main.obj
 0003:0000a0cc       ??_C@_0BI@ICEHPAIN@BOTH_WALL_RUN_LEFT_STOP?$AA@ 401460cc     ui_main.obj
 0003:0000a0e8       ??_C@_0BI@LLGHOLLN@BOTH_WALL_RUN_LEFT_FLIP?$AA@ 401460e8     ui_main.obj
 0003:0000a104       ??_C@_0BD@FOKEEMMD@BOTH_WALL_RUN_LEFT?$AA@ 40146104     ui_main.obj
 0003:0000a11c       ??_C@_0BJ@KEGEKGBP@BOTH_WALL_RUN_RIGHT_STOP?$AA@ 4014611c     ui_main.obj
 0003:0000a13c       ??_C@_0BJ@JNEELNCP@BOTH_WALL_RUN_RIGHT_FLIP?$AA@ 4014613c     ui_main.obj
 0003:0000a15c       ??_C@_0BE@INEIBMIN@BOTH_WALL_RUN_RIGHT?$AA@ 4014615c     ui_main.obj
 0003:0000a174       ??_C@_0BF@JMFKBIFE@BOTH_BUTTERFLY_RIGHT?$AA@ 40146174     ui_main.obj
 0003:0000a190       ??_C@_0BE@ENKLMJBI@BOTH_BUTTERFLY_LEFT?$AA@ 40146190     ui_main.obj
 0003:0000a1a8       ??_C@_0BA@NNNINNPE@BOTH_FLIP_BACK3?$AA@ 401461a8     ui_main.obj
 0003:0000a1bc       ??_C@_0BA@MEMDOMLF@BOTH_FLIP_BACK2?$AA@ 401461bc     ui_main.obj
 0003:0000a1d0       ??_C@_0BA@OPOOLPHG@BOTH_FLIP_BACK1?$AA@ 401461d0     ui_main.obj
 0003:0000a1e4       ??_C@_0P@JBLCLJDK@BOTH_FLIP_LEFT?$AA@ 401461e4     ui_main.obj
 0003:0000a1f8       ??_C@_0BF@NLFLOFGE@BOTH_CARTWHEEL_RIGHT?$AA@ 401461f8     ui_main.obj
 0003:0000a214       ??_C@_0BE@POJJIGPG@BOTH_CARTWHEEL_LEFT?$AA@ 40146214     ui_main.obj
 0003:0000a22c       ??_C@_0BB@HOMELNKD@BOTH_ARIAL_RIGHT?$AA@ 4014622c     ui_main.obj
 0003:0000a240       ??_C@_0BA@GLHECKNB@BOTH_ARIAL_LEFT?$AA@ 40146240     ui_main.obj
 0003:0000a254       ??_C@_0BD@JOGFDMEG@BOTH_VICTORY_STAFF?$AA@ 40146254     ui_main.obj
 0003:0000a26c       ??_C@_0BC@OIFMFNP@BOTH_VICTORY_DUAL?$AA@ 4014626c     ui_main.obj
 0003:0000a284       ??_C@_0BE@HEECKLDL@BOTH_VICTORY_STRONG?$AA@ 40146284     ui_main.obj
 0003:0000a29c       ??_C@_0BE@KLHOAEHD@BOTH_VICTORY_MEDIUM?$AA@ 4014629c     ui_main.obj
 0003:0000a2b4       ??_C@_0BC@DGIHLJDA@BOTH_VICTORY_FAST?$AA@ 401462b4     ui_main.obj
 0003:0000a2cc       ??_C@_0BD@PAPJANE@BOTH_SHOWOFF_STAFF?$AA@ 401462cc     ui_main.obj
 0003:0000a2e4       ??_C@_0BC@EFMAJB@BOTH_SHOWOFF_DUAL?$AA@ 401462e4     ui_main.obj
 0003:0000a2fc       ??_C@_0BE@GKNCDDPP@BOTH_SHOWOFF_STRONG?$AA@ 401462fc     ui_main.obj
 0003:0000a314       ??_C@_0BE@LFOOJMLH@BOTH_SHOWOFF_MEDIUM?$AA@ 40146314     ui_main.obj
 0003:0000a32c       ??_C@_0BC@DIEHLMHO@BOTH_SHOWOFF_FAST?$AA@ 4014632c     ui_main.obj
 0003:0000a344       ??_C@_0BC@DILNBIJM@BOTH_MEDITATE_END?$AA@ 40146344     ui_main.obj
 0003:0000a35c       ??_C@_0O@NBLEPMIO@BOTH_MEDITATE?$AA@ 4014635c     ui_main.obj
 0003:0000a36c       ??_C@_08CINMJMPG@BOTH_BOW?$AA@ 4014636c     ui_main.obj
 0003:0000a378       ??_C@_0BB@EBJHHEMP@BOTH_ENGAGETAUNT?$AA@ 40146378     ui_main.obj
 0003:0000a38c       ??_C@_0BC@GDJJMPG@BOTH_DODGE_HOLD_R?$AA@ 4014638c     ui_main.obj
 0003:0000a3a4       ??_C@_0BC@NCHIKDCJ@BOTH_DODGE_HOLD_L?$AA@ 401463a4     ui_main.obj
 0003:0000a3bc       ??_C@_0BD@MAHDPCBD@BOTH_DODGE_HOLD_BR?$AA@ 401463bc     ui_main.obj
 0003:0000a3d4       ??_C@_0BD@BEDCMNMM@BOTH_DODGE_HOLD_BL?$AA@ 401463d4     ui_main.obj
 0003:0000a3ec       ??_C@_0BD@MHHKFKMP@BOTH_DODGE_HOLD_FR?$AA@ 401463ec     ui_main.obj
 0003:0000a404       ??_C@_0BD@BDDLGFBA@BOTH_DODGE_HOLD_FL?$AA@ 40146404     ui_main.obj
 0003:0000a41c       ??_C@_0N@KFGFCJLJ@BOTH_DODGE_R?$AA@ 4014641c     ui_main.obj
 0003:0000a42c       ??_C@_0N@HBCEBGGG@BOTH_DODGE_L?$AA@ 4014642c     ui_main.obj
 0003:0000a43c       ??_C@_0O@CGLDPCKH@BOTH_DODGE_BR?$AA@ 4014643c     ui_main.obj
 0003:0000a44c       ??_C@_0O@PCPCMNHI@BOTH_DODGE_BL?$AA@ 4014644c     ui_main.obj
 0003:0000a45c       ??_C@_0O@CBLKFKHL@BOTH_DODGE_FR?$AA@ 4014645c     ui_main.obj
 0003:0000a46c       ??_C@_0O@PFPLGFKE@BOTH_DODGE_FL?$AA@ 4014646c     ui_main.obj
 0003:0000a47c       ??_C@_0L@GIHOPMAM@BOTH_HOP_R?$AA@ 4014647c     ui_main.obj
 0003:0000a48c       ??_C@_0L@LMDPMDND@BOTH_HOP_L?$AA@ 4014648c     ui_main.obj
 0003:0000a49c       ??_C@_0L@CCLMOOFN@BOTH_HOP_B?$AA@ 4014649c     ui_main.obj
 0003:0000a4ac       ??_C@_0L@EGNACLFJ@BOTH_HOP_F?$AA@ 401464ac     ui_main.obj
 0003:0000a4bc       ??_C@_0M@KNJJNPCA@BOTH_ROLL_R?$AA@ 401464bc     ui_main.obj
 0003:0000a4cc       ??_C@_0M@HJNIOAPP@BOTH_ROLL_L?$AA@ 401464cc     ui_main.obj
 0003:0000a4dc       ??_C@_0M@OHFLMNHB@BOTH_ROLL_B?$AA@ 401464dc     ui_main.obj
 0003:0000a4ec       ??_C@_0M@IDDHAIHF@BOTH_ROLL_F?$AA@ 401464ec     ui_main.obj
 0003:0000a4fc       ??_C@_0M@GKLDHCAE@BOTH_FLIP_R?$AA@ 401464fc     ui_main.obj
 0003:0000a50c       ??_C@_0M@LOPCENNL@BOTH_FLIP_L?$AA@ 4014650c     ui_main.obj
 0003:0000a51c       ??_C@_0M@CAHBGAFF@BOTH_FLIP_B?$AA@ 4014651c     ui_main.obj
 0003:0000a52c       ??_C@_0M@EEBNKFFB@BOTH_FLIP_F?$AA@ 4014652c     ui_main.obj
 0003:0000a53c       ??_C@_0BF@GPIHFNCP@BOTH_FORCELANDRIGHT1?$AA@ 4014653c     ui_main.obj
 0003:0000a558       ??_C@_0BG@OPKMFNMD@BOTH_FORCEINAIRRIGHT1?$AA@ 40146558     ui_main.obj
 0003:0000a574       ??_C@_0BF@GIALLFOK@BOTH_FORCEJUMPRIGHT1?$AA@ 40146574     ui_main.obj
 0003:0000a590       ??_C@_0BE@CPNCOCJF@BOTH_FORCELANDLEFT1?$AA@ 40146590     ui_main.obj
 0003:0000a5a8       ??_C@_0BF@GBLFMFAA@BOTH_FORCEINAIRLEFT1?$AA@ 401465a8     ui_main.obj
 0003:0000a5c4       ??_C@_0BE@MOPODOJB@BOTH_FORCEJUMPLEFT1?$AA@ 401465c4     ui_main.obj
 0003:0000a5dc       ??_C@_0BE@MAPMDBFK@BOTH_FORCELANDBACK1?$AA@ 401465dc     ui_main.obj
 0003:0000a5f4       ??_C@_0BF@IOJLBGMP@BOTH_FORCEINAIRBACK1?$AA@ 401465f4     ui_main.obj
 0003:0000a610       ??_C@_0BE@CBNAONFO@BOTH_FORCEJUMPBACK1?$AA@ 40146610     ui_main.obj
 0003:0000a628       ??_C@_0BA@NIOKNDAB@BOTH_FORCELAND1?$AA@ 40146628     ui_main.obj
 0003:0000a63c       ??_C@_0BB@CIEHHKPA@BOTH_FORCEINAIR1?$AA@ 4014663c     ui_main.obj
 0003:0000a650       ??_C@_0BA@JCEJKFBM@BOTH_FORCEJUMP1?$AA@ 40146650     ui_main.obj
 0003:0000a664       ??_C@_0BA@CAAEDJLF@BOTH_LANDRIGHT1?$AA@ 40146664     ui_main.obj
 0003:0000a678       ??_C@_0BB@PPDJKEPN@BOTH_INAIRRIGHT1?$AA@ 40146678     ui_main.obj
 0003:0000a68c       ??_C@_0BA@CHIINBHA@BOTH_JUMPRIGHT1?$AA@ 4014668c     ui_main.obj
 0003:0000a6a0       ??_C@_0P@HDEECKDG@BOTH_LANDLEFT1?$AA@ 401466a0     ui_main.obj
 0003:0000a6b4       ??_C@_0BA@CODGKBJK@BOTH_INAIRLEFT1?$AA@ 401466b4     ui_main.obj
 0003:0000a6c8       ??_C@_0P@JCGIPGDC@BOTH_JUMPLEFT1?$AA@ 401466c8     ui_main.obj
 0003:0000a6dc       ??_C@_0P@JMGKPJPJ@BOTH_LANDBACK1?$AA@ 401466dc     ui_main.obj
 0003:0000a6f0       ??_C@_0BA@MBBIHCFF@BOTH_INAIRBACK1?$AA@ 401466f0     ui_main.obj
 0003:0000a704       ??_C@_0P@HNEGCFPN@BOTH_JUMPBACK1?$AA@ 40146704     ui_main.obj
 0003:0000a718       ??_C@_0L@IJJHAHOB@BOTH_LAND2?$AA@ 40146718     ui_main.obj
 0003:0000a728       ??_C@_0L@KCLKFECC@BOTH_LAND1?$AA@ 40146728     ui_main.obj
 0003:0000a738       ??_C@_0M@IKFKFLAF@BOTH_INAIR1?$AA@ 40146738     ui_main.obj
 0003:0000a748       ??_C@_0L@OIBJCCDP@BOTH_JUMP1?$AA@ 40146748     ui_main.obj
 0003:0000a758       ??_C@_0O@GFMMDEIN@BOTH_RUNBACK2?$AA@ 40146758     ui_main.obj
 0003:0000a768       ??_C@_0O@EOOBGHEO@BOTH_RUNBACK1?$AA@ 40146768     ui_main.obj
 0003:0000a778       ??_C@_0P@NMGEKHLB@BOTH_WALKBACK2?$AA@ 40146778     ui_main.obj
 0003:0000a78c       ??_C@_0P@PHEJPEHC@BOTH_WALKBACK1?$AA@ 4014678c     ui_main.obj
 0003:0000a7a0       ??_C@_0BB@PGPEJHBN@BOTH_TURNCROUCH1?$AA@ 401467a0     ui_main.obj
 0003:0000a7b4       ??_C@_0BA@KBOEGPN@BOTH_TURNSTAND5?$AA@ 401467b4     ui_main.obj
 0003:0000a7c8       ??_C@_0BA@BDAFHHLM@BOTH_TURNSTAND4?$AA@ 401467c8     ui_main.obj
 0003:0000a7dc       ??_C@_0BA@FMEEOBHL@BOTH_TURNSTAND3?$AA@ 401467dc     ui_main.obj
 0003:0000a7f0       ??_C@_0BA@EFFPNADK@BOTH_TURNSTAND2?$AA@ 401467f0     ui_main.obj
 0003:0000a804       ??_C@_0BA@GOHCIDPJ@BOTH_TURNSTAND1?$AA@ 40146804     ui_main.obj
 0003:0000a818       ??_C@_0BB@NDKEEJJD@BOTH_TURN_RIGHT1?$AA@ 40146818     ui_main.obj
 0003:0000a82c       ??_C@_0BA@GKEFEECE@BOTH_TURN_LEFT1?$AA@ 4014682c     ui_main.obj
 0003:0000a840       ??_C@_0BG@OGEKFCND@BOTH_RUNSTRAFE_RIGHT1?$AA@ 40146840     ui_main.obj
 0003:0000a85c       ??_C@_0BF@DBPGPOAM@BOTH_RUNSTRAFE_LEFT1?$AA@ 4014685c     ui_main.obj
 0003:0000a878       ??_C@_0BD@LFCECKKK@BOTH_STRAFE_RIGHT1?$AA@ 40146878     ui_main.obj
 0003:0000a890       ??_C@_0BC@OMBNLHPO@BOTH_STRAFE_LEFT1?$AA@ 40146890     ui_main.obj
 0003:0000a8a8       ??_C@_0BC@KOJINEFM@BOTH_RUNBACK_DUAL?$AA@ 401468a8     ui_main.obj
 0003:0000a8c0       ??_C@_0O@NLDNHDFF@BOTH_RUN_DUAL?$AA@ 401468c0     ui_main.obj
 0003:0000a8d0       ??_C@_0BD@OKHEPDMN@BOTH_RUNBACK_STAFF?$AA@ 401468d0     ui_main.obj
 0003:0000a8e8       ??_C@_0P@JDNNOOMO@BOTH_RUN_STAFF?$AA@ 401468e8     ui_main.obj
 0003:0000a8fc       ??_C@_09KDGPMAME@BOTH_RUN4?$AA@ 401468fc     ui_main.obj
 0003:0000a908       ??_C@_0BA@DGLFAIMM@BOTH_RUN2TORUN1?$AA@ 40146908     ui_main.obj
 0003:0000a91c       ??_C@_0BA@JDBHFMOM@BOTH_RUN1TORUN2?$AA@ 4014691c     ui_main.obj
 0003:0000a930       ??_C@_09PFDFGHEC@BOTH_RUN2?$AA@ 40146930     ui_main.obj
 0003:0000a93c       ??_C@_0O@GPFGEBNP@BOTH_RUN1STOP?$AA@ 4014693c     ui_main.obj
 0003:0000a94c       ??_C@_0P@CLIPKCAJ@BOTH_RUN1START?$AA@ 4014694c     ui_main.obj
 0003:0000a960       ??_C@_09NOBIDEIB@BOTH_RUN1?$AA@ 40146960     ui_main.obj
 0003:0000a96c       ??_C@_0L@DMKEIOEK@BOTH_WALK7?$AA@ 4014696c     ui_main.obj
 0003:0000a97c       ??_C@_0L@CFLPLPAL@BOTH_WALK6?$AA@ 4014697c     ui_main.obj
 0003:0000a98c       ??_C@_0L@OJCOMMI@BOTH_WALK5?$AA@ 4014698c     ui_main.obj
 0003:0000a99c       ??_C@_0BD@DPFDKICF@BOTH_WALKBACK_DUAL?$AA@ 4014699c     ui_main.obj
 0003:0000a9b4       ??_C@_0P@GCJFOAGJ@BOTH_WALK_DUAL?$AA@ 401469b4     ui_main.obj
 0003:0000a9c8       ??_C@_0BE@MDDMPBCJ@BOTH_WALKBACK_STAFF?$AA@ 401469c8     ui_main.obj
 0003:0000a9e0       ??_C@_0BA@LMALDKNK@BOTH_WALK_STAFF?$AA@ 401469e0     ui_main.obj
 0003:0000a9f4       ??_C@_0L@EBNDHKAP@BOTH_WALK2?$AA@ 401469f4     ui_main.obj
 0003:0000aa04       ??_C@_0L@GKPOCJMM@BOTH_WALK1?$AA@ 40146a04     ui_main.obj
 0003:0000aa14       ??_C@_0P@OGCNLGGI@BOTH_KNEES2TO1?$AA@ 40146a14     ui_main.obj
 0003:0000aa28       ??_C@_0M@IIHMGKKA@BOTH_KNEES2?$AA@ 40146a28     ui_main.obj
 0003:0000aa38       ??_C@_0M@KDFBDJGD@BOTH_KNEES1?$AA@ 40146a38     ui_main.obj
 0003:0000aa48       ??_C@_0BD@FOKLKMPB@BOTH_DEATH14_SITUP?$AA@ 40146a48     ui_main.obj
 0003:0000aa60       ??_C@_0BE@KHOKHMOE@BOTH_DEATH14_UNGRIP?$AA@ 40146a60     ui_main.obj
 0003:0000aa78       ??_C@_0BB@KCBPOOGE@BOTH_WINGS_CLOSE?$AA@ 40146a78     ui_main.obj
 0003:0000aa8c       ??_C@_0BA@FDONEPNA@BOTH_WINGS_OPEN?$AA@ 40146a8c     ui_main.obj
 0003:0000aaa0       ??_C@_0BB@LDEBMNOM@BOTH_GEARS_CLOSE?$AA@ 40146aa0     ui_main.obj
 0003:0000aab4       ??_C@_0BA@MMFJLAL@BOTH_GEARS_OPEN?$AA@ 40146ab4     ui_main.obj
 0003:0000aac8       ??_C@_0O@GFAOOOBE@BOTH_VT_ATF_G?$AA@ 40146ac8     ui_main.obj
 0003:0000aad8       ??_C@_0O@KLDAOHA@BOTH_VT_ATL_G?$AA@ 40146ad8     ui_main.obj
 0003:0000aae8       ??_C@_0O@LKHFCONM@BOTH_VT_ATR_G?$AA@ 40146ae8     ui_main.obj
 0003:0000aaf8       ??_C@_0BD@KBPDPJPM@BOTH_VT_ATL_TO_R_S?$AA@ 40146af8     ui_main.obj
 0003:0000ab10       ??_C@_0BD@HFDHEALD@BOTH_VT_ATR_TO_L_S?$AA@ 40146b10     ui_main.obj
 0003:0000ab28       ??_C@_0O@JENLPJIJ@BOTH_VT_ATR_S?$AA@ 40146b28     ui_main.obj
 0003:0000ab38       ??_C@_0O@CEBNNJCF@BOTH_VT_ATL_S?$AA@ 40146b38     ui_main.obj
 0003:0000ab48       ??_C@_0P@JDHAFDKN@BOTH_VT_IDLE_T?$AA@ 40146b48     ui_main.obj
 0003:0000ab5c       ??_C@_0P@PCJPBCDP@BOTH_VT_IDLE_G?$AA@ 40146b5c     ui_main.obj
 0003:0000ab70       ??_C@_0P@NMDBMFGK@BOTH_VT_IDLE_S?$AA@ 40146b70     ui_main.obj
 0003:0000ab84       ??_C@_0O@OONEODEJ@BOTH_VT_IDLE1?$AA@ 40146b84     ui_main.obj
 0003:0000ab94       ??_C@_0N@ILFMGFDI@BOTH_VT_IDLE?$AA@ 40146b94     ui_main.obj
 0003:0000aba4       ??_C@_0BA@CFDGIGFF@BOTH_VT_IDLE_SR?$AA@ 40146ba4     ui_main.obj
 0003:0000abb8       ??_C@_0BA@PBHHLJIK@BOTH_VT_IDLE_SL?$AA@ 40146bb8     ui_main.obj
 0003:0000abcc       ??_C@_0O@ICJCOGP@BOTH_VT_TURBO?$AA@ 40146bcc     ui_main.obj
 0003:0000abdc       ??_C@_0N@GOPNPPFF@BOTH_VT_LAND?$AA@ 40146bdc     ui_main.obj
 0003:0000abec       ??_C@_0N@IBPGAOGA@BOTH_VT_BUCK?$AA@ 40146bec     ui_main.obj
 0003:0000abfc       ??_C@_0O@IAAOOPLJ@BOTH_VT_STAND?$AA@ 40146bfc     ui_main.obj
 0003:0000ac0c       ??_C@_0P@CICNDPJE@BOTH_VT_DEATH1?$AA@ 40146c0c     ui_main.obj
 0003:0000ac20       ??_C@_0O@DJGGCALJ@BOTH_VT_PAIN1?$AA@ 40146c20     ui_main.obj
 0003:0000ac30       ??_C@_0M@KDHKMBFE@BOTH_VT_ATB?$AA@ 40146c30     ui_main.obj
 0003:0000ac40       ??_C@_0M@PNEGODCG@BOTH_VT_AIR?$AA@ 40146c40     ui_main.obj
 0003:0000ac50       ??_C@_0P@KFJEKMCA@BOTH_VT_SLIDEF?$AA@ 40146c50     ui_main.obj
 0003:0000ac64       ??_C@_0BC@GNCPOJGJ@BOTH_VT_RUN_FWD_R?$AA@ 40146c64     ui_main.obj
 0003:0000ac7c       ??_C@_0BC@LJGONGLG@BOTH_VT_RUN_FWD_L?$AA@ 40146c7c     ui_main.obj
 0003:0000ac94       ??_C@_0BA@CMHLNAGB@BOTH_VT_RUN_REV?$AA@ 40146c94     ui_main.obj
 0003:0000aca8       ??_C@_0BA@JEFGBHGE@BOTH_VT_RUN_FWD?$AA@ 40146ca8     ui_main.obj
 0003:0000acbc       ??_C@_0BD@KHNHPFPI@BOTH_VT_WALK_FWD_R?$AA@ 40146cbc     ui_main.obj
 0003:0000acd4       ??_C@_0BD@HDJGMKCH@BOTH_VT_WALK_FWD_L?$AA@ 40146cd4     ui_main.obj
 0003:0000acec       ??_C@_0BB@EAPIENEI@BOTH_VT_WALK_REV?$AA@ 40146cec     ui_main.obj
 0003:0000ad00       ??_C@_0BB@PINFIKEN@BOTH_VT_WALK_FWD?$AA@ 40146d00     ui_main.obj
 0003:0000ad14       ??_C@_0BD@OJHHNNHG@BOTH_VT_DISMOUNT_R?$AA@ 40146d14     ui_main.obj
 0003:0000ad2c       ??_C@_0BD@DNDGOCKJ@BOTH_VT_DISMOUNT_L?$AA@ 40146d2c     ui_main.obj
 0003:0000ad44       ??_C@_0BB@ICMLAFCL@BOTH_VT_DISMOUNT?$AA@ 40146d44     ui_main.obj
 0003:0000ad58       ??_C@_0BA@GEKLNCCD@BOTH_VT_MOUNT_B?$AA@ 40146d58     ui_main.obj
 0003:0000ad6c       ??_C@_0BA@COGJMAHC@BOTH_VT_MOUNT_R?$AA@ 40146d6c     ui_main.obj
 0003:0000ad80       ??_C@_0BA@PKCIPPKN@BOTH_VT_MOUNT_L?$AA@ 40146d80     ui_main.obj
 0003:0000ad94       ??_C@_0O@DDKDCJKA@BOTH_VS_PAIN1?$AA@ 40146d94     ui_main.obj
 0003:0000ada4       ??_C@_0O@GPMLOHAN@BOTH_VS_ATF_G?$AA@ 40146da4     ui_main.obj
 0003:0000adb4       ??_C@_0O@HGAHGJ@BOTH_VS_ATL_G?$AA@ 40146db4     ui_main.obj
 0003:0000adc4       ??_C@_0O@LALACHMF@BOTH_VS_ATR_G?$AA@ 40146dc4     ui_main.obj
 0003:0000add4       ??_C@_0BD@NMIAPPKE@BOTH_VS_ATL_TO_R_S?$AA@ 40146dd4     ui_main.obj
 0003:0000adec       ??_C@_0BD@IEEEGOL@BOTH_VS_ATR_TO_L_S?$AA@ 40146dec     ui_main.obj
 0003:0000ae04       ??_C@_0O@JOBOPAJA@BOTH_VS_ATR_S?$AA@ 40146e04     ui_main.obj
 0003:0000ae14       ??_C@_0O@CONINADM@BOTH_VS_ATL_S?$AA@ 40146e14     ui_main.obj
 0003:0000ae24       ??_C@_0BB@IEDLHMEE@BOTH_VS_LEANR_SR?$AA@ 40146e24     ui_main.obj
 0003:0000ae38       ??_C@_0BB@FAHKEDJL@BOTH_VS_LEANR_SL?$AA@ 40146e38     ui_main.obj
 0003:0000ae4c       ??_C@_0BA@COPGHNJO@BOTH_VS_LEANR_G?$AA@ 40146e4c     ui_main.obj
 0003:0000ae60       ??_C@_0O@DJFDFNAL@BOTH_VS_LEANR?$AA@ 40146e60     ui_main.obj
 0003:0000ae70       ??_C@_0BB@FLOLFFKH@BOTH_VS_LEANL_SR?$AA@ 40146e70     ui_main.obj
 0003:0000ae84       ??_C@_0BB@IPKKGKHI@BOTH_VS_LEANL_SL?$AA@ 40146e84     ui_main.obj
 0003:0000ae98       ??_C@_0BA@JODAFNDC@BOTH_VS_LEANL_G?$AA@ 40146e98     ui_main.obj
 0003:0000aeac       ??_C@_0O@ONBCGCNE@BOTH_VS_LEANL?$AA@ 40146eac     ui_main.obj
 0003:0000aebc       ??_C@_0BA@MHOKJNCM@BOTH_VS_IDLE_SR?$AA@ 40146ebc     ui_main.obj
 0003:0000aed0       ??_C@_0BA@BDKLKCPD@BOTH_VS_IDLE_SL?$AA@ 40146ed0     ui_main.obj
 0003:0000aee4       ??_C@_0P@JGPOHPPG@BOTH_VS_IDLE_G?$AA@ 40146ee4     ui_main.obj
 0003:0000aef8       ??_C@_0N@EOPLFLLG@BOTH_VS_IDLE?$AA@ 40146ef8     ui_main.obj
 0003:0000af08       ??_C@_0BA@KNJKDEFE@BOTH_VS_LAND_SR?$AA@ 40146f08     ui_main.obj
 0003:0000af1c       ??_C@_0BA@HJNLALIL@BOTH_VS_LAND_SL?$AA@ 40146f1c     ui_main.obj
 0003:0000af30       ??_C@_0P@FGHHPFOH@BOTH_VS_LAND_G?$AA@ 40146f30     ui_main.obj
 0003:0000af44       ??_C@_0N@KLFKMBNL@BOTH_VS_LAND?$AA@ 40146f44     ui_main.obj
 0003:0000af54       ??_C@_0P@MHFEKDCH@BOTH_VS_AIR_SR?$AA@ 40146f54     ui_main.obj
 0003:0000af68       ??_C@_0P@BDBFJMPI@BOTH_VS_AIR_SL?$AA@ 40146f68     ui_main.obj
 0003:0000af7c       ??_C@_0O@CIMAHEPG@BOTH_VS_AIR_G?$AA@ 40146f7c     ui_main.obj
 0003:0000af8c       ??_C@_0M@OAEDNDJO@BOTH_VS_AIR?$AA@ 40146f8c     ui_main.obj
 0003:0000af9c       ??_C@_0M@MPJJBHIP@BOTH_VS_REV?$AA@ 40146f9c     ui_main.obj
 0003:0000afac       ??_C@_0O@COMCHHG@BOTH_VS_TURBO?$AA@ 40146fac     ui_main.obj
 0003:0000afbc       ??_C@_0BC@FMBEBFOC@BOTH_VS_LOOKRIGHT?$AA@ 40146fbc     ui_main.obj
 0003:0000afd4       ??_C@_0BB@LJMKNCGH@BOTH_VS_LOOKLEFT?$AA@ 40146fd4     ui_main.obj
 0003:0000afe8       ??_C@_0BF@IKPLNBPC@BOTH_VS_MOUNTTHROWEE?$AA@ 40146fe8     ui_main.obj
 0003:0000b004       ??_C@_0BF@JOMJHDMC@BOTH_VS_MOUNTTHROW_R?$AA@ 40147004     ui_main.obj
 0003:0000b020       ??_C@_0BF@EKIIEMBN@BOTH_VS_MOUNTTHROW_L?$AA@ 40147020     ui_main.obj
 0003:0000b03c       ??_C@_0BD@HKDNANFN@BOTH_VS_MOUNTTHROW?$AA@ 4014703c     ui_main.obj
 0003:0000b054       ??_C@_0BE@CFBMPALJ@BOTH_VS_MOUNTJUMP_L?$AA@ 40147054     ui_main.obj
 0003:0000b06c       ??_C@_0BD@JEAENLCO@BOTH_VS_DISMOUNT_R?$AA@ 4014706c     ui_main.obj
 0003:0000b084       ??_C@_0BA@MMLFNLAL@BOTH_VS_MOUNT_R?$AA@ 40147084     ui_main.obj
 0003:0000b098       ??_C@_0BD@EAEFOEPB@BOTH_VS_DISMOUNT_L?$AA@ 40147098     ui_main.obj
 0003:0000b0b0       ??_C@_0BA@BIPEOENE@BOTH_VS_MOUNT_L?$AA@ 401470b0     ui_main.obj
 0003:0000b0c4       ??_C@_0N@NEOMJHMD@BOTH_GUNSIT1?$AA@ 401470c4     ui_main.obj
 0003:0000b0d4       ??_C@_0P@FBKMEIKP@BOTH_UNCROUCH4?$AA@ 401470d4     ui_main.obj
 0003:0000b0e8       ??_C@_0N@NGOLMPIH@BOTH_CROUCH4?$AA@ 401470e8     ui_main.obj
 0003:0000b0f8       ??_C@_0P@BOONNOGI@BOTH_UNCROUCH3?$AA@ 401470f8     ui_main.obj
 0003:0000b10c       ??_C@_0N@JJKKFJEA@BOTH_CROUCH3?$AA@ 4014710c     ui_main.obj
 0003:0000b11c       ??_C@_0BF@OBDEHHPH@BOTH_CROUCH2TOSTAND1?$AA@ 4014711c     ui_main.obj
 0003:0000b138       ??_C@_0P@CMNLLMOK@BOTH_UNCROUCH1?$AA@ 40147138     ui_main.obj
 0003:0000b14c       ??_C@_0BF@IKEOFDBF@BOTH_CROUCH1WALKBACK?$AA@ 4014714c     ui_main.obj
 0003:0000b168       ??_C@_0BB@KLBMFNGD@BOTH_CROUCH1WALK?$AA@ 40147168     ui_main.obj
 0003:0000b17c       ??_C@_0BB@NNJBKJDM@BOTH_CROUCH1IDLE?$AA@ 4014717c     ui_main.obj
 0003:0000b190       ??_C@_0N@KLJMDLMC@BOTH_CROUCH1?$AA@ 40147190     ui_main.obj
 0003:0000b1a0       ??_C@_0BC@BHAOLAOM@BOTH_SIT3TOSTAND5?$AA@ 401471a0     ui_main.obj
 0003:0000b1b8       ??_C@_0BA@LICOGNPB@BOTH_SIT2TOSIT4?$AA@ 401471b8     ui_main.obj
 0003:0000b1cc       ??_C@_0BC@LANJPAEM@BOTH_STAND5TOSIT2?$AA@ 401471cc     ui_main.obj
 0003:0000b1e4       ??_C@_0BC@PIMMNLNC@BOTH_SIT2TOSTAND5?$AA@ 401471e4     ui_main.obj
 0003:0000b1fc       ??_C@_09NKDALBDC@BOTH_SIT3?$AA@ 401471fc     ui_main.obj
 0003:0000b208       ??_C@_09MDCLIAHD@BOTH_SIT2?$AA@ 40147208     ui_main.obj
 0003:0000b214       ??_C@_09OIAGNDLA@BOTH_SIT1?$AA@ 40147214     ui_main.obj
 0003:0000b220       ??_C@_0BF@IPAEPPNA@BOTH_SABERTHROW2STOP?$AA@ 40147220     ui_main.obj
 0003:0000b23c       ??_C@_0BG@LLNAONCG@BOTH_SABERTHROW2START?$AA@ 4014723c     ui_main.obj
 0003:0000b258       ??_C@_0BF@JJAINHO@BOTH_SABERTHROW1STOP?$AA@ 40147258     ui_main.obj
 0003:0000b274       ??_C@_0BG@IKDIPHLL@BOTH_SABERTHROW1START?$AA@ 40147274     ui_main.obj
 0003:0000b290       ??_C@_0BB@OHEDMGHA@BOTH_HUGGEESTOP1?$AA@ 40147290     ui_main.obj
 0003:0000b2a4       ??_C@_0N@OIJBJDBK@BOTH_HUGGEE1?$AA@ 401472a4     ui_main.obj
 0003:0000b2b4       ??_C@_0BB@EFDKGEDA@BOTH_HUGGERSTOP1?$AA@ 401472b4     ui_main.obj
 0003:0000b2c8       ??_C@_0N@PBPICGOP@BOTH_HUGGER1?$AA@ 401472c8     ui_main.obj
 0003:0000b2d8       ??_C@_0BC@DNFCOFMA@BOTH_SABERKILLEE1?$AA@ 401472d8     ui_main.obj
 0003:0000b2f0       ??_C@_0BC@CEDLFADF@BOTH_SABERKILLER1?$AA@ 401472f0     ui_main.obj
 0003:0000b308       ??_C@_0BE@LPKJJENM@BOTH_REACHFORSABER1?$AA@ 40147308     ui_main.obj
 0003:0000b320       ??_C@_0BF@HGBIDKLM@BOTH_SILENCEGESTURE1?$AA@ 40147320     ui_main.obj
 0003:0000b33c       ??_C@_0BE@EEMNDGPF@BOTH_STEADYSELF1END?$AA@ 4014733c     ui_main.obj
 0003:0000b354       ??_C@_0BB@BHOCMBMP@BOTH_STEADYSELF1?$AA@ 40147354     ui_main.obj
 0003:0000b368       ??_C@_0O@KHABGCAK@BOTH_COME_ON1?$AA@ 40147368     ui_main.obj
 0003:0000b378       ??_C@_0BA@MHPGDDPE@BOTH_REACH1STOP?$AA@ 40147378     ui_main.obj
 0003:0000b38c       ??_C@_0BB@IHJLPLDL@BOTH_REACH1START?$AA@ 4014738c     ui_main.obj
 0003:0000b3a0       ??_C@_0BH@KHIEGBCO@BOTH_SIT2HEADTILTLSTOP?$AA@ 401473a0     ui_main.obj
 0003:0000b3bc       ??_C@_0BI@OBPNLCKD@BOTH_SIT2HEADTILTLSTART?$AA@ 401473bc     ui_main.obj
 0003:0000b3d8       ??_C@_0P@DFINNNBF@BOTH_HEADSHAKE?$AA@ 401473d8     ui_main.obj
 0003:0000b3ec       ??_C@_0N@JGGIBJHN@BOTH_HEADNOD?$AA@ 401473ec     ui_main.obj
 0003:0000b3fc       ??_C@_0BD@CBEOFNED@BOTH_HEADTILTRSTOP?$AA@ 401473fc     ui_main.obj
 0003:0000b414       ??_C@_0BE@NCHIGFHK@BOTH_HEADTILTRSTART?$AA@ 40147414     ui_main.obj
 0003:0000b42c       ??_C@_0BD@BIJCDOKI@BOTH_HEADTILTLSTOP?$AA@ 4014742c     ui_main.obj
 0003:0000b444       ??_C@_0BE@OFJJICOJ@BOTH_HEADTILTLSTART?$AA@ 40147444     ui_main.obj
 0003:0000b45c       ??_C@_0BC@HDFGDEIC@BOTH_TALKGESTURE1?$AA@ 4014745c     ui_main.obj
 0003:0000b474       ??_C@_0BD@KGADCINA@BOTH_TALKCOMM1STOP?$AA@ 40147474     ui_main.obj
 0003:0000b48c       ??_C@_0P@IMEACJDE@BOTH_TALKCOMM1?$AA@ 4014748c     ui_main.obj
 0003:0000b4a0       ??_C@_0BE@LLPJOKPB@BOTH_TALKCOMM1START?$AA@ 401474a0     ui_main.obj
 0003:0000b4b8       ??_C@_0L@MHEHAIKB@BOTH_TALK2?$AA@ 401474b8     ui_main.obj
 0003:0000b4c8       ??_C@_0L@OMGKFLGC@BOTH_TALK1?$AA@ 401474c8     ui_main.obj
 0003:0000b4d8       ??_C@_0BE@OAMCANFF@BOTH_WALK1TALKCOMM1?$AA@ 401474d8     ui_main.obj
 0003:0000b4f0       ??_C@_0O@FLPNDCKC@BOTH_GESTURE2?$AA@ 401474f0     ui_main.obj
 0003:0000b500       ??_C@_0O@HANAGBGB@BOTH_GESTURE1?$AA@ 40147500     ui_main.obj
 0003:0000b510       ??_C@_0BB@LLGPJFGM@BOTH_GUARD_IDLE1?$AA@ 40147510     ui_main.obj
 0003:0000b524       ??_C@_0BH@IIALJNIM@BOTH_GUARD_LOOKAROUND1?$AA@ 40147524     ui_main.obj
 0003:0000b540       ??_C@_0BJ@PHBEHMKF@BOTH_CONSOLE2HOLDCOMSTOP?$AA@ 40147540     ui_main.obj
 0003:0000b560       ??_C@_0BK@JLMHHIBG@BOTH_CONSOLE2HOLDCOMSTART?$AA@ 40147560     ui_main.obj
 0003:0000b580       ??_C@_0BC@JKGILGAP@BOTH_CONSOLE2STOP?$AA@ 40147580     ui_main.obj
 0003:0000b598       ??_C@_0O@BGELBNFP@BOTH_CONSOLE2?$AA@ 40147598     ui_main.obj
 0003:0000b5a8       ??_C@_0BD@KNKJEOCK@BOTH_CONSOLE2START?$AA@ 401475a8     ui_main.obj
 0003:0000b5c0       ??_C@_0BC@BMPMMEKB@BOTH_CONSOLE1STOP?$AA@ 401475c0     ui_main.obj
 0003:0000b5d8       ??_C@_0O@DNGGEOJM@BOTH_CONSOLE1?$AA@ 401475d8     ui_main.obj
 0003:0000b5e8       ??_C@_0BD@JMEBFELH@BOTH_CONSOLE1START?$AA@ 401475e8     ui_main.obj
 0003:0000b600       ??_C@_0BL@HDGAEFLK@BOTH_STAND5LOOK180LEFTSTOP?$AA@ 40147600     ui_main.obj
 0003:0000b620       ??_C@_0BM@BGELABNK@BOTH_STAND5LOOK180LEFTSTART?$AA@ 40147620     ui_main.obj
 0003:0000b644       ??_C@_0BJ@HFICOBLF@BOTH_STAND5TURNRIGHTSTOP?$AA@ 40147644     ui_main.obj
 0003:0000b664       ??_C@_0BK@IGPCPOOP@BOTH_STAND5TURNRIGHTSTART?$AA@ 40147664     ui_main.obj
 0003:0000b684       ??_C@_0BI@JADJJLGI@BOTH_STAND5TURNLEFTSTOP?$AA@ 40147684     ui_main.obj
 0003:0000b6a0       ??_C@_0BJ@HOHFOLPM@BOTH_STAND5TURNLEFTSTART?$AA@ 401476a0     ui_main.obj
 0003:0000b6c0       ??_C@_0BL@EHCDGJJ@BOTH_STAND5SHIFTWEIGHTSTOP?$AA@ 401476c0     ui_main.obj
 0003:0000b6e0       ??_C@_0BM@LEFLGCNL@BOTH_STAND5SHIFTWEIGHTSTART?$AA@ 401476e0     ui_main.obj
 0003:0000b704       ??_C@_0BH@LKALMHBN@BOTH_STAND5SHIFTWEIGHT?$AA@ 40147704     ui_main.obj
 0003:0000b720       ??_C@_0BB@NHGNFEJF@BOTH_STAND9IDLE1?$AA@ 40147720     ui_main.obj
 0003:0000b734       ??_C@_0M@KGBMNEAL@BOTH_STAND9?$AA@ 40147734     ui_main.obj
 0003:0000b744       ??_C@_0BE@PHIMDIEF@BOTH_STAND8TOSTAND5?$AA@ 40147744     ui_main.obj
 0003:0000b75c       ??_C@_0BE@LDCJBNIF@BOTH_STAND7TOSTAND8?$AA@ 4014775c     ui_main.obj
 0003:0000b774       ??_C@_0BE@LHNMMNLI@BOTH_STAND5TOSTAND8?$AA@ 40147774     ui_main.obj
 0003:0000b78c       ??_C@_0BO@JCPBABCF@BOTH_STARTLEDLOOKLEFTTOSTAND5?$AA@ 4014778c     ui_main.obj
 0003:0000b7b0       ??_C@_0BM@LKMKNIB@BOTH_STAND5STARTLEDLOOKLEFT?$AA@ 401477b0     ui_main.obj
 0003:0000b7d4       ??_C@_0BB@KAKPAJPG@BOTH_STAND5TOAIM?$AA@ 401477d4     ui_main.obj
 0003:0000b7e8       ??_C@_0BE@GGBOHGPB@BOTH_STAND5TOSTAND1?$AA@ 401477e8     ui_main.obj
 0003:0000b800       ??_C@_0BE@LJJBDIP@BOTH_STAND1TOSTAND5?$AA@ 40147800     ui_main.obj
 0003:0000b818       ??_C@_0BC@KJMCMBAN@BOTH_STAND5TOSIT3?$AA@ 40147818     ui_main.obj
 0003:0000b830       ??_C@_0O@JCHGFLGA@BOTH_STANDUP2?$AA@ 40147830     ui_main.obj
 0003:0000b840       ??_C@_0BF@MNEGLANN@BOTH_STAND4TOATTACK2?$AA@ 40147840     ui_main.obj
 0003:0000b85c       ??_C@_0P@NHEJHBNL@BOTH_STAND4TO2?$AA@ 4014785c     ui_main.obj
 0003:0000b870       ??_C@_0P@OFDCDPN@BOTH_STAND2TO4?$AA@ 40147870     ui_main.obj
 0003:0000b884       ??_C@_0P@HDCENHLI@BOTH_STAND2TO1?$AA@ 40147884     ui_main.obj
 0003:0000b898       ??_C@_0P@BPKJPOKL@BOTH_STAND1TO2?$AA@ 40147898     ui_main.obj
 0003:0000b8ac       ??_C@_0M@LPAHOFEK@BOTH_STAND8?$AA@ 401478ac     ui_main.obj
 0003:0000b8bc       ??_C@_0M@CBIEMIME@BOTH_STAND6?$AA@ 401478bc     ui_main.obj
 0003:0000b8cc       ??_C@_0BB@BAMNDOOB@BOTH_STAND5IDLE1?$AA@ 401478cc     ui_main.obj
 0003:0000b8e0       ??_C@_0M@KKJJLAH@BOTH_STAND5?$AA@ 401478e0     ui_main.obj
 0003:0000b8f0       ??_C@_0M@BDLCKKEG@BOTH_STAND4?$AA@ 401478f0     ui_main.obj
 0003:0000b900       ??_C@_0BB@HDBNALNL@BOTH_STAND3IDLE1?$AA@ 40147900     ui_main.obj
 0003:0000b914       ??_C@_0M@FMPDDMIB@BOTH_STAND3?$AA@ 40147914     ui_main.obj
 0003:0000b924       ??_C@_0BB@POEHFDKM@BOTH_STAND2IDLE2?$AA@ 40147924     ui_main.obj
 0003:0000b938       ??_C@_0BB@NFGKAAGP@BOTH_STAND2IDLE1?$AA@ 40147938     ui_main.obj
 0003:0000b94c       ??_C@_0M@EFOIANMA@BOTH_STAND2?$AA@ 4014794c     ui_main.obj
 0003:0000b95c       ??_C@_0BB@OEICBKPC@BOTH_STAND1IDLE1?$AA@ 4014795c     ui_main.obj
 0003:0000b970       ??_C@_0M@GOMFFOAD@BOTH_STAND1?$AA@ 40147970     ui_main.obj
 0003:0000b980       ??_C@_0P@HNCGMPEI@BOTH_ROLL_STAB?$AA@ 40147980     ui_main.obj
 0003:0000b994       ??_C@_0BA@PJPEDJMA@BOTH_A3_SPECIAL?$AA@ 40147994     ui_main.obj
 0003:0000b9a8       ??_C@_0BA@BGDGFCPO@BOTH_A2_SPECIAL?$AA@ 401479a8     ui_main.obj
 0003:0000b9bc       ??_C@_0BA@PNABOJPN@BOTH_A1_SPECIAL?$AA@ 401479bc     ui_main.obj
 0003:0000b9d0       ??_C@_0BA@IPLCAALD@BOTH_A7_SOULCAL?$AA@ 401479d0     ui_main.obj
 0003:0000b9e4       ??_C@_0BF@JKDHMCK@BOTH_A6_SABERPROTECT?$AA@ 401479e4     ui_main.obj
 0003:0000ba00       ??_C@_0BD@FCALGDP@BOTH_STABDOWN_DUAL?$AA@ 40147a00     ui_main.obj
 0003:0000ba18       ??_C@_0BE@DOGEHLEN@BOTH_STABDOWN_STAFF?$AA@ 40147a18     ui_main.obj
 0003:0000ba30       ??_C@_0O@FMNFAMJP@BOTH_STABDOWN?$AA@ 40147a30     ui_main.obj
 0003:0000ba40       ??_C@_0BE@NCOEMLED@BOTH_PULLED_INAIR_F?$AA@ 40147a40     ui_main.obj
 0003:0000ba58       ??_C@_0BE@LGIIAOEH@BOTH_PULLED_INAIR_B?$AA@ 40147a58     ui_main.obj
 0003:0000ba70       ??_C@_0BH@ENKMMKI@BOTH_PULL_IMPALE_SWING?$AA@ 40147a70     ui_main.obj
 0003:0000ba8c       ??_C@_0BG@FJEBNIOP@BOTH_PULL_IMPALE_STAB?$AA@ 40147a8c     ui_main.obj
 0003:0000baa8       ??_C@_0P@FKABGNIE@BOTH_FLIP_LAND?$AA@ 40147aa8     ui_main.obj
 0003:0000babc       ??_C@_0BA@PECANCJM@BOTH_FLIP_HOLD7?$AA@ 40147abc     ui_main.obj
 0003:0000bad0       ??_C@_0BC@OAEPKLIJ@BOTH_FLIP_ATTACK7?$AA@ 40147ad0     ui_main.obj
 0003:0000bae8       ??_C@_0BD@MBINELLK@BOTH_A7_KICK_L_AIR?$AA@ 40147ae8     ui_main.obj
 0003:0000bb00       ??_C@_0BD@PIFBCIFB@BOTH_A7_KICK_R_AIR?$AA@ 40147b00     ui_main.obj
 0003:0000bb18       ??_C@_0BD@PLIHCKMK@BOTH_A7_KICK_B_AIR?$AA@ 40147b18     ui_main.obj
 0003:0000bb30       ??_C@_0BD@GABGGINM@BOTH_A7_KICK_F_AIR?$AA@ 40147b30     ui_main.obj
 0003:0000bb48       ??_C@_0BA@CADMNHIP@BOTH_A7_KICK_RL?$AA@ 40147b48     ui_main.obj
 0003:0000bb5c       ??_C@_0BF@OPHCPADF@BOTH_A7_KICK_BF_STOP?$AA@ 40147b5c     ui_main.obj
 0003:0000bb78       ??_C@_0BA@MGPFJMHF@BOTH_A7_KICK_BF?$AA@ 40147b78     ui_main.obj
 0003:0000bb8c       ??_C@_0P@DFCDAAIP@BOTH_A7_KICK_S?$AA@ 40147b8c     ui_main.obj
 0003:0000bba0       ??_C@_0P@PIHJAOBB@BOTH_A7_KICK_L?$AA@ 40147ba0     ui_main.obj
 0003:0000bbb4       ??_C@_0P@CMDIDBMO@BOTH_A7_KICK_R?$AA@ 40147bb4     ui_main.obj
 0003:0000bbc8       ??_C@_0P@GGPKCDJP@BOTH_A7_KICK_B?$AA@ 40147bc8     ui_main.obj
 0003:0000bbdc       ??_C@_0P@CJGOGJL@BOTH_A7_KICK_F?$AA@ 40147bdc     ui_main.obj
 0003:0000bbf0       ??_C@_0BM@OHENEONK@BOTH_FORCEWALLRELEASE_RIGHT?$AA@ 40147bf0     ui_main.obj
 0003:0000bc14       ??_C@_0BL@BABFAMJB@BOTH_FORCEWALLRELEASE_BACK?$AA@ 40147c14     ui_main.obj
 0003:0000bc34       ??_C@_0BL@OLNGOJNC@BOTH_FORCEWALLRELEASE_LEFT?$AA@ 40147c34     ui_main.obj
 0003:0000bc54       ??_C@_0BO@FMNDOIKN@BOTH_FORCEWALLRELEASE_FORWARD?$AA@ 40147c54     ui_main.obj
 0003:0000bc78       ??_C@_0BJ@CCJINKMK@BOTH_FORCEWALLHOLD_RIGHT?$AA@ 40147c78     ui_main.obj
 0003:0000bc98       ??_C@_0BI@HPLKKCCJ@BOTH_FORCEWALLHOLD_BACK?$AA@ 40147c98     ui_main.obj
 0003:0000bcb4       ??_C@_0BI@IEHJEHGK@BOTH_FORCEWALLHOLD_LEFT?$AA@ 40147cb4     ui_main.obj
 0003:0000bcd0       ??_C@_0BL@OBHDGIHE@BOTH_FORCEWALLHOLD_FORWARD?$AA@ 40147cd0     ui_main.obj
 0003:0000bcf0       ??_C@_0BM@FDLDEBGK@BOTH_FORCEWALLREBOUND_RIGHT?$AA@ 40147cf0     ui_main.obj
 0003:0000bd14       ??_C@_0BL@OFKEILGN@BOTH_FORCEWALLREBOUND_BACK?$AA@ 40147d14     ui_main.obj
 0003:0000bd34       ??_C@_0BL@BOGHGOCO@BOTH_FORCEWALLREBOUND_LEFT?$AA@ 40147d34     ui_main.obj
 0003:0000bd54       ??_C@_0BO@CIKJOPHK@BOTH_FORCEWALLREBOUND_FORWARD?$AA@ 40147d54     ui_main.obj
 0003:0000bd78       ??_C@_0BK@KJKIIGOD@BOTH_FORCEWALLRUNFLIP_ALT?$AA@ 40147d78     ui_main.obj
 0003:0000bd98       ??_C@_0BK@GPIMNHIL@BOTH_FORCEWALLRUNFLIP_END?$AA@ 40147d98     ui_main.obj
 0003:0000bdb8       ??_C@_0BM@LJCOJFGC@BOTH_FORCEWALLRUNFLIP_START?$AA@ 40147db8     ui_main.obj
 0003:0000bddc       ??_C@_0BI@MHONAGNG@BOTH_FORCELONGLEAP_LAND?$AA@ 40147ddc     ui_main.obj
 0003:0000bdf8       ??_C@_0BK@HABCCIOP@BOTH_FORCELONGLEAP_ATTACK?$AA@ 40147df8     ui_main.obj
 0003:0000be18       ??_C@_0BJ@KLOIGFJP@BOTH_FORCELONGLEAP_START?$AA@ 40147e18     ui_main.obj
 0003:0000be38       ??_C@_0L@NHGEHEAM@BOTH_S7_S1?$AA@ 40147e38     ui_main.obj
 0003:0000be48       ??_C@_0L@OHOCGCK@BOTH_S1_S7?$AA@ 40147e48     ui_main.obj
 0003:0000be58       ??_C@_0L@OKAEFNLM@BOTH_S6_S1?$AA@ 40147e58     ui_main.obj
 0003:0000be68       ??_C@_0L@BHGFBHGL@BOTH_S1_S6?$AA@ 40147e68     ui_main.obj
 0003:0000be78       ??_C@_0BB@KFONEAEN@BOTH_SPINATTACK7?$AA@ 40147e78     ui_main.obj
 0003:0000be8c       ??_C@_0BB@LMPGHBAM@BOTH_SPINATTACK6?$AA@ 40147e8c     ui_main.obj
 0003:0000bea0       ??_C@_0BB@CIOCACPL@BOTH_JUMPATTACK7?$AA@ 40147ea0     ui_main.obj
 0003:0000beb4       ??_C@_0BB@DBPJDDLK@BOTH_JUMPATTACK6?$AA@ 40147eb4     ui_main.obj
 0003:0000bec8       ??_C@_0BH@INLIBEMO@BOTH_CROUCHATTACKBACK1?$AA@ 40147ec8     ui_main.obj
 0003:0000bee4       ??_C@_0BC@BEBALKBG@BOTH_LUNGE2_B__T_?$AA@ 40147ee4     ui_main.obj
 0003:0000befc       ??_C@_0BG@CELCKDAN@BOTH_FORCELEAP2_T__B_?$AA@ 40147efc     ui_main.obj
 0003:0000bf18       ??_C@_0BG@BFMBDODP@BOTH_JUMPFLIPSTABDOWN?$AA@ 40147f18     ui_main.obj
 0003:0000bf34       ??_C@_0BI@HBGICLGG@BOTH_JUMPFLIPSLASHDOWN1?$AA@ 40147f34     ui_main.obj
 0003:0000bf50       ??_C@_0BB@CBLKELKF@BOTH_ATTACK_BACK?$AA@ 40147f50     ui_main.obj
 0003:0000bf64       ??_C@_0BC@PILNDLJJ@BOTH_A2_STABBACK1?$AA@ 40147f64     ui_main.obj
 0003:0000bf7c       ??_C@_0BH@BDCLHPPP@BOTH_SABERSTAFF_STANCE?$AA@ 40147f7c     ui_main.obj
 0003:0000bf98       ??_C@_0BG@HKMBABJH@BOTH_SABERDUAL_STANCE?$AA@ 40147f98     ui_main.obj
 0003:0000bfb4       ??_C@_0BG@OHKGBDLF@BOTH_SABERSLOW_STANCE?$AA@ 40147fb4     ui_main.obj
 0003:0000bfd0       ??_C@_0BG@LMJGJJPN@BOTH_SABERFAST_STANCE?$AA@ 40147fd0     ui_main.obj
 0003:0000bfec       ??_C@_0BD@KOAOCCAN@BOTH_CCWCIRCLELOCK?$AA@ 40147fec     ui_main.obj
 0003:0000c004       ??_C@_0BC@KJPAFMDI@BOTH_CWCIRCLELOCK?$AA@ 40148004     ui_main.obj
 0003:0000c01c       ??_C@_0BE@OHBEAMBI@BOTH_CCWCIRCLEBREAK?$AA@ 4014801c     ui_main.obj
 0003:0000c034       ??_C@_0BD@LBKADGEF@BOTH_CWCIRCLEBREAK?$AA@ 40148034     ui_main.obj
 0003:0000c04c       ??_C@_0BI@CIMIIHDK@BOTH_CCWCIRCLE_A2__R__L?$AA@ 4014804c     ui_main.obj
 0003:0000c068       ??_C@_0BH@DBGDLJEC@BOTH_CWCIRCLE_A2__L__R?$AA@ 40148068     ui_main.obj
 0003:0000c084       ??_C@_0BI@PBNOCOLC@BOTH_CCWCIRCLE_R2__L_S1?$AA@ 40148084     ui_main.obj
 0003:0000c0a0       ??_C@_0BH@DMDECPBF@BOTH_CWCIRCLE_R2__R_S1?$AA@ 401480a0     ui_main.obj
 0003:0000c0bc       ??_C@_0N@DLCMNLOG@BOTH_BF1LOCK?$AA@ 401480bc     ui_main.obj
 0003:0000c0cc       ??_C@_0O@NAFJBFBB@BOTH_BF1BREAK?$AA@ 401480cc     ui_main.obj
 0003:0000c0dc       ??_C@_0P@OMJLFDIE@BOTH_BF1RETURN?$AA@ 401480dc     ui_main.obj
 0003:0000c0f0       ??_C@_0N@LNLIKJEI@BOTH_BF2LOCK?$AA@ 401480f0     ui_main.obj
 0003:0000c100       ??_C@_0O@OBLBAPIM@BOTH_BF2BREAK?$AA@ 40148100     ui_main.obj
 0003:0000c110       ??_C@_0P@GCBEFEGH@BOTH_BF2RETURN?$AA@ 40148110     ui_main.obj
 0003:0000c124       ??_C@_0BE@DOCAGAEJ@BOTH_LK_ST_ST_T_L_2?$AA@ 40148124     ui_main.obj
 0003:0000c13c       ??_C@_0BE@CDCFFAPB@BOTH_LK_ST_ST_S_L_2?$AA@ 4014813c     ui_main.obj
 0003:0000c154       ??_C@_0BE@DFGKEEJC@BOTH_LK_DL_DL_T_L_2?$AA@ 40148154     ui_main.obj
 0003:0000c16c       ??_C@_0BE@CIGPHECK@BOTH_LK_DL_DL_S_L_2?$AA@ 4014816c     ui_main.obj
 0003:0000c184       ??_C@_0BC@NOIODFFL@BOTH_LK_S_S_T_L_2?$AA@ 40148184     ui_main.obj
 0003:0000c19c       ??_C@_0BC@MDILAFOD@BOTH_LK_S_S_S_L_2?$AA@ 4014819c     ui_main.obj
 0003:0000c1b4       ??_C@_0BG@DGNDNELM@BOTH_LK_ST_S_T_SB_1_W?$AA@ 401481b4     ui_main.obj
 0003:0000c1d0       ??_C@_0BG@JPOFBPCG@BOTH_LK_ST_S_T_SB_1_L?$AA@ 401481d0     ui_main.obj
 0003:0000c1ec       ??_C@_0BD@DOGCPFDO@BOTH_LK_ST_S_T_L_1?$AA@ 401481ec     ui_main.obj
 0003:0000c204       ??_C@_0BF@CEACOAOC@BOTH_LK_ST_S_T_B_1_W?$AA@ 40148204     ui_main.obj
 0003:0000c220       ??_C@_0BF@INDECLHI@BOTH_LK_ST_S_T_B_1_L?$AA@ 40148220     ui_main.obj
 0003:0000c23c       ??_C@_0BG@FCLCLJHF@BOTH_LK_ST_S_S_SB_1_W?$AA@ 4014823c     ui_main.obj
 0003:0000c258       ??_C@_0BG@PLIEHCOP@BOTH_LK_ST_S_S_SB_1_L?$AA@ 40148258     ui_main.obj
 0003:0000c274       ??_C@_0BD@CDGHMFIG@BOTH_LK_ST_S_S_L_1?$AA@ 40148274     ui_main.obj
 0003:0000c28c       ??_C@_0BF@COMHOJPL@BOTH_LK_ST_S_S_B_1_W?$AA@ 4014828c     ui_main.obj
 0003:0000c2a8       ??_C@_0BF@IHPBCCGB@BOTH_LK_ST_S_S_B_1_L?$AA@ 401482a8     ui_main.obj
 0003:0000c2c4       ??_C@_0BH@LECJIOFK@BOTH_LK_ST_ST_T_SB_1_W?$AA@ 401482c4     ui_main.obj
 0003:0000c2e0       ??_C@_0BH@BNBPEFMA@BOTH_LK_ST_ST_T_SB_1_L?$AA@ 401482e0     ui_main.obj
 0003:0000c2fc       ??_C@_0BE@BFANDDIK@BOTH_LK_ST_ST_T_L_1?$AA@ 401482fc     ui_main.obj
 0003:0000c314       ??_C@_0BG@NGKMMHLE@BOTH_LK_ST_ST_T_B_1_W?$AA@ 40148314     ui_main.obj
 0003:0000c330       ??_C@_0BG@HPJKAMCO@BOTH_LK_ST_ST_T_B_1_L?$AA@ 40148330     ui_main.obj
 0003:0000c34c       ??_C@_0BH@NAEIODJD@BOTH_LK_ST_ST_S_SB_1_W?$AA@ 4014834c     ui_main.obj
 0003:0000c368       ??_C@_0BH@HJHOCIAJ@BOTH_LK_ST_ST_S_SB_1_L?$AA@ 40148368     ui_main.obj
 0003:0000c384       ??_C@_0BE@IAIADDC@BOTH_LK_ST_ST_S_L_1?$AA@ 40148384     ui_main.obj
 0003:0000c39c       ??_C@_0BG@NMGJMOKN@BOTH_LK_ST_ST_S_B_1_W?$AA@ 4014839c     ui_main.obj
 0003:0000c3b8       ??_C@_0BG@HFFPAFDH@BOTH_LK_ST_ST_S_B_1_L?$AA@ 401483b8     ui_main.obj
 0003:0000c3d4       ??_C@_0BH@NIJMKPKH@BOTH_LK_ST_DL_T_SB_1_W?$AA@ 401483d4     ui_main.obj
 0003:0000c3f0       ??_C@_0BH@HBKKGEDN@BOTH_LK_ST_DL_T_SB_1_L?$AA@ 401483f0     ui_main.obj
 0003:0000c40c       ??_C@_0BE@HCPCDGKM@BOTH_LK_ST_DL_T_L_1?$AA@ 4014840c     ui_main.obj
 0003:0000c424       ??_C@_0BG@GFBINHOA@BOTH_LK_ST_DL_T_B_1_W?$AA@ 40148424     ui_main.obj
 0003:0000c440       ??_C@_0BG@MMCOBMHK@BOTH_LK_ST_DL_T_B_1_L?$AA@ 40148440     ui_main.obj
 0003:0000c45c       ??_C@_0BH@LMPNMCGO@BOTH_LK_ST_DL_S_SB_1_W?$AA@ 4014845c     ui_main.obj
 0003:0000c478       ??_C@_0BH@BFMLAJPE@BOTH_LK_ST_DL_S_SB_1_L?$AA@ 40148478     ui_main.obj
 0003:0000c494       ??_C@_0BE@GPPHAGBE@BOTH_LK_ST_DL_S_L_1?$AA@ 40148494     ui_main.obj
 0003:0000c4ac       ??_C@_0BG@GPNNNOPJ@BOTH_LK_ST_DL_S_B_1_W?$AA@ 401484ac     ui_main.obj
 0003:0000c4c8       ??_C@_0BG@MGOLBFGD@BOTH_LK_ST_DL_S_B_1_L?$AA@ 401484c8     ui_main.obj
 0003:0000c4e4       ??_C@_0BG@NLKIDHKH@BOTH_LK_DL_S_T_SB_1_W?$AA@ 401484e4     ui_main.obj
 0003:0000c500       ??_C@_0BG@HCJOPMDN@BOTH_LK_DL_S_T_SB_1_L?$AA@ 40148500     ui_main.obj
 0003:0000c51c       ??_C@_0BD@INNGOFGK@BOTH_LK_DL_S_T_L_1?$AA@ 4014851c     ui_main.obj
 0003:0000c534       ??_C@_0BF@OHGCNLGC@BOTH_LK_DL_S_T_B_1_W?$AA@ 40148534     ui_main.obj
 0003:0000c550       ??_C@_0BF@EOFEBAPI@BOTH_LK_DL_S_T_B_1_L?$AA@ 40148550     ui_main.obj
 0003:0000c56c       ??_C@_0BG@LPMJFKGO@BOTH_LK_DL_S_S_SB_1_W?$AA@ 4014856c     ui_main.obj
 0003:0000c588       ??_C@_0BG@BGPPJBPE@BOTH_LK_DL_S_S_SB_1_L?$AA@ 40148588     ui_main.obj
 0003:0000c5a4       ??_C@_0BD@JANDNFNC@BOTH_LK_DL_S_S_L_1?$AA@ 401485a4     ui_main.obj
 0003:0000c5bc       ??_C@_0BF@ONKHNCHL@BOTH_LK_DL_S_S_B_1_W?$AA@ 401485bc     ui_main.obj
 0003:0000c5d8       ??_C@_0BF@EEJBBJOB@BOTH_LK_DL_S_S_B_1_L?$AA@ 401485d8     ui_main.obj
 0003:0000c5f4       ??_C@_0BH@DOKBDMFF@BOTH_LK_DL_ST_T_SB_1_W?$AA@ 401485f4     ui_main.obj
 0003:0000c610       ??_C@_0BH@JHJHPHMP@BOTH_LK_DL_ST_T_SB_1_L?$AA@ 40148610     ui_main.obj
 0003:0000c62c       ??_C@_0BE@HJLIBCHH@BOTH_LK_DL_ST_T_L_1?$AA@ 4014862c     ui_main.obj
 0003:0000c644       ??_C@_0BG@DLNHCEKP@BOTH_LK_DL_ST_T_B_1_W?$AA@ 40148644     ui_main.obj
 0003:0000c660       ??_C@_0BG@JCOBOPDF@BOTH_LK_DL_ST_T_B_1_L?$AA@ 40148660     ui_main.obj
 0003:0000c67c       ??_C@_0BH@FKMAFBJM@BOTH_LK_DL_ST_S_SB_1_W?$AA@ 4014867c     ui_main.obj
 0003:0000c698       ??_C@_0BH@PDPGJKAG@BOTH_LK_DL_ST_S_SB_1_L?$AA@ 40148698     ui_main.obj
 0003:0000c6b4       ??_C@_0BE@GELNCCMP@BOTH_LK_DL_ST_S_L_1?$AA@ 401486b4     ui_main.obj
 0003:0000c6cc       ??_C@_0BG@DBBCCNLG@BOTH_LK_DL_ST_S_B_1_W?$AA@ 401486cc     ui_main.obj
 0003:0000c6e8       ??_C@_0BG@JICEOGCM@BOTH_LK_DL_ST_S_B_1_L?$AA@ 401486e8     ui_main.obj
 0003:0000c704       ??_C@_0BH@FCBEBNKI@BOTH_LK_DL_DL_T_SB_1_W?$AA@ 40148704     ui_main.obj
 0003:0000c720       ??_C@_0BH@PLCCNGDC@BOTH_LK_DL_DL_T_SB_1_L?$AA@ 40148720     ui_main.obj
 0003:0000c73c       ??_C@_0BE@BOEHBHFB@BOTH_LK_DL_DL_T_L_1?$AA@ 4014873c     ui_main.obj
 0003:0000c754       ??_C@_0BG@IIGDDEPL@BOTH_LK_DL_DL_T_B_1_W?$AA@ 40148754     ui_main.obj
 0003:0000c770       ??_C@_0BG@CBFFPPGB@BOTH_LK_DL_DL_T_B_1_L?$AA@ 40148770     ui_main.obj
 0003:0000c78c       ??_C@_0BH@DGHFHAGB@BOTH_LK_DL_DL_S_SB_1_W?$AA@ 4014878c     ui_main.obj
 0003:0000c7a8       ??_C@_0BH@JPEDLLPL@BOTH_LK_DL_DL_S_SB_1_L?$AA@ 401487a8     ui_main.obj
 0003:0000c7c4       ??_C@_0BE@DECCHOJ@BOTH_LK_DL_DL_S_L_1?$AA@ 401487c4     ui_main.obj
 0003:0000c7dc       ??_C@_0BG@ICKGDNOC@BOTH_LK_DL_DL_S_B_1_W?$AA@ 401487dc     ui_main.obj
 0003:0000c7f8       ??_C@_0BG@CLJAPGHI@BOTH_LK_DL_DL_S_B_1_L?$AA@ 401487f8     ui_main.obj
 0003:0000c814       ??_C@_0BF@FNCJNOFK@BOTH_LK_S_S_T_SB_1_W?$AA@ 40148814     ui_main.obj
 0003:0000c830       ??_C@_0BF@PEBPBFMA@BOTH_LK_S_S_T_SB_1_L?$AA@ 40148830     ui_main.obj
 0003:0000c84c       ??_C@_0BC@PFKDGGJI@BOTH_LK_S_S_T_L_1?$AA@ 4014884c     ui_main.obj
 0003:0000c864       ??_C@_0BE@LFFJPCLC@BOTH_LK_S_S_T_B_1_W?$AA@ 40148864     ui_main.obj
 0003:0000c87c       ??_C@_0BE@BMGPDJCI@BOTH_LK_S_S_T_B_1_L?$AA@ 4014887c     ui_main.obj
 0003:0000c894       ??_C@_0BF@DJEILDJD@BOTH_LK_S_S_S_SB_1_W?$AA@ 40148894     ui_main.obj
 0003:0000c8b0       ??_C@_0BF@JAHOHIAJ@BOTH_LK_S_S_S_SB_1_L?$AA@ 401488b0     ui_main.obj
 0003:0000c8cc       ??_C@_0BC@OIKGFGCA@BOTH_LK_S_S_S_L_1?$AA@ 401488cc     ui_main.obj
 0003:0000c8e4       ??_C@_0BE@LPJMPLKL@BOTH_LK_S_S_S_B_1_W?$AA@ 401488e4     ui_main.obj
 0003:0000c8fc       ??_C@_0BE@BGKKDADB@BOTH_LK_S_S_S_B_1_L?$AA@ 401488fc     ui_main.obj
 0003:0000c914       ??_C@_0BG@PNCLDDBN@BOTH_LK_S_ST_T_SB_1_W?$AA@ 40148914     ui_main.obj
 0003:0000c930       ??_C@_0BG@FEBNPIIH@BOTH_LK_S_ST_T_SB_1_L?$AA@ 40148930     ui_main.obj
 0003:0000c94c       ??_C@_0BD@CKHDPEME@BOTH_LK_S_ST_T_L_1?$AA@ 4014894c     ui_main.obj
 0003:0000c964       ??_C@_0BF@LNFGMNFC@BOTH_LK_S_ST_T_B_1_W?$AA@ 40148964     ui_main.obj
 0003:0000c980       ??_C@_0BF@BEGAAGMI@BOTH_LK_S_ST_T_B_1_L?$AA@ 40148980     ui_main.obj
 0003:0000c99c       ??_C@_0BG@JJEKFONE@BOTH_LK_S_ST_S_SB_1_W?$AA@ 4014899c     ui_main.obj
 0003:0000c9b8       ??_C@_0BG@DAHMJFEO@BOTH_LK_S_ST_S_SB_1_L?$AA@ 401489b8     ui_main.obj
 0003:0000c9d4       ??_C@_0BD@DHHGMEHM@BOTH_LK_S_ST_S_L_1?$AA@ 401489d4     ui_main.obj
 0003:0000c9ec       ??_C@_0BF@LHJDMEEL@BOTH_LK_S_ST_S_B_1_W?$AA@ 401489ec     ui_main.obj
 0003:0000ca08       ??_C@_0BF@BOKFAPNB@BOTH_LK_S_ST_S_B_1_L?$AA@ 40148a08     ui_main.obj
 0003:0000ca24       ??_C@_0BG@JBJOBCOA@BOTH_LK_S_DL_T_SB_1_W?$AA@ 40148a24     ui_main.obj
 0003:0000ca40       ??_C@_0BG@DIKINJHK@BOTH_LK_S_DL_T_SB_1_L?$AA@ 40148a40     ui_main.obj
 0003:0000ca5c       ??_C@_0BD@ENIMPBOC@BOTH_LK_S_DL_T_L_1?$AA@ 40148a5c     ui_main.obj
 0003:0000ca74       ??_C@_0BF@OOCNNAG@BOTH_LK_S_DL_T_B_1_W?$AA@ 40148a74     ui_main.obj
 0003:0000ca90       ??_C@_0BF@KHNEBGJM@BOTH_LK_S_DL_T_B_1_L?$AA@ 40148a90     ui_main.obj
 0003:0000caac       ??_C@_0BG@PFPPHPCJ@BOTH_LK_S_DL_S_SB_1_W?$AA@ 40148aac     ui_main.obj
 0003:0000cac8       ??_C@_0BG@FMMJLELD@BOTH_LK_S_DL_S_SB_1_L?$AA@ 40148ac8     ui_main.obj
 0003:0000cae4       ??_C@_0BD@FAIJMBFK@BOTH_LK_S_DL_S_L_1?$AA@ 40148ae4     ui_main.obj
 0003:0000cafc       ??_C@_0BF@ECHNEBP@BOTH_LK_S_DL_S_B_1_W?$AA@ 40148afc     ui_main.obj
 0003:0000cb18       ??_C@_0BF@KNBBBPIF@BOTH_LK_S_DL_S_B_1_L?$AA@ 40148b18     ui_main.obj
 0003:0000cb34       ??_C@_0O@MBLOLAIA@BOTH_H7_S7_BR?$AA@ 40148b34     ui_main.obj
 0003:0000cb44       ??_C@_0O@HEBAMOMN@BOTH_H7_S7_B_?$AA@ 40148b44     ui_main.obj
 0003:0000cb54       ??_C@_0O@BFPPIPFP@BOTH_H7_S7_BL?$AA@ 40148b54     ui_main.obj
 0003:0000cb64       ??_C@_0O@NFEFAJN@BOTH_H7_S7_TL?$AA@ 40148b64     ui_main.obj
 0003:0000cb74       ??_C@_0O@NJBFGPEC@BOTH_H7_S7_TR?$AA@ 40148b74     ui_main.obj
 0003:0000cb84       ??_C@_0O@GMLLBBAP@BOTH_H7_S7_T_?$AA@ 40148b84     ui_main.obj
 0003:0000cb94       ??_C@_0O@MBBKJCHE@BOTH_V7_B__S7?$AA@ 40148b94     ui_main.obj
 0003:0000cba4       ??_C@_0O@OGFKHPCG@BOTH_V7_BL_S7?$AA@ 40148ba4     ui_main.obj
 0003:0000cbb4       ??_C@_0O@FJBCGOGD@BOTH_V7__L_S7?$AA@ 40148bb4     ui_main.obj
 0003:0000cbc4       ??_C@_0O@DDNFJOKA@BOTH_V7_TL_S7?$AA@ 40148bc4     ui_main.obj
 0003:0000cbd4       ??_C@_0O@BEJFHDPC@BOTH_V7_T__S7?$AA@ 40148bd4     ui_main.obj
 0003:0000cbe4       ??_C@_0O@OMAFLHED@BOTH_V7_TR_S7?$AA@ 40148be4     ui_main.obj
 0003:0000cbf4       ??_C@_0O@IGMCEHIA@BOTH_V7__R_S7?$AA@ 40148bf4     ui_main.obj
 0003:0000cc04       ??_C@_0O@DJIKFGMF@BOTH_V7_BR_S7?$AA@ 40148c04     ui_main.obj
 0003:0000cc14       ??_C@_0O@PIDDIMEF@BOTH_K7_S7_BR?$AA@ 40148c14     ui_main.obj
 0003:0000cc24       ??_C@_0O@ENJNPCAI@BOTH_K7_S7_B_?$AA@ 40148c24     ui_main.obj
 0003:0000cc34       ??_C@_0O@CMHCLDJK@BOTH_K7_S7_BL?$AA@ 40148c34     ui_main.obj
 0003:0000cc44       ??_C@_0O@DENJGMFI@BOTH_K7_S7_TL?$AA@ 40148c44     ui_main.obj
 0003:0000cc54       ??_C@_0O@OAJIFDIH@BOTH_K7_S7_TR?$AA@ 40148c54     ui_main.obj
 0003:0000cc64       ??_C@_0O@FFDGCNMK@BOTH_K7_S7_T_?$AA@ 40148c64     ui_main.obj
 0003:0000cc74       ??_C@_0O@NGKGFAOJ@BOTH_P7_S7_BR?$AA@ 40148c74     ui_main.obj
 0003:0000cc84       ??_C@_0O@COHGPDG@BOTH_P7_S7_BL?$AA@ 40148c84     ui_main.obj
 0003:0000cc94       ??_C@_0O@BKEMLAPE@BOTH_P7_S7_TL?$AA@ 40148c94     ui_main.obj
 0003:0000cca4       ??_C@_0O@MOANIPCL@BOTH_P7_S7_TR?$AA@ 40148ca4     ui_main.obj
 0003:0000ccb4       ??_C@_0O@HLKDPBGG@BOTH_P7_S7_T_?$AA@ 40148cb4     ui_main.obj
 0003:0000ccc4       ??_C@_0O@DAHEJJKO@BOTH_H6_S6_BR?$AA@ 40148cc4     ui_main.obj
 0003:0000ccd4       ??_C@_0O@IFNKOHOD@BOTH_H6_S6_B_?$AA@ 40148cd4     ui_main.obj
 0003:0000cce4       ??_C@_0O@OEDFKGHB@BOTH_H6_S6_BL?$AA@ 40148ce4     ui_main.obj
 0003:0000ccf4       ??_C@_0O@PMJOHJLD@BOTH_H6_S6_TL?$AA@ 40148cf4     ui_main.obj
 0003:0000cd04       ??_C@_0O@CINPEGGM@BOTH_H6_S6_TR?$AA@ 40148d04     ui_main.obj
 0003:0000cd14       ??_C@_0O@JNHBDICB@BOTH_H6_S6_T_?$AA@ 40148d14     ui_main.obj
 0003:0000cd24       ??_C@_0O@BEKLKDKL@BOTH_V6_B__S6?$AA@ 40148d24     ui_main.obj
 0003:0000cd34       ??_C@_0O@DDOLEOPJ@BOTH_V6_BL_S6?$AA@ 40148d34     ui_main.obj
 0003:0000cd44       ??_C@_0O@IMKDFPLM@BOTH_V6__L_S6?$AA@ 40148d44     ui_main.obj
 0003:0000cd54       ??_C@_0O@OGGEKPHP@BOTH_V6_TL_S6?$AA@ 40148d54     ui_main.obj
 0003:0000cd64       ??_C@_0O@MBCEECCN@BOTH_V6_T__S6?$AA@ 40148d64     ui_main.obj
 0003:0000cd74       ??_C@_0O@DJLEIGJM@BOTH_V6_TR_S6?$AA@ 40148d74     ui_main.obj
 0003:0000cd84       ??_C@_0O@FDHDHGFP@BOTH_V6__R_S6?$AA@ 40148d84     ui_main.obj
 0003:0000cd94       ??_C@_0O@OMDLGHBK@BOTH_V6_BR_S6?$AA@ 40148d94     ui_main.obj
 0003:0000cda4       ??_C@_0O@JPJKFGL@BOTH_K6_S6_BR?$AA@ 40148da4     ui_main.obj
 0003:0000cdb4       ??_C@_0O@LMFHNLCG@BOTH_K6_S6_B_?$AA@ 40148db4     ui_main.obj
 0003:0000cdc4       ??_C@_0O@NNLIJKLE@BOTH_K6_S6_BL?$AA@ 40148dc4     ui_main.obj
 0003:0000cdd4       ??_C@_0O@MFBDEFHG@BOTH_K6_S6_TL?$AA@ 40148dd4     ui_main.obj
 0003:0000cde4       ??_C@_0O@BBFCHKKJ@BOTH_K6_S6_TR?$AA@ 40148de4     ui_main.obj
 0003:0000cdf4       ??_C@_0O@KEPMAEOE@BOTH_K6_S6_T_?$AA@ 40148df4     ui_main.obj
 0003:0000ce04       ??_C@_0O@CHGMHJMH@BOTH_P6_S6_BR?$AA@ 40148e04     ui_main.obj
 0003:0000ce14       ??_C@_0O@PDCNEGBI@BOTH_P6_S6_BL?$AA@ 40148e14     ui_main.obj
 0003:0000ce24       ??_C@_0O@OLIGJJNK@BOTH_P6_S6_TL?$AA@ 40148e24     ui_main.obj
 0003:0000ce34       ??_C@_0O@DPMHKGAF@BOTH_P6_S6_TR?$AA@ 40148e34     ui_main.obj
 0003:0000ce44       ??_C@_0O@IKGJNIEI@BOTH_P6_S6_T_?$AA@ 40148e44     ui_main.obj
 0003:0000ce54       ??_C@_0O@IIJBEMKH@BOTH_H1_S1_BR?$AA@ 40148e54     ui_main.obj
 0003:0000ce64       ??_C@_0O@DNDPDCOK@BOTH_H1_S1_B_?$AA@ 40148e64     ui_main.obj
 0003:0000ce74       ??_C@_0O@FMNAHDHI@BOTH_H1_S1_BL?$AA@ 40148e74     ui_main.obj
 0003:0000ce84       ??_C@_0O@EEHLKMLK@BOTH_H1_S1_TL?$AA@ 40148e84     ui_main.obj
 0003:0000ce94       ??_C@_0O@JADKJDGF@BOTH_H1_S1_TR?$AA@ 40148e94     ui_main.obj
 0003:0000cea4       ??_C@_0O@CFJEONCI@BOTH_H1_S1_T_?$AA@ 40148ea4     ui_main.obj
 0003:0000ceb4       ??_C@_0O@FBCPDMHF@BOTH_V1_B__S1?$AA@ 40148eb4     ui_main.obj
 0003:0000cec4       ??_C@_0O@HGGPNBCH@BOTH_V1_BL_S1?$AA@ 40148ec4     ui_main.obj
 0003:0000ced4       ??_C@_0O@MJCHMAGC@BOTH_V1__L_S1?$AA@ 40148ed4     ui_main.obj
 0003:0000cee4       ??_C@_0O@KDOADAKB@BOTH_V1_TL_S1?$AA@ 40148ee4     ui_main.obj
 0003:0000cef4       ??_C@_0O@IEKANNPD@BOTH_V1_T__S1?$AA@ 40148ef4     ui_main.obj
 0003:0000cf04       ??_C@_0O@HMDABJEC@BOTH_V1_TR_S1?$AA@ 40148f04     ui_main.obj
 0003:0000cf14       ??_C@_0O@BGPHOJIB@BOTH_V1__R_S1?$AA@ 40148f14     ui_main.obj
 0003:0000cf24       ??_C@_0O@KJLPPIME@BOTH_V1_BR_S1?$AA@ 40148f24     ui_main.obj
 0003:0000cf34       ??_C@_0O@LBBMHAGC@BOTH_K1_S1_BR?$AA@ 40148f34     ui_main.obj
 0003:0000cf44       ??_C@_0O@ELCAOCP@BOTH_K1_S1_B_?$AA@ 40148f44     ui_main.obj
 0003:0000cf54       ??_C@_0O@GFFNEPLN@BOTH_K1_S1_BL?$AA@ 40148f54     ui_main.obj
 0003:0000cf64       ??_C@_0O@HNPGJAHP@BOTH_K1_S1_TL?$AA@ 40148f64     ui_main.obj
 0003:0000cf74       ??_C@_0O@KJLHKPKA@BOTH_K1_S1_TR?$AA@ 40148f74     ui_main.obj
 0003:0000cf84       ??_C@_0O@BMBJNBON@BOTH_K1_S1_T_?$AA@ 40148f84     ui_main.obj
 0003:0000cf94       ??_C@_0O@JPIJKMMO@BOTH_P1_S1_BR?$AA@ 40148f94     ui_main.obj
 0003:0000cfa4       ??_C@_0O@ELMIJDBB@BOTH_P1_S1_BL?$AA@ 40148fa4     ui_main.obj
 0003:0000cfb4       ??_C@_0O@FDGDEMND@BOTH_P1_S1_TL?$AA@ 40148fb4     ui_main.obj
 0003:0000cfc4       ??_C@_0O@IHCCHDAM@BOTH_P1_S1_TR?$AA@ 40148fc4     ui_main.obj
 0003:0000cfd4       ??_C@_0O@DCIMANEB@BOTH_P1_S1_T_?$AA@ 40148fd4     ui_main.obj
 0003:0000cfe4       ??_C@_0O@OHBCOAEI@BOTH_D7_B____?$AA@ 40148fe4     ui_main.obj
 0003:0000cff4       ??_C@_0O@MAFCANBK@BOTH_D7_BL___?$AA@ 40148ff4     ui_main.obj
 0003:0000d004       ??_C@_0O@HPBKBMFP@BOTH_D7__L___?$AA@ 40149004     ui_main.obj
 0003:0000d014       ??_C@_0O@BFNNOMJM@BOTH_D7_TL___?$AA@ 40149014     ui_main.obj
 0003:0000d024       ??_C@_0O@MKANMFHP@BOTH_D7_TR___?$AA@ 40149024     ui_main.obj
 0003:0000d034       ??_C@_0O@KAMKDFLM@BOTH_D7__R___?$AA@ 40149034     ui_main.obj
 0003:0000d044       ??_C@_0O@BPICCEPJ@BOTH_D7_BR___?$AA@ 40149044     ui_main.obj
 0003:0000d054       ??_C@_0O@LDEIHEJA@BOTH_B7_BL___?$AA@ 40149054     ui_main.obj
 0003:0000d064       ??_C@_0O@MAAGFNF@BOTH_B7__L___?$AA@ 40149064     ui_main.obj
 0003:0000d074       ??_C@_0O@GGMHJFBG@BOTH_B7_TL___?$AA@ 40149074     ui_main.obj
 0003:0000d084       ??_C@_0O@EBIHHIEE@BOTH_B7_T____?$AA@ 40149084     ui_main.obj
 0003:0000d094       ??_C@_0O@LJBHLMPF@BOTH_B7_TR___?$AA@ 40149094     ui_main.obj
 0003:0000d0a4       ??_C@_0O@NDNAEMDG@BOTH_B7__R___?$AA@ 401490a4     ui_main.obj
 0003:0000d0b4       ??_C@_0O@GMJIFNHD@BOTH_B7_BR___?$AA@ 401490b4     ui_main.obj
 0003:0000d0c4       ??_C@_0O@LBOJOGEP@BOTH_R7_TR_S7?$AA@ 401490c4     ui_main.obj
 0003:0000d0d4       ??_C@_0O@LLLGCOCK@BOTH_R7_BL_S7?$AA@ 401490d4     ui_main.obj
 0003:0000d0e4       ??_C@_0O@GEGGAHMJ@BOTH_R7_BR_S7?$AA@ 401490e4     ui_main.obj
 0003:0000d0f4       ??_C@_0O@GODJMPKM@BOTH_R7_TL_S7?$AA@ 401490f4     ui_main.obj
 0003:0000d104       ??_C@_0O@NLCOBGIM@BOTH_R7__R_S7?$AA@ 40149104     ui_main.obj
 0003:0000d114       ??_C@_0O@EPODPGP@BOTH_R7__L_S7?$AA@ 40149114     ui_main.obj
 0003:0000d124       ??_C@_0O@JMPGMDHI@BOTH_R7_B__S7?$AA@ 40149124     ui_main.obj
 0003:0000d134       ??_C@_0O@PHIALDOO@BOTH_S7_S7_TR?$AA@ 40149134     ui_main.obj
 0003:0000d144       ??_C@_0O@DLGKFDPD@BOTH_S7_S7_BL?$AA@ 40149144     ui_main.obj
 0003:0000d154       ??_C@_0O@OPCLGMCM@BOTH_S7_S7_BR?$AA@ 40149154     ui_main.obj
 0003:0000d164       ??_C@_0O@CDMBIMDB@BOTH_S7_S7_TL?$AA@ 40149164     ui_main.obj
 0003:0000d174       ??_C@_0O@PLNFFMAP@BOTH_S7_S7__R?$AA@ 40149174     ui_main.obj
 0003:0000d184       ??_C@_0O@CPJEGDNA@BOTH_S7_S7__L?$AA@ 40149184     ui_main.obj
 0003:0000d194       ??_C@_0O@ECCOMNKD@BOTH_S7_S7_T_?$AA@ 40149194     ui_main.obj
 0003:0000d1a4       ??_C@_0O@BCIOBBI@BOTH_T7_BL_TL?$AA@ 401491a4     ui_main.obj
 0003:0000d1b4       ??_C@_0O@GAMHKAIK@BOTH_T7_BL_T_?$AA@ 401491b4     ui_main.obj
 0003:0000d1c4       ??_C@_0O@KGMLCPJP@BOTH_T7__L_BL?$AA@ 401491c4     ui_main.obj
 0003:0000d1d4       ??_C@_0O@NPIPLBMP@BOTH_T7__L_T_?$AA@ 401491d4     ui_main.obj
 0003:0000d1e4       ??_C@_0O@GKCBMPIC@BOTH_T7__L_TR?$AA@ 401491e4     ui_main.obj
 0003:0000d1f4       ??_C@_0O@NIPCOPHP@BOTH_T7_TL__L?$AA@ 401491f4     ui_main.obj
 0003:0000d204       ??_C@_0O@LFEIEBAM@BOTH_T7_TL_T_?$AA@ 40149204     ui_main.obj
 0003:0000d214       ??_C@_0O@OGDPEB@BOTH_T7_TL_TR?$AA@ 40149214     ui_main.obj
 0003:0000d224       ??_C@_0O@MLDNAKA@BOTH_T7_TL__R?$AA@ 40149224     ui_main.obj
 0003:0000d234       ??_C@_0O@GKJIGIOP@BOTH_T7_TR_T_?$AA@ 40149234     ui_main.obj
 0003:0000d244       ??_C@_0O@NDGDPJED@BOTH_T7_TR__R?$AA@ 40149244     ui_main.obj
 0003:0000d254       ??_C@_0O@FPJICM@BOTH_T7__R_T_?$AA@ 40149254     ui_main.obj
 0003:0000d264       ??_C@_0O@KNFKDJKD@BOTH_T7__R_BR?$AA@ 40149264     ui_main.obj
 0003:0000d274       ??_C@_0O@LPBHIJGJ@BOTH_T7_BR_T_?$AA@ 40149274     ui_main.obj
 0003:0000d284       ??_C@_0O@KLJPHCE@BOTH_T7_BR_TR?$AA@ 40149284     ui_main.obj
 0003:0000d294       ??_C@_0O@NHNAOPJ@BOTH_T7_BL__L?$AA@ 40149294     ui_main.obj
 0003:0000d2a4       ??_C@_0O@NFGJNOMH@BOTH_T7_BL_TR?$AA@ 401492a4     ui_main.obj
 0003:0000d2b4       ??_C@_0O@NJDMDBCG@BOTH_T7_BL__R?$AA@ 401492b4     ui_main.obj
 0003:0000d2c4       ??_C@_0O@MNMCABAF@BOTH_T7_BL_BR?$AA@ 401492c4     ui_main.obj
 0003:0000d2d4       ??_C@_0O@LOGAPAFN@BOTH_T7__L_TL?$AA@ 401492d4     ui_main.obj
 0003:0000d2e4       ??_C@_0O@GGHECAGD@BOTH_T7__L__R?$AA@ 401492e4     ui_main.obj
 0003:0000d2f4       ??_C@_0O@HCIKBAEA@BOTH_T7__L_BR?$AA@ 401492f4     ui_main.obj
 0003:0000d304       ??_C@_0O@MMAMNPFM@BOTH_T7_TL_BL?$AA@ 40149304     ui_main.obj
 0003:0000d314       ??_C@_0O@BIENOAID@BOTH_T7_TL_BR?$AA@ 40149314     ui_main.obj
 0003:0000d324       ??_C@_0O@OLEMDCAO@BOTH_T7_T__BL?$AA@ 40149324     ui_main.obj
 0003:0000d334       ??_C@_0O@PPLCACCN@BOTH_T7_T___L?$AA@ 40149334     ui_main.obj
 0003:0000d344       ??_C@_0O@PDOHONMM@BOTH_T7_T__TL?$AA@ 40149344     ui_main.obj
 0003:0000d354       ??_C@_0O@CHKGNCBD@BOTH_T7_T__TR?$AA@ 40149354     ui_main.obj
 0003:0000d364       ??_C@_0O@CLPDDNPC@BOTH_T7_T___R?$AA@ 40149364     ui_main.obj
 0003:0000d374       ??_C@_0O@DPANANNB@BOTH_T7_T__BR?$AA@ 40149374     ui_main.obj
 0003:0000d384       ??_C@_0O@BDNMPGLP@BOTH_T7_TR_BL?$AA@ 40149384     ui_main.obj
 0003:0000d394       ??_C@_0O@HCCMGJM@BOTH_T7_TR__L?$AA@ 40149394     ui_main.obj
 0003:0000d3a4       ??_C@_0O@LHHCJHN@BOTH_T7_TR_TL?$AA@ 401493a4     ui_main.obj
 0003:0000d3b4       ??_C@_0O@MHJNMJGA@BOTH_T7_TR_BR?$AA@ 401493b4     ui_main.obj
 0003:0000d3c4       ??_C@_0O@HJBLAGHM@BOTH_T7__R_BL?$AA@ 401493c4     ui_main.obj
 0003:0000d3d4       ??_C@_0O@GNOFDGFP@BOTH_T7__R__L?$AA@ 401493d4     ui_main.obj
 0003:0000d3e4       ??_C@_0O@GBLANJLO@BOTH_T7__R_TL?$AA@ 401493e4     ui_main.obj
 0003:0000d3f4       ??_C@_0O@LFPBOGGB@BOTH_T7__R_TR?$AA@ 401493f4     ui_main.obj
 0003:0000d404       ??_C@_0O@MGFDBHDJ@BOTH_T7_BR_BL?$AA@ 40149404     ui_main.obj
 0003:0000d414       ??_C@_0O@NCKNCHBK@BOTH_T7_BR__L?$AA@ 40149414     ui_main.obj
 0003:0000d424       ??_C@_0O@NOPIMIPL@BOTH_T7_BR_TL?$AA@ 40149424     ui_main.obj
 0003:0000d434       ??_C@_0O@GOMBIMF@BOTH_T7_BR__R?$AA@ 40149434     ui_main.obj
 0003:0000d444       ??_C@_0O@PFILPBIB@BOTH_A7_TR_BL?$AA@ 40149444     ui_main.obj
 0003:0000d454       ??_C@_0O@DDDONJPJ@BOTH_A7_BL_TR?$AA@ 40149454     ui_main.obj
 0003:0000d464       ??_C@_0O@DIKPMPMF@BOTH_A7_BR_TL?$AA@ 40149464     ui_main.obj
 0003:0000d474       ??_C@_0O@POBKOHLN@BOTH_A7_TL_BR?$AA@ 40149474     ui_main.obj
 0003:0000d484       ??_C@_0O@ILLCDBGB@BOTH_A7__R__L?$AA@ 40149484     ui_main.obj
 0003:0000d494       ??_C@_0O@IACDCHFN@BOTH_A7__L__R?$AA@ 40149494     ui_main.obj
 0003:0000d4a4       ??_C@_0O@GMPEHEKC@BOTH_A7_T__B_?$AA@ 401494a4     ui_main.obj
 0003:0000d4b4       ??_C@_0O@CLLIOANG@BOTH_D6_B____?$AA@ 401494b4     ui_main.obj
 0003:0000d4c4       ??_C@_0O@MPIANIE@BOTH_D6_BL___?$AA@ 401494c4     ui_main.obj
 0003:0000d4d4       ??_C@_0O@LDLABMMB@BOTH_D6__L___?$AA@ 401494d4     ui_main.obj
 0003:0000d4e4       ??_C@_0O@NJHHOMAC@BOTH_D6_TL___?$AA@ 401494e4     ui_main.obj
 0003:0000d4f4       ??_C@_0O@GKHMFOB@BOTH_D6_TR___?$AA@ 401494f4     ui_main.obj
 0003:0000d504       ??_C@_0O@GMGADFCC@BOTH_D6__R___?$AA@ 40149504     ui_main.obj
 0003:0000d514       ??_C@_0O@NDCICEGH@BOTH_D6_BR___?$AA@ 40149514     ui_main.obj
 0003:0000d524       ??_C@_0O@HPOCHEAO@BOTH_B6_BL___?$AA@ 40149524     ui_main.obj
 0003:0000d534       ??_C@_0O@MAKKGFEL@BOTH_B6__L___?$AA@ 40149534     ui_main.obj
 0003:0000d544       ??_C@_0O@KKGNJFII@BOTH_B6_TL___?$AA@ 40149544     ui_main.obj
 0003:0000d554       ??_C@_0O@INCNHINK@BOTH_B6_T____?$AA@ 40149554     ui_main.obj
 0003:0000d564       ??_C@_0O@HFLNLMGL@BOTH_B6_TR___?$AA@ 40149564     ui_main.obj
 0003:0000d574       ??_C@_0O@BPHKEMKI@BOTH_B6__R___?$AA@ 40149574     ui_main.obj
 0003:0000d584       ??_C@_0O@KADCFNON@BOTH_B6_BR___?$AA@ 40149584     ui_main.obj
 0003:0000d594       ??_C@_0O@GEFINHJA@BOTH_R6_TR_S6?$AA@ 40149594     ui_main.obj
 0003:0000d5a4       ??_C@_0O@GOAHBPPF@BOTH_R6_BL_S6?$AA@ 401495a4     ui_main.obj
 0003:0000d5b4       ??_C@_0O@LBNHDGBG@BOTH_R6_BR_S6?$AA@ 401495b4     ui_main.obj
 0003:0000d5c4       ??_C@_0O@LLIIPOHD@BOTH_R6_TL_S6?$AA@ 401495c4     ui_main.obj
 0003:0000d5d4       ??_C@_0O@OJPCHFD@BOTH_R6__R_S6?$AA@ 401495d4     ui_main.obj
 0003:0000d5e4       ??_C@_0O@NBEPAOLA@BOTH_R6__L_S6?$AA@ 401495e4     ui_main.obj
 0003:0000d5f4       ??_C@_0O@EJEHPCKH@BOTH_R6_B__S6?$AA@ 401495f4     ui_main.obj
 0003:0000d604       ??_C@_0O@GEKJKMA@BOTH_S6_S6_TR?$AA@ 40149604     ui_main.obj
 0003:0000d614       ??_C@_0O@MKKAHKNN@BOTH_S6_S6_BL?$AA@ 40149614     ui_main.obj
 0003:0000d624       ??_C@_0O@BOOBEFAC@BOTH_S6_S6_BR?$AA@ 40149624     ui_main.obj
 0003:0000d634       ??_C@_0O@NCALKFBP@BOTH_S6_S6_TL?$AA@ 40149634     ui_main.obj
 0003:0000d644       ??_C@_0O@KBPHFCB@BOTH_S6_S6__R?$AA@ 40149644     ui_main.obj
 0003:0000d654       ??_C@_0O@NOFOEKPO@BOTH_S6_S6__L?$AA@ 40149654     ui_main.obj
 0003:0000d664       ??_C@_0O@LDOEOEIN@BOTH_S6_S6_T_?$AA@ 40149664     ui_main.obj
 0003:0000d674       ??_C@_0O@MNICOBIG@BOTH_T6_BL_TL?$AA@ 40149674     ui_main.obj
 0003:0000d684       ??_C@_0O@KMGNKABE@BOTH_T6_BL_T_?$AA@ 40149684     ui_main.obj
 0003:0000d694       ??_C@_0O@GKGBCPAB@BOTH_T6__L_BL?$AA@ 40149694     ui_main.obj
 0003:0000d6a4       ??_C@_0O@BDCFLBFB@BOTH_T6__L_T_?$AA@ 401496a4     ui_main.obj
 0003:0000d6b4       ??_C@_0O@KGILMPBM@BOTH_T6__L_TR?$AA@ 401496b4     ui_main.obj
 0003:0000d6c4       ??_C@_0O@BEFIOPOB@BOTH_T6_TL__L?$AA@ 401496c4     ui_main.obj
 0003:0000d6d4       ??_C@_0O@HJOCEBJC@BOTH_T6_TL_T_?$AA@ 401496d4     ui_main.obj
 0003:0000d6e4       ??_C@_0O@MMEMDPNP@BOTH_T6_TL_TR?$AA@ 401496e4     ui_main.obj
 0003:0000d6f4       ??_C@_0O@MABJNADO@BOTH_T6_TL__R?$AA@ 401496f4     ui_main.obj
 0003:0000d704       ??_C@_0O@KGDCGIHB@BOTH_T6_TR_T_?$AA@ 40149704     ui_main.obj
 0003:0000d714       ??_C@_0O@BPMJPJNN@BOTH_T6_TR__R?$AA@ 40149714     ui_main.obj
 0003:0000d724       ??_C@_0O@MMPFJILC@BOTH_T6__R_T_?$AA@ 40149724     ui_main.obj
 0003:0000d734       ??_C@_0O@GBPADJDN@BOTH_T6__R_BR?$AA@ 40149734     ui_main.obj
 0003:0000d744       ??_C@_0O@HDLNIJPH@BOTH_T6_BR_T_?$AA@ 40149744     ui_main.obj
 0003:0000d754       ??_C@_0O@MGBDPHLK@BOTH_T6_BR_TR?$AA@ 40149754     ui_main.obj
 0003:0000d764       ??_C@_0O@MBNHAOGH@BOTH_T6_BL__L?$AA@ 40149764     ui_main.obj
 0003:0000d774       ??_C@_0O@BJMDNOFJ@BOTH_T6_BL_TR?$AA@ 40149774     ui_main.obj
 0003:0000d784       ??_C@_0O@BFJGDBLI@BOTH_T6_BL__R?$AA@ 40149784     ui_main.obj
 0003:0000d794       ??_C@_0O@BGIABJL@BOTH_T6_BL_BR?$AA@ 40149794     ui_main.obj
 0003:0000d7a4       ??_C@_0O@HCMKPAMD@BOTH_T6__L_TL?$AA@ 401497a4     ui_main.obj
 0003:0000d7b4       ??_C@_0O@KKNOCAPN@BOTH_T6__L__R?$AA@ 401497b4     ui_main.obj
 0003:0000d7c4       ??_C@_0O@LOCABANO@BOTH_T6__L_BR?$AA@ 401497c4     ui_main.obj
 0003:0000d7d4       ??_C@_0O@KGNPMC@BOTH_T6_TL_BL?$AA@ 401497d4     ui_main.obj
 0003:0000d7e4       ??_C@_0O@NEOHOABN@BOTH_T6_TL_BR?$AA@ 401497e4     ui_main.obj
 0003:0000d7f4       ??_C@_0O@CHOGDCJA@BOTH_T6_T__BL?$AA@ 401497f4     ui_main.obj
 0003:0000d804       ??_C@_0O@DDBIACLD@BOTH_T6_T___L?$AA@ 40149804     ui_main.obj
 0003:0000d814       ??_C@_0O@DPENONFC@BOTH_T6_T__TL?$AA@ 40149814     ui_main.obj
 0003:0000d824       ??_C@_0O@OLAMNCIN@BOTH_T6_T__TR?$AA@ 40149824     ui_main.obj
 0003:0000d834       ??_C@_0O@OHFJDNGM@BOTH_T6_T___R?$AA@ 40149834     ui_main.obj
 0003:0000d844       ??_C@_0O@PDKHANEP@BOTH_T6_T__BR?$AA@ 40149844     ui_main.obj
 0003:0000d854       ??_C@_0O@NPHGPGCB@BOTH_T6_TR_BL?$AA@ 40149854     ui_main.obj
 0003:0000d864       ??_C@_0O@MLIIMGAC@BOTH_T6_TR__L?$AA@ 40149864     ui_main.obj
 0003:0000d874       ??_C@_0O@MHNNCJOD@BOTH_T6_TR_TL?$AA@ 40149874     ui_main.obj
 0003:0000d884       ??_C@_0O@LDHMJPO@BOTH_T6_TR_BR?$AA@ 40149884     ui_main.obj
 0003:0000d894       ??_C@_0O@LFLBAGOC@BOTH_T6__R_BL?$AA@ 40149894     ui_main.obj
 0003:0000d8a4       ??_C@_0O@KBEPDGMB@BOTH_T6__R__L?$AA@ 401498a4     ui_main.obj
 0003:0000d8b4       ??_C@_0O@KNBKNJCA@BOTH_T6__R_TL?$AA@ 401498b4     ui_main.obj
 0003:0000d8c4       ??_C@_0O@HJFLOGPP@BOTH_T6__R_TR?$AA@ 401498c4     ui_main.obj
 0003:0000d8d4       ??_C@_0O@KPJBHKH@BOTH_T6_BR_BL?$AA@ 401498d4     ui_main.obj
 0003:0000d8e4       ??_C@_0O@BOAHCHIE@BOTH_T6_BR__L?$AA@ 401498e4     ui_main.obj
 0003:0000d8f4       ??_C@_0O@BCFCMIGF@BOTH_T6_BR_TL?$AA@ 401498f4     ui_main.obj
 0003:0000d904       ??_C@_0O@MKEGBIFL@BOTH_T6_BR__R?$AA@ 40149904     ui_main.obj
 0003:0000d914       ??_C@_0O@DJCBPBBP@BOTH_A6_TR_BL?$AA@ 40149914     ui_main.obj
 0003:0000d924       ??_C@_0O@PPJENJGH@BOTH_A6_BL_TR?$AA@ 40149924     ui_main.obj
 0003:0000d934       ??_C@_0O@PEAFMPFL@BOTH_A6_BR_TL?$AA@ 40149934     ui_main.obj
 0003:0000d944       ??_C@_0O@DCLAOHCD@BOTH_A6_TL_BR?$AA@ 40149944     ui_main.obj
 0003:0000d954       ??_C@_0O@EHBIDBPP@BOTH_A6__R__L?$AA@ 40149954     ui_main.obj
 0003:0000d964       ??_C@_0O@EMIJCHMD@BOTH_A6__L__R?$AA@ 40149964     ui_main.obj
 0003:0000d974       ??_C@_0O@KAFOHEDM@BOTH_A6_T__B_?$AA@ 40149974     ui_main.obj
 0003:0000d984       ??_C@_0O@KFDHOHDF@BOTH_D5_B____?$AA@ 40149984     ui_main.obj
 0003:0000d994       ??_C@_0O@ICHHAKGH@BOTH_D5_BL___?$AA@ 40149994     ui_main.obj
 0003:0000d9a4       ??_C@_0O@DNDPBLCC@BOTH_D5__L___?$AA@ 401499a4     ui_main.obj
 0003:0000d9b4       ??_C@_0O@FHPIOLOB@BOTH_D5_TL___?$AA@ 401499b4     ui_main.obj
 0003:0000d9c4       ??_C@_0O@IICIMCAC@BOTH_D5_TR___?$AA@ 401499c4     ui_main.obj
 0003:0000d9d4       ??_C@_0O@OCOPDCMB@BOTH_D5__R___?$AA@ 401499d4     ui_main.obj
 0003:0000d9e4       ??_C@_0O@FNKHCDIE@BOTH_D5_BR___?$AA@ 401499e4     ui_main.obj
 0003:0000d9f4       ??_C@_0O@PBGNHDON@BOTH_B5_BL___?$AA@ 401499f4     ui_main.obj
 0003:0000da04       ??_C@_0O@EOCFGCKI@BOTH_B5__L___?$AA@ 40149a04     ui_main.obj
 0003:0000da14       ??_C@_0O@CEOCJCGL@BOTH_B5_TL___?$AA@ 40149a14     ui_main.obj
 0003:0000da24       ??_C@_0O@DKCHPDJ@BOTH_B5_T____?$AA@ 40149a24     ui_main.obj
 0003:0000da34       ??_C@_0O@PLDCLLII@BOTH_B5_TR___?$AA@ 40149a34     ui_main.obj
 0003:0000da44       ??_C@_0O@JBPFELEL@BOTH_B5__R___?$AA@ 40149a44     ui_main.obj
 0003:0000da54       ??_C@_0O@COLNFKAO@BOTH_B5_BR___?$AA@ 40149a54     ui_main.obj
 0003:0000da64       ??_C@_0O@KFJGEGLE@BOTH_R5_TR_S1?$AA@ 40149a64     ui_main.obj
 0003:0000da74       ??_C@_0O@KPMJIONB@BOTH_R5_BL_S1?$AA@ 40149a74     ui_main.obj
 0003:0000da84       ??_C@_0O@HABJKHDC@BOTH_R5_BR_S1?$AA@ 40149a84     ui_main.obj
 0003:0000da94       ??_C@_0O@HKEGGPFH@BOTH_R5_TL_S1?$AA@ 40149a94     ui_main.obj
 0003:0000daa4       ??_C@_0O@MPFBLGHH@BOTH_R5__R_S1?$AA@ 40149aa4     ui_main.obj
 0003:0000dab4       ??_C@_0O@BAIBJPJE@BOTH_R5__L_S1?$AA@ 40149ab4     ui_main.obj
 0003:0000dac4       ??_C@_0O@IIIJGDID@BOTH_R5_B__S1?$AA@ 40149ac4     ui_main.obj
 0003:0000dad4       ??_C@_0O@DKOFEBDD@BOTH_S5_S1_TR?$AA@ 40149ad4     ui_main.obj
 0003:0000dae4       ??_C@_0O@PGAPKBCO@BOTH_S5_S1_BL?$AA@ 40149ae4     ui_main.obj
 0003:0000daf4       ??_C@_0O@CCEOJOPB@BOTH_S5_S1_BR?$AA@ 40149af4     ui_main.obj
 0003:0000db04       ??_C@_0O@OOKEHOOM@BOTH_S5_S1_TL?$AA@ 40149b04     ui_main.obj
 0003:0000db14       ??_C@_0O@DGLAKONC@BOTH_S5_S1__R?$AA@ 40149b14     ui_main.obj
 0003:0000db24       ??_C@_0O@OCPBJBAN@BOTH_S5_S1__L?$AA@ 40149b24     ui_main.obj
 0003:0000db34       ??_C@_0O@IPELDPHO@BOTH_S5_S1_T_?$AA@ 40149b34     ui_main.obj
 0003:0000db44       ??_C@_0O@EDANOGGF@BOTH_T5_BL_TL?$AA@ 40149b44     ui_main.obj
 0003:0000db54       ??_C@_0O@CCOCKHPH@BOTH_T5_BL_T_?$AA@ 40149b54     ui_main.obj
 0003:0000db64       ??_C@_0O@OEOOCIOC@BOTH_T5__L_BL?$AA@ 40149b64     ui_main.obj
 0003:0000db74       ??_C@_0O@JNKKLGLC@BOTH_T5__L_T_?$AA@ 40149b74     ui_main.obj
 0003:0000db84       ??_C@_0O@CIAEMIPP@BOTH_T5__L_TR?$AA@ 40149b84     ui_main.obj
 0003:0000db94       ??_C@_0O@JKNHOIAC@BOTH_T5_TL__L?$AA@ 40149b94     ui_main.obj
 0003:0000dba4       ??_C@_0O@PHGNEGHB@BOTH_T5_TL_T_?$AA@ 40149ba4     ui_main.obj
 0003:0000dbb4       ??_C@_0O@ECMDDIDM@BOTH_T5_TL_TR?$AA@ 40149bb4     ui_main.obj
 0003:0000dbc4       ??_C@_0O@EOJGNHNN@BOTH_T5_TL__R?$AA@ 40149bc4     ui_main.obj
 0003:0000dbd4       ??_C@_0O@CILNGPJC@BOTH_T5_TR_T_?$AA@ 40149bd4     ui_main.obj
 0003:0000dbe4       ??_C@_0O@JBEGPODO@BOTH_T5_TR__R?$AA@ 40149be4     ui_main.obj
 0003:0000dbf4       ??_C@_0O@ECHKJPFB@BOTH_T5__R_T_?$AA@ 40149bf4     ui_main.obj
 0003:0000dc04       ??_C@_0O@OPHPDONO@BOTH_T5__R_BR?$AA@ 40149c04     ui_main.obj
 0003:0000dc14       ??_C@_0O@PNDCIOBE@BOTH_T5_BR_T_?$AA@ 40149c14     ui_main.obj
 0003:0000dc24       ??_C@_0O@EIJMPAFJ@BOTH_T5_BR_TR?$AA@ 40149c24     ui_main.obj
 0003:0000dc34       ??_C@_0O@EPFIAJIE@BOTH_T5_BL__L?$AA@ 40149c34     ui_main.obj
 0003:0000dc44       ??_C@_0O@JHEMNJLK@BOTH_T5_BL_TR?$AA@ 40149c44     ui_main.obj
 0003:0000dc54       ??_C@_0O@JLBJDGFL@BOTH_T5_BL__R?$AA@ 40149c54     ui_main.obj
 0003:0000dc64       ??_C@_0O@IPOHAGHI@BOTH_T5_BL_BR?$AA@ 40149c64     ui_main.obj
 0003:0000dc74       ??_C@_0O@PMEFPHCA@BOTH_T5__L_TL?$AA@ 40149c74     ui_main.obj
 0003:0000dc84       ??_C@_0O@CEFBCHBO@BOTH_T5__L__R?$AA@ 40149c84     ui_main.obj
 0003:0000dc94       ??_C@_0O@DAKPBHDN@BOTH_T5__L_BR?$AA@ 40149c94     ui_main.obj
 0003:0000dca4       ??_C@_0O@IOCJNICB@BOTH_T5_TL_BL?$AA@ 40149ca4     ui_main.obj
 0003:0000dcb4       ??_C@_0O@FKGIOHPO@BOTH_T5_TL_BR?$AA@ 40149cb4     ui_main.obj
 0003:0000dcc4       ??_C@_0O@KJGJDFHD@BOTH_T5_T__BL?$AA@ 40149cc4     ui_main.obj
 0003:0000dcd4       ??_C@_0O@LNJHAFFA@BOTH_T5_T___L?$AA@ 40149cd4     ui_main.obj
 0003:0000dce4       ??_C@_0O@LBMCOKLB@BOTH_T5_T__TL?$AA@ 40149ce4     ui_main.obj
 0003:0000dcf4       ??_C@_0O@GFIDNFGO@BOTH_T5_T__TR?$AA@ 40149cf4     ui_main.obj
 0003:0000dd04       ??_C@_0O@GJNGDKIP@BOTH_T5_T___R?$AA@ 40149d04     ui_main.obj
 0003:0000dd14       ??_C@_0O@HNCIAKKM@BOTH_T5_T__BR?$AA@ 40149d14     ui_main.obj
 0003:0000dd24       ??_C@_0O@FBPJPBMC@BOTH_T5_TR_BL?$AA@ 40149d24     ui_main.obj
 0003:0000dd34       ??_C@_0O@EFAHMBOB@BOTH_T5_TR__L?$AA@ 40149d34     ui_main.obj
 0003:0000dd44       ??_C@_0O@EJFCCOAA@BOTH_T5_TR_TL?$AA@ 40149d44     ui_main.obj
 0003:0000dd54       ??_C@_0O@IFLIMOBN@BOTH_T5_TR_BR?$AA@ 40149d54     ui_main.obj
 0003:0000dd64       ??_C@_0O@DLDOABAB@BOTH_T5__R_BL?$AA@ 40149d64     ui_main.obj
 0003:0000dd74       ??_C@_0O@CPMADBCC@BOTH_T5__R__L?$AA@ 40149d74     ui_main.obj
 0003:0000dd84       ??_C@_0O@CDJFNOMD@BOTH_T5__R_TL?$AA@ 40149d84     ui_main.obj
 0003:0000dd94       ??_C@_0O@PHNEOBBM@BOTH_T5__R_TR?$AA@ 40149d94     ui_main.obj
 0003:0000dda4       ??_C@_0O@IEHGBAEE@BOTH_T5_BR_BL?$AA@ 40149da4     ui_main.obj
 0003:0000ddb4       ??_C@_0O@JAIICAGH@BOTH_T5_BR__L?$AA@ 40149db4     ui_main.obj
 0003:0000ddc4       ??_C@_0O@JMNNMPIG@BOTH_T5_BR_TL?$AA@ 40149dc4     ui_main.obj
 0003:0000ddd4       ??_C@_0O@EEMJBPLI@BOTH_T5_BR__R?$AA@ 40149dd4     ui_main.obj
 0003:0000dde4       ??_C@_0O@LHKOPGPM@BOTH_A5_TR_BL?$AA@ 40149de4     ui_main.obj
 0003:0000ddf4       ??_C@_0O@HBBLNOIE@BOTH_A5_BL_TR?$AA@ 40149df4     ui_main.obj
 0003:0000de04       ??_C@_0O@HKIKMILI@BOTH_A5_BR_TL?$AA@ 40149e04     ui_main.obj
 0003:0000de14       ??_C@_0O@LMDPOAMA@BOTH_A5_TL_BR?$AA@ 40149e14     ui_main.obj
 0003:0000de24       ??_C@_0O@MJJHDGBM@BOTH_A5__R__L?$AA@ 40149e24     ui_main.obj
 0003:0000de34       ??_C@_0O@MCAGCACA@BOTH_A5__L__R?$AA@ 40149e34     ui_main.obj
 0003:0000de44       ??_C@_0O@CONBHDNP@BOTH_A5_T__B_?$AA@ 40149e44     ui_main.obj
 0003:0000de54       ??_C@_0O@GJJNOHKL@BOTH_D4_B____?$AA@ 40149e54     ui_main.obj
 0003:0000de64       ??_C@_0O@EONNAKPJ@BOTH_D4_BL___?$AA@ 40149e64     ui_main.obj
 0003:0000de74       ??_C@_0O@PBJFBLLM@BOTH_D4__L___?$AA@ 40149e74     ui_main.obj
 0003:0000de84       ??_C@_0O@JLFCOLHP@BOTH_D4_TL___?$AA@ 40149e84     ui_main.obj
 0003:0000de94       ??_C@_0O@EEICMCJM@BOTH_D4_TR___?$AA@ 40149e94     ui_main.obj
 0003:0000dea4       ??_C@_0O@COEFDCFP@BOTH_D4__R___?$AA@ 40149ea4     ui_main.obj
 0003:0000deb4       ??_C@_0O@JBANCDBK@BOTH_D4_BR___?$AA@ 40149eb4     ui_main.obj
 0003:0000dec4       ??_C@_0O@DNMHHDHD@BOTH_B4_BL___?$AA@ 40149ec4     ui_main.obj
 0003:0000ded4       ??_C@_0O@ICIPGCDG@BOTH_B4__L___?$AA@ 40149ed4     ui_main.obj
 0003:0000dee4       ??_C@_0O@OIEIJCPF@BOTH_B4_TL___?$AA@ 40149ee4     ui_main.obj
 0003:0000def4       ??_C@_0O@MPAIHPKH@BOTH_B4_T____?$AA@ 40149ef4     ui_main.obj
 0003:0000df04       ??_C@_0O@DHJILLBG@BOTH_B4_TR___?$AA@ 40149f04     ui_main.obj
 0003:0000df14       ??_C@_0O@FNFPELNF@BOTH_B4__R___?$AA@ 40149f14     ui_main.obj
 0003:0000df24       ??_C@_0O@OCBHFKJA@BOTH_B4_BR___?$AA@ 40149f24     ui_main.obj
 0003:0000df34       ??_C@_0O@GJDMEGCK@BOTH_R4_TR_S1?$AA@ 40149f34     ui_main.obj
 0003:0000df44       ??_C@_0O@GDGDIOEP@BOTH_R4_BL_S1?$AA@ 40149f44     ui_main.obj
 0003:0000df54       ??_C@_0O@LMLDKHKM@BOTH_R4_BR_S1?$AA@ 40149f54     ui_main.obj
 0003:0000df64       ??_C@_0O@LGOMGPMJ@BOTH_R4_TL_S1?$AA@ 40149f64     ui_main.obj
 0003:0000df74       ??_C@_0O@DPLLGOJ@BOTH_R4__R_S1?$AA@ 40149f74     ui_main.obj
 0003:0000df84       ??_C@_0O@NMCLJPAK@BOTH_R4__L_S1?$AA@ 40149f84     ui_main.obj
 0003:0000df94       ??_C@_0O@EECDGDBN@BOTH_R4_B__S1?$AA@ 40149f94     ui_main.obj
 0003:0000dfa4       ??_C@_0O@PGEPEBKN@BOTH_S4_S1_TR?$AA@ 40149fa4     ui_main.obj
 0003:0000dfb4       ??_C@_0O@DKKFKBLA@BOTH_S4_S1_BL?$AA@ 40149fb4     ui_main.obj
 0003:0000dfc4       ??_C@_0O@OOOEJOGP@BOTH_S4_S1_BR?$AA@ 40149fc4     ui_main.obj
 0003:0000dfd4       ??_C@_0O@CCAOHOHC@BOTH_S4_S1_TL?$AA@ 40149fd4     ui_main.obj
 0003:0000dfe4       ??_C@_0O@PKBKKOEM@BOTH_S4_S1__R?$AA@ 40149fe4     ui_main.obj
 0003:0000dff4       ??_C@_0O@COFLJBJD@BOTH_S4_S1__L?$AA@ 40149ff4     ui_main.obj
 0003:0000e004       ??_C@_0O@EDOBDPOA@BOTH_S4_S1_T_?$AA@ 4014a004     ui_main.obj
 0003:0000e014       ??_C@_0O@IPKHOGPL@BOTH_T4_BL_TL?$AA@ 4014a014     ui_main.obj
 0003:0000e024       ??_C@_0O@OOEIKHGJ@BOTH_T4_BL_T_?$AA@ 4014a024     ui_main.obj
 0003:0000e034       ??_C@_0O@CIEECIHM@BOTH_T4__L_BL?$AA@ 4014a034     ui_main.obj
 0003:0000e044       ??_C@_0O@FBAALGCM@BOTH_T4__L_T_?$AA@ 4014a044     ui_main.obj
 0003:0000e054       ??_C@_0O@OEKOMIGB@BOTH_T4__L_TR?$AA@ 4014a054     ui_main.obj
 0003:0000e064       ??_C@_0O@FGHNOIJM@BOTH_T4_TL__L?$AA@ 4014a064     ui_main.obj
 0003:0000e074       ??_C@_0O@DLMHEGOP@BOTH_T4_TL_T_?$AA@ 4014a074     ui_main.obj
 0003:0000e084       ??_C@_0O@IOGJDIKC@BOTH_T4_TL_TR?$AA@ 4014a084     ui_main.obj
 0003:0000e094       ??_C@_0O@ICDMNHED@BOTH_T4_TL__R?$AA@ 4014a094     ui_main.obj
 0003:0000e0a4       ??_C@_0O@OEBHGPAM@BOTH_T4_TR_T_?$AA@ 4014a0a4     ui_main.obj
 0003:0000e0b4       ??_C@_0O@FNOMPOKA@BOTH_T4_TR__R?$AA@ 4014a0b4     ui_main.obj
 0003:0000e0c4       ??_C@_0O@IONAJPMP@BOTH_T4__R_T_?$AA@ 4014a0c4     ui_main.obj
 0003:0000e0d4       ??_C@_0O@CDNFDOEA@BOTH_T4__R_BR?$AA@ 4014a0d4     ui_main.obj
 0003:0000e0e4       ??_C@_0O@DBJIIOIK@BOTH_T4_BR_T_?$AA@ 4014a0e4     ui_main.obj
 0003:0000e0f4       ??_C@_0O@IEDGPAMH@BOTH_T4_BR_TR?$AA@ 4014a0f4     ui_main.obj
 0003:0000e104       ??_C@_0O@IDPCAJBK@BOTH_T4_BL__L?$AA@ 4014a104     ui_main.obj
 0003:0000e114       ??_C@_0O@FLOGNJCE@BOTH_T4_BL_TR?$AA@ 4014a114     ui_main.obj
 0003:0000e124       ??_C@_0O@FHLDDGMF@BOTH_T4_BL__R?$AA@ 4014a124     ui_main.obj
 0003:0000e134       ??_C@_0O@EDENAGOG@BOTH_T4_BL_BR?$AA@ 4014a134     ui_main.obj
 0003:0000e144       ??_C@_0O@DAOPPHLO@BOTH_T4__L_TL?$AA@ 4014a144     ui_main.obj
 0003:0000e154       ??_C@_0O@OIPLCHIA@BOTH_T4__L__R?$AA@ 4014a154     ui_main.obj
 0003:0000e164       ??_C@_0O@PMAFBHKD@BOTH_T4__L_BR?$AA@ 4014a164     ui_main.obj
 0003:0000e174       ??_C@_0O@ECIDNILP@BOTH_T4_TL_BL?$AA@ 4014a174     ui_main.obj
 0003:0000e184       ??_C@_0O@JGMCOHGA@BOTH_T4_TL_BR?$AA@ 4014a184     ui_main.obj
 0003:0000e194       ??_C@_0O@GFMDDFON@BOTH_T4_T__BL?$AA@ 4014a194     ui_main.obj
 0003:0000e1a4       ??_C@_0O@HBDNAFMO@BOTH_T4_T___L?$AA@ 4014a1a4     ui_main.obj
 0003:0000e1b4       ??_C@_0O@HNGIOKCP@BOTH_T4_T__TL?$AA@ 4014a1b4     ui_main.obj
 0003:0000e1c4       ??_C@_0O@KJCJNFPA@BOTH_T4_T__TR?$AA@ 4014a1c4     ui_main.obj
 0003:0000e1d4       ??_C@_0O@KFHMDKBB@BOTH_T4_T___R?$AA@ 4014a1d4     ui_main.obj
 0003:0000e1e4       ??_C@_0O@LBICAKDC@BOTH_T4_T__BR?$AA@ 4014a1e4     ui_main.obj
 0003:0000e1f4       ??_C@_0O@JNFDPBFM@BOTH_T4_TR_BL?$AA@ 4014a1f4     ui_main.obj
 0003:0000e204       ??_C@_0O@IJKNMBHP@BOTH_T4_TR__L?$AA@ 4014a204     ui_main.obj
 0003:0000e214       ??_C@_0O@IFPICOJO@BOTH_T4_TR_TL?$AA@ 4014a214     ui_main.obj
 0003:0000e224       ??_C@_0O@EJBCMOID@BOTH_T4_TR_BR?$AA@ 4014a224     ui_main.obj
 0003:0000e234       ??_C@_0O@PHJEABJP@BOTH_T4__R_BL?$AA@ 4014a234     ui_main.obj
 0003:0000e244       ??_C@_0O@ODGKDBLM@BOTH_T4__R__L?$AA@ 4014a244     ui_main.obj
 0003:0000e254       ??_C@_0O@OPDPNOFN@BOTH_T4__R_TL?$AA@ 4014a254     ui_main.obj
 0003:0000e264       ??_C@_0O@DLHOOBIC@BOTH_T4__R_TR?$AA@ 4014a264     ui_main.obj
 0003:0000e274       ??_C@_0O@EINMBANK@BOTH_T4_BR_BL?$AA@ 4014a274     ui_main.obj
 0003:0000e284       ??_C@_0O@FMCCCAPJ@BOTH_T4_BR__L?$AA@ 4014a284     ui_main.obj
 0003:0000e294       ??_C@_0O@FAHHMPBI@BOTH_T4_BR_TL?$AA@ 4014a294     ui_main.obj
 0003:0000e2a4       ??_C@_0O@IIGDBPCG@BOTH_T4_BR__R?$AA@ 4014a2a4     ui_main.obj
 0003:0000e2b4       ??_C@_0O@HLAEPGGC@BOTH_A4_TR_BL?$AA@ 4014a2b4     ui_main.obj
 0003:0000e2c4       ??_C@_0O@LNLBNOBK@BOTH_A4_BL_TR?$AA@ 4014a2c4     ui_main.obj
 0003:0000e2d4       ??_C@_0O@LGCAMICG@BOTH_A4_BR_TL?$AA@ 4014a2d4     ui_main.obj
 0003:0000e2e4       ??_C@_0O@HAJFOAFO@BOTH_A4_TL_BR?$AA@ 4014a2e4     ui_main.obj
 0003:0000e2f4       ??_C@_0O@FDNDGIC@BOTH_A4__R__L?$AA@ 4014a2f4     ui_main.obj
 0003:0000e304       ??_C@_0O@OKMCALO@BOTH_A4__L__R?$AA@ 4014a304     ui_main.obj
 0003:0000e314       ??_C@_0O@OCHLHDEB@BOTH_A4_T__B_?$AA@ 4014a314     ui_main.obj
 0003:0000e324       ??_C@_0O@GDFIOOLC@BOTH_D3_B____?$AA@ 4014a324     ui_main.obj
 0003:0000e334       ??_C@_0O@EEBIADOA@BOTH_D3_BL___?$AA@ 4014a334     ui_main.obj
 0003:0000e344       ??_C@_0O@PLFABCKF@BOTH_D3__L___?$AA@ 4014a344     ui_main.obj
 0003:0000e354       ??_C@_0O@JBJHOCGG@BOTH_D3_TL___?$AA@ 4014a354     ui_main.obj
 0003:0000e364       ??_C@_0O@EOEHMLIF@BOTH_D3_TR___?$AA@ 4014a364     ui_main.obj
 0003:0000e374       ??_C@_0O@CEIADLEG@BOTH_D3__R___?$AA@ 4014a374     ui_main.obj
 0003:0000e384       ??_C@_0O@JLMICKAD@BOTH_D3_BR___?$AA@ 4014a384     ui_main.obj
 0003:0000e394       ??_C@_0O@DHACHKGK@BOTH_B3_BL___?$AA@ 4014a394     ui_main.obj
 0003:0000e3a4       ??_C@_0O@IIEKGLCP@BOTH_B3__L___?$AA@ 4014a3a4     ui_main.obj
 0003:0000e3b4       ??_C@_0O@OCINJLOM@BOTH_B3_TL___?$AA@ 4014a3b4     ui_main.obj
 0003:0000e3c4       ??_C@_0O@MFMNHGLO@BOTH_B3_T____?$AA@ 4014a3c4     ui_main.obj
 0003:0000e3d4       ??_C@_0O@DNFNLCAP@BOTH_B3_TR___?$AA@ 4014a3d4     ui_main.obj
 0003:0000e3e4       ??_C@_0O@FHJKECMM@BOTH_B3__R___?$AA@ 4014a3e4     ui_main.obj
 0003:0000e3f4       ??_C@_0O@OINCFDIJ@BOTH_B3_BR___?$AA@ 4014a3f4     ui_main.obj
 0003:0000e404       ??_C@_0O@GDPJEPDD@BOTH_R3_TR_S1?$AA@ 4014a404     ui_main.obj
 0003:0000e414       ??_C@_0O@GJKGIHFG@BOTH_R3_BL_S1?$AA@ 4014a414     ui_main.obj
 0003:0000e424       ??_C@_0O@LGHGKOLF@BOTH_R3_BR_S1?$AA@ 4014a424     ui_main.obj
 0003:0000e434       ??_C@_0O@LMCJGGNA@BOTH_R3_TL_S1?$AA@ 4014a434     ui_main.obj
 0003:0000e444       ??_C@_0O@JDOLPPA@BOTH_R3__R_S1?$AA@ 4014a444     ui_main.obj
 0003:0000e454       ??_C@_0O@NGOOJGBD@BOTH_R3__L_S1?$AA@ 4014a454     ui_main.obj
 0003:0000e464       ??_C@_0O@EOOGGKAE@BOTH_R3_B__S1?$AA@ 4014a464     ui_main.obj
 0003:0000e474       ??_C@_0O@PMIKEILE@BOTH_S3_S1_TR?$AA@ 4014a474     ui_main.obj
 0003:0000e484       ??_C@_0O@DAGAKIKJ@BOTH_S3_S1_BL?$AA@ 4014a484     ui_main.obj
 0003:0000e494       ??_C@_0O@OECBJHHG@BOTH_S3_S1_BR?$AA@ 4014a494     ui_main.obj
 0003:0000e4a4       ??_C@_0O@CIMLHHGL@BOTH_S3_S1_TL?$AA@ 4014a4a4     ui_main.obj
 0003:0000e4b4       ??_C@_0O@PANPKHFF@BOTH_S3_S1__R?$AA@ 4014a4b4     ui_main.obj
 0003:0000e4c4       ??_C@_0O@CEJOJIIK@BOTH_S3_S1__L?$AA@ 4014a4c4     ui_main.obj
 0003:0000e4d4       ??_C@_0O@EJCEDGPJ@BOTH_S3_S1_T_?$AA@ 4014a4d4     ui_main.obj
 0003:0000e4e4       ??_C@_0O@IFGCOPOC@BOTH_T3_BL_TL?$AA@ 4014a4e4     ui_main.obj
 0003:0000e4f4       ??_C@_0O@OEINKOHA@BOTH_T3_BL_T_?$AA@ 4014a4f4     ui_main.obj
 0003:0000e504       ??_C@_0O@CCIBCBGF@BOTH_T3__L_BL?$AA@ 4014a504     ui_main.obj
 0003:0000e514       ??_C@_0O@FLMFLPDF@BOTH_T3__L_T_?$AA@ 4014a514     ui_main.obj
 0003:0000e524       ??_C@_0O@OOGLMBHI@BOTH_T3__L_TR?$AA@ 4014a524     ui_main.obj
 0003:0000e534       ??_C@_0O@FMLIOBIF@BOTH_T3_TL__L?$AA@ 4014a534     ui_main.obj
 0003:0000e544       ??_C@_0O@DBACEPPG@BOTH_T3_TL_T_?$AA@ 4014a544     ui_main.obj
 0003:0000e554       ??_C@_0O@IEKMDBLL@BOTH_T3_TL_TR?$AA@ 4014a554     ui_main.obj
 0003:0000e564       ??_C@_0O@IIPJNOFK@BOTH_T3_TL__R?$AA@ 4014a564     ui_main.obj
 0003:0000e574       ??_C@_0O@OONCGGBF@BOTH_T3_TR_T_?$AA@ 4014a574     ui_main.obj
 0003:0000e584       ??_C@_0O@FHCJPHLJ@BOTH_T3_TR__R?$AA@ 4014a584     ui_main.obj
 0003:0000e594       ??_C@_0O@IEBFJGNG@BOTH_T3__R_T_?$AA@ 4014a594     ui_main.obj
 0003:0000e5a4       ??_C@_0O@CJBADHFJ@BOTH_T3__R_BR?$AA@ 4014a5a4     ui_main.obj
 0003:0000e5b4       ??_C@_0O@DLFNIHJD@BOTH_T3_BR_T_?$AA@ 4014a5b4     ui_main.obj
 0003:0000e5c4       ??_C@_0O@IOPDPJNO@BOTH_T3_BR_TR?$AA@ 4014a5c4     ui_main.obj
 0003:0000e5d4       ??_C@_0O@IJDHAAAD@BOTH_T3_BL__L?$AA@ 4014a5d4     ui_main.obj
 0003:0000e5e4       ??_C@_0O@FBCDNADN@BOTH_T3_BL_TR?$AA@ 4014a5e4     ui_main.obj
 0003:0000e5f4       ??_C@_0O@FNHGDPNM@BOTH_T3_BL__R?$AA@ 4014a5f4     ui_main.obj
 0003:0000e604       ??_C@_0O@EJIIAPPP@BOTH_T3_BL_BR?$AA@ 4014a604     ui_main.obj
 0003:0000e614       ??_C@_0O@DKCKPOKH@BOTH_T3__L_TL?$AA@ 4014a614     ui_main.obj
 0003:0000e624       ??_C@_0O@OCDOCOJJ@BOTH_T3__L__R?$AA@ 4014a624     ui_main.obj
 0003:0000e634       ??_C@_0O@PGMABOLK@BOTH_T3__L_BR?$AA@ 4014a634     ui_main.obj
 0003:0000e644       ??_C@_0O@EIEGNBKG@BOTH_T3_TL_BL?$AA@ 4014a644     ui_main.obj
 0003:0000e654       ??_C@_0O@JMAHOOHJ@BOTH_T3_TL_BR?$AA@ 4014a654     ui_main.obj
 0003:0000e664       ??_C@_0O@GPAGDMPE@BOTH_T3_T__BL?$AA@ 4014a664     ui_main.obj
 0003:0000e674       ??_C@_0O@HLPIAMNH@BOTH_T3_T___L?$AA@ 4014a674     ui_main.obj
 0003:0000e684       ??_C@_0O@HHKNODDG@BOTH_T3_T__TL?$AA@ 4014a684     ui_main.obj
 0003:0000e694       ??_C@_0O@KDOMNMOJ@BOTH_T3_T__TR?$AA@ 4014a694     ui_main.obj
 0003:0000e6a4       ??_C@_0O@KPLJDDAI@BOTH_T3_T___R?$AA@ 4014a6a4     ui_main.obj
 0003:0000e6b4       ??_C@_0O@LLEHADCL@BOTH_T3_T__BR?$AA@ 4014a6b4     ui_main.obj
 0003:0000e6c4       ??_C@_0O@JHJGPIEF@BOTH_T3_TR_BL?$AA@ 4014a6c4     ui_main.obj
 0003:0000e6d4       ??_C@_0O@IDGIMIGG@BOTH_T3_TR__L?$AA@ 4014a6d4     ui_main.obj
 0003:0000e6e4       ??_C@_0O@IPDNCHIH@BOTH_T3_TR_TL?$AA@ 4014a6e4     ui_main.obj
 0003:0000e6f4       ??_C@_0O@EDNHMHJK@BOTH_T3_TR_BR?$AA@ 4014a6f4     ui_main.obj
 0003:0000e704       ??_C@_0O@PNFBAIIG@BOTH_T3__R_BL?$AA@ 4014a704     ui_main.obj
 0003:0000e714       ??_C@_0O@OJKPDIKF@BOTH_T3__R__L?$AA@ 4014a714     ui_main.obj
 0003:0000e724       ??_C@_0O@OFPKNHEE@BOTH_T3__R_TL?$AA@ 4014a724     ui_main.obj
 0003:0000e734       ??_C@_0O@DBLLOIJL@BOTH_T3__R_TR?$AA@ 4014a734     ui_main.obj
 0003:0000e744       ??_C@_0O@ECBJBJMD@BOTH_T3_BR_BL?$AA@ 4014a744     ui_main.obj
 0003:0000e754       ??_C@_0O@FGOHCJOA@BOTH_T3_BR__L?$AA@ 4014a754     ui_main.obj
 0003:0000e764       ??_C@_0O@FKLCMGAB@BOTH_T3_BR_TL?$AA@ 4014a764     ui_main.obj
 0003:0000e774       ??_C@_0O@ICKGBGDP@BOTH_T3_BR__R?$AA@ 4014a774     ui_main.obj
 0003:0000e784       ??_C@_0O@HBMBPPHL@BOTH_A3_TR_BL?$AA@ 4014a784     ui_main.obj
 0003:0000e794       ??_C@_0O@LHHENHAD@BOTH_A3_BL_TR?$AA@ 4014a794     ui_main.obj
 0003:0000e7a4       ??_C@_0O@LMOFMBDP@BOTH_A3_BR_TL?$AA@ 4014a7a4     ui_main.obj
 0003:0000e7b4       ??_C@_0O@HKFAOJEH@BOTH_A3_TL_BR?$AA@ 4014a7b4     ui_main.obj
 0003:0000e7c4       ??_C@_0O@PPIDPJL@BOTH_A3__R__L?$AA@ 4014a7c4     ui_main.obj
 0003:0000e7d4       ??_C@_0O@EGJCJKH@BOTH_A3__L__R?$AA@ 4014a7d4     ui_main.obj
 0003:0000e7e4       ??_C@_0O@OILOHKFI@BOTH_A3_T__B_?$AA@ 4014a7e4     ui_main.obj
 0003:0000e7f4       ??_C@_0O@KPPCOOCM@BOTH_D2_B____?$AA@ 4014a7f4     ui_main.obj
 0003:0000e804       ??_C@_0O@IILCADHO@BOTH_D2_BL___?$AA@ 4014a804     ui_main.obj
 0003:0000e814       ??_C@_0O@DHPKBCDL@BOTH_D2__L___?$AA@ 4014a814     ui_main.obj
 0003:0000e824       ??_C@_0O@FNDNOCPI@BOTH_D2_TL___?$AA@ 4014a824     ui_main.obj
 0003:0000e834       ??_C@_0O@ICONMLBL@BOTH_D2_TR___?$AA@ 4014a834     ui_main.obj
 0003:0000e844       ??_C@_0O@OICKDLNI@BOTH_D2__R___?$AA@ 4014a844     ui_main.obj
 0003:0000e854       ??_C@_0O@FHGCCKJN@BOTH_D2_BR___?$AA@ 4014a854     ui_main.obj
 0003:0000e864       ??_C@_0O@PLKIHKPE@BOTH_B2_BL___?$AA@ 4014a864     ui_main.obj
 0003:0000e874       ??_C@_0O@EEOAGLLB@BOTH_B2__L___?$AA@ 4014a874     ui_main.obj
 0003:0000e884       ??_C@_0O@COCHJLHC@BOTH_B2_TL___?$AA@ 4014a884     ui_main.obj
 0003:0000e894       ??_C@_0O@JGHHGCA@BOTH_B2_T____?$AA@ 4014a894     ui_main.obj
 0003:0000e8a4       ??_C@_0O@PBPHLCJB@BOTH_B2_TR___?$AA@ 4014a8a4     ui_main.obj
 0003:0000e8b4       ??_C@_0O@JLDAECFC@BOTH_B2__R___?$AA@ 4014a8b4     ui_main.obj
 0003:0000e8c4       ??_C@_0O@CEHIFDBH@BOTH_B2_BR___?$AA@ 4014a8c4     ui_main.obj
 0003:0000e8d4       ??_C@_0O@KPFDEPKN@BOTH_R2_TR_S1?$AA@ 4014a8d4     ui_main.obj
 0003:0000e8e4       ??_C@_0O@KFAMIHMI@BOTH_R2_BL_S1?$AA@ 4014a8e4     ui_main.obj
 0003:0000e8f4       ??_C@_0O@HKNMKOCL@BOTH_R2_BR_S1?$AA@ 4014a8f4     ui_main.obj
 0003:0000e904       ??_C@_0O@HAIDGGEO@BOTH_R2_TL_S1?$AA@ 4014a904     ui_main.obj
 0003:0000e914       ??_C@_0O@MFJELPGO@BOTH_R2__R_S1?$AA@ 4014a914     ui_main.obj
 0003:0000e924       ??_C@_0O@BKEEJGIN@BOTH_R2__L_S1?$AA@ 4014a924     ui_main.obj
 0003:0000e934       ??_C@_0O@ICEMGKJK@BOTH_R2_B__S1?$AA@ 4014a934     ui_main.obj
 0003:0000e944       ??_C@_0O@DACAEICK@BOTH_S2_S1_TR?$AA@ 4014a944     ui_main.obj
 0003:0000e954       ??_C@_0O@PMMKKIDH@BOTH_S2_S1_BL?$AA@ 4014a954     ui_main.obj
 0003:0000e964       ??_C@_0O@CIILJHOI@BOTH_S2_S1_BR?$AA@ 4014a964     ui_main.obj
 0003:0000e974       ??_C@_0O@OEGBHHPF@BOTH_S2_S1_TL?$AA@ 4014a974     ui_main.obj
 0003:0000e984       ??_C@_0O@DMHFKHML@BOTH_S2_S1__R?$AA@ 4014a984     ui_main.obj
 0003:0000e994       ??_C@_0O@OIDEJIBE@BOTH_S2_S1__L?$AA@ 4014a994     ui_main.obj
 0003:0000e9a4       ??_C@_0O@IFIODGGH@BOTH_S2_S1_T_?$AA@ 4014a9a4     ui_main.obj
 0003:0000e9b4       ??_C@_0O@EJMIOPHM@BOTH_T2_BL_TL?$AA@ 4014a9b4     ui_main.obj
 0003:0000e9c4       ??_C@_0O@CICHKOOO@BOTH_T2_BL_T_?$AA@ 4014a9c4     ui_main.obj
 0003:0000e9d4       ??_C@_0O@OOCLCBPL@BOTH_T2__L_BL?$AA@ 4014a9d4     ui_main.obj
 0003:0000e9e4       ??_C@_0O@JHGPLPKL@BOTH_T2__L_T_?$AA@ 4014a9e4     ui_main.obj
 0003:0000e9f4       ??_C@_0O@CCMBMBOG@BOTH_T2__L_TR?$AA@ 4014a9f4     ui_main.obj
 0003:0000ea04       ??_C@_0O@JABCOBBL@BOTH_T2_TL__L?$AA@ 4014aa04     ui_main.obj
 0003:0000ea14       ??_C@_0O@PNKIEPGI@BOTH_T2_TL_T_?$AA@ 4014aa14     ui_main.obj
 0003:0000ea24       ??_C@_0O@EIAGDBCF@BOTH_T2_TL_TR?$AA@ 4014aa24     ui_main.obj
 0003:0000ea34       ??_C@_0O@EEFDNOME@BOTH_T2_TL__R?$AA@ 4014aa34     ui_main.obj
 0003:0000ea44       ??_C@_0O@CCHIGGIL@BOTH_T2_TR_T_?$AA@ 4014aa44     ui_main.obj
 0003:0000ea54       ??_C@_0O@JLIDPHCH@BOTH_T2_TR__R?$AA@ 4014aa54     ui_main.obj
 0003:0000ea64       ??_C@_0O@EILPJGEI@BOTH_T2__R_T_?$AA@ 4014aa64     ui_main.obj
 0003:0000ea74       ??_C@_0O@OFLKDHMH@BOTH_T2__R_BR?$AA@ 4014aa74     ui_main.obj
 0003:0000ea84       ??_C@_0O@PHPHIHAN@BOTH_T2_BR_T_?$AA@ 4014aa84     ui_main.obj
 0003:0000ea94       ??_C@_0O@ECFJPJEA@BOTH_T2_BR_TR?$AA@ 4014aa94     ui_main.obj
 0003:0000eaa4       ??_C@_0O@EFJNAAJN@BOTH_T2_BL__L?$AA@ 4014aaa4     ui_main.obj
 0003:0000eab4       ??_C@_0O@JNIJNAKD@BOTH_T2_BL_TR?$AA@ 4014aab4     ui_main.obj
 0003:0000eac4       ??_C@_0O@JBNMDPEC@BOTH_T2_BL__R?$AA@ 4014aac4     ui_main.obj
 0003:0000ead4       ??_C@_0O@IFCCAPGB@BOTH_T2_BL_BR?$AA@ 4014aad4     ui_main.obj
 0003:0000eae4       ??_C@_0O@PGIAPODJ@BOTH_T2__L_TL?$AA@ 4014aae4     ui_main.obj
 0003:0000eaf4       ??_C@_0O@COJECOAH@BOTH_T2__L__R?$AA@ 4014aaf4     ui_main.obj
 0003:0000eb04       ??_C@_0O@DKGKBOCE@BOTH_T2__L_BR?$AA@ 4014ab04     ui_main.obj
 0003:0000eb14       ??_C@_0O@IEOMNBDI@BOTH_T2_TL_BL?$AA@ 4014ab14     ui_main.obj
 0003:0000eb24       ??_C@_0O@FAKNOOOH@BOTH_T2_TL_BR?$AA@ 4014ab24     ui_main.obj
 0003:0000eb34       ??_C@_0O@KDKMDMGK@BOTH_T2_T__BL?$AA@ 4014ab34     ui_main.obj
 0003:0000eb44       ??_C@_0O@LHFCAMEJ@BOTH_T2_T___L?$AA@ 4014ab44     ui_main.obj
 0003:0000eb54       ??_C@_0O@LLAHODKI@BOTH_T2_T__TL?$AA@ 4014ab54     ui_main.obj
 0003:0000eb64       ??_C@_0O@GPEGNMHH@BOTH_T2_T__TR?$AA@ 4014ab64     ui_main.obj
 0003:0000eb74       ??_C@_0O@GDBDDDJG@BOTH_T2_T___R?$AA@ 4014ab74     ui_main.obj
 0003:0000eb84       ??_C@_0O@HHONADLF@BOTH_T2_T__BR?$AA@ 4014ab84     ui_main.obj
 0003:0000eb94       ??_C@_0O@FLDMPINL@BOTH_T2_TR_BL?$AA@ 4014ab94     ui_main.obj
 0003:0000eba4       ??_C@_0O@EPMCMIPI@BOTH_T2_TR__L?$AA@ 4014aba4     ui_main.obj
 0003:0000ebb4       ??_C@_0O@EDJHCHBJ@BOTH_T2_TR_TL?$AA@ 4014abb4     ui_main.obj
 0003:0000ebc4       ??_C@_0O@IPHNMHAE@BOTH_T2_TR_BR?$AA@ 4014abc4     ui_main.obj
 0003:0000ebd4       ??_C@_0O@DBPLAIBI@BOTH_T2__R_BL?$AA@ 4014abd4     ui_main.obj
 0003:0000ebe4       ??_C@_0O@CFAFDIDL@BOTH_T2__R__L?$AA@ 4014abe4     ui_main.obj
 0003:0000ebf4       ??_C@_0O@CJFANHNK@BOTH_T2__R_TL?$AA@ 4014abf4     ui_main.obj
 0003:0000ec04       ??_C@_0O@PNBBOIAF@BOTH_T2__R_TR?$AA@ 4014ac04     ui_main.obj
 0003:0000ec14       ??_C@_0O@IOLDBJFN@BOTH_T2_BR_BL?$AA@ 4014ac14     ui_main.obj
 0003:0000ec24       ??_C@_0O@JKENCJHO@BOTH_T2_BR__L?$AA@ 4014ac24     ui_main.obj
 0003:0000ec34       ??_C@_0O@JGBIMGJP@BOTH_T2_BR_TL?$AA@ 4014ac34     ui_main.obj
 0003:0000ec44       ??_C@_0O@EOAMBGKB@BOTH_T2_BR__R?$AA@ 4014ac44     ui_main.obj
 0003:0000ec54       ??_C@_0O@LNGLPPOF@BOTH_A2_TR_BL?$AA@ 4014ac54     ui_main.obj
 0003:0000ec64       ??_C@_0O@HLNONHJN@BOTH_A2_BL_TR?$AA@ 4014ac64     ui_main.obj
 0003:0000ec74       ??_C@_0O@HAEPMBKB@BOTH_A2_BR_TL?$AA@ 4014ac74     ui_main.obj
 0003:0000ec84       ??_C@_0O@LGPKOJNJ@BOTH_A2_TL_BR?$AA@ 4014ac84     ui_main.obj
 0003:0000ec94       ??_C@_0O@MDFCDPAF@BOTH_A2__R__L?$AA@ 4014ac94     ui_main.obj
 0003:0000eca4       ??_C@_0O@MIMDCJDJ@BOTH_A2__L__R?$AA@ 4014aca4     ui_main.obj
 0003:0000ecb4       ??_C@_0O@CEBEHKMG@BOTH_A2_T__B_?$AA@ 4014acb4     ui_main.obj
 0003:0000ecc4       ??_C@_0O@CBHNOJMP@BOTH_D1_B____?$AA@ 4014acc4     ui_main.obj
 0003:0000ecd4       ??_C@_0O@GDNAEJN@BOTH_D1_BL___?$AA@ 4014acd4     ui_main.obj
 0003:0000ece4       ??_C@_0O@LJHFBFNI@BOTH_D1__L___?$AA@ 4014ace4     ui_main.obj
 0003:0000ecf4       ??_C@_0O@NDLCOFBL@BOTH_D1_TL___?$AA@ 4014acf4     ui_main.obj
 0003:0000ed04       ??_C@_0O@MGCMMPI@BOTH_D1_TR___?$AA@ 4014ad04     ui_main.obj
 0003:0000ed14       ??_C@_0O@GGKFDMDL@BOTH_D1__R___?$AA@ 4014ad14     ui_main.obj
 0003:0000ed24       ??_C@_0O@NJONCNHO@BOTH_D1_BR___?$AA@ 4014ad24     ui_main.obj
 0003:0000ed34       ??_C@_0O@HFCHHNBH@BOTH_B1_BL___?$AA@ 4014ad34     ui_main.obj
 0003:0000ed44       ??_C@_0O@MKGPGMFC@BOTH_B1__L___?$AA@ 4014ad44     ui_main.obj
 0003:0000ed54       ??_C@_0O@KAKIJMJB@BOTH_B1_TL___?$AA@ 4014ad54     ui_main.obj
 0003:0000ed64       ??_C@_0O@IHOIHBMD@BOTH_B1_T____?$AA@ 4014ad64     ui_main.obj
 0003:0000ed74       ??_C@_0O@HPHILFHC@BOTH_B1_TR___?$AA@ 4014ad74     ui_main.obj
 0003:0000ed84       ??_C@_0O@BFLPEFLB@BOTH_B1__R___?$AA@ 4014ad84     ui_main.obj
 0003:0000ed94       ??_C@_0O@KKPHFEPE@BOTH_B1_BR___?$AA@ 4014ad94     ui_main.obj
 0003:0000eda4       ??_C@_0O@CBNMEIEO@BOTH_R1_TR_S1?$AA@ 4014ada4     ui_main.obj
 0003:0000edb4       ??_C@_0O@CLIDIACL@BOTH_R1_BL_S1?$AA@ 4014adb4     ui_main.obj
 0003:0000edc4       ??_C@_0O@PEFDKJMI@BOTH_R1_BR_S1?$AA@ 4014adc4     ui_main.obj
 0003:0000edd4       ??_C@_0O@POAMGBKN@BOTH_R1_TL_S1?$AA@ 4014add4     ui_main.obj
 0003:0000ede4       ??_C@_0O@ELBLLIIN@BOTH_R1__R_S1?$AA@ 4014ade4     ui_main.obj
 0003:0000edf4       ??_C@_0O@JEMLJBGO@BOTH_R1__L_S1?$AA@ 4014adf4     ui_main.obj
 0003:0000ee04       ??_C@_0O@MMDGNHJ@BOTH_R1_B__S1?$AA@ 4014ae04     ui_main.obj
 0003:0000ee14       ??_C@_0O@LOKPEPMJ@BOTH_S1_S1_TR?$AA@ 4014ae14     ui_main.obj
 0003:0000ee24       ??_C@_0O@HCEFKPNE@BOTH_S1_S1_BL?$AA@ 4014ae24     ui_main.obj
 0003:0000ee34       ??_C@_0O@KGAEJAAL@BOTH_S1_S1_BR?$AA@ 4014ae34     ui_main.obj
 0003:0000ee44       ??_C@_0O@GKOOHABG@BOTH_S1_S1_TL?$AA@ 4014ae44     ui_main.obj
 0003:0000ee54       ??_C@_0O@LCPKKACI@BOTH_S1_S1__R?$AA@ 4014ae54     ui_main.obj
 0003:0000ee64       ??_C@_0O@GGLLJPPH@BOTH_S1_S1__L?$AA@ 4014ae64     ui_main.obj
 0003:0000ee74       ??_C@_0O@LABDBIE@BOTH_S1_S1_T_?$AA@ 4014ae74     ui_main.obj
 0003:0000ee84       ??_C@_0O@MHEHOIJP@BOTH_T1_BL_TL?$AA@ 4014ae84     ui_main.obj
 0003:0000ee94       ??_C@_0O@KGKIKJAN@BOTH_T1_BL_T_?$AA@ 4014ae94     ui_main.obj
 0003:0000eea4       ??_C@_0O@GAKECGBI@BOTH_T1__L_BL?$AA@ 4014aea4     ui_main.obj
 0003:0000eeb4       ??_C@_0O@BJOALIEI@BOTH_T1__L_T_?$AA@ 4014aeb4     ui_main.obj
 0003:0000eec4       ??_C@_0O@KMEOMGAF@BOTH_T1__L_TR?$AA@ 4014aec4     ui_main.obj
 0003:0000eed4       ??_C@_0O@BOJNOGPI@BOTH_T1_TL__L?$AA@ 4014aed4     ui_main.obj
 0003:0000eee4       ??_C@_0O@HDCHEIIL@BOTH_T1_TL_T_?$AA@ 4014aee4     ui_main.obj
 0003:0000eef4       ??_C@_0O@MGIJDGMG@BOTH_T1_TL_TR?$AA@ 4014aef4     ui_main.obj
 0003:0000ef04       ??_C@_0O@MKNMNJCH@BOTH_T1_TL__R?$AA@ 4014af04     ui_main.obj
 0003:0000ef14       ??_C@_0O@KMPHGBGI@BOTH_T1_TR_T_?$AA@ 4014af14     ui_main.obj
 0003:0000ef24       ??_C@_0O@BFAMPAME@BOTH_T1_TR__R?$AA@ 4014af24     ui_main.obj
 0003:0000ef34       ??_C@_0O@MGDAJBKL@BOTH_T1__R_T_?$AA@ 4014af34     ui_main.obj
 0003:0000ef44       ??_C@_0O@GLDFDACE@BOTH_T1__R_BR?$AA@ 4014af44     ui_main.obj
 0003:0000ef54       ??_C@_0O@HJHIIAOO@BOTH_T1_BR_T_?$AA@ 4014af54     ui_main.obj
 0003:0000ef64       ??_C@_0O@MMNGPOKD@BOTH_T1_BR_TR?$AA@ 4014af64     ui_main.obj
 0003:0000ef74       ??_C@_0O@MLBCAHHO@BOTH_T1_BL__L?$AA@ 4014af74     ui_main.obj
 0003:0000ef84       ??_C@_0O@BDAGNHEA@BOTH_T1_BL_TR?$AA@ 4014af84     ui_main.obj
 0003:0000ef94       ??_C@_0O@BPFDDIKB@BOTH_T1_BL__R?$AA@ 4014af94     ui_main.obj
 0003:0000efa4       ??_C@_0O@LKNAIIC@BOTH_T1_BL_BR?$AA@ 4014afa4     ui_main.obj
 0003:0000efb4       ??_C@_0O@HIAPPJNK@BOTH_T1__L_TL?$AA@ 4014afb4     ui_main.obj
 0003:0000efc4       ??_C@_0O@KABLCJOE@BOTH_T1__L__R?$AA@ 4014afc4     ui_main.obj
 0003:0000efd4       ??_C@_0O@LEOFBJMH@BOTH_T1__L_BR?$AA@ 4014afd4     ui_main.obj
 0003:0000efe4       ??_C@_0O@KGDNGNL@BOTH_T1_TL_BL?$AA@ 4014afe4     ui_main.obj
 0003:0000eff4       ??_C@_0O@NOCCOJAE@BOTH_T1_TL_BR?$AA@ 4014aff4     ui_main.obj
 0003:0000f004       ??_C@_0O@CNCDDLIJ@BOTH_T1_T__BL?$AA@ 4014b004     ui_main.obj
 0003:0000f014       ??_C@_0O@DJNNALKK@BOTH_T1_T___L?$AA@ 4014b014     ui_main.obj
 0003:0000f024       ??_C@_0O@DFIIOEEL@BOTH_T1_T__TL?$AA@ 4014b024     ui_main.obj
 0003:0000f034       ??_C@_0O@OBMJNLJE@BOTH_T1_T__TR?$AA@ 4014b034     ui_main.obj
 0003:0000f044       ??_C@_0O@ONJMDEHF@BOTH_T1_T___R?$AA@ 4014b044     ui_main.obj
 0003:0000f054       ??_C@_0O@PJGCAEFG@BOTH_T1_T__BR?$AA@ 4014b054     ui_main.obj
 0003:0000f064       ??_C@_0O@NFLDPPDI@BOTH_T1_TR_BL?$AA@ 4014b064     ui_main.obj
 0003:0000f074       ??_C@_0O@MBENMPBL@BOTH_T1_TR__L?$AA@ 4014b074     ui_main.obj
 0003:0000f084       ??_C@_0O@MNBICAPK@BOTH_T1_TR_TL?$AA@ 4014b084     ui_main.obj
 0003:0000f094       ??_C@_0O@BPCMAOH@BOTH_T1_TR_BR?$AA@ 4014b094     ui_main.obj
 0003:0000f0a4       ??_C@_0O@LPHEAPPL@BOTH_T1__R_BL?$AA@ 4014b0a4     ui_main.obj
 0003:0000f0b4       ??_C@_0O@KLIKDPNI@BOTH_T1__R__L?$AA@ 4014b0b4     ui_main.obj
 0003:0000f0c4       ??_C@_0O@KHNPNADJ@BOTH_T1__R_TL?$AA@ 4014b0c4     ui_main.obj
 0003:0000f0d4       ??_C@_0O@HDJOOPOG@BOTH_T1__R_TR?$AA@ 4014b0d4     ui_main.obj
 0003:0000f0e4       ??_C@_0O@DMBOLO@BOTH_T1_BR_BL?$AA@ 4014b0e4     ui_main.obj
 0003:0000f0f4       ??_C@_0O@BEMCCOJN@BOTH_T1_BR__L?$AA@ 4014b0f4     ui_main.obj
 0003:0000f104       ??_C@_0O@BIJHMBHM@BOTH_T1_BR_TL?$AA@ 4014b104     ui_main.obj
 0003:0000f114       ??_C@_0O@MAIDBBEC@BOTH_T1_BR__R?$AA@ 4014b114     ui_main.obj
 0003:0000f124       ??_C@_0O@DDOEPIAG@BOTH_A1_TR_BL?$AA@ 4014b124     ui_main.obj
 0003:0000f134       ??_C@_0O@PFFBNAHO@BOTH_A1_BL_TR?$AA@ 4014b134     ui_main.obj
 0003:0000f144       ??_C@_0O@POMAMGEC@BOTH_A1_BR_TL?$AA@ 4014b144     ui_main.obj
 0003:0000f154       ??_C@_0O@DIHFOODK@BOTH_A1_TL_BR?$AA@ 4014b154     ui_main.obj
 0003:0000f164       ??_C@_0O@ENNNDIOG@BOTH_A1__R__L?$AA@ 4014b164     ui_main.obj
 0003:0000f174       ??_C@_0O@EGEMCONK@BOTH_A1__L__R?$AA@ 4014b174     ui_main.obj
 0003:0000f184       ??_C@_0O@KKJLHNCF@BOTH_A1_T__B_?$AA@ 4014b184     ui_main.obj
 0003:0000f194       ??_C@_0BD@KGEHHFNO@BOTH_THERMAL_THROW?$AA@ 4014b194     ui_main.obj
 0003:0000f1ac       ??_C@_0BD@FIPEGIGM@BOTH_THERMAL_READY?$AA@ 4014b1ac     ui_main.obj
 0003:0000f1c4       ??_C@_0M@JENABCOK@BOTH_MELEE2?$AA@ 4014b1c4     ui_main.obj
 0003:0000f1d4       ??_C@_0M@LPPNEBCJ@BOTH_MELEE1?$AA@ 4014b1d4     ui_main.obj
 0003:0000f1e4       ??_C@_0O@LECODOED@BOTH_ATTACK11?$AA@ 4014b1e4     ui_main.obj
 0003:0000f1f4       ??_C@_0O@KNDFAPAC@BOTH_ATTACK10?$AA@ 4014b1f4     ui_main.obj
 0003:0000f204       ??_C@_0N@CCAENDEA@BOTH_ATTACK7?$AA@ 4014b204     ui_main.obj
 0003:0000f214       ??_C@_0N@DLBPOCAB@BOTH_ATTACK6?$AA@ 4014b214     ui_main.obj
 0003:0000f224       ??_C@_0N@BADCLBMC@BOTH_ATTACK5?$AA@ 4014b224     ui_main.obj
 0003:0000f234       ??_C@_0N@JCJIAID@BOTH_ATTACK4?$AA@ 4014b234     ui_main.obj
 0003:0000f244       ??_C@_0N@EGGIBGEE@BOTH_ATTACK3?$AA@ 4014b244     ui_main.obj
 0003:0000f254       ??_C@_0N@FPHDCHAF@BOTH_ATTACK2?$AA@ 4014b254     ui_main.obj
 0003:0000f264       ??_C@_0N@HEFOHEMG@BOTH_ATTACK1?$AA@ 4014b264     ui_main.obj
 0003:0000f274       ??_C@_0M@LPLOINIF@BOTH_PAIN18?$AA@ 4014b274     ui_main.obj
 0003:0000f284       ??_C@_0M@DICGJBEK@BOTH_PAIN17?$AA@ 4014b284     ui_main.obj
 0003:0000f294       ??_C@_0M@CBDNKAAL@BOTH_PAIN16?$AA@ 4014b294     ui_main.obj
 0003:0000f2a4       ??_C@_0M@KBAPDMI@BOTH_PAIN15?$AA@ 4014b2a4     ui_main.obj
 0003:0000f2b4       ??_C@_0M@BDALMCIJ@BOTH_PAIN14?$AA@ 4014b2b4     ui_main.obj
 0003:0000f2c4       ??_C@_0M@FMEKFEEO@BOTH_PAIN13?$AA@ 4014b2c4     ui_main.obj
 0003:0000f2d4       ??_C@_0M@EFFBGFAP@BOTH_PAIN12?$AA@ 4014b2d4     ui_main.obj
 0003:0000f2e4       ??_C@_0M@GOHMDGMM@BOTH_PAIN11?$AA@ 4014b2e4     ui_main.obj
 0003:0000f2f4       ??_C@_0M@HHGHAHIN@BOTH_PAIN10?$AA@ 4014b2f4     ui_main.obj
 0003:0000f304       ??_C@_0L@IODHKBKF@BOTH_PAIN9?$AA@ 4014b304     ui_main.obj
 0003:0000f314       ??_C@_0L@JHCMJAOE@BOTH_PAIN8?$AA@ 4014b314     ui_main.obj
 0003:0000f324       ??_C@_0L@BALEIMCL@BOTH_PAIN7?$AA@ 4014b324     ui_main.obj
 0003:0000f334       ??_C@_0L@JKPLNGK@BOTH_PAIN6?$AA@ 4014b334     ui_main.obj
 0003:0000f344       ??_C@_0L@CCICOOKJ@BOTH_PAIN5?$AA@ 4014b344     ui_main.obj
 0003:0000f354       ??_C@_0L@DLJJNPOI@BOTH_PAIN4?$AA@ 4014b354     ui_main.obj
 0003:0000f364       ??_C@_0L@HENIEJCP@BOTH_PAIN3?$AA@ 4014b364     ui_main.obj
 0003:0000f374       ??_C@_0L@GNMDHIGO@BOTH_PAIN2?$AA@ 4014b374     ui_main.obj
 0003:0000f384       ??_C@_0L@EGOOCLKN@BOTH_PAIN1?$AA@ 4014b384     ui_main.obj
 0003:0000f394       ??_C@_0BE@FGJIJAMF@BOTH_DISMEMBER_LARM?$AA@ 4014b394     ui_main.obj
 0003:0000f3ac       ??_C@_0BE@IJEILJCG@BOTH_DISMEMBER_RARM?$AA@ 4014b3ac     ui_main.obj
 0003:0000f3c4       ??_C@_0BE@JIKEDMIE@BOTH_DISMEMBER_RLEG?$AA@ 4014b3c4     ui_main.obj
 0003:0000f3dc       ??_C@_0BE@EHHEBFGH@BOTH_DISMEMBER_LLEG?$AA@ 4014b3dc     ui_main.obj
 0003:0000f3f4       ??_C@_0BG@CFOELION@BOTH_DISMEMBER_TORSO1?$AA@ 4014b3f4     ui_main.obj
 0003:0000f410       ??_C@_0BF@OGJIODF@BOTH_DISMEMBER_HEAD1?$AA@ 4014b410     ui_main.obj
 0003:0000f42c       ??_C@_0P@BJPINMOA@BOTH_DEADFLOP2?$AA@ 4014b42c     ui_main.obj
 0003:0000f440       ??_C@_0P@DCNFIPCD@BOTH_DEADFLOP1?$AA@ 4014b440     ui_main.obj
 0003:0000f454       ??_C@_0BD@BHDKBOHF@BOTH_FALLDEAD1LAND?$AA@ 4014b454     ui_main.obj
 0003:0000f46c       ??_C@_0BC@DDLFNCPA@BOTH_STUMBLEDEAD1?$AA@ 4014b46c     ui_main.obj
 0003:0000f484       ??_C@_0BA@HDEKJGIF@BOTH_LYINGDEAD1?$AA@ 4014b484     ui_main.obj
 0003:0000f498       ??_C@_0BD@OGHNINBL@BOTH_DEADBACKWARD2?$AA@ 4014b498     ui_main.obj
 0003:0000f4b0       ??_C@_0BD@MNFANONI@BOTH_DEADBACKWARD1?$AA@ 4014b4b0     ui_main.obj
 0003:0000f4c8       ??_C@_0BC@OHBPMGIK@BOTH_DEADFORWARD2?$AA@ 4014b4c8     ui_main.obj
 0003:0000f4e0       ??_C@_0BC@MMDCJFEJ@BOTH_DEADFORWARD1?$AA@ 4014b4e0     ui_main.obj
 0003:0000f4f8       ??_C@_0M@FPJLBMPP@BOTH_DEAD25?$AA@ 4014b4f8     ui_main.obj
 0003:0000f508       ??_C@_0M@EGIACNLO@BOTH_DEAD24?$AA@ 4014b508     ui_main.obj
 0003:0000f518       ??_C@_0M@JMBLLHJ@BOTH_DEAD23?$AA@ 4014b518     ui_main.obj
 0003:0000f528       ??_C@_0M@BANKIKDI@BOTH_DEAD22?$AA@ 4014b528     ui_main.obj
 0003:0000f538       ??_C@_0M@DLPHNJPL@BOTH_DEAD21?$AA@ 4014b538     ui_main.obj
 0003:0000f548       ??_C@_0M@CCOMOILK@BOTH_DEAD20?$AA@ 4014b548     ui_main.obj
 0003:0000f558       ??_C@_0M@PBGIONKK@BOTH_DEAD19?$AA@ 4014b558     ui_main.obj
 0003:0000f568       ??_C@_0M@OIHDNMOL@BOTH_DEAD18?$AA@ 4014b568     ui_main.obj
 0003:0000f578       ??_C@_0M@GPOLMACE@BOTH_DEAD17?$AA@ 4014b578     ui_main.obj
 0003:0000f588       ??_C@_0M@HGPAPBGF@BOTH_DEAD16?$AA@ 4014b588     ui_main.obj
 0003:0000f598       ??_C@_0M@FNNNKCKG@BOTH_DEAD15?$AA@ 4014b598     ui_main.obj
 0003:0000f5a8       ??_C@_0M@EEMGJDOH@BOTH_DEAD14?$AA@ 4014b5a8     ui_main.obj
 0003:0000f5b8       ??_C@_0M@LIHAFCA@BOTH_DEAD13?$AA@ 4014b5b8     ui_main.obj
 0003:0000f5c8       ??_C@_0M@BCJMDEGB@BOTH_DEAD12?$AA@ 4014b5c8     ui_main.obj
 0003:0000f5d8       ??_C@_0M@DJLBGHKC@BOTH_DEAD11?$AA@ 4014b5d8     ui_main.obj
 0003:0000f5e8       ??_C@_0M@CAKKFGOD@BOTH_DEAD10?$AA@ 4014b5e8     ui_main.obj
 0003:0000f5f8       ??_C@_0L@CLNDOKNB@BOTH_DEAD9?$AA@ 4014b5f8     ui_main.obj
 0003:0000f608       ??_C@_0L@DCMINLJA@BOTH_DEAD8?$AA@ 4014b608     ui_main.obj
 0003:0000f618       ??_C@_0L@LFFAMHFP@BOTH_DEAD7?$AA@ 4014b618     ui_main.obj
 0003:0000f628       ??_C@_0L@KMELPGBO@BOTH_DEAD6?$AA@ 4014b628     ui_main.obj
 0003:0000f638       ??_C@_0L@IHGGKFNN@BOTH_DEAD5?$AA@ 4014b638     ui_main.obj
 0003:0000f648       ??_C@_0L@JOHNJEJM@BOTH_DEAD4?$AA@ 4014b648     ui_main.obj
 0003:0000f658       ??_C@_0L@NBDMACFL@BOTH_DEAD3?$AA@ 4014b658     ui_main.obj
 0003:0000f668       ??_C@_0L@MICHDDBK@BOTH_DEAD2?$AA@ 4014b668     ui_main.obj
 0003:0000f678       ??_C@_0L@ODAKGANJ@BOTH_DEAD1?$AA@ 4014b678     ui_main.obj
 0003:0000f688       ??_C@_0BE@CACMPNDI@BOTH_DEATH_CROUCHED?$AA@ 4014b688     ui_main.obj
 0003:0000f6a0       ??_C@_0BG@GMBJBMLI@BOTH_DEATH_FALLING_UP?$AA@ 4014b6a0     ui_main.obj
 0003:0000f6bc       ??_C@_0BG@KFLMOKCA@BOTH_DEATH_FALLING_DN?$AA@ 4014b6bc     ui_main.obj
 0003:0000f6d8       ??_C@_0BE@GLFNKCIG@BOTH_DEATH_LYING_DN?$AA@ 4014b6d8     ui_main.obj
 0003:0000f6f0       ??_C@_0BE@KCPIFEBO@BOTH_DEATH_LYING_UP?$AA@ 4014b6f0     ui_main.obj
 0003:0000f708       ??_C@_0BE@GAFFKNDC@BOTH_DEATH_SPIN_180?$AA@ 4014b708     ui_main.obj
 0003:0000f720       ??_C@_0BF@CCDEOLBH@BOTH_DEATH_SPIN_90_L?$AA@ 4014b720     ui_main.obj
 0003:0000f73c       ??_C@_0BF@PGHFNEMI@BOTH_DEATH_SPIN_90_R?$AA@ 4014b73c     ui_main.obj
 0003:0000f758       ??_C@_0BA@PMBFHAFE@BOTH_DEATH_FLIP?$AA@ 4014b758     ui_main.obj
 0003:0000f76c       ??_C@_0BA@JLHMHBEO@BOTH_DEATH_ROLL?$AA@ 4014b76c     ui_main.obj
 0003:0000f780       ??_C@_0BE@KLPONOFB@BOTH_FALLDEATH1LAND?$AA@ 4014b780     ui_main.obj
 0003:0000f798       ??_C@_0BF@BGGMCFAN@BOTH_FALLDEATH1INAIR?$AA@ 4014b798     ui_main.obj
 0003:0000f7b4       ??_C@_0BA@MMMHHMBO@BOTH_FALLDEATH1?$AA@ 4014b7b4     ui_main.obj
 0003:0000f7c8       ??_C@_0BD@HAOKEEDM@BOTH_STUMBLEDEATH1?$AA@ 4014b7c8     ui_main.obj
 0003:0000f7e0       ??_C@_0BB@FAMFDOML@BOTH_LYINGDEATH1?$AA@ 4014b7e0     ui_main.obj
 0003:0000f7f4       ??_C@_0BA@LIHBIFLP@BOTH_DEATH1IDLE?$AA@ 4014b7f4     ui_main.obj
 0003:0000f808       ??_C@_0BE@OINPDLJH@BOTH_DEATHBACKWARD2?$AA@ 4014b808     ui_main.obj
 0003:0000f820       ??_C@_0BE@MDPCGIFE@BOTH_DEATHBACKWARD1?$AA@ 4014b820     ui_main.obj
 0003:0000f838       ??_C@_0BD@IHDKEJMD@BOTH_DEATHFORWARD3?$AA@ 4014b838     ui_main.obj
 0003:0000f850       ??_C@_0BD@JOCBHIIC@BOTH_DEATHFORWARD2?$AA@ 4014b850     ui_main.obj
 0003:0000f868       ??_C@_0BD@LFAMCLEB@BOTH_DEATHFORWARD1?$AA@ 4014b868     ui_main.obj
 0003:0000f880       ??_C@_0N@OOEBHHNI@BOTH_DEATH25?$AA@ 4014b880     ui_main.obj
 0003:0000f890       ??_C@_0N@PHFKEGJJ@BOTH_DEATH24?$AA@ 4014b890     ui_main.obj
 0003:0000f8a0       ??_C@_0N@LIBLNAFO@BOTH_DEATH23?$AA@ 4014b8a0     ui_main.obj
 0003:0000f8b0       ??_C@_0N@KBAAOBBP@BOTH_DEATH22?$AA@ 4014b8b0     ui_main.obj
 0003:0000f8c0       ??_C@_0N@IKCNLCNM@BOTH_DEATH21?$AA@ 4014b8c0     ui_main.obj
 0003:0000f8d0       ??_C@_0N@JDDGIDJN@BOTH_DEATH20?$AA@ 4014b8d0     ui_main.obj
 0003:0000f8e0       ??_C@_0N@EALCIGIN@BOTH_DEATH19?$AA@ 4014b8e0     ui_main.obj
 0003:0000f8f0       ??_C@_0N@FJKJLHMM@BOTH_DEATH18?$AA@ 4014b8f0     ui_main.obj
 0003:0000f900       ??_C@_0N@NODBKLAD@BOTH_DEATH17?$AA@ 4014b900     ui_main.obj
 0003:0000f910       ??_C@_0N@MHCKJKEC@BOTH_DEATH16?$AA@ 4014b910     ui_main.obj
 0003:0000f920       ??_C@_0N@OMAHMJIB@BOTH_DEATH15?$AA@ 4014b920     ui_main.obj
 0003:0000f930       ??_C@_0N@PFBMPIMA@BOTH_DEATH14?$AA@ 4014b930     ui_main.obj
 0003:0000f940       ??_C@_0N@LKFNGOAH@BOTH_DEATH13?$AA@ 4014b940     ui_main.obj
 0003:0000f950       ??_C@_0N@KDEGFPEG@BOTH_DEATH12?$AA@ 4014b950     ui_main.obj
 0003:0000f960       ??_C@_0N@IIGLAMIF@BOTH_DEATH11?$AA@ 4014b960     ui_main.obj
 0003:0000f970       ??_C@_0N@JBHADNME@BOTH_DEATH10?$AA@ 4014b970     ui_main.obj
 0003:0000f980       ??_C@_0M@PKFBOJOK@BOTH_DEATH9?$AA@ 4014b980     ui_main.obj
 0003:0000f990       ??_C@_0M@ODEKNIKL@BOTH_DEATH8?$AA@ 4014b990     ui_main.obj
 0003:0000f9a0       ??_C@_0M@GENCMEGE@BOTH_DEATH7?$AA@ 4014b9a0     ui_main.obj
 0003:0000f9b0       ??_C@_0M@HNMJPFCF@BOTH_DEATH6?$AA@ 4014b9b0     ui_main.obj
 0003:0000f9c0       ??_C@_0M@FGOEKGOG@BOTH_DEATH5?$AA@ 4014b9c0     ui_main.obj
 0003:0000f9d0       ??_C@_0M@EPPPJHKH@BOTH_DEATH4?$AA@ 4014b9d0     ui_main.obj
 0003:0000f9e0       ??_C@_0M@LOABGA@BOTH_DEATH3?$AA@ 4014b9e0     ui_main.obj
 0003:0000f9f0       ??_C@_0M@BJKFDACB@BOTH_DEATH2?$AA@ 4014b9f0     ui_main.obj
 0003:0000fa00       ??_C@_0M@DCIIGDOC@BOTH_DEATH1?$AA@ 4014ba00     ui_main.obj
 0003:0000fa10       ??_C@_09OODFOJKI@FACE_DEAD?$AA@ 4014ba10     ui_main.obj
 0003:0000fa1c       ??_C@_0L@NHKOPMDL@FACE_FROWN?$AA@ 4014ba1c     ui_main.obj
 0003:0000fa2c       ??_C@_0L@LAOJKFMG@FACE_SMILE?$AA@ 4014ba2c     ui_main.obj
 0003:0000fa3c       ??_C@_0L@MMCADNDE@FACE_ALERT?$AA@ 4014ba3c     ui_main.obj
 0003:0000fa4c       ??_C@_0L@GMKJNGHP@FACE_TALK4?$AA@ 4014ba4c     ui_main.obj
 0003:0000fa5c       ??_C@_0L@CDOIEALI@FACE_TALK3?$AA@ 4014ba5c     ui_main.obj
 0003:0000fa6c       ??_C@_0L@DKPDHBPJ@FACE_TALK2?$AA@ 4014ba6c     ui_main.obj
 0003:0000fa7c       ??_C@_0L@BBNOCCDK@FACE_TALK1?$AA@ 4014ba7c     ui_main.obj
 0003:0000fa8c       ??_C@_0L@IMFBDHL@FACE_TALK0?$AA@ 4014ba8c     ui_main.obj
 0003:0000faa8       ??_C@_0M@DGDBFJN@fs_basepath?$AA@ 4014baa8     ui_main.obj
 0003:0000fab8       ??_C@_1DO@LDNFKEKI@?$AAu?$AAi?$AAN?$AAu?$AAm?$AAA?$AAl?$AAl?$AAA?$AAn?$AAi?$AAm?$AAs?$AA?5?$AA?$DM?$AA?5?$AAM?$AAA?$AAX?$AA_?$AAA?$AAN?$AAI?$AAM?$AA_?$AAF?$AAI?$AAL?$AAE?$AAS?$AA?$AA@ 4014bab8     ui_main.obj
 0003:0000fb08       ??_C@_1EM@FCBMMCJC@?$AAd?$AA?3?$AA?2?$AAo?$AAj?$AAp?$AA?2?$AAe?$AAn?$AAh?$AAa?$AAn?$AAc?$AAe?$AAd?$AA?2?$AAs?$AAo?$AAu?$AAr?$AAc?$AAe?$AA?2?$AAu?$AAi?$AA?2?$AAu?$AAi?$AA_?$AAm?$AAa?$AAi@ 4014bb08     ui_main.obj
 0003:0000fb64       ??_C@_02BBAHNLBA@?$CFp?$AA@ 4014bb64     ui_main.obj
 0003:0000fb68       ??_C@_0N@EKFFDIFK@ui_siegeInfo?$AA@ 4014bb68     ui_main.obj
 0003:0000fb78       ??_C@_0DB@PNFBPLKE@?$CFs?5exceeds?5the?5allowed?5ui?9side?5a@ 4014bb78     ui_main.obj
 0003:0000fbb4       ??_C@_1BA@MMHCJEBN@?$AAa?$AAn?$AAi?$AAm?$AAs?$AAe?$AAt?$AA?$AA@ 4014bbb4     ui_main.obj
 0003:0000fbc8       ??_C@_1DE@OPKPNFNC@?$AA?$CB?$AA?$CC?$AAA?$AAn?$AAi?$AAm?$AA?5?$AAs?$AAe?$AAt?$AA?5?$AAa?$AAl?$AAl?$AAo?$AAc?$AA?5?$AAf?$AAa?$AAi?$AAl?$AAe?$AAd?$AA?$CB?$AA?$CC?$AA?$AA@ 4014bbc8     ui_main.obj
 0003:0000fc08       ??_C@_0BH@IPGJJMNG@Anim?5set?5alloc?5failed?$CB?$AA@ 4014bc08     ui_main.obj
 0003:0000fc24       ??_C@_0BD@IAGLKLFM@players?1_humanoid?1?$AA@ 4014bc24     ui_main.obj
 0003:0000fc3c       ??_C@_04HEDFJGEJ@FREE?$AA@ 4014bc3c     ui_main.obj
 0003:0000fc44       ??_C@_09GNDCBOBP@SPECTATOR?$AA@ 4014bc44     ui_main.obj
 0003:0000fc50       ??_C@_04CNFFLDFF@BLUE?$AA@ 4014bc50     ui_main.obj
 0003:0000fc58       ??_C@_03FNPLCCOA@RED?$AA@  4014bc58     ui_main.obj
 0003:0000fc5c       ??_C@_0BD@PPPBDMEH@gfx?12d?1crosshair?$CFc?$AA@ 4014bc5c     ui_main.obj
 0003:0000fc74       ??_C@_0BD@FAGPOKAI@gfx?1menus?1truejedi?$AA@ 4014bc74     ui_main.obj
 0003:0000fc8c       ??_C@_0BE@DNNKMCEA@gfx?1menus?1saberonly?$AA@ 4014bc8c     ui_main.obj
 0003:0000fca4       ??_C@_0BI@PKLLBMCM@gfx?1menus?1forcerestrict?$AA@ 4014bca4     ui_main.obj
 0003:0000fcc0       ??_C@_0BC@PCEOGHHG@gfx?1menus?1noforce?$AA@ 4014bcc0     ui_main.obj
 0003:0000fcd8       ??_C@_0BD@LPALACOE@gfx?1menus?1needpass?$AA@ 4014bcd8     ui_main.obj
 0003:0000fcf0       ??_C@_0BF@IMFGDGLA@menu?1new?1sliderthumb?$AA@ 4014bcf0     ui_main.obj
 0003:0000fd0c       ??_C@_0BA@IIPDBPAH@menu?1new?1slider?$AA@ 4014bd0c     ui_main.obj
 0003:0000fd20       ??_C@_0BO@OGCKOCFI@gfx?1menus?1scrollbar_thumb?4tga?$AA@ 4014bd20     ui_main.obj
 0003:0000fd44       ??_C@_0CE@EBDHDKAC@gfx?1menus?1scrollbar_arrow_right?4@ 4014bd44     ui_main.obj
 0003:0000fd70       ??_C@_0CD@HGBCPEJO@gfx?1menus?1scrollbar_arrow_left?4t@ 4014bd70     ui_main.obj
 0003:0000fd9c       ??_C@_0CD@CMMKEMFC@gfx?1menus?1scrollbar_arrow_up_a?4t@ 4014bd9c     ui_main.obj
 0003:0000fdc8       ??_C@_0CE@COBFEBJB@gfx?1menus?1scrollbar_arrow_dwn_a?4@ 4014bdc8     ui_main.obj
 0003:0000fdf4       ??_C@_0BI@FDOMFDJL@gfx?1menus?1scrollbar?4tga?$AA@ 4014bdf4     ui_main.obj
 0003:0000fe10       ??_C@_0BC@GAPGDHHF@menu?1art?1fx_white?$AA@ 4014be10     ui_main.obj
 0003:0000fe28       ??_C@_0BD@NFOJMJOG@menu?1art?1fx_purple?$AA@ 4014be28     ui_main.obj
 0003:0000fe40       ??_C@_0BB@BKOGMDOJ@menu?1art?1fx_blue?$AA@ 4014be40     ui_main.obj
 0003:0000fe54       ??_C@_0BA@IJJPLEBB@menu?1art?1fx_grn?$AA@ 4014be54     ui_main.obj
 0003:0000fe68       ??_C@_0BA@BCAGEDMK@menu?1art?1fx_yel?$AA@ 4014be68     ui_main.obj
 0003:0000fe7c       ??_C@_0BD@MCKJDHGG@menu?1art?1fx_orange?$AA@ 4014be7c     ui_main.obj
 0003:0000fe94       ??_C@_0BA@NNOEOMD@menu?1art?1fx_red?$AA@ 4014be94     ui_main.obj
 0003:0000fea8       ??_C@_0BB@OMABGHIG@menu?1art?1fx_base?$AA@ 4014bea8     ui_main.obj
 0003:0000febc       ??_C@_0BL@LDKEDAHM@ui?1assets?1gradientbar2?4tga?$AA@ 4014bebc     ui_main.obj
 0003:0000fedc       ??_C@_02HAOIJKIC@?$CFc?$AA@ 4014bedc     ui_main.obj
 0003:0000fee0       ??_C@_0O@JEEKIFAP@sv_killserver?$AA@ 4014bee0     ui_main.obj
 0003:0000fef0       ??_C@_0P@OPFJLCMG@cg_thirdPerson?$AA@ 4014bef0     ui_main.obj
 0003:0000ff04       ??_C@_0P@GDCMABHL@cg_cameraOrbit?$AA@ 4014bf04     ui_main.obj
 0003:0000ff18       ??_C@_05ONEOBAM@?$CFs_?$CFs?$AA@ 4014bf18     ui_main.obj
 0003:0000ff20       __real@42400000            4014bf20     ui_main.obj
 0003:0000ff24       ??_C@_0DD@JILOANNP@?$FO1menu?5file?5too?5large?3?5?$CFs?5is?5?$CFi?0@ 4014bf24     ui_main.obj
 0003:0000ff64       ??_C@_0CK@ECPONHFG@?$FO1menu?5file?5not?5found?3?5?$CFs?0?5using@ 4014bf64     ui_main.obj
 0003:0000ff98       ??_C@_0O@GIEOJPBC@precacheSound?$AA@ 4014bf98     ui_main.obj
 0003:0000ffa8       ??_C@_0BH@MIEOGMNF@datapadmoveSaberSound6?$AA@ 4014bfa8     ui_main.obj
 0003:0000ffc4       ??_C@_0BH@ODGDDPBG@datapadmoveSaberSound5?$AA@ 4014bfc4     ui_main.obj
 0003:0000ffe0       ??_C@_0BH@PKHIAOFH@datapadmoveSaberSound4?$AA@ 4014bfe0     ui_main.obj
 0003:0000fffc       ??_C@_0BH@LFDJJIJA@datapadmoveSaberSound3?$AA@ 4014bffc     ui_main.obj
 0003:00010018       ??_C@_0BH@KMCCKJNB@datapadmoveSaberSound2?$AA@ 4014c018     ui_main.obj
 0003:00010034       ??_C@_0BH@IHAPPKBC@datapadmoveSaberSound1?$AA@ 4014c034     ui_main.obj
 0003:00010050       ??_C@_0O@MMHPJOBP@moveJumpSound?$AA@ 4014c050     ui_main.obj
 0003:00010060       ??_C@_0O@KNDMGBMI@moveRollSound?$AA@ 4014c060     ui_main.obj
 0003:00010070       ??_C@_0M@JPJLLJDB@shadowColor?$AA@ 4014c070     ui_main.obj
 0003:00010080       ??_C@_07PGMDMGII@shadowY?$AA@ 4014c080     ui_main.obj
 0003:0001008c       ??_C@_07OPNIPHMJ@shadowX?$AA@ 4014c08c     ui_main.obj
 0003:00010098       ??_C@_0L@JDDHILPC@fadeAmount?$AA@ 4014c098     ui_main.obj
 0003:000100a8       ??_C@_09LGBLEGN@fadeCycle?$AA@ 4014c0a8     ui_main.obj
 0003:000100b4       ??_C@_09DPBPOIDH@fadeClamp?$AA@ 4014c0b4     ui_main.obj
 0003:000100c0       ??_C@_0O@JDBLIAHI@menuBuzzSound?$AA@ 4014c0c0     ui_main.obj
 0003:000100d0       ??_C@_0P@IGAMHAPB@itemFocusSound?$AA@ 4014c0d0     ui_main.obj
 0003:000100e4       ??_C@_0O@CCIDDBMD@menuExitSound?$AA@ 4014c0e4     ui_main.obj
 0003:000100f4       ??_C@_0P@HOFNPEDB@menuEnterSound?$AA@ 4014c0f4     ui_main.obj
 0003:00010108       ??_C@_0M@KMLBJNNP@gradientbar?$AA@ 4014c108     ui_main.obj
 0003:00010118       ??_C@_02JCPHEAGH@?$FO3?$AA@ 4014c118     ui_main.obj
 0003:0001011c       ??_C@_0CH@MFNDJLKG@Bad?51st?5parameter?5for?5keyword?5?8c@ 4014c11c     ui_main.obj
 0003:0001014c       ??_C@_06CHDIMBDP@cursor?$AA@ 4014c14c     ui_main.obj
 0003:00010154       ??_C@_07LOCAKBOA@bigFont?$AA@ 4014c154     ui_main.obj
 0003:00010160       ??_C@_0L@KDLFEFGB@small2Font?$AA@ 4014c160     ui_main.obj
 0003:00010170       ??_C@_09DOKKJGBA@smallFont?$AA@ 4014c170     ui_main.obj
 0003:0001017c       ??_C@_04EFPADHIC@font?$AA@ 4014c17c     ui_main.obj
 0003:00010184       ??_C@_07MCIOFCJF@menudef?$AA@ 4014c184     ui_main.obj
 0003:00010190       ??_C@_0P@JJKHBDCP@assetGlobalDef?$AA@ 4014c190     ui_main.obj
 0003:000101a4       ??_C@_0BC@HIDDINCD@ui?1jamp?1menudef?4h?$AA@ 4014c1a4     ui_main.obj
 0003:000101bc       ??_C@_08GJJFPOLP@loadmenu?$AA@ 4014c1bc     ui_main.obj
 0003:000101c8       ??_C@_0EC@MBKMCDAN@?$FO1default?5menu?5file?5not?5found?3?5u@ 4014c1c8     ui_main.obj
 0003:00010218       ??_C@_0CK@EJKAPAFF@?$FO3menu?5file?5not?5found?3?5?$CFs?0?5using@ 4014c218     ui_main.obj
 0003:0001024c       ??_C@_0BF@MGJNPIJB@ui?1jamp?1gameinfo?4txt?$AA@ 4014c24c     ui_main.obj
 0003:00010268       ??_C@_0BC@JODHCHLJ@ui?1jampingame?4txt?$AA@ 4014c268     ui_main.obj
 0003:00010280       ??_C@_0BA@DKHOJHPN@g_weaponDisable?$AA@ 4014c280     ui_main.obj
 0003:00010294       ??_C@_0BE@OBOCPLPN@g_duelWeaponDisable?$AA@ 4014c294     ui_main.obj
 0003:000102ac       ??_C@_0M@HDALJKN@g_jediVmerc?$AA@ 4014c2ac     ui_main.obj
 0003:000102bc       ??_C@_0BE@EDCPOKDI@g_forcePowerDisable?$AA@ 4014c2bc     ui_main.obj
 0003:000102d4       ??_C@_0BB@OFACPPDM@humanbotnonfield?$AA@ 4014c2d4     ui_main.obj
 0003:000102e8       ??_C@_0O@LLMAEFMN@humanbotfield?$AA@ 4014c2e8     ui_main.obj
 0003:000102f8       ??_C@_0BE@MJMLKIAB@playerforcespectate?$AA@ 4014c2f8     ui_main.obj
 0003:00010310       ??_C@_0BA@HKGGDOFM@playerforceblue?$AA@ 4014c310     ui_main.obj
 0003:00010324       ??_C@_0P@DNKNCOFM@playerforcered?$AA@ 4014c324     ui_main.obj
 0003:00010338       ??_C@_0BA@KOGLFJKM@playerforcejoin?$AA@ 4014c338     ui_main.obj
 0003:0001034c       ??_C@_0M@JFACKFNB@playerapply?$AA@ 4014c34c     ui_main.obj
 0003:0001035c       ??_C@_08OLKDPGBD@yessaber?$AA@ 4014c35c     ui_main.obj
 0003:00010368       ??_C@_0BC@BDPIFPLC@sabernoneconfigme?$AA@ 4014c368     ui_main.obj
 0003:00010380       ??_C@_08FGJPHEOB@yesforce?$AA@ 4014c380     ui_main.obj
 0003:0001038c       ??_C@_07HEKACAEE@noforce?$AA@ 4014c38c     ui_main.obj
 0003:00010398       ??_C@_0M@OBPKCPBG@jedinonjedi?$AA@ 4014c398     ui_main.obj
 0003:000103a8       ??_C@_0O@PJIPPKNP@ingame_player?$AA@ 4014c3a8     ui_main.obj
 0003:000103b8       ??_C@_0N@PGDAKNHB@vid_restart?$DL?$AA@ 4014c3b8     ui_main.obj
 0003:000103c8       ??_C@_0O@ICGEAHKA@ui_r_modified?$AA@ 4014c3c8     ui_main.obj
 0003:000103d8       ??_C@_0L@MAOLAFLC@cg_shadows?$AA@ 4014c3d8     ui_main.obj
 0003:000103e8       ??_C@_0O@NDJCAFHK@ui_cg_shadows?$AA@ 4014c3e8     ui_main.obj
 0003:000103f8       ??_C@_0BC@HJALDEG@r_allowExtensions?$AA@ 4014c3f8     ui_main.obj
 0003:00010410       ??_C@_0BF@EOAMBIGF@ui_r_allowExtensions?$AA@ 4014c410     ui_main.obj
 0003:0001042c       ??_C@_0O@EPDAEHAE@r_inGameVideo?$AA@ 4014c42c     ui_main.obj
 0003:0001043c       ??_C@_0BB@PJFFEJHH@ui_r_inGameVideo?$AA@ 4014c43c     ui_main.obj
 0003:00010450       ??_C@_09JKEENNLE@r_fastSky?$AA@ 4014c450     ui_main.obj
 0003:0001045c       ??_C@_0N@IPNMEDKM@ui_r_fastSky?$AA@ 4014c45c     ui_main.obj
 0003:0001046c       ??_C@_0P@CEFBGCNE@r_subdivisions?$AA@ 4014c46c     ui_main.obj
 0003:00010480       ??_C@_0BC@ONOLCHFM@ui_r_subdivisions?$AA@ 4014c480     ui_main.obj
 0003:00010498       ??_C@_0M@MLADPBHK@r_depthbits?$AA@ 4014c498     ui_main.obj
 0003:000104a8       ??_C@_0P@FOKPMCPI@ui_r_depthbits?$AA@ 4014c4a8     ui_main.obj
 0003:000104bc       ??_C@_0BI@OCJAALOK@r_ext_compress_textures?$AA@ 4014c4bc     ui_main.obj
 0003:000104d8       ??_C@_0BL@OMICDKKG@ui_r_ext_compress_textures?$AA@ 4014c4d8     ui_main.obj
 0003:000104f8       ??_C@_0BB@OJJFINJB@r_detailtextures?$AA@ 4014c4f8     ui_main.obj
 0003:0001050c       ??_C@_0BE@BMHJODHH@ui_r_detailtextures?$AA@ 4014c50c     ui_main.obj
 0003:00010524       ??_C@_0O@NHGMKMHI@r_texturemode?$AA@ 4014c524     ui_main.obj
 0003:00010534       ??_C@_0BB@GBAJKCAL@ui_r_texturemode?$AA@ 4014c534     ui_main.obj
 0003:00010548       ??_C@_0O@HAOJHCNC@r_texturebits?$AA@ 4014c548     ui_main.obj
 0003:00010558       ??_C@_0BB@MGIMHMKB@ui_r_texturebits?$AA@ 4014c558     ui_main.obj
 0003:0001056c       ??_C@_08PHNBMEML@r_picmip?$AA@ 4014c56c     ui_main.obj
 0003:00010578       ??_C@_0M@LFGCJFJG@ui_r_picmip?$AA@ 4014c578     ui_main.obj
 0003:00010588       ??_C@_09MCCGJPLJ@r_lodbias?$AA@ 4014c588     ui_main.obj
 0003:00010594       ??_C@_0N@NHLOABKB@ui_r_lodbias?$AA@ 4014c594     ui_main.obj
 0003:000105a4       ??_C@_0M@FAHBKNDA@r_colorbits?$AA@ 4014c5a4     ui_main.obj
 0003:000105b4       ??_C@_0P@MFNNJOLC@ui_r_colorbits?$AA@ 4014c5b4     ui_main.obj
 0003:000105c8       ??_C@_0N@JILGCMBC@r_fullscreen?$AA@ 4014c5c8     ui_main.obj
 0003:000105d8       ??_C@_0BA@JLJFGCCN@ui_r_fullscreen?$AA@ 4014c5d8     ui_main.obj
 0003:000105ec       ??_C@_06LBAPPDBG@r_mode?$AA@ 4014c5ec     ui_main.obj
 0003:000105f4       ??_C@_09KDEPNMFH@ui_r_mode?$AA@ 4014c5f4     ui_main.obj
 0003:00010600       ??_C@_0O@DBONOGAA@ui_r_glCustom?$AA@ 4014c600     ui_main.obj
 0003:00010610       ??_C@_0O@EFOJEHBN@class6_button?$AA@ 4014c610     ui_main.obj
 0003:00010620       ??_C@_0O@HMGEHLNI@class5_button?$AA@ 4014c620     ui_main.obj
 0003:00010630       ??_C@_0O@GLBPGPJL@class4_button?$AA@ 4014c630     ui_main.obj
 0003:00010640       ??_C@_0O@PHOACFC@class3_button?$AA@ 4014c640     ui_main.obj
 0003:00010650       ??_C@_0O@BIAFBGBB@class2_button?$AA@ 4014c650     ui_main.obj
 0003:00010660       ??_C@_0O@CBIICKNE@class1_button?$AA@ 4014c660     ui_main.obj
 0003:00010670       ??_C@_0P@CIAMGOJB@ui_siege_class?$AA@ 4014c670     ui_main.obj
 0003:00010684       ??_C@_07KHBLIOLH@onteam2?$AA@ 4014c684     ui_main.obj
 0003:00010690       ??_C@_07IMDGNNHE@onteam1?$AA@ 4014c690     ui_main.obj
 0003:0001069c       ??_C@_0BK@JKAPHHID@team?$CFi_objective?$CFi_mappos?$AA@ 4014c69c     ui_main.obj
 0003:000106bc       ??_C@_0O@JLHBAKIH@tm?$CFi_l_icon?$CFi?$AA@ 4014c6bc     ui_main.obj
 0003:000106cc       ??_C@_0M@DHPIAGKO@tm?$CFi_icon?$CFi?$AA@ 4014c6cc     ui_main.obj
 0003:000106dc       ??_C@_0BM@BPDOBPLD@?$CKteam?$CFi_objective?$CFi_mapicon?$AA@ 4014c6dc     ui_main.obj
 0003:00010700       ??_C@_0BA@CJPPCFCE@forcepowerlevel?$AA@ 4014c700     ui_main.obj
 0003:00010714       ??_C@_05BLKJBNOD@stats?$AA@ 4014c714     ui_main.obj
 0003:0001071c       ??_C@_0O@COFELBGO@objective_pic?$AA@ 4014c71c     ui_main.obj
 0003:0001072c       ??_C@_0N@OCMMKHNE@obj_longdesc?$AA@ 4014c72c     ui_main.obj
 0003:0001073c       ??_C@_08PHCBGHMJ@minidesc?$AA@ 4014c73c     ui_main.obj
 0003:00010748       ??_C@_0BB@JJEOAMAH@classdescription?$AA@ 4014c748     ui_main.obj
 0003:0001075c       ??_C@_07DOMDDELG@feeders?$AA@ 4014c75c     ui_main.obj
 0003:00010768       ??_C@_0M@EBJIILPK@class_count?$AA@ 4014c768     ui_main.obj
 0003:00010778       ??_C@_0N@LANKDNDD@class_button?$AA@ 4014c778     ui_main.obj
 0003:00010788       ??_C@_0BM@GOKALJHI@models?1players?1?$CFs?1?$HM?$CFs?$HM?$CFs?$HM?$CFs?$AA@ 4014c788     ui_main.obj
 0003:000107b0       ??_C@_0EF@PLGNBLOL@UI_UpdateCharacterSkin?3?5Could?5no@ 4014c7b0     ui_main.obj
 0003:00010804       ??_C@_09MNKJOHH@character?$AA@ 4014c804     ui_main.obj
 0003:00010810       __real@4040000000000000    4014c810     ui_main.obj
 0003:00010820       __real@4008000000000000    4014c820     ui_main.obj
 0003:0001082c       ??_C@_0O@BLJEIMIH@sv_maxClients?$AA@ 4014c82c     ui_main.obj
 0003:0001083c       ??_C@_0M@OAPCOKFL@forceicon?$CFd?$AA@ 4014c83c     ui_main.obj
 0003:0001084c       ??_C@_0N@OLFHJEGP@forceicon0?$CFd?$AA@ 4014c84c     ui_main.obj
 0003:0001085c       ??_C@_0BC@BBDLIMJN@?$CKui_class_power?$CFd?$AA@ 4014c85c     ui_main.obj
 0003:00010874       ??_C@_0M@IAKOKMPN@itemicon0?$CFd?$AA@ 4014c874     ui_main.obj
 0003:00010884       ??_C@_0BB@LEAKOFKD@?$CKui_class_item?$CFd?$AA@ 4014c884     ui_main.obj
 0003:00010898       ??_C@_0L@EEOPJNIP@wpnicon0?$CFd?$AA@ 4014c898     ui_main.obj
 0003:000108a8       ??_C@_0BD@IILHFKPD@?$CKui_class_weapon?$CFd?$AA@ 4014c8a8     ui_main.obj
 0003:000108c0       ??_C@_0DD@IFBJFFKB@models?1players?1characters?1?$CFs?1?$CFs?1@ 4014c8c0     ui_main.obj
 0003:00010900       ??_C@_0CI@LGKPFMHH@models?1players?1?$CFs?1?$CFs?1lower_defau@ 4014c900     ui_main.obj
 0003:00010930       __real@41600000            4014c930     ui_main.obj
 0003:00010934       ??_C@_01LKDEMHDF@s?$AA@    4014c934     ui_main.obj
 0003:00010938       ??_C@_0BI@ICIKICGM@MENUS_SERVERS_FOUNDWITH?$AA@ 4014c938     ui_main.obj
 0003:00010954       ??_C@_0BB@LOIEJCIF@no?5servers?5found?$AA@ 4014c954     ui_main.obj
 0003:00010968       ??_C@_08EHKIGBEA@hostname?$AA@ 4014c968     ui_main.obj
 0003:00010974       ??_C@_0BG@CJDALBBP@ui_playerServersFound?$AA@ 4014c974     ui_main.obj
 0003:00010990       ??_C@_0BA@KGBMAGOJ@MENUS_SEARCHING?$AA@ 4014c990     ui_main.obj
 0003:000109a4       ??_C@_0BK@NLNALACG@cl_serverStatusResendTime?$AA@ 4014c9a4     ui_main.obj
 0003:000109c4       ??_C@_04OONEELOO@ping?$AA@ 4014c9c4     ui_main.obj
 0003:000109cc       ??_C@_05DBKDOICH@score?$AA@ 4014c9cc     ui_main.obj
 0003:000109d4       ??_C@_03IHCLBPIC@num?$AA@  4014c9d4     ui_main.obj
 0003:000109d8       ??_C@_0BK@JABGNFOC@Error?5loading?5teams?5in?5UI?$AA@ 4014c9d8     ui_main.obj
 0003:000109f8       ??_C@_07FKIPFDKM@UseTeam?$AA@ 4014c9f8     ui_main.obj
 0003:00010a04       ??_C@_05KBLJHFNC@team2?$AA@ 4014ca04     ui_main.obj
 0003:00010a0c       ??_C@_0O@FENJAOEK@cg_siegeTeam2?$AA@ 4014ca0c     ui_main.obj
 0003:00010a1c       ??_C@_05IKJECGBB@team1?$AA@ 4014ca1c     ui_main.obj
 0003:00010a24       ??_C@_0O@HPPEFNIJ@cg_siegeTeam1?$AA@ 4014ca24     ui_main.obj
 0003:00010a34       ??_C@_05EPHHAOKA@Teams?$AA@ 4014ca34     ui_main.obj
 0003:00010a3c       ??_C@_0O@OJPKLLB@maps?1?$CFs?4siege?$AA@ 4014ca3c     ui_main.obj
 0003:00010a4c       ??_C@_0P@CDNMBAJP@ui_class_speed?$AA@ 4014ca4c     ui_main.obj
 0003:00010a60       ??_C@_05KLHICNFN@?$CF3?42f?$AA@ 4014ca60     ui_main.obj
 0003:00010a68       ??_C@_0BB@EFKCLBJP@ui_class_power?$CFi?$AA@ 4014ca68     ui_main.obj
 0003:00010a7c       ??_C@_0BK@JKNGBPAN@ui_class_powerlevelslot?$CFi?$AA@ 4014ca7c     ui_main.obj
 0003:00010a9c       ??_C@_0BG@CHPIBCHN@ui_class_powerlevel?$CFi?$AA@ 4014ca9c     ui_main.obj
 0003:00010ab8       ??_C@_0BE@OKEDHDBF@ui_class_itemdesc?$CFi?$AA@ 4014cab8     ui_main.obj
 0003:00010ad0       ??_C@_0BK@DOBGMPNF@gfx?1hud?1w_icon_saberstaff?$AA@ 4014cad0     ui_main.obj
 0003:00010af0       ??_C@_0M@KCMILOII@SABER_STAFF?$AA@ 4014caf0     ui_main.obj
 0003:00010b00       ??_C@_0BO@FFKCLDKB@gfx?1hud?1w_icon_duallightsaber?$AA@ 4014cb00     ui_main.obj
 0003:00010b24       ??_C@_0BG@LMCEBDMO@ui_class_weapondesc?$CFi?$AA@ 4014cb24     ui_main.obj
 0003:00010b40       ??_C@_01CLKCMJKC@?5?$AA@   4014cb40     ui_main.obj
 0003:00010b44       ??_C@_0O@MJDHKOPJ@ui_class_icon?$AA@ 4014cb44     ui_main.obj
 0003:00010b54       ??_C@_0P@MDLJPIIB@ui_class_armor?$AA@ 4014cb54     ui_main.obj
 0003:00010b68       ??_C@_0BA@GPNLKCEM@ui_class_health?$AA@ 4014cb68     ui_main.obj
 0003:00010b7c       ??_C@_0BB@ONDFICAG@ui_class_force?$CFi?$AA@ 4014cb7c     ui_main.obj
 0003:00010b90       ??_C@_0BA@DIHPMMKF@ui_class_item?$CFi?$AA@ 4014cb90     ui_main.obj
 0003:00010ba4       ??_C@_0BC@NLJLEPPM@ui_class_weapon?$CFi?$AA@ 4014cba4     ui_main.obj
 0003:00010bbc       ??_C@_0O@MHPONILH@gfx?12d?1select?$AA@ 4014cbbc     ui_main.obj
 0003:00010bcc       ??_C@_0BB@KJJNHJDC@ui_classPortrait?$AA@ 4014cbcc     ui_main.obj
 0003:00010be0       ??_C@_0N@HMPBMGHL@ui_classDesc?$AA@ 4014cbe0     ui_main.obj
 0003:00010bf0       ??_C@_0BE@FPKHHEIG@ui_itemforceinvdesc?$AA@ 4014cbf0     ui_main.obj
 0003:00010c08       ??_C@_07EHHPJLF@ui_team?$AA@ 4014cc08     ui_main.obj
 0003:00010c14       ??_C@_06LIMIHEAN@?$CFs?4roq?$AA@ 4014cc14     ui_main.obj
 0003:00010c1c       ??_C@_0N@JIGKLBIC@ui_move_desc?$AA@ 4014cc1c     ui_main.obj
 0003:00010c2c       ??_C@_0BM@KNIODCMI@models?1players?1?$CFs?1model?4glm?$AA@ 4014cc2c     ui_main.obj
 0003:00010c50       ??_C@_0BA@LMLFIFFM@rulesMenu_moves?$AA@ 4014cc50     ui_main.obj
 0003:00010c64       ??_C@_0BA@PDECLNK@char_color_blue?$AA@ 4014cc64     ui_main.obj
 0003:00010c78       ??_C@_0BB@ECHDKGAH@char_color_green?$AA@ 4014cc78     ui_main.obj
 0003:00010c8c       ??_C@_0P@FBLDEJO@char_color_red?$AA@ 4014cc8c     ui_main.obj
 0003:00010ca0       ??_C@_08OFBBAHIC@?1default?$AA@ 4014cca0     ui_main.obj
 0003:00010cac       ??_C@_04PEPHHPEI@?1red?$AA@ 4014ccac     ui_main.obj
 0003:00010cb4       ??_C@_05GAHFLAHA@?1blue?$AA@ 4014ccb4     ui_main.obj
 0003:00010cbc       ??_C@_04ILAGGJBN@maps?$AA@ 4014ccbc     ui_main.obj
 0003:00010cc4       ??_C@_0O@EBHHCFIL@joingametypes?$AA@ 4014ccc4     ui_main.obj
 0003:00010cd4       ??_C@_09LDHGIFEE@gametypes?$AA@ 4014ccd4     ui_main.obj
 0003:00010ce0       ??_C@_0CI@IFAKKCDN@Too?5many?5game?5types?0?5last?5one?5re@ 4014cce0     ui_main.obj
 0003:00010d10       ??_C@_0CM@LGCBCNPC@Too?5many?5net?5game?5types?0?5last?5on@ 4014cd10     ui_main.obj
 0003:00010d44       ??_C@_0CD@INHJOHKK@Too?5many?5maps?0?5last?5one?5replaced@ 4014cd44     ui_main.obj
 0003:00010d70       ??_C@_0BE@CAPBAJFM@levelshots?1?$CFs_small?$AA@ 4014cd70     ui_main.obj
 0003:00010d88       ??_C@_0O@LAIEPDMG@forcecfg?1dark?$AA@ 4014cd88     ui_main.obj
 0003:00010d98       ??_C@_0P@IAEGIPNM@forcecfg?1light?$AA@ 4014cd98     ui_main.obj
 0003:00010dac       ??_C@_03LJMADBGE@fcf?$AA@  4014cdac     ui_main.obj
 0003:00010db0       ??_C@_06IFGIOHDE@Custom?$AA@ 4014cdb0     ui_main.obj
 0003:00010db8       ??_C@_0CJ@KLKCMJCL@Couldn?8t?5find?5any?5player?5teams?5f@ 4014cdb8     ui_main.obj
 0003:00010dec       ??_C@_0CL@BBGLILIJ@Couldn?8t?5find?5any?5player?5classes@ 4014cdec     ui_main.obj
 0003:00010e20       ??_C@_0BF@MGMPAIBH@ui_actualNetGameType?$AA@ 4014ce20     ui_main.obj
 0003:00010e3c       ??_C@_0P@EAAPMMHH@debug_protocol?$AA@ 4014ce3c     ui_main.obj
 0003:00010e50       ??_C@_0BB@OJMPICMM@ui_mousePitchVeh?$AA@ 4014ce50     ui_main.obj
 0003:00010e64       ??_C@_0L@EKHLDNPG@m_pitchVeh?$AA@ 4014ce64     ui_main.obj
 0003:00010e74       ??_C@_0O@OGIMAHGE@ui_mousePitch?$AA@ 4014ce74     ui_main.obj
 0003:00010e84       ??_C@_07JIEGLHEC@m_pitch?$AA@ 4014ce84     ui_main.obj
 0003:00010e90       ??_C@_06IPMAANOD@color1?$AA@ 4014ce90     ui_main.obj
 0003:00010e98       ??_C@_07GAIGJCKN@ui_name?$AA@ 4014ce98     ui_main.obj
 0003:00010ea4       ??_C@_0BA@BEBIMAO@ui?1menutest?4txt?$AA@ 4014cea4     ui_main.obj
 0003:00010eb8       ??_C@_05PMAELIEO@white?$AA@ 4014ceb8     ui_main.obj
 0003:00010ec0       ??_C@_0BD@CHEDBJDN@menu?1art?13_cursor2?$AA@ 4014cec0     ui_main.obj
 0003:00010ed8       __real@3f5999999999999a    4014ced8     ui_main.obj
 0003:00010ee8       __real@3f61111111111111    4014cee8     ui_main.obj
 0003:00010ef4       ??_C@_0BC@HHPGHHIK@g_siegeTeamSwitch?$AA@ 4014cef4     ui_main.obj
 0003:00010f0c       ??_C@_0BI@DIFBAOHB@ui_lastServerRefresh_?$CFi?$AA@ 4014cf0c     ui_main.obj
 0003:00010f28       ??_C@_0BE@KBBNIJIF@WAITING_FOR_NEW_KEY?$AA@ 4014cf28     ui_main.obj
 0003:00010f40       ??_C@_0L@CJHDKEPC@MENUS_GAME?$AA@ 4014cf40     ui_main.obj
 0003:00010f50       ??_C@_05DNIIFBMG@?$CFs?5?$CFs?$AA@ 4014cf50     ui_main.obj
 0003:00010f58       ??_C@_0N@DMCGCPKM@MENUS_SOURCE?$AA@ 4014cf58     ui_main.obj
 0003:00010f68       ??_C@_0N@BOLNHJIJ@ui_redteam?$CFi?$AA@ 4014cf68     ui_main.obj
 0003:00010f78       ??_C@_06DELKPIEN@?$CFi?4?5?$CFs?$AA@ 4014cf78     ui_main.obj
 0003:00010f80       ??_C@_05OHCDHBAC@Human?$AA@ 4014cf80     ui_main.obj
 0003:00010f88       ??_C@_0O@MBOEOCIO@ui_blueteam?$CFi?$AA@ 4014cf88     ui_main.obj
 0003:00010f98       ??_C@_0L@GHKHHDJL@ui_redTeam?$AA@ 4014cf98     ui_main.obj
 0003:00010fa8       ??_C@_06DJHOIPC@?$CFs?3?5?$CFs?$AA@ 4014cfa8     ui_main.obj
 0003:00010fb0       ??_C@_0M@BANABNHI@ui_blueTeam?$AA@ 4014cfb0     ui_main.obj
 0003:00010fc0       ??_C@_0M@MLHGGMAA@ui_teamName?$AA@ 4014cfc0     ui_main.obj
 0003:00010fd0       ??_C@_09FBJDPOOB@MP_INGAME?$AA@ 4014cfd0     ui_main.obj
 0003:00010fdc       ??_C@_03IPHJCBHH@YES?$AA@  4014cfdc     ui_main.obj
 0003:00010fe0       ??_C@_02NFLNFON@NO?$AA@    4014cfe0     ui_main.obj
 0003:00010fe4       ??_C@_0P@PMJMCPLH@FORCEDESC_DARK?$AA@ 4014cfe4     ui_main.obj
 0003:00010ff8       ??_C@_0BA@DCIMPCAI@FORCEDESC_LIGHT?$AA@ 4014cff8     ui_main.obj
 0003:0001100c       ??_C@_07MGCPDNLD@DEFAULT?$AA@ 4014d00c     ui_main.obj
 0003:00011018       ??_C@_09BBDECAKM@TEAM_BLUE?$AA@ 4014d018     ui_main.obj
 0003:00011024       ??_C@_05ONMCFNBF@MENUS?$AA@ 4014d024     ui_main.obj
 0003:0001102c       ??_C@_08DPIMAKME@TEAM_RED?$AA@ 4014d02c     ui_main.obj
 0003:00011038       __real@40a00000            4014d038     ui_main.obj
 0003:0001103c       __real@42c80000            4014d03c     ui_main.obj
 0003:00011040       ??_C@_08HBHLIHAM@handicap?$AA@ 4014d040     ui_main.obj
 0003:0001104c       ??_C@_02HHFHKOHM@?$DP?$DP?$AA@ 4014d04c     ui_main.obj
 0003:00011050       ??_C@_0M@POGPACHD@NET_SOURCES?$AA@ 4014d050     ui_main.obj
 0003:00011060       ??_C@_04PJHBGHKA@SAGA?$AA@ 4014d060     ui_main.obj
 0003:00011068       ??_C@_0BG@NKPMOGAN@CAPTURE_THE_YSALIMARI?$AA@ 4014d068     ui_main.obj
 0003:00011084       ??_C@_0BB@NFDNICPD@CAPTURE_THE_FLAG?$AA@ 4014d084     ui_main.obj
 0003:00011098       ??_C@_05MFNFJGDH@SIEGE?$AA@ 4014d098     ui_main.obj
 0003:000110a0       ??_C@_08JPMGIABA@TEAM_FFA?$AA@ 4014d0a0     ui_main.obj
 0003:000110ac       ??_C@_09NHOBJKNB@POWERDUEL?$AA@ 4014d0ac     ui_main.obj
 0003:000110b8       ??_C@_04ECOAEGNJ@DUEL?$AA@ 4014d0b8     ui_main.obj
 0003:000110c0       ??_C@_04CEIEPFLJ@COOP?$AA@ 4014d0c0     ui_main.obj
 0003:000110c8       ??_C@_09BLDMCLOM@OJP_MENUS?$AA@ 4014d0c8     ui_main.obj
 0003:000110d4       ??_C@_0L@EJHINIDC@JEDIMASTER?$AA@ 4014d0d4     ui_main.obj
 0003:000110e4       ??_C@_0N@IFFHBAH@HOLOCRON_FFA?$AA@ 4014d0e4     ui_main.obj
 0003:000110f4       ??_C@_0N@OPJELAJP@FREE_FOR_ALL?$AA@ 4014d0f4     ui_main.obj
 0003:00011104       ??_C@_0P@INPBKGBE@ui_netGameType?$AA@ 4014d104     ui_main.obj
 0003:00011118       ??_C@_0M@GHKAFFGG@AUTOSWITCH0?$AA@ 4014d118     ui_main.obj
 0003:00011128       ??_C@_0M@EMINAGKF@AUTOSWITCH3?$AA@ 4014d128     ui_main.obj
 0003:00011138       ??_C@_0M@FFJGDHOE@AUTOSWITCH2?$AA@ 4014d138     ui_main.obj
 0003:00011148       ??_C@_0M@HOLLGECH@AUTOSWITCH1?$AA@ 4014d148     ui_main.obj
 0003:00011158       ??_C@_0O@JKEEFDLF@cg_autoswitch?$AA@ 4014d158     ui_main.obj
 0003:00011168       ??_C@_0BA@PKEACILF@ui_joinGameType?$AA@ 4014d168     ui_main.obj
 0003:0001117c       ??_C@_07PGAOKCOL@?$CFs_name?$AA@ 4014d17c     ui_main.obj
 0003:00011188       ??_C@_08KHGKHFFO@?$CFs_metal?$AA@ 4014d188     ui_main.obj
 0003:00011194       ??_C@_0O@LCEJIGL@MENUS_DEFAULT?$AA@ 4014d194     ui_main.obj
 0003:000111a4       ??_C@_0BA@POGJPFNH@MENUS_TEAM_BLUE?$AA@ 4014d1a4     ui_main.obj
 0003:000111b8       ??_C@_0P@LHEJFLIH@MENUS_TEAM_RED?$AA@ 4014d1b8     ui_main.obj
 0003:000111cc       ??_C@_0BF@NOJGOFAC@MENUS_FORCEDESC_DARK?$AA@ 4014d1cc     ui_main.obj
 0003:000111e8       ??_C@_0BB@JKOHNFAK@lightpowers_team?$AA@ 4014d1e8     ui_main.obj
 0003:000111fc       ??_C@_0BA@FFAMFDAO@darkpowers_team?$AA@ 4014d1fc     ui_main.obj
 0003:00011210       ??_C@_0L@LGILNIKN@forcealloc?$AA@ 4014d210     ui_main.obj
 0003:00011220       ??_C@_0BG@IJKFLPMB@MENUS_FORCEDESC_LIGHT?$AA@ 4014d220     ui_main.obj
 0003:0001123c       ??_C@_09MPFFGIMJ@MENUS_YES?$AA@ 4014d23c     ui_main.obj
 0003:00011248       ??_C@_08POBJANAH@MENUS_NO?$AA@ 4014d248     ui_main.obj
 0003:00011254       ??_C@_03PADCEAKC@Red?$AA@  4014d254     ui_main.obj
 0003:00011258       ??_C@_04CAKOHOCJ@Blue?$AA@ 4014d258     ui_main.obj
 0003:00011260       ??_C@_05CLBJJDHK@HUMAN?$AA@ 4014d260     ui_main.obj
 0003:00011268       ??_C@_06IOLFCPIM@CLOSED?$AA@ 4014d268     ui_main.obj
 0003:00011270       ??_C@_0BH@NKLBLPLI@menu?1art?1unknownmap_mp?$AA@ 4014d270     ui_main.obj
 0003:0001128c       ??_C@_08BHLPCOBE@Tier?3?5?$CFs?$AA@ 4014d28c     ui_main.obj
 0003:00011298       ??_C@_0P@OGEPOBCA@ui_currentTier?$AA@ 4014d298     ui_main.obj
 0003:000112ac       ??_C@_0L@OJGDGPCJ@PLAYERTEAM?$AA@ 4014d2ac     ui_main.obj
 0003:000112bc       ??_C@_09EIEABFEM@ENEMYTEAM?$AA@ 4014d2bc     ui_main.obj
 0003:000112c8       __real@4014000000000000    4014d2c8     ui_main.obj
 0003:000112d4       ??_C@_03HPADHAHE@N?1A?$AA@ 4014d2d4     ui_main.obj
 0003:000112d8       ??_C@_08LFOMOGKF@Everyone?$AA@ 4014d2d8     ui_main.obj
 0003:000112e4       ??_C@_01EFFIKLCJ@n?$AA@    4014d2e4     ui_main.obj
 0003:000112e8       ??_C@_0O@OCOCOONB@sv_maxclients?$AA@ 4014d2e8     ui_main.obj
 0003:000112f8       ??_C@_01PFHFFBPC@t?$AA@    4014d2f8     ui_main.obj
 0003:000112fc       ??_C@_02JKAOMCMK@tl?$AA@   4014d2fc     ui_main.obj
 0003:00011300       ??_C@_0BN@CIDKCPCG@MP_INGAME_SERVER_REFRESHTIME?$AA@ 4014d300     ui_main.obj
 0003:00011324       ??_C@_0CA@HGNDPDMG@MP_INGAME_GETTINGINFOFORSERVERS?$AA@ 4014d324     ui_main.obj
 0003:00011350       __real@3fe999999999999a    4014d350     ui_main.obj
 0003:00011360       __real@4026000000000000    4014d360     ui_main.obj
 0003:00011370       __real@403e000000000000    4014d370     ui_main.obj
 0003:0001137c       ??_C@_0DL@LAIIPCFN@GL_PIXELFORMAT?3?5color?$CI?$CFd?9bits?$CJ?5Z@ 4014d37c     ui_main.obj
 0003:000113c8       __real@402e000000000000    4014d3c8     ui_main.obj
 0003:000113d4       ??_C@_0BD@FDNFBAAO@GL_VERSION?3?5?$CFs?3?5?$CFs?$AA@ 4014d3d4     ui_main.obj
 0003:000113ec       ??_C@_0O@LCMFPEGO@GL_VENDOR?3?5?$CFs?$AA@ 4014d3ec     ui_main.obj
 0003:000113fc       ??_C@_0BG@KLFHEFNA@?$CIdebug?$CJJAmp?3?5v1?40?41?40?$AA@ 4014d3fc     ui_main.obj
 0003:00011418       ??_C@_07BFJJCEJD@tactics?$AA@ 4014d418     ui_main.obj
 0003:00011424       ??_C@_04OEEIACIO@spot?$AA@ 4014d424     ui_main.obj
 0003:0001142c       ??_C@_05INAKFKMM@reply?$AA@ 4014d42c     ui_main.obj
 0003:00011434       ??_C@_07ENHGAJCI@request?$AA@ 4014d434     ui_main.obj
 0003:00011440       ??_C@_06BMABBLML@defend?$AA@ 4014d440     ui_main.obj
 0003:00011448       ??_C@_06JMLBDJHL@attack?$AA@ 4014d448     ui_main.obj
 0003:00011450       ??_C@_06JANNPBFM@att_03?$AA@ 4014d450     ui_main.obj
 0003:00011458       ??_C@_06IJMGMABN@att_02?$AA@ 4014d458     ui_main.obj
 0003:00011460       ??_C@_06KCOLJDNO@att_01?$AA@ 4014d460     ui_main.obj
 0003:00011468       ??_C@_06FPAOFNOA@def_04?$AA@ 4014d468     ui_main.obj
 0003:00011470       ??_C@_06BAEPMLCH@def_03?$AA@ 4014d470     ui_main.obj
 0003:00011478       ??_C@_06JFEPKGG@def_02?$AA@ 4014d478     ui_main.obj
 0003:00011480       ??_C@_06CCHJKJKF@def_01?$AA@ 4014d480     ui_main.obj
 0003:00011488       ??_C@_06LLPGNNAE@req_06?$AA@ 4014d488     ui_main.obj
 0003:00011490       ??_C@_06JANLIOMH@req_05?$AA@ 4014d490     ui_main.obj
