 cgamex86

 Timestamp is 4e0408ea (Thu Jun 23 23:47:54 2011)

 Preferred load address is 30000000

 Start         Length     Name                   Class
 0001:00000000 000f8beaH .textbss                DATA
 0002:00000000 001f52eaH .text                   CODE
 0002:001f52f0 00007005H .text$x                 CODE
 0002:001fc300 0000137aH .text$yc                CODE
 0002:001fd680 00001294H .text$yd                CODE
 0003:00000000 00000104H .CRT$XCA                DATA
 0003:00000104 00000104H .CRT$XCC                DATA
 0003:00000208 0000012eH .CRT$XCU                DATA
 0003:00000338 00000104H .CRT$XCZ                DATA
 0003:0000043c 00000104H .CRT$XIA                DATA
 0003:00000540 00000118H .CRT$XIC                DATA
 0003:00000658 00000104H .CRT$XIZ                DATA
 0003:0000075c 00000104H .CRT$XPA                DATA
 0003:00000860 00000109H .CRT$XPX                DATA
 0003:0000096c 00000104H .CRT$XPXA               DATA
 0003:00000a70 00000104H .CRT$XPZ                DATA
 0003:00000b74 00000104H .CRT$XTA                DATA
 0003:00000c78 00000104H .CRT$XTZ                DATA
 0003:00000d80 00044d1dH .rdata                  DATA
 0003:00045aa0 0000014fH .rdata$debug            DATA
 0003:00045bf0 00001178H .rdata$r                DATA
 0003:00046d68 00000104H .rtc$IAA                DATA
 0003:00046e6c 00000250H .rtc$IMZ                DATA
 0003:000470bc 00000104H .rtc$IZZ                DATA
 0003:000471c0 00000104H .rtc$TAA                DATA
 0003:000472c4 00000250H .rtc$TMZ                DATA
 0003:00047514 00000104H .rtc$TZZ                DATA
 0003:00047618 00006313H .xdata$x                DATA
 0003:0004d930 0000016aH .edata                  DATA
 0004:00000000 000114eeH .data                   DATA
 0004:00011500 00ce2fa8H .bss                    DATA
 0005:00000000 00000014H .idata$2                DATA
 0005:00000014 00000014H .idata$3                DATA
 0005:00000028 000001c8H .idata$4                DATA
 0005:000001f0 000001c8H .idata$5                DATA
 0005:000003b8 000007d7H .idata$6                DATA
 0006:00000000 00000169H .rsrc$01                DATA
 0006:00000170 000002e9H .rsrc$02                DATA

  Address         Publics by Value              Rva+Base       Lib:Object

 0000:00000000       __except_list              00000000     <absolute>
 0000:00000000       ___safe_se_handler_table   00000000     <absolute>
 0000:00000000       ___safe_se_handler_count   00000000     <absolute>
 0000:00000000       ___ImageBase               30000000     <linker-defined>
 0001:00000000       __enc$textbss$begin        30001000     <linker-defined>
 0001:000f8bea       __enc$textbss$end          300f9bea     <linker-defined>
 0002:00009ec0       ?AnimalProcessOri@@YAXPAUVehicle_s@@@Z 30103ec0 f   AnimalNPC.obj
 0002:0000a110       ?G_SetAnimalVehicleFunctions@@YAXPAUvehicleInfo_t@@@Z 30104110 f   AnimalNPC.obj
 0002:0000a5d0       ?G_CreateAnimalNPC@@YAXPAPAUVehicle_s@@PBD@Z 301045d0 f   AnimalNPC.obj
 0002:0000a680       ?BG_AttachToRancor@@YAXPAXMQAMHPAH1W4qboolean@@11QAY02M@Z 30104680 f   bg_g2_utils.obj
 0002:0000aba0       ?BG_AttachToSandCreature@@YAXPAXMQAMHPAH111QAY02M@Z 30104ba0 f   bg_g2_utils.obj
 0002:0000ae20       ?BG_GetRootSurfNameWithVariant@@YA?AW4qboolean@@PAXPBDPADH@Z 30104e20 f   bg_g2_utils.obj
 0002:0000af30       ?BG_FileExists@@YA?AW4qboolean@@PBD@Z 30104f30 f   bg_misc.obj
 0002:0000b010       ?BG_ParseField@@YAXPAUBG_field_t@@PBD1PAE@Z 30105010 f   bg_misc.obj
 0002:0000b260       ?BG_LegalizedForcePowers@@YA?AW4qboolean@@PADHW41@HHH@Z 30105260 f   bg_misc.obj
 0002:0000c0e0       ?vectoyaw@@YAMQBM@Z        301060e0 f   bg_misc.obj
 0002:0000c200       ?atan2@@YAMMM@Z            30106200 f i bg_misc.obj
 0002:0000c260       _atan2f                    30106260 f i bg_misc.obj
 0002:0000c2d0       ?BG_HasYsalamiri@@YA?AW4qboolean@@HPAUplayerState_s@@@Z 301062d0 f   bg_misc.obj
 0002:0000c350       ?BG_CanUseFPNow@@YA?AW4qboolean@@HPAUplayerState_s@@HH@Z 30106350 f   bg_misc.obj
 0002:0000c580       ?BG_FindItemForPowerup@@YAPAUgitem_s@@H@Z 30106580 f   bg_misc.obj
 0002:0000c630       ?BG_FindItemForHoldable@@YAPAUgitem_s@@H@Z 30106630 f   bg_misc.obj
 0002:0000c6f0       ?BG_FindItemForWeapon@@YAPAUgitem_s@@H@Z 301066f0 f   bg_misc.obj
 0002:0000c790       ?BG_FindItemForAmmo@@YAPAUgitem_s@@W4ammo_t@@@Z 30106790 f   bg_misc.obj
 0002:0000c830       ?BG_FindItem@@YAPAUgitem_s@@PBD@Z 30106830 f   bg_misc.obj
 0002:0000c8c0       ?BG_PlayerTouchesItem@@YA?AW4qboolean@@PAUplayerState_s@@PAUentityState_s@@H@Z 301068c0 f   bg_misc.obj
 0002:0000ca20       ?BG_ProperForceIndex@@YAHH@Z 30106a20 f   bg_misc.obj
 0002:0000ca90       ?BG_CycleForce@@YAXPAUplayerState_s@@H@Z 30106a90 f   bg_misc.obj
 0002:0000cc70       ?BG_GetItemIndexByTag@@YAHHH@Z 30106c70 f   bg_misc.obj
 0002:0000cd00       ?BG_IsItemSelectable@@YA?AW4qboolean@@PAUplayerState_s@@H@Z 30106d00 f   bg_misc.obj
 0002:0000cd50       ?BG_CycleInven@@YAXPAUplayerState_s@@H@Z 30106d50 f   bg_misc.obj
 0002:0000cec0       ?BG_CanItemBeGrabbed@@YA?AW4qboolean@@HPBUentityState_s@@PBUplayerState_s@@@Z 30106ec0 f   bg_misc.obj
 0002:0000d520       ?BG_EvaluateTrajectory@@YAXPBUtrajectory_t@@HQAM@Z 30107520 f   bg_misc.obj
 0002:0000d9e0       ?cos@@YAMM@Z               301079e0 f i bg_misc.obj
 0002:0000da40       _cosf                      30107a40 f i bg_misc.obj
 0002:0000dab0       ?sin@@YAMM@Z               30107ab0 f i bg_misc.obj
 0002:0000db10       _sinf                      30107b10 f i bg_misc.obj
 0002:0000db80       ?BG_EvaluateTrajectoryDelta@@YAXPBUtrajectory_t@@HQAM@Z 30107b80 f   bg_misc.obj
 0002:0000df10       ?BG_AddPredictableEventToPlayerstate@@YAXHHPAUplayerState_s@@@Z 30107f10 f   bg_misc.obj
 0002:0000e030       ?BG_TouchJumpPad@@YAXPAUplayerState_s@@PAUentityState_s@@@Z 30108030 f   bg_misc.obj
 0002:0000e1b0       ?fabs@@YAMM@Z              301081b0 f i bg_misc.obj
 0002:0000e210       _fabsf                     30108210 f i bg_misc.obj
 0002:0000e280       ?BG_EmplacedView@@YAHQAM0PAMM@Z 30108280 f   bg_misc.obj
 0002:0000e3e0       ?BG_IsValidCharacterModel@@YA?AW4qboolean@@PBD0@Z 301083e0 f   bg_misc.obj
 0002:0000e4d0       ?BG_ValidateSkinForTeam@@YA?AW4qboolean@@PBDPADHPAM@Z 301084d0 f   bg_misc.obj
 0002:0000e8f0       ?strchr@@YAPADPADH@Z       301088f0 f i bg_misc.obj
 0002:0000e950       ?BG_PlayerStateToEntityState@@YAXPAUplayerState_s@@PAUentityState_s@@W4qboolean@@@Z 30108950 f   bg_misc.obj
 0002:0000f1b0       ?BG_PlayerStateToEntityStateExtraPolate@@YAXPAUplayerState_s@@PAUentityState_s@@HW4qboolean@@@Z 301091b0 f   bg_misc.obj
 0002:0000f940       ?BG_ModelCache@@YAHPBD0@Z  30109940 f   bg_misc.obj
 0002:0000f9b0       ?BG_Alloc@@YAPAXH@Z        301099b0 f   bg_misc.obj
 0002:0000fa70       ?BG_AllocUnaligned@@YAPAXH@Z 30109a70 f   bg_misc.obj
 0002:0000fb10       ?BG_TempAlloc@@YAPAXH@Z    30109b10 f   bg_misc.obj
 0002:0000fbc0       ?BG_TempFree@@YAXH@Z       30109bc0 f   bg_misc.obj
 0002:0000fc60       ?BG_StringAlloc@@YAPADPBD@Z 30109c60 f   bg_misc.obj
 0002:0000fce0       ?BG_OutOfMemory@@YA?AW4qboolean@@XZ 30109ce0 f   bg_misc.obj
 0002:0000fd30       ?BG_IsWhiteSpace@@YA?AW4qboolean@@D@Z 30109d30 f   bg_misc.obj
 0002:0000fd90       ?BG_IsLMSGametype@@YA?AW4qboolean@@H@Z 30109d90 f   bg_misc.obj
 0002:0000fde0       ?BG_IsUsingMediumWeap@@YA?AW4qboolean@@PAUplayerState_s@@@Z 30109de0 f   bg_misc.obj
 0002:0000fea0       ?BG_IsUsingHeavyWeap@@YA?AW4qboolean@@PAUplayerState_s@@@Z 30109ea0 f   bg_misc.obj
 0002:0000ff70       ?BG_SaberStanceAnim@@YA?AW4qboolean@@H@Z 30109f70 f   bg_panimate.obj
 0002:00010030       ?BG_CrouchAnim@@YA?AW4qboolean@@H@Z 3010a030 f   bg_panimate.obj
 0002:00010210       ?BG_InSpecialJump@@YA?AW4qboolean@@H@Z 3010a210 f   bg_panimate.obj
 0002:00010410       ?BG_InSaberStandAnim@@YA?AW4qboolean@@H@Z 3010a410 f   bg_panimate.obj
 0002:000104c0       ?BG_InReboundJump@@YA?AW4qboolean@@H@Z 3010a4c0 f   bg_panimate.obj
 0002:00010530       ?BG_InReboundHold@@YA?AW4qboolean@@H@Z 3010a530 f   bg_panimate.obj
 0002:000105a0       ?BG_InReboundRelease@@YA?AW4qboolean@@H@Z 3010a5a0 f   bg_panimate.obj
 0002:00010610       ?BG_InLedgeMove@@YA?AW4qboolean@@H@Z 3010a610 f   bg_panimate.obj
 0002:00010680       ?In_LedgeIdle@@YA?AW4qboolean@@H@Z 3010a680 f   bg_panimate.obj
 0002:000106f0       ?BG_InBackFlip@@YA?AW4qboolean@@H@Z 3010a6f0 f   bg_panimate.obj
 0002:00010760       ?BG_DirectFlippingAnim@@YA?AW4qboolean@@H@Z 3010a760 f   bg_panimate.obj
 0002:000107d0       ?BG_SaberInAttackPure@@YA?AW4qboolean@@H@Z 3010a7d0 f   bg_panimate.obj
 0002:00010820       ?BG_SaberInAttack@@YA?AW4qboolean@@H@Z 3010a820 f   bg_panimate.obj
 0002:000108a0       ?BG_SaberInKata@@YA?AW4qboolean@@H@Z 3010a8a0 f   bg_panimate.obj
 0002:00010900       ?BG_InKataAnim@@YA?AW4qboolean@@H@Z 3010a900 f   bg_panimate.obj
 0002:00010970       ?PM_LockedAnim@@YA?AW4qboolean@@H@Z 3010a970 f   bg_panimate.obj
 0002:00010a20       ?BG_SaberInSpecial@@YA?AW4qboolean@@H@Z 3010aa20 f   bg_panimate.obj
 0002:00010a80       ?BG_KickMove@@YA?AW4qboolean@@H@Z 3010aa80 f   bg_panimate.obj
 0002:00010af0       ?BG_SaberInIdle@@YA?AW4qboolean@@H@Z 3010aaf0 f   bg_panimate.obj
 0002:00010b50       ?BG_InExtraDefenseSaberMove@@YA?AW4qboolean@@H@Z 3010ab50 f   bg_panimate.obj
 0002:00010c10       ?BG_FlippingAnim@@YA?AW4qboolean@@H@Z 3010ac10 f   bg_panimate.obj
 0002:00010da0       ?BG_SpinningSaberAnim@@YA?AW4qboolean@@H@Z 3010ada0 f   bg_panimate.obj
 0002:00011160       ?BG_SaberInSpecialAttack@@YA?AW4qboolean@@H@Z 3010b160 f   bg_panimate.obj
 0002:00011390       ?BG_PunchAnim@@YA?AW4qboolean@@H@Z 3010b390 f   bg_panimate.obj
 0002:000113f0       ?BG_KickingAnim@@YA?AW4qboolean@@H@Z 3010b3f0 f   bg_panimate.obj
 0002:000114e0       ?BG_InGrappleMove@@YAHH@Z  3010b4e0 f   bg_panimate.obj
 0002:000115e0       ?BG_BrokenParryForAttack@@YAHH@Z 3010b5e0 f   bg_panimate.obj
 0002:000116d0       ?BG_BrokenParryForParry@@YAHH@Z 3010b6d0 f   bg_panimate.obj
 0002:000118b0       ?BG_KnockawayForParry@@YAHH@Z 3010b8b0 f   bg_panimate.obj
 0002:00011960       ?PM_InRollIgnoreTimer@@YA?AW4qboolean@@PAUplayerState_s@@@Z 3010b960 f   bg_panimate.obj
 0002:00011a60       ?BG_InRoll@@YA?AW4qboolean@@PAUplayerState_s@@H@Z 3010ba60 f   bg_panimate.obj
 0002:00011b60       ?BG_InSpecialDeathAnim@@YA?AW4qboolean@@H@Z 3010bb60 f   bg_panimate.obj
 0002:00011bc0       ?BG_InDeathAnim@@YA?AW4qboolean@@H@Z 3010bbc0 f   bg_panimate.obj
 0002:00011c80       ?BG_InKnockDownOnly@@YA?AW4qboolean@@H@Z 3010bc80 f   bg_panimate.obj
 0002:00011d20       ?BG_InSaberLockOld@@YA?AW4qboolean@@H@Z 3010bd20 f   bg_panimate.obj
 0002:00011dc0       ?BG_InSaberLock@@YA?AW4qboolean@@H@Z 3010bdc0 f   bg_panimate.obj
 0002:00011ee0       ?PM_InCartwheel@@YA?AW4qboolean@@H@Z 3010bee0 f   bg_panimate.obj
 0002:00011f60       ?PM_InAirKickingAnim@@YA?AW4qboolean@@H@Z 3010bf60 f   bg_panimate.obj
 0002:00011fd0       ?BG_InKnockDownOnGround@@YA?AW4qboolean@@PAUplayerState_s@@@Z 3010bfd0 f   bg_panimate.obj
 0002:00012200       ?BG_StabDownAnim@@YA?AW4qboolean@@H@Z 3010c200 f   bg_panimate.obj
 0002:00012270       ?PM_SaberBounceForAttack@@YAHH@Z 3010c270 f   bg_panimate.obj
 0002:00012350       ?InvertQuad@@YAHH@Z        3010c350 f   bg_panimate.obj
 0002:00012430       ?PM_SaberDeflectionForQuad@@YAHH@Z 3010c430 f   bg_panimate.obj
 0002:00012510       ?PM_SaberInParry@@YA?AW4qboolean@@H@Z 3010c510 f   bg_panimate.obj
 0002:00012560       ?BG_InWalk@@YA?AW4qboolean@@H@Z 3010c560 f   bg_panimate.obj
 0002:000126d0       ?PM_SaberInKnockaway@@YA?AW4qboolean@@H@Z 3010c6d0 f   bg_panimate.obj
 0002:00012720       ?PM_KnockawayAnim@@YA?AW4qboolean@@H@Z 3010c720 f   bg_panimate.obj
 0002:000127b0       ?PM_SaberInReflect@@YA?AW4qboolean@@H@Z 3010c7b0 f   bg_panimate.obj
 0002:00012800       ?PM_SaberInStart@@YA?AW4qboolean@@H@Z 3010c800 f   bg_panimate.obj
 0002:00012850       ?PM_SaberInReturn@@YA?AW4qboolean@@H@Z 3010c850 f   bg_panimate.obj
 0002:000128a0       ?BG_SaberInReturn@@YA?AW4qboolean@@H@Z 3010c8a0 f   bg_panimate.obj
 0002:000128f0       ?PM_InSaberAnim@@YA?AW4qboolean@@H@Z 3010c8f0 f   bg_panimate.obj
 0002:00012940       ?PM_InForceGetUp@@YA?AW4qboolean@@PAUplayerState_s@@@Z 3010c940 f   bg_panimate.obj
 0002:000129c0       ?PM_InGetUp@@YA?AW4qboolean@@PAUplayerState_s@@@Z 3010c9c0 f   bg_panimate.obj
 0002:00012aa0       ?PM_InKnockDown@@YA?AW4qboolean@@PAUplayerState_s@@@Z 3010caa0 f   bg_panimate.obj
 0002:00012bc0       ?PM_PainAnim@@YA?AW4qboolean@@H@Z 3010cbc0 f   bg_panimate.obj
 0002:00012c20       ?PM_JumpingAnim@@YA?AW4qboolean@@H@Z 3010cc20 f   bg_panimate.obj
 0002:00012c90       ?PM_LandingAnim@@YA?AW4qboolean@@H@Z 3010cc90 f   bg_panimate.obj
 0002:00012d40       ?PM_SaberReturnAnim@@YA?AW4qboolean@@H@Z 3010cd40 f   bg_panimate.obj
 0002:00012e20       ?PM_SpinningAnim@@YA?AW4qboolean@@H@Z 3010ce20 f   bg_panimate.obj
 0002:00012e70       ?PM_InOnGroundAnim@@YA?AW4qboolean@@H@Z 3010ce70 f   bg_panimate.obj
 0002:00012f80       ?PM_InRollComplete@@YA?AW4qboolean@@PAUplayerState_s@@H@Z 3010cf80 f   bg_panimate.obj
 0002:00012ff0       ?PM_CanRollFromSoulCal@@YA?AW4qboolean@@PAUplayerState_s@@@Z 3010cff0 f   bg_panimate.obj
 0002:00013060       ?BG_SuperBreakLoseAnim@@YA?AW4qboolean@@H@Z 3010d060 f   bg_panimate.obj
 0002:00013160       ?BG_SuperBreakWinAnim@@YA?AW4qboolean@@H@Z 3010d160 f   bg_panimate.obj
 0002:00013260       ?BG_SaberLockBreakAnim@@YA?AW4qboolean@@H@Z 3010d260 f   bg_panimate.obj
 0002:000133d0       ?BG_KnockDownAnim@@YA?AW4qboolean@@H@Z 3010d3d0 f   bg_panimate.obj
 0002:00013470       ?PM_KnockDownAnimExtended@@YA?AW4qboolean@@H@Z 3010d470 f   bg_panimate.obj
 0002:00013540       ?BG_FullBodyTauntAnim@@YA?AW4qboolean@@H@Z 3010d540 f   bg_panimate.obj
 0002:00013600       ?BG_AnimLength@@YAHHW4animNumber_t@@@Z 3010d600 f   bg_panimate.obj
 0002:000136d0       ?PM_AnimLength@@YAHHW4animNumber_t@@@Z 3010d6d0 f   bg_panimate.obj
 0002:000137d0       ?PM_DebugLegsAnim@@YAXH@Z  3010d7d0 f   bg_panimate.obj
 0002:000138a0       ?PM_SaberInTransition@@YA?AW4qboolean@@H@Z 3010d8a0 f   bg_panimate.obj
 0002:000138f0       ?BG_SaberInTransitionAny@@YA?AW4qboolean@@H@Z 3010d8f0 f   bg_panimate.obj
 0002:00013990       ?BG_FlipPart@@YAXPAUplayerState_s@@H@Z 3010d990 f   bg_panimate.obj
 0002:00013a20       ?BG_InitAnimsets@@YAXXZ    3010da20 f   bg_panimate.obj
 0002:00013a90       ?BG_ClearAnimsets@@YAXXZ   3010da90 f   bg_panimate.obj
 0002:00013ac0       ?BG_AnimsetAlloc@@YAPAUanimation_s@@XZ 3010dac0 f   bg_panimate.obj
 0002:00013b60       ?BG_AnimsetFree@@YAXPAUanimation_s@@@Z 3010db60 f   bg_panimate.obj
 0002:00013b90       ?BG_ParseAnimationFile@@YAHPBDPAUanimation_s@@W4qboolean@@@Z 3010db90 f   bg_panimate.obj
 0002:00014310       ?ceil@@YAMM@Z              3010e310 f i bg_panimate.obj
 0002:00014370       _ceilf                     3010e370 f i bg_panimate.obj
 0002:000143e0       ?floor@@YAMM@Z             3010e3e0 f i bg_panimate.obj
 0002:00014440       _floorf                    3010e440 f i bg_panimate.obj
 0002:000144b0       ?PM_ContinueLegsAnim@@YAXH@Z 3010e4b0 f   bg_panimate.obj
 0002:000145f0       ?PM_ForceLegsAnim@@YAXH@Z  3010e5f0 f   bg_panimate.obj
 0002:00014700       ?BG_StartTorsoAnim@@YAXPAUplayerState_s@@H@Z 3010e700 f   bg_panimate.obj
 0002:00014780       ?PM_StartTorsoAnim@@YAXH@Z 3010e780 f   bg_panimate.obj
 0002:000147e0       ?BG_SetLegsAnimTimer@@YAXPAUplayerState_s@@H@Z 3010e7e0 f   bg_panimate.obj
 0002:00014840       ?PM_SetLegsAnimTimer@@YAXH@Z 3010e840 f   bg_panimate.obj
 0002:000148a0       ?BG_SetTorsoAnimTimer@@YAXPAUplayerState_s@@H@Z 3010e8a0 f   bg_panimate.obj
 0002:00014900       ?PM_SetTorsoAnimTimer@@YAXH@Z 3010e900 f   bg_panimate.obj
 0002:00014960       ?BG_SaberStartTransAnim@@YAXHHHHPAMHH@Z 3010e960 f   bg_panimate.obj
 0002:00014de0       ?BG_SetAnimFinal@@YAXPAUplayerState_s@@PAUanimation_s@@HHHH@Z 3010ede0 f   bg_panimate.obj
 0002:000154e0       ?PM_SetAnimFinal@@YAXHHHH@Z 3010f4e0 f   bg_panimate.obj
 0002:00015560       ?BG_HasAnimation@@YA?AW4qboolean@@HH@Z 3010f560 f   bg_panimate.obj
 0002:00015600       ?BG_PickAnim@@YAHHHH@Z     3010f600 f   bg_panimate.obj
 0002:000156b0       ?BG_SetAnim@@YAXPAUplayerState_s@@PAUanimation_s@@HHHH@Z 3010f6b0 f   bg_panimate.obj
 0002:000158c0       ?PM_SetAnim@@YAXHHHH@Z     3010f8c0 f   bg_panimate.obj
 0002:00015940       ?BG_GetTorsoAnimPoint@@YAMPAUplayerState_s@@H@Z 3010f940 f   bg_panimate.obj
 0002:00015b90       ?BG_GetLegsAnimPoint@@YAMPAUplayerState_s@@H@Z 3010fb90 f   bg_panimate.obj
 0002:00015de0       ?BG_HopAnim@@YA?AW4qboolean@@H@Z 3010fde0 f   bg_panimate.obj
 0002:00015e30       ?BG_BounceAnim@@YA?AW4qboolean@@H@Z 3010fe30 f   bg_panimate.obj
 0002:00015f10       ?BG_BlockAnim@@YA?AW4qboolean@@H@Z 3010ff10 f   bg_panimate.obj
 0002:00015f90       ?PM_BGEntForNum@@YAPAUbgEntity_s@@H@Z 3010ff90 f   bg_pmove.obj
 0002:00016100       ?PM_CanSetWeaponReadyAnim@@YA?AW4qboolean@@XZ 30110100 f   bg_pmove.obj
 0002:00016210       ?BG_SabersOff@@YA?AW4qboolean@@PAUplayerState_s@@@Z 30110210 f   bg_pmove.obj
 0002:00016290       ?BG_KnockDownable@@YA?AW4qboolean@@PAUplayerState_s@@@Z 30110290 f   bg_pmove.obj
 0002:00016300       ?PM_GetSaberStance@@YAHXZ  30110300 f   bg_pmove.obj
 0002:00016510       ?PM_DoSlowFall@@YA?AW4qboolean@@XZ 30110510 f   bg_pmove.obj
 0002:00016590       ?PM_pitch_roll_for_slope@@YAXPAUbgEntity_s@@QAM1@Z 30110590 f   bg_pmove.obj
 0002:00016bf0       ?PM_SetSpecialMoveValues@@YAXXZ 30110bf0 f   bg_pmove.obj
 0002:00016d00       ?BG_VehicleTurnRateForSpeed@@YAXPAUVehicle_s@@MPAM1@Z 30110d00 f   bg_pmove.obj
 0002:00016e70       ?PM_HoverTrace@@YAXXZ      30110e70 f   bg_pmove.obj
 0002:00017d10       ?PM_AddEvent@@YAXH@Z       30111d10 f   bg_pmove.obj
 0002:00017d70       ?PM_AddEventWithParm@@YAXHH@Z 30111d70 f   bg_pmove.obj
 0002:00017dd0       ?PM_AddTouchEnt@@YAXH@Z    30111dd0 f   bg_pmove.obj
 0002:00017ea0       ?PM_ClipVelocity@@YAXQAM00M@Z 30111ea0 f   bg_pmove.obj
 0002:00018030       ?PM_ForceJumpingUp@@YA?AW4qboolean@@XZ 30112030 f   bg_pmove.obj
 0002:00018200       ?PM_SetPMViewAngle@@YAXPAUplayerState_s@@QAMPAUusercmd_s@@@Z 30112200 f   bg_pmove.obj
 0002:000182e0       ?PM_AdjustAngleForWallRun@@YA?AW4qboolean@@PAUplayerState_s@@PAUusercmd_s@@W41@@Z 301122e0 f   bg_pmove.obj
 0002:00018a90       ?PM_AdjustAnglesForWallRunUpFlipAlt@@YA?AW4qboolean@@PAUusercmd_s@@@Z 30112a90 f   bg_pmove.obj
 0002:00018b00       ?PM_AdjustAngleForWallRunUp@@YA?AW4qboolean@@PAUplayerState_s@@PAUusercmd_s@@W41@@Z 30112b00 f   bg_pmove.obj
 0002:00019300       ?PM_AdjustAngleForWallJump@@YA?AW4qboolean@@PAUplayerState_s@@PAUusercmd_s@@W41@@Z 30113300 f   bg_pmove.obj
 0002:00019b90       ?BG_LetGoofLedge@@YAXPAUplayerState_s@@@Z 30113b90 f   bg_pmove.obj
 0002:00019bf0       ?PM_SetVelocityforLedgeMove@@YAXPAUplayerState_s@@H@Z 30113bf0 f   bg_pmove.obj
 0002:0001a0d0       ?LedgeGrabableEntity@@YA?AW4qboolean@@H@Z 301140d0 f   bg_pmove.obj
 0002:0001a160       ?PM_AdjustAngleForWallGrap@@YAXPAUplayerState_s@@PAUusercmd_s@@@Z 30114160 f   bg_pmove.obj
 0002:0001a600       ?PM_AdjustAnglesForKnockdown@@YA?AW4qboolean@@PAUplayerState_s@@PAUusercmd_s@@@Z 30114600 f   bg_pmove.obj
 0002:0001a770       ?PM_SetForceJumpZStart@@YAXM@Z 30114770 f   bg_pmove.obj
 0002:0001a800       ?PM_GrabWallForJump@@YAXH@Z 30114800 f   bg_pmove.obj
 0002:0001a890       ?NumberOfWeapons@@YAHXZ    30114890 f   bg_pmove.obj
 0002:0001aa60       ?GetJumpHeight@@YAHXZ      30114a60 f   bg_pmove.obj
 0002:0001aad0       ?JumpHeightDeduction@@YAHXZ 30114ad0 f   bg_pmove.obj
 0002:0001abb0       ?LedgeTrace@@YA?AW4qboolean@@PAUtrace_t@@QAMPAM22@Z 30114bb0 f   bg_pmove.obj
 0002:0001b220       ?sqrt@@YAMM@Z              30115220 f i bg_pmove.obj
 0002:0001b280       _sqrtf                     30115280 f i bg_pmove.obj
 0002:0001b2f0       ?PM_CheckGrab@@YAXXZ       301152f0 f   bg_pmove.obj
 0002:0001bec0       ?BG_InDFA@@YA_NXZ          30115ec0 f   bg_pmove.obj
 0002:0001bf40       ?PM_CheckDualForwardJumpDuck@@YA?AW4qboolean@@XZ 30115f40 f   bg_pmove.obj
 0002:0001c060       ?PM_CheckFixMins@@YAXXZ    30116060 f   bg_pmove.obj
 0002:0001c4e0       ?PM_Use@@YAXXZ             301164e0 f   bg_pmove.obj
 0002:0001c5b0       ?PM_WalkingAnim@@YA?AW4qboolean@@H@Z 301165b0 f   bg_pmove.obj
 0002:0001c670       ?PM_RunningAnim@@YA?AW4qboolean@@H@Z 30116670 f   bg_pmove.obj
 0002:0001c720       ?PM_SwimmingAnim@@YA?AW4qboolean@@H@Z 30116720 f   bg_pmove.obj
 0002:0001c790       ?PM_RollingAnim@@YA?AW4qboolean@@H@Z 30116790 f   bg_pmove.obj
 0002:0001c880       ?PM_AnglesForSlope@@YAXMQBMQAM@Z 30116880 f   bg_pmove.obj
 0002:0001ca80       ?PM_FootSlopeTrace@@YAXPAM0@Z 30116a80 f   bg_pmove.obj
 0002:0001d050       ?BG_InSlopeAnim@@YA?AW4qboolean@@H@Z 30117050 f   bg_pmove.obj
 0002:0001d0c0       ?PM_AdjustStandAnimForSlope@@YA?AW4qboolean@@XZ 301170c0 f   bg_pmove.obj
 0002:0001dbd0       ?PM_LegsSlopeBackTransition@@YAHH@Z 30117bd0 f   bg_pmove.obj
 0002:0001dd30       ?BG_ClearRocketLock@@YAXPAUplayerState_s@@@Z 30117d30 f   bg_pmove.obj
 0002:0001ddb0       ?PM_BeginWeaponChange@@YAXH@Z 30117db0 f   bg_pmove.obj
 0002:0001df40       ?PM_FinishWeaponChange@@YAXXZ 30117f40 f   bg_pmove.obj
 0002:0001e110       ?BG_VehTraceFromCamPos@@YAHPAUtrace_t@@PAUbgEntity_s@@QBM22QAM3M@Z 30118110 f   bg_pmove.obj
 0002:0001e460       ?PM_RocketLock@@YAXMW4qboolean@@@Z 30118460 f   bg_pmove.obj
 0002:0001ecb0       ?PM_ItemUsable@@YAHPAUplayerState_s@@H@Z 30118cb0 f   bg_pmove.obj
 0002:0001f400       ?PM_CanSetWeaponAnims@@YA?AW4qboolean@@XZ 30119400 f   bg_pmove.obj
 0002:0001f450       ?PM_VehicleWeaponAnimate@@YAXXZ 30119450 f   bg_pmove.obj
 0002:0001fb00       ?PM_DoPunch@@YAXXZ         30119b00 f   bg_pmove.obj
 0002:0001fbb0       ?CanShootRocket@@YA?AW4qboolean@@XZ 30119bb0 f   bg_pmove.obj
 0002:0001fc70       ?CanDrainAmmo@@YA?AW4qboolean@@XZ 30119c70 f   bg_pmove.obj
 0002:0001fd50       ?CanFireWeapon@@YA?AW4qboolean@@XZ 30119d50 f   bg_pmove.obj
 0002:0001fe10       ?BG_UnrestrainedPitchRoll@@YA?AW4qboolean@@PAUplayerState_s@@PAUVehicle_s@@@Z 30119e10 f   bg_pmove.obj
 0002:0001fea0       ?PM_UpdateViewAngles@@YAXPAUplayerState_s@@PBUusercmd_s@@@Z 30119ea0 f   bg_pmove.obj
 0002:00020270       ?PM_AdjustAttackStates@@YAXPAUpmove_t@@@Z 3011a270 f   bg_pmove.obj
 0002:00020c50       ?BG_CmdForRoll@@YAXPAUplayerState_s@@HPAUusercmd_s@@@Z 3011ac50 f   bg_pmove.obj
 0002:00021090       ?BG_AdjustClientSpeed@@YAXPAUplayerState_s@@PAUusercmd_s@@H@Z 3011b090 f   bg_pmove.obj
 0002:000216f0       ?BG_InRollAnim@@YA?AW4qboolean@@PAUentityState_s@@@Z 3011b6f0 f   bg_pmove.obj
 0002:00021760       ?BG_InKnockDown@@YA?AW4qboolean@@H@Z 3011b760 f   bg_pmove.obj
 0002:00021880       ?BG_InRollES@@YA?AW4qboolean@@PAUentityState_s@@H@Z 3011b880 f   bg_pmove.obj
 0002:000218f0       ?BG_IK_MoveArm@@YAXPAXHHPAUentityState_s@@HQAMPAW4qboolean@@222HW42@@Z 3011b8f0 f   bg_pmove.obj
 0002:00022230       ?BG_ClassHasBadBones@@YA?AW4qboolean@@H@Z 3011c230 f   bg_pmove.obj
 0002:000222d0       ?BG_BoneOrientationsForClass@@YAXHPADPAH11@Z 3011c2d0 f   bg_pmove.obj
 0002:00022590       ?BG_UpdateLookAngles@@YAXHQAMH0MMMMMMM@Z 3011c590 f   bg_pmove.obj
 0002:000228f0       ?BG_InRoll2@@YA?AW4qboolean@@PAUentityState_s@@@Z 3011c8f0 f   bg_pmove.obj
 0002:000229f0       ?BG_G2PlayerAngles@@YAXPAXHPAUentityState_s@@HQAM2QAY02M2PAW4qboolean@@44PAM55H22HHPAH22H16@Z 3011c9f0 f   bg_pmove.obj
 0002:00025080       ?BG_G2ATSTAngles@@YAXPAXHQAM@Z 3011f080 f   bg_pmove.obj
 0002:000250f0       ?PM_VehicleViewAngles@@YAXPAUplayerState_s@@PAUbgEntity_s@@PAUusercmd_s@@@Z 3011f0f0 f   bg_pmove.obj
 0002:000253f0       ?PM_WeaponOkOnVehicle@@YA?AW4qboolean@@H@Z 3011f3f0 f   bg_pmove.obj
 0002:00025460       ?PM_GetOkWeaponForVehicle@@YAHXZ 3011f460 f   bg_pmove.obj
 0002:00025500       ?PM_VehForcedTurning@@YAXPAUbgEntity_s@@@Z 3011f500 f   bg_pmove.obj
 0002:000257d0       ?PM_VehFaceHyperspacePoint@@YAXPAUbgEntity_s@@@Z 3011f7d0 f   bg_pmove.obj
 0002:00025c80       ?BG_VehicleAdjustBBoxForOrientation@@YAXPAUVehicle_s@@QAM11HHP6AXPAUtrace_t@@QBM333HH@Z@Z 3011fc80 f   bg_pmove.obj
 0002:000266f0       ?PM_MoveForKata@@YAXPAUusercmd_s@@@Z 301206f0 f   bg_pmove.obj
 0002:000269a0       ?PM_MoveLock@@YAXXZ        301209a0 f   bg_pmove.obj
 0002:00026b20       ?PmoveSingle@@YAXPAUpmove_t@@@Z 30120b20 f   bg_pmove.obj
 0002:000295c0       ?PM_IsRocketTrooper@@YA?AW4qboolean@@XZ 301235c0 f i bg_pmove.obj
 0002:00031030       ?PM_GetWeaponReadyAnim@@YA?AW4animNumber_t@@XZ 3012b030 f i bg_pmove.obj
 0002:00037a00       ?Pmove@@YAXPAUpmove_t@@@Z  30131a00 f   bg_pmove.obj
 0002:00037b90       ?PM_MinGetUpTime@@YAHPAUplayerState_s@@@Z 30131b90 f   bg_pmove.obj
 0002:00037ca0       ?PM_InAttackRoll@@YA?AW4qboolean@@H@Z 30131ca0 f   bg_pmove.obj
 0002:00037d40       ?PM_CheckRollSafety@@YA?AW4qboolean@@HM@Z 30131d40 f   bg_pmove.obj
 0002:00038160       ?PM_GoingToAttackDown@@YA?AW4qboolean@@PAUplayerState_s@@@Z 30132160 f   bg_pmove.obj
 0002:00038240       ?PM_CrouchGetup@@YA?AW4qboolean@@M@Z 30132240 f   bg_pmove.obj
 0002:000384c0       ?PM_CheckRollGetup@@YA?AW4qboolean@@XZ 301324c0 f   bg_pmove.obj
 0002:00038ae0       ?PM_GettingUpFromKnockDown@@YA?AW4qboolean@@MM@Z 30132ae0 f   bg_pmove.obj
 0002:00039400       ?PM_irand_timesync@@YAHHH@Z 30133400 f   bg_saber.obj
 0002:000394d0       ?BG_ForcePowerDrain@@YAXPAUplayerState_s@@HH@Z 301334d0 f   bg_saber.obj
 0002:000395e0       ?BG_EnoughForcePowerForMove@@YA?AW4qboolean@@H@Z 301335e0 f   bg_saber.obj
 0002:00039650       ?PM_AttackMoveForQuad@@YAHH@Z 30133650 f   bg_saber.obj
 0002:00039720       ?PM_SaberAnimTransitionAnim@@YAHHH@Z 30133720 f   bg_saber.obj
 0002:00039b40       ?PM_CheckStabDown@@YAHXZ   30133b40 f   bg_saber.obj
 0002:00039f30       ?PM_SaberMoveQuadrantForMovement@@YAHPAUusercmd_s@@@Z 30133f30 f   bg_saber.obj
 0002:0003a030       ?PM_SaberInBounce@@YA?AW4qboolean@@H@Z 30134030 f   bg_saber.obj
 0002:0003a0a0       ?PM_SetAnimFrame@@YAXPAUplayerState_s@@HW4qboolean@@1@Z 301340a0 f   bg_saber.obj
 0002:0003a0e0       ?PM_SaberLockWinAnim@@YAHW4qboolean@@0@Z 301340e0 f   bg_saber.obj
 0002:0003a360       ?PM_SaberLockLoseAnim@@YAHPAUplayerState_s@@W4qboolean@@1@Z 30134360 f   bg_saber.obj
 0002:0003a5f0       ?PM_SaberLockResultAnim@@YAHPAUplayerState_s@@W4qboolean@@1@Z 301345f0 f   bg_saber.obj
 0002:0003a7d0       ?PM_SaberLockBreak@@YAXPAUplayerState_s@@W4qboolean@@H@Z 301347d0 f   bg_saber.obj
 0002:0003abe0       ?BG_CheckIncrementLockAnim@@YA?AW4qboolean@@HH@Z 30134be0 f   bg_saber.obj
 0002:0003ad30       ?PM_SaberLocked@@YAXXZ     30134d30 f   bg_saber.obj
 0002:0003b490       ?PM_SaberInBrokenParry@@YA?AW4qboolean@@H@Z 30135490 f   bg_saber.obj
 0002:0003b520       ?PM_BrokenParryForParry@@YAHH@Z 30135520 f   bg_saber.obj
 0002:0003b6c0       ?PM_CanBackstab@@YA?AW4qboolean@@XZ 301356c0 f   bg_saber.obj
 0002:0003b9a0       ?PM_SaberFlipOverAttackMove@@YAHXZ 301359a0 f   bg_saber.obj
 0002:0003bcb0       ?PM_SaberInDeflect@@YA?AW4qboolean@@H@Z 30135cb0 f   bg_saber.obj
 0002:0003bd00       ?BG_SaberAttacking@@YA?AW4qboolean@@PAUplayerState_s@@@Z 30135d00 f   bg_saber.obj
 0002:0003be60       ?PM_SaberBackflipAttackMove@@YAHXZ 30135e60 f   bg_saber.obj
 0002:0003bfb0       ?PM_SaberDualJumpAttackMove@@YAHXZ 30135fb0 f   bg_saber.obj
 0002:0003bff0       ?PM_SomeoneInFront@@YA?AW4qboolean@@PAUtrace_t@@@Z 30135ff0 f   bg_saber.obj
 0002:0003c2a0       ?PM_SaberLungeAttackMove@@YAHW4qboolean@@@Z 301362a0 f   bg_saber.obj
 0002:0003c7b0       ?PM_SaberJumpAttackMove2@@YAHXZ 301367b0 f   bg_saber.obj
 0002:0003c900       ?PM_SaberJumpAttackMove@@YAHXZ 30136900 f   bg_saber.obj
 0002:0003cbd0       ?PM_GroundDistance@@YAMXZ  30136bd0 f   bg_saber.obj
 0002:0003ce00       ?PM_WalkableGroundDistance@@YAMXZ 30136e00 f   bg_saber.obj
 0002:0003cfc0       ?PM_CheckPullAttack@@YAHXZ 30136fc0 f   bg_saber.obj
 0002:0003cff0       ?PM_InSecondaryStyle@@YA?AW4qboolean@@XZ 30136ff0 f   bg_saber.obj
 0002:0003d080       ?PM_SaberAttackForMovement@@YAHH@Z 30137080 f   bg_saber.obj
 0002:0003e630       ?PM_KickMoveForConditions@@YAHXZ 30138630 f   bg_saber.obj
 0002:0003e860       ?PM_SaberMoveOkayForKata@@YA?AW4qboolean@@XZ 30138860 f   bg_saber.obj
 0002:0003e8e0       ?PM_CanDoKata@@YA?AW4qboolean@@XZ 301388e0 f   bg_saber.obj
 0002:0003eae0       ?PM_SaberThrowable@@YA?AW4qboolean@@XZ 30138ae0 f   bg_saber.obj
 0002:0003ec00       ?PM_CheckAltKickAttack@@YA?AW4qboolean@@XZ 30138c00 f   bg_saber.obj
 0002:0003ed60       ?PM_SaberPowerCheck@@YA?AW4qboolean@@XZ 30138d60 f   bg_saber.obj
 0002:0003ee20       ?PM_CanDoRollStab@@YA?AW4qboolean@@XZ 30138e20 f   bg_saber.obj
 0002:0003ef30       ?PM_SaberDroidWeapon@@YAXXZ 30138f30 f   bg_saber.obj
 0002:0003f270       ?PM_ReturnforQuad@@YAHH@Z  30139270 f   bg_saber.obj
 0002:0003f360       ?BlockedforQuad@@YAHH@Z    30139360 f   bg_saber.obj
 0002:0003f450       ?PM_DoFake@@YAHH@Z         30139450 f   bg_saber.obj
 0002:0003f660       ?InSaberDelayAnimation@@YA?AW4qboolean@@H@Z 30139660 f   bg_saber.obj
 0002:0003f6e0       ?PM_WeaponLightsaber@@YAXXZ 301396e0 f   bg_saber.obj
 0002:00041500       ?BG_AddFatigue@@YAXPAUplayerState_s@@H@Z 3013b500 f   bg_saber.obj
 0002:000415b0       ?Fatigue_SaberAttack@@YAHPAUplayerState_s@@@Z 3013b5b0 f   bg_saber.obj
 0002:000415f0       ?BG_SaberFatigue@@YAXPAUplayerState_s@@HH@Z 3013b5f0 f   bg_saber.obj
 0002:000416f0       ?PM_SetSaberMove@@YAXF@Z   3013b6f0 f   bg_saber.obj
 0002:000425c0       ?BG_MySaber@@YAPAUsaberInfo_t@@HH@Z 3013c5c0 f   bg_saber.obj
 0002:000426c0       ?PM_DoKick@@YA?AW4qboolean@@XZ 3013c6c0 f   bg_saber.obj
 0002:00042930       ?PM_SaberFakeFlagUpdate@@YAXPAUplayerState_s@@HH@Z 3013c930 f   bg_saber.obj
 0002:000429d0       ?BG_SaberInFullDamageMove@@YA?AW4qboolean@@PAUplayerState_s@@H@Z 3013c9d0 f   bg_saber.obj
 0002:00042b40       ?BG_SaberInTransitionDamageMove@@YA?AW4qboolean@@PAUplayerState_s@@@Z 3013cb40 f   bg_saber.obj
 0002:00042bc0       ?BG_SaberInNonIdleDamageMove@@YA?AW4qboolean@@PAUplayerState_s@@H@Z 3013cbc0 f   bg_saber.obj
 0002:00042c20       ?BG_InSlowBounce@@YA?AW4qboolean@@PAUplayerState_s@@@Z 3013cc20 f   bg_saber.obj
 0002:00042cb0       ?BG_SoundIndex@@YAHPAD@Z   3013ccb0 f   bg_saberLoad.obj
 0002:00042d00       ?BG_ParseLiteral@@YA?AW4qboolean@@PAPBDPBD@Z 3013cd00 f   bg_saberLoad.obj
 0002:00042dc0       ?TranslateSaberColor@@YAHPBD@Z 3013cdc0 f   bg_saberLoad.obj
 0002:00042f10       ?TranslateSaberStyle@@YA?AW4saber_styles_t@@PBD@Z 3013cf10 f   bg_saberLoad.obj
 0002:00043050       ?WP_SaberBladeUseSecondBladeStyle@@YA?AW4qboolean@@PAUsaberInfo_t@@H@Z 3013d050 f   bg_saberLoad.obj
 0002:000430c0       ?WP_SaberBladeDoTransitionDamage@@YA?AW4qboolean@@PAUsaberInfo_t@@H@Z 3013d0c0 f   bg_saberLoad.obj
 0002:00043180       ?WP_UseFirstValidSaberStyle@@YA?AW4qboolean@@PAUsaberInfo_t@@0HPAH@Z 3013d180 f   bg_saberLoad.obj
 0002:00043430       ?WP_SaberCanTurnOffSomeBlades@@YA?AW4qboolean@@PAUsaberInfo_t@@@Z 3013d430 f   bg_saberLoad.obj
 0002:000434e0       ?WP_SaberSetDefaults@@YAXPAUsaberInfo_t@@@Z 3013d4e0 f   bg_saberLoad.obj
 0002:00043b50       ?WP_SaberParseParms@@YA?AW4qboolean@@PBDPAUsaberInfo_t@@@Z 3013db50 f   bg_saberLoad.obj
 0002:00047a30       ?WP_SaberParseParm@@YA?AW4qboolean@@PBD0PAD@Z 30141a30 f   bg_saberLoad.obj
 0002:00047c60       ?WP_SaberValidForPlayerInMP@@YA?AW4qboolean@@PBD@Z 30141c60 f   bg_saberLoad.obj
 0002:00047d60       ?WP_RemoveSaber@@YAXPAUsaberInfo_t@@H@Z 30141d60 f   bg_saberLoad.obj
 0002:00047e40       ?WP_SetSaber@@YAXHPAUsaberInfo_t@@HPBD@Z 30141e40 f   bg_saberLoad.obj
 0002:00047fa0       ?WP_SaberSetColor@@YAXPAUsaberInfo_t@@HHPAD@Z 30141fa0 f   bg_saberLoad.obj
 0002:00048020       ?WP_SaberLoadParms@@YAXXZ  30142020 f   bg_saberLoad.obj
 0002:000482d0       ?BG_BLADE_ActivateTrail@@YAXPAUbladeInfo_t@@M@Z 301422d0 f   bg_saberLoad.obj
 0002:00048330       ?BG_BLADE_DeactivateTrail@@YAXPAUbladeInfo_t@@M@Z 30142330 f   bg_saberLoad.obj
 0002:00048390       ?BG_SI_Activate@@YAXPAUsaberInfo_t@@@Z 30142390 f   bg_saberLoad.obj
 0002:00048410       ?BG_SI_Deactivate@@YAXPAUsaberInfo_t@@@Z 30142410 f   bg_saberLoad.obj
 0002:00048490       ?BG_SI_BladeActivate@@YAXPAUsaberInfo_t@@HW4qboolean@@@Z 30142490 f   bg_saberLoad.obj
 0002:00048500       ?BG_SI_Active@@YA?AW4qboolean@@PAUsaberInfo_t@@@Z 30142500 f   bg_saberLoad.obj
 0002:00048580       ?BG_SI_SetLength@@YAXPAUsaberInfo_t@@M@Z 30142580 f   bg_saberLoad.obj
 0002:00048600       ?BG_SI_SetDesiredLength@@YAXPAUsaberInfo_t@@MH@Z 30142600 f   bg_saberLoad.obj
 0002:000486b0       ?BG_SI_SetLengthGradual@@YAXPAUsaberInfo_t@@H@Z 301426b0 f   bg_saberLoad.obj
 0002:00048af0       ?BG_SI_Length@@YAMPAUsaberInfo_t@@@Z 30142af0 f   bg_saberLoad.obj
 0002:00048bb0       ?BG_SI_LengthMax@@YAMPAUsaberInfo_t@@@Z 30142bb0 f   bg_saberLoad.obj
 0002:00048c70       ?BG_SI_ActivateTrail@@YAXPAUsaberInfo_t@@M@Z 30142c70 f   bg_saberLoad.obj
 0002:00048d10       ?BG_SI_DeactivateTrail@@YAXPAUsaberInfo_t@@M@Z 30142d10 f   bg_saberLoad.obj
 0002:00048db0       ?BG_SiegeStripTabs@@YAXPAD@Z 30142db0 f   bg_saga.obj
 0002:00048e60       ?BG_GetNextValueGroup@@YAPADPAD0@Z 30142e60 f   bg_saga.obj
 0002:00049060       ?BG_SiegeGetValueGroup@@YAHPAD00@Z 30143060 f   bg_saga.obj
 0002:00049930       ?BG_SiegeGetPairedValue@@YAHPAD00@Z 30143930 f   bg_saga.obj
 0002:00049fc0       ?BG_SiegeTranslateForcePowers@@YAXPADPAUsiegeClass_t@@@Z 30143fc0 f   bg_saga.obj
 0002:0004a4e0       ?BG_SiegeTranslateGenericTable@@YAHPADPAUstringID_table_s@@W4qboolean@@@Z 301444e0 f   bg_saga.obj
 0002:0004a7c0       ?BG_SiegeParseClassFile@@YAXPBDPAUsiegeClassDesc_t@@@Z 301447c0 f   bg_saga.obj
 0002:0004b510       ?BG_SiegeCountBaseClass@@YAHHF@Z 30145510 f   bg_saga.obj
 0002:0004b5e0       ?BG_GetUIPortraitFile@@YAPADHFF@Z 301455e0 f   bg_saga.obj
 0002:0004b6d0       ?BG_GetUIPortrait@@YAHHFF@Z 301456d0 f   bg_saga.obj
 0002:0004b7c0       ?BG_GetClassOnBaseClass@@YAPAUsiegeClass_t@@HFF@Z 301457c0 f   bg_saga.obj
 0002:0004b8a0       ?BG_SiegeLoadClasses@@YAXPAUsiegeClassDesc_t@@@Z 301458a0 f   bg_saga.obj
 0002:0004ba80       ?BG_SiegeFindClassByName@@YAPAUsiegeClass_t@@PBD@Z 30145a80 f   bg_saga.obj
 0002:0004bb30       ?BG_SiegeParseTeamFile@@YAXPBD@Z 30145b30 f   bg_saga.obj
 0002:0004bf30       ?BG_SiegeLoadTeams@@YAXXZ  30145f30 f   bg_saga.obj
 0002:0004c0d0       ?BG_SiegeFindThemeForTeam@@YAPAUsiegeTeam_t@@H@Z 301460d0 f   bg_saga.obj
 0002:0004c130       ?BG_PrecacheSabersForSiegeTeam@@YAXH@Z 30146130 f   bg_saga.obj
 0002:0004c350       ?BG_SiegeCheckClassLegality@@YA?AW4qboolean@@HPAD@Z 30146350 f   bg_saga.obj
 0002:0004c460       ?BG_SiegeFindTeamForTheme@@YAPAUsiegeTeam_t@@PAD@Z 30146460 f   bg_saga.obj
 0002:0004c520       ?BG_SiegeSetTeamTheme@@YAXHPAD@Z 30146520 f   bg_saga.obj
 0002:0004c5a0       ?BG_SiegeFindClassIndexByName@@YAHPBD@Z 301465a0 f   bg_saga.obj
 0002:0004c640       ?PM_VehicleImpact@@YAXPAUbgEntity_s@@PAUtrace_t@@@Z 30146640 f   bg_slidemove.obj
 0002:0004d350       ?PM_GroundSlideOkay@@YA?AW4qboolean@@M@Z 30147350 f   bg_slidemove.obj
 0002:0004d4a0       ?PM_SlideMove@@YA?AW4qboolean@@W41@@Z 301474a0 f   bg_slidemove.obj
 0002:0004e410       ?PM_StepSlideMove@@YAXW4qboolean@@@Z 30148410 f   bg_slidemove.obj
 0002:0004efb0       ?BG_ClearVehicleParseParms@@YAXXZ 30148fb0 f   bg_vehicleLoad.obj
 0002:0004f010       ?VEH_LoadVehWeapon@@YAHPBD@Z 30149010 f   bg_vehicleLoad.obj
 0002:0004f9a0       ?VEH_VehWeaponIndexForName@@YAHPBD@Z 301499a0 f   bg_vehicleLoad.obj
 0002:0004fad0       ?BG_SetSharedVehicleFunctions@@YAXPAUvehicleInfo_t@@@Z 30149ad0 f   bg_vehicleLoad.obj
 0002:0004fbb0       ?BG_VehicleSetDefaults@@YAXPAUvehicleInfo_t@@@Z 30149bb0 f   bg_vehicleLoad.obj
 0002:0004fcc0       ?BG_VehicleClampData@@YAXPAUvehicleInfo_t@@@Z 30149cc0 f   bg_vehicleLoad.obj
 0002:0004fdb0       ?VEH_LoadVehicle@@YAHPBD@Z 30149db0 f   bg_vehicleLoad.obj
 0002:00051460       ?VEH_VehicleIndexForName@@YAHPBD@Z 3014b460 f   bg_vehicleLoad.obj
 0002:00051590       ?BG_VehWeaponLoadParms@@YAXXZ 3014b590 f   bg_vehicleLoad.obj
 0002:00051870       ?BG_VehicleUnloadParms@@YAXXZ 3014b870 f   bg_vehicleLoad.obj
 0002:000518c0       ?BG_VehicleLoadParms@@YAXXZ 3014b8c0 f   bg_vehicleLoad.obj
 0002:00051cf0       ?BG_VehicleGetIndex@@YAHPBD@Z 3014bcf0 f   bg_vehicleLoad.obj
 0002:00051d40       ?BG_GetVehicleModelName@@YAXPAD@Z 3014bd40 f   bg_vehicleLoad.obj
 0002:00051e10       ?BG_GetVehicleSkinName@@YAXPAD@Z 3014be10 f   bg_vehicleLoad.obj
 0002:00051f20       ?AttachRidersGeneric@@YAXPAUVehicle_s@@@Z 3014bf20 f   bg_vehicleLoad.obj
 0002:000522d0       ??0StackPanel@@QAE@XZ      3014c2d0 f   StackPanel.obj
 0002:00052340       ??0ContainerElement@@QAE@XZ 3014c340 f i StackPanel.obj
 0002:00052410       ??0UIElement@@QAE@XZ       3014c410 f i StackPanel.obj
 0002:00052480       ??0Rectangle@@QAE@XZ       3014c480 f i StackPanel.obj
 0002:000524c0       ??1UIElement@@QAE@XZ       3014c4c0 f i StackPanel.obj
 0002:00052500       ?Arrange@UIElement@@UAEXXZ 3014c500 f i StackPanel.obj
 0002:00052540       ?Draw@UIElement@@UAEXXZ    3014c540 f i StackPanel.obj
 0002:00052580       ?Draw@ContainerElement@@UAEXXZ 3014c580 f i StackPanel.obj
 0002:000527d0       ?DrawElement@ContainerElement@@IAEXPAVUIElement@@@Z 3014c7d0 f i StackPanel.obj
 0002:00052ad0       ?GetOldChildren@ContainerElement@@QAE?AV?$list@PAUitemDef_s@@V?$allocator@PAUitemDef_s@@@std@@@std@@XZ 3014cad0 f i StackPanel.obj
 0002:00052b50       ?GetChildren@ContainerElement@@QAE?AV?$list@PAVUIElement@@V?$allocator@PAVUIElement@@@std@@@std@@XZ 3014cb50 f i StackPanel.obj
 0002:00052bd0       ??1?$_List_iterator@V?$_List_val@PAUitemDef_s@@V?$allocator@PAUitemDef_s@@@std@@@std@@@std@@QAE@XZ 3014cbd0 f i StackPanel.obj
 0002:00052c20       ??1?$_List_iterator@V?$_List_val@PAVUIElement@@V?$allocator@PAVUIElement@@@std@@@std@@@std@@QAE@XZ 3014cc20 f i StackPanel.obj
 0002:00052c70       ??1?$_List_const_iterator@V?$_List_val@PAUitemDef_s@@V?$allocator@PAUitemDef_s@@@std@@@std@@@std@@QAE@XZ 3014cc70 f i StackPanel.obj
 0002:00052cc0       ??1?$_List_const_iterator@V?$_List_val@PAVUIElement@@V?$allocator@PAVUIElement@@@std@@@std@@@std@@QAE@XZ 3014ccc0 f i StackPanel.obj
 0002:00052d10       ??1?$_List_unchecked_const_iterator@V?$_List_val@PAUitemDef_s@@V?$allocator@PAUitemDef_s@@@std@@@std@@U_Iterator_base12@2@@std@@QAE@XZ 3014cd10 f i StackPanel.obj
 0002:00052d60       ??1?$_List_unchecked_const_iterator@V?$_List_val@PAVUIElement@@V?$allocator@PAVUIElement@@@std@@@std@@U_Iterator_base12@2@@std@@QAE@XZ 3014cd60 f i StackPanel.obj
 0002:00052db0       ??1?$_Iterator012@Ubidirectional_iterator_tag@std@@PAUitemDef_s@@HPBQAU3@ABQAU3@U_Iterator_base12@2@@std@@QAE@XZ 3014cdb0 f i StackPanel.obj
 0002:00052e00       ??1_Iterator_base12@std@@QAE@XZ 3014ce00 f i StackPanel.obj
 0002:00052ef0       ?_Orphan_me@_Iterator_base12@std@@QAEXXZ 3014cef0 f i StackPanel.obj
 0002:00052fc0       ??1?$_Iterator012@Ubidirectional_iterator_tag@std@@PAVUIElement@@HPBQAV3@ABQAV3@U_Iterator_base12@2@@std@@QAE@XZ 3014cfc0 f i StackPanel.obj
 0002:00053010       ?Arrange@StackPanel@@UAEXXZ 3014d010 f   StackPanel.obj
 0002:000533b0       ?SetPosition@Rectangle@@QAEXMM@Z 3014d3b0 f i StackPanel.obj
 0002:00053400       ?GetRectangle@UIElement@@QAEPAVRectangle@@XZ 3014d400 f i StackPanel.obj
 0002:00053440       ??0?$list@PAVUIElement@@V?$allocator@PAVUIElement@@@std@@@std@@QAE@XZ 3014d440 f i StackPanel.obj
 0002:000534b0       ??0?$list@PAVUIElement@@V?$allocator@PAVUIElement@@@std@@@std@@QAE@ABV01@@Z 3014d4b0 f i StackPanel.obj
 0002:00053680       ??1?$list@PAVUIElement@@V?$allocator@PAVUIElement@@@std@@@std@@QAE@XZ 3014d680 f i StackPanel.obj
 0002:00053720       ?begin@?$list@PAVUIElement@@V?$allocator@PAVUIElement@@@std@@@std@@QAE?AV?$_List_iterator@V?$_List_val@PAVUIElement@@V?$allocator@PAVUIElement@@@std@@@std@@@2@XZ 3014d720 f i StackPanel.obj
 0002:000537b0       ?end@?$list@PAVUIElement@@V?$allocator@PAVUIElement@@@std@@@std@@QAE?AV?$_List_iterator@V?$_List_val@PAVUIElement@@V?$allocator@PAVUIElement@@@std@@@std@@@2@XZ 3014d7b0 f i StackPanel.obj
 0002:00053840       ??0?$list@PAUitemDef_s@@V?$allocator@PAUitemDef_s@@@std@@@std@@QAE@XZ 3014d840 f i StackPanel.obj
 0002:000538b0       ??0?$list@PAUitemDef_s@@V?$allocator@PAUitemDef_s@@@std@@@std@@QAE@ABV01@@Z 3014d8b0 f i StackPanel.obj
 0002:00053a80       ??1?$list@PAUitemDef_s@@V?$allocator@PAUitemDef_s@@@std@@@std@@QAE@XZ 3014da80 f i StackPanel.obj
 0002:00053b20       ?begin@?$list@PAUitemDef_s@@V?$allocator@PAUitemDef_s@@@std@@@std@@QAE?AV?$_List_iterator@V?$_List_val@PAUitemDef_s@@V?$allocator@PAUitemDef_s@@@std@@@std@@@2@XZ 3014db20 f i StackPanel.obj
 0002:00053bb0       ?end@?$list@PAUitemDef_s@@V?$allocator@PAUitemDef_s@@@std@@@std@@QAE?AV?$_List_iterator@V?$_List_val@PAUitemDef_s@@V?$allocator@PAUitemDef_s@@@std@@@std@@@2@XZ 3014dbb0 f i StackPanel.obj
 0002:00053c40       ??D?$_List_iterator@V?$_List_val@PAUitemDef_s@@V?$allocator@PAUitemDef_s@@@std@@@std@@@std@@QBEAAPAUitemDef_s@@XZ 3014dc40 f i StackPanel.obj
 0002:00053c90       ??E?$_List_iterator@V?$_List_val@PAUitemDef_s@@V?$allocator@PAUitemDef_s@@@std@@@std@@@std@@QAEAAV01@XZ 3014dc90 f i StackPanel.obj
 0002:00053cf0       ??9?$_List_const_iterator@V?$_List_val@PAUitemDef_s@@V?$allocator@PAUitemDef_s@@@std@@@std@@@std@@QBE_NABV01@@Z 3014dcf0 f i StackPanel.obj
 0002:00053d60       ??D?$_List_iterator@V?$_List_val@PAVUIElement@@V?$allocator@PAVUIElement@@@std@@@std@@@std@@QBEAAPAVUIElement@@XZ 3014dd60 f i StackPanel.obj
 0002:00053db0       ??E?$_List_iterator@V?$_List_val@PAVUIElement@@V?$allocator@PAVUIElement@@@std@@@std@@@std@@QAEAAV01@XZ 3014ddb0 f i StackPanel.obj
 0002:00053e10       ??9?$_List_const_iterator@V?$_List_val@PAVUIElement@@V?$allocator@PAVUIElement@@@std@@@std@@@std@@QBE_NABV01@@Z 3014de10 f i StackPanel.obj
 0002:00053e80       ??0?$_List_const_iterator@V?$_List_val@PAVUIElement@@V?$allocator@PAVUIElement@@@std@@@std@@@std@@QAE@ABV01@@Z 3014de80 f i StackPanel.obj
 0002:00053ee0       ??0?$_List_const_iterator@V?$_List_val@PAUitemDef_s@@V?$allocator@PAUitemDef_s@@@std@@@std@@@std@@QAE@ABV01@@Z 3014dee0 f i StackPanel.obj
 0002:00053f40       ??0?$_List_unchecked_const_iterator@V?$_List_val@PAVUIElement@@V?$allocator@PAVUIElement@@@std@@@std@@U_Iterator_base12@2@@std@@QAE@ABV01@@Z 3014df40 f i StackPanel.obj
 0002:00053fb0       ??0?$_List_unchecked_const_iterator@V?$_List_val@PAUitemDef_s@@V?$allocator@PAUitemDef_s@@@std@@@std@@U_Iterator_base12@2@@std@@QAE@ABV01@@Z 3014dfb0 f i StackPanel.obj
 0002:00054020       ??0?$_Iterator012@Ubidirectional_iterator_tag@std@@PAVUIElement@@HPBQAV3@ABQAV3@U_Iterator_base12@2@@std@@QAE@ABU01@@Z 3014e020 f i StackPanel.obj
 0002:00054080       ??0_Iterator_base12@std@@QAE@ABU01@@Z 3014e080 f i StackPanel.obj
 0002:00054100       ??4_Iterator_base12@std@@QAEAAU01@ABU01@@Z 3014e100 f i StackPanel.obj
 0002:00054170       ?_Adopt@_Iterator_base12@std@@QAEXPBU_Container_base12@2@@Z 3014e170 f i StackPanel.obj
 0002:000542a0       ??0?$_Iterator012@Ubidirectional_iterator_tag@std@@PAUitemDef_s@@HPBQAU3@ABQAU3@U_Iterator_base12@2@@std@@QAE@ABU01@@Z 3014e2a0 f i StackPanel.obj
 0002:00054300       ?begin@?$list@PAVUIElement@@V?$allocator@PAVUIElement@@@std@@@std@@QBE?AV?$_List_const_iterator@V?$_List_val@PAVUIElement@@V?$allocator@PAVUIElement@@@std@@@std@@@2@XZ 3014e300 f i StackPanel.obj
 0002:00054390       ?end@?$list@PAVUIElement@@V?$allocator@PAVUIElement@@@std@@@std@@QBE?AV?$_List_const_iterator@V?$_List_val@PAVUIElement@@V?$allocator@PAVUIElement@@@std@@@std@@@2@XZ 3014e390 f i StackPanel.obj
 0002:00054420       ?_Tidy@?$list@PAVUIElement@@V?$allocator@PAVUIElement@@@std@@@std@@QAEXXZ 3014e420 f i StackPanel.obj
 0002:00054470       ??0?$_List_val@PAVUIElement@@V?$allocator@PAVUIElement@@@std@@@std@@QAE@V?$allocator@PAVUIElement@@@1@@Z 3014e470 f i StackPanel.obj
 0002:00054580       ??1?$_List_val@PAVUIElement@@V?$allocator@PAVUIElement@@@std@@@std@@QAE@XZ 3014e580 f i StackPanel.obj
 0002:00054630       ?_Nextnode@?$_List_val@PAVUIElement@@V?$allocator@PAVUIElement@@@std@@@std@@SAAAPAU_Node@?$_List_nod@PAVUIElement@@V?$allocator@PAVUIElement@@@std@@@2@PAU342@@Z 3014e630 f i StackPanel.obj
 0002:00054670       ??0?$allocator@PAVUIElement@@@std@@QAE@XZ 3014e670 f i StackPanel.obj
 0002:000546b0       ??0?$allocator@PAVUIElement@@@std@@QAE@ABV01@@Z 3014e6b0 f i StackPanel.obj
 0002:000546f0       ?begin@?$list@PAUitemDef_s@@V?$allocator@PAUitemDef_s@@@std@@@std@@QBE?AV?$_List_const_iterator@V?$_List_val@PAUitemDef_s@@V?$allocator@PAUitemDef_s@@@std@@@std@@@2@XZ 3014e6f0 f i StackPanel.obj
 0002:00054780       ?end@?$list@PAUitemDef_s@@V?$allocator@PAUitemDef_s@@@std@@@std@@QBE?AV?$_List_const_iterator@V?$_List_val@PAUitemDef_s@@V?$allocator@PAUitemDef_s@@@std@@@std@@@2@XZ 3014e780 f i StackPanel.obj
 0002:00054810       ?_Tidy@?$list@PAUitemDef_s@@V?$allocator@PAUitemDef_s@@@std@@@std@@QAEXXZ 3014e810 f i StackPanel.obj
 0002:00054860       ??0?$_List_val@PAUitemDef_s@@V?$allocator@PAUitemDef_s@@@std@@@std@@QAE@V?$allocator@PAUitemDef_s@@@1@@Z 3014e860 f i StackPanel.obj
 0002:00054970       ??1?$_List_val@PAUitemDef_s@@V?$allocator@PAUitemDef_s@@@std@@@std@@QAE@XZ 3014e970 f i StackPanel.obj
 0002:00054a20       ?_Nextnode@?$_List_val@PAUitemDef_s@@V?$allocator@PAUitemDef_s@@@std@@@std@@SAAAPAU_Node@?$_List_nod@PAUitemDef_s@@V?$allocator@PAUitemDef_s@@@std@@@2@PAU342@@Z 3014ea20 f i StackPanel.obj
 0002:00054a60       ??0?$allocator@PAUitemDef_s@@@std@@QAE@XZ 3014ea60 f i StackPanel.obj
 0002:00054aa0       ??0?$allocator@PAUitemDef_s@@@std@@QAE@ABV01@@Z 3014eaa0 f i StackPanel.obj
 0002:00054ae0       ??0?$_List_iterator@V?$_List_val@PAUitemDef_s@@V?$allocator@PAUitemDef_s@@@std@@@std@@@std@@QAE@PAU_Node@?$_List_nod@PAUitemDef_s@@V?$allocator@PAUitemDef_s@@@std@@@1@PBV?$_List_val@PAUitemDef_s@@V?$allocator@PAUitemDef_s@@@std@@@1@@Z 3014eae0 f i StackPanel.obj
 0002:00054b40       ??D?$_List_const_iterator@V?$_List_val@PAUitemDef_s@@V?$allocator@PAUitemDef_s@@@std@@@std@@@std@@QBEABQAUitemDef_s@@XZ 3014eb40 f i StackPanel.obj
 0002:00054c50       ?_Getcont@_Iterator_base12@std@@QBEPBU_Container_base12@2@XZ 3014ec50 f i StackPanel.obj
 0002:00054cc0       ??E?$_List_const_iterator@V?$_List_val@PAUitemDef_s@@V?$allocator@PAUitemDef_s@@@std@@@std@@@std@@QAEAAV01@XZ 3014ecc0 f i StackPanel.obj
 0002:00054de0       ??8?$_List_const_iterator@V?$_List_val@PAUitemDef_s@@V?$allocator@PAUitemDef_s@@@std@@@std@@@std@@QBE_NABV01@@Z 3014ede0 f i StackPanel.obj
 0002:00054ef0       ??0?$_List_iterator@V?$_List_val@PAVUIElement@@V?$allocator@PAVUIElement@@@std@@@std@@@std@@QAE@PAU_Node@?$_List_nod@PAVUIElement@@V?$allocator@PAVUIElement@@@std@@@1@PBV?$_List_val@PAVUIElement@@V?$allocator@PAVUIElement@@@std@@@1@@Z 3014eef0 f i StackPanel.obj
 0002:00054f50       ??D?$_List_const_iterator@V?$_List_val@PAVUIElement@@V?$allocator@PAVUIElement@@@std@@@std@@@std@@QBEABQAVUIElement@@XZ 3014ef50 f i StackPanel.obj
 0002:00055060       ??E?$_List_const_iterator@V?$_List_val@PAVUIElement@@V?$allocator@PAVUIElement@@@std@@@std@@@std@@QAEAAV01@XZ 3014f060 f i StackPanel.obj
 0002:00055180       ??8?$_List_const_iterator@V?$_List_val@PAVUIElement@@V?$allocator@PAVUIElement@@@std@@@std@@@std@@QBE_NABV01@@Z 3014f180 f i StackPanel.obj
 0002:00055290       ?clear@?$list@PAVUIElement@@V?$allocator@PAVUIElement@@@std@@@std@@QAEXXZ 3014f290 f i StackPanel.obj
 0002:000553b0       ?_Prevnode@?$_List_val@PAVUIElement@@V?$allocator@PAVUIElement@@@std@@@std@@SAAAPAU_Node@?$_List_nod@PAVUIElement@@V?$allocator@PAVUIElement@@@std@@@2@PAU342@@Z 3014f3b0 f i StackPanel.obj
 0002:000553f0       ?_Myval@?$_List_val@PAVUIElement@@V?$allocator@PAVUIElement@@@std@@@std@@SAAAPAVUIElement@@PAU_Node@?$_List_nod@PAVUIElement@@V?$allocator@PAVUIElement@@@std@@@2@@Z 3014f3f0 f i StackPanel.obj
 0002:00055430       ??0?$_List_nod@PAVUIElement@@V?$allocator@PAVUIElement@@@std@@@std@@QAE@V?$allocator@PAVUIElement@@@1@@Z 3014f430 f i StackPanel.obj
 0002:00055590       ??0_Container_proxy@std@@QAE@XZ 3014f590 f i StackPanel.obj
 0002:000555e0       ??0_Container_base12@std@@QAE@XZ 3014f5e0 f i StackPanel.obj
 0002:00055630       ??1_Container_base12@std@@QAE@XZ 3014f630 f i StackPanel.obj
 0002:00055680       ?_Orphan_all@_Container_base12@std@@QAEXXZ 3014f680 f i StackPanel.obj
 0002:00055770       ??1?$_List_nod@PAVUIElement@@V?$allocator@PAVUIElement@@@std@@@std@@QAE@XZ 3014f770 f i StackPanel.obj
 0002:000558a0       ?deallocate@?$allocator@U_Node@?$_List_nod@PAVUIElement@@V?$allocator@PAVUIElement@@@std@@@std@@@std@@QAEXPAU_Node@?$_List_nod@PAVUIElement@@V?$allocator@PAVUIElement@@@std@@@2@I@Z 3014f8a0 f i StackPanel.obj
 0002:00055900       ?allocate@?$allocator@U_Node@?$_List_nod@PAVUIElement@@V?$allocator@PAVUIElement@@@std@@@std@@@std@@QAEPAU_Node@?$_List_nod@PAVUIElement@@V?$allocator@PAVUIElement@@@std@@@2@I@Z 3014f900 f i StackPanel.obj
 0002:00055960       ?clear@?$list@PAUitemDef_s@@V?$allocator@PAUitemDef_s@@@std@@@std@@QAEXXZ 3014f960 f i StackPanel.obj
 0002:00055a80       ?_Prevnode@?$_List_val@PAUitemDef_s@@V?$allocator@PAUitemDef_s@@@std@@@std@@SAAAPAU_Node@?$_List_nod@PAUitemDef_s@@V?$allocator@PAUitemDef_s@@@std@@@2@PAU342@@Z 3014fa80 f i StackPanel.obj
 0002:00055ac0       ?_Myval@?$_List_val@PAUitemDef_s@@V?$allocator@PAUitemDef_s@@@std@@@std@@SAAAPAUitemDef_s@@PAU_Node@?$_List_nod@PAUitemDef_s@@V?$allocator@PAUitemDef_s@@@std@@@2@@Z 3014fac0 f i StackPanel.obj
 0002:00055b00       ??0?$_List_nod@PAUitemDef_s@@V?$allocator@PAUitemDef_s@@@std@@@std@@QAE@V?$allocator@PAUitemDef_s@@@1@@Z 3014fb00 f i StackPanel.obj
 0002:00055c60       ??1?$_List_nod@PAUitemDef_s@@V?$allocator@PAUitemDef_s@@@std@@@std@@QAE@XZ 3014fc60 f i StackPanel.obj
 0002:00055d90       ?deallocate@?$allocator@U_Node@?$_List_nod@PAUitemDef_s@@V?$allocator@PAUitemDef_s@@@std@@@std@@@std@@QAEXPAU_Node@?$_List_nod@PAUitemDef_s@@V?$allocator@PAUitemDef_s@@@std@@@2@I@Z 3014fd90 f i StackPanel.obj
 0002:00055df0       ?allocate@?$allocator@U_Node@?$_List_nod@PAUitemDef_s@@V?$allocator@PAUitemDef_s@@@std@@@std@@@std@@QAEPAU_Node@?$_List_nod@PAUitemDef_s@@V?$allocator@PAUitemDef_s@@@std@@@2@I@Z 3014fdf0 f i StackPanel.obj
 0002:00055e50       ??0?$_List_const_iterator@V?$_List_val@PAUitemDef_s@@V?$allocator@PAUitemDef_s@@@std@@@std@@@std@@QAE@PAU_Node@?$_List_nod@PAUitemDef_s@@V?$allocator@PAUitemDef_s@@@std@@@1@PBV?$_List_val@PAUitemDef_s@@V?$allocator@PAUitemDef_s@@@std@@@1@@Z 3014fe50 f i StackPanel.obj
 0002:00055eb0       ??0?$_List_const_iterator@V?$_List_val@PAVUIElement@@V?$allocator@PAVUIElement@@@std@@@std@@@std@@QAE@PAU_Node@?$_List_nod@PAVUIElement@@V?$allocator@PAVUIElement@@@std@@@1@PBV?$_List_val@PAVUIElement@@V?$allocator@PAVUIElement@@@std@@@1@@Z 3014feb0 f i StackPanel.obj
 0002:00055f10       ?_Orphan_ptr@?$list@PAVUIElement@@V?$allocator@PAVUIElement@@@std@@@std@@QBEXAAV12@PAU_Node@?$_List_nod@PAVUIElement@@V?$allocator@PAVUIElement@@@std@@@2@@Z 3014ff10 f i StackPanel.obj
 0002:00056070       ?_Getpfirst@_Container_base12@std@@QBEPAPAU_Iterator_base12@2@XZ 30150070 f i StackPanel.obj
 0002:000560e0       ?_Clrcont@_Iterator_base12@std@@QAEXXZ 301500e0 f i StackPanel.obj
 0002:00056120       ?_Getpnext@_Iterator_base12@std@@QAEPAPAU12@XZ 30150120 f i StackPanel.obj
 0002:00056160       ?_Orphan_ptr@?$list@PAUitemDef_s@@V?$allocator@PAUitemDef_s@@@std@@@std@@QBEXAAV12@PAU_Node@?$_List_nod@PAUitemDef_s@@V?$allocator@PAUitemDef_s@@@std@@@2@@Z 30150160 f i StackPanel.obj
 0002:000562c0       ??0?$_List_unchecked_const_iterator@V?$_List_val@PAUitemDef_s@@V?$allocator@PAUitemDef_s@@@std@@@std@@U_Iterator_base12@2@@std@@QAE@PAU_Node@?$_List_nod@PAUitemDef_s@@V?$allocator@PAUitemDef_s@@@std@@@1@PBV?$_List_val@PAUitemDef_s@@V?$allocator@PAUitemDef_s@@@std@@@1@@Z 301502c0 f i StackPanel.obj
 0002:00056380       ??0?$_List_unchecked_const_iterator@V?$_List_val@PAVUIElement@@V?$allocator@PAVUIElement@@@std@@@std@@U_Iterator_base12@2@@std@@QAE@PAU_Node@?$_List_nod@PAVUIElement@@V?$allocator@PAVUIElement@@@std@@@1@PBV?$_List_val@PAVUIElement@@V?$allocator@PAVUIElement@@@std@@@1@@Z 30150380 f i StackPanel.obj
 0002:00056440       ?deallocate@?$allocator@U_Container_proxy@std@@@std@@QAEXPAU_Container_proxy@2@I@Z 30150440 f i StackPanel.obj
 0002:000564a0       ?allocate@?$allocator@U_Container_proxy@std@@@std@@QAEPAU_Container_proxy@2@I@Z 301504a0 f i StackPanel.obj
 0002:00056500       ??0?$_Iterator012@Ubidirectional_iterator_tag@std@@PAUitemDef_s@@HPBQAU3@ABQAU3@U_Iterator_base12@2@@std@@QAE@XZ 30150500 f i StackPanel.obj
 0002:00056560       ??0_Iterator_base12@std@@QAE@XZ 30150560 f i StackPanel.obj
 0002:000565b0       ??0?$_Iterator012@Ubidirectional_iterator_tag@std@@PAVUIElement@@HPBQAV3@ABQAV3@U_Iterator_base12@2@@std@@QAE@XZ 301505b0 f i StackPanel.obj
 0002:00056610       ??$insert@V?$_List_const_iterator@V?$_List_val@PAVUIElement@@V?$allocator@PAVUIElement@@@std@@@std@@@std@@@?$list@PAVUIElement@@V?$allocator@PAVUIElement@@@std@@@std@@QAEXV?$_List_const_iterator@V?$_List_val@PAVUIElement@@V?$allocator@PAVUIElement@@@std@@@std@@@1@00@Z 30150610 f i StackPanel.obj
 0002:00056790       ??$insert@V?$_List_const_iterator@V?$_List_val@PAUitemDef_s@@V?$allocator@PAUitemDef_s@@@std@@@std@@@std@@@?$list@PAUitemDef_s@@V?$allocator@PAUitemDef_s@@@std@@@std@@QAEXV?$_List_const_iterator@V?$_List_val@PAUitemDef_s@@V?$allocator@PAUitemDef_s@@@std@@@std@@@1@00@Z 30150790 f i StackPanel.obj
 0002:00056910       ??$_Dest_val@V?$allocator@U_Node@?$_List_nod@PAVUIElement@@V?$allocator@PAVUIElement@@@std@@@std@@@std@@U_Node@?$_List_nod@PAVUIElement@@V?$allocator@PAVUIElement@@@std@@@2@@std@@YAXAAV?$allocator@U_Node@?$_List_nod@PAVUIElement@@V?$allocator@PAVUIElement@@@std@@@std@@@0@PAU_Node@?$_List_nod@PAVUIElement@@V?$allocator@PAVUIElement@@@std@@@0@@Z 30150910 f i StackPanel.obj
 0002:00056960       ??$?0PAVUIElement@@@?$allocator@U_Node@?$_List_nod@PAVUIElement@@V?$allocator@PAVUIElement@@@std@@@std@@@std@@QAE@ABV?$allocator@PAVUIElement@@@1@@Z 30150960 f i StackPanel.obj
 0002:000569a0       ??$?0U_Node@?$_List_nod@PAVUIElement@@V?$allocator@PAVUIElement@@@std@@@std@@@?$allocator@U_Container_proxy@std@@@std@@QAE@ABV?$allocator@U_Node@?$_List_nod@PAVUIElement@@V?$allocator@PAVUIElement@@@std@@@std@@@1@@Z 301509a0 f i StackPanel.obj
 0002:000569e0       ??$_Cons_val@V?$allocator@U_Container_proxy@std@@@std@@U_Container_proxy@2@U32@@std@@YAXAAV?$allocator@U_Container_proxy@std@@@0@PAU_Container_proxy@0@$$QAU20@@Z 301509e0 f i StackPanel.obj
 0002:00056a40       ??$_Dest_val@V?$allocator@U_Container_proxy@std@@@std@@U_Container_proxy@2@@std@@YAXAAV?$allocator@U_Container_proxy@std@@@0@PAU_Container_proxy@0@@Z 30150a40 f i StackPanel.obj
 0002:00056a90       ??$_Allocate@U_Node@?$_List_nod@PAVUIElement@@V?$allocator@PAVUIElement@@@std@@@std@@@std@@YAPAU_Node@?$_List_nod@PAVUIElement@@V?$allocator@PAVUIElement@@@std@@@0@IPAU120@@Z 30150a90 f i StackPanel.obj
 0002:00056b40       ??0bad_alloc@std@@QAE@PBD@Z 30150b40 f i StackPanel.obj
 0002:00056bb0       ??1bad_alloc@std@@UAE@XZ   30150bb0 f i StackPanel.obj
 0002:00056c10       ??_Gbad_alloc@std@@UAEPAXI@Z 30150c10 f i StackPanel.obj
 0002:00056c10       ??_Ebad_alloc@std@@UAEPAXI@Z 30150c10 f i StackPanel.obj
 0002:00056c80       ??$_Dest_val@V?$allocator@U_Node@?$_List_nod@PAUitemDef_s@@V?$allocator@PAUitemDef_s@@@std@@@std@@@std@@U_Node@?$_List_nod@PAUitemDef_s@@V?$allocator@PAUitemDef_s@@@std@@@2@@std@@YAXAAV?$allocator@U_Node@?$_List_nod@PAUitemDef_s@@V?$allocator@PAUitemDef_s@@@std@@@std@@@0@PAU_Node@?$_List_nod@PAUitemDef_s@@V?$allocator@PAUitemDef_s@@@std@@@0@@Z 30150c80 f i StackPanel.obj
 0002:00056cd0       ??$?0PAUitemDef_s@@@?$allocator@U_Node@?$_List_nod@PAUitemDef_s@@V?$allocator@PAUitemDef_s@@@std@@@std@@@std@@QAE@ABV?$allocator@PAUitemDef_s@@@1@@Z 30150cd0 f i StackPanel.obj
 0002:00056d10       ??$?0U_Node@?$_List_nod@PAUitemDef_s@@V?$allocator@PAUitemDef_s@@@std@@@std@@@?$allocator@U_Container_proxy@std@@@std@@QAE@ABV?$allocator@U_Node@?$_List_nod@PAUitemDef_s@@V?$allocator@PAUitemDef_s@@@std@@@std@@@1@@Z 30150d10 f i StackPanel.obj
 0002:00056d50       ??$_Allocate@U_Node@?$_List_nod@PAUitemDef_s@@V?$allocator@PAUitemDef_s@@@std@@@std@@@std@@YAPAU_Node@?$_List_nod@PAUitemDef_s@@V?$allocator@PAUitemDef_s@@@std@@@0@IPAU120@@Z 30150d50 f i StackPanel.obj
 0002:00056e00       ??$_Allocate@U_Container_proxy@std@@@std@@YAPAU_Container_proxy@0@IPAU10@@Z 30150e00 f i StackPanel.obj
 0002:00056eb0       ??0bad_alloc@std@@QAE@ABV01@@Z 30150eb0 f i StackPanel.obj
 0002:00056f20       ?destroy@?$allocator@U_Node@?$_List_nod@PAVUIElement@@V?$allocator@PAVUIElement@@@std@@@std@@@std@@QAEXPAU_Node@?$_List_nod@PAVUIElement@@V?$allocator@PAVUIElement@@@std@@@2@@Z 30150f20 f i StackPanel.obj
 0002:00056f80       ?destroy@?$allocator@U_Node@?$_List_nod@PAUitemDef_s@@V?$allocator@PAUitemDef_s@@@std@@@std@@@std@@QAEXPAU_Node@?$_List_nod@PAUitemDef_s@@V?$allocator@PAUitemDef_s@@@std@@@2@@Z 30150f80 f i StackPanel.obj
 0002:00056fe0       ?construct@?$allocator@U_Container_proxy@std@@@std@@QAEXPAU_Container_proxy@2@$$QAU32@@Z 30150fe0 f i StackPanel.obj
 0002:000570f0       ??2@YAPAXIPAX@Z            301510f0 f i StackPanel.obj
 0002:00057130       ??3@YAXPAX0@Z              30151130 f i StackPanel.obj
 0002:00057160       ?destroy@?$allocator@U_Container_proxy@std@@@std@@QAEXPAU_Container_proxy@2@@Z 30151160 f i StackPanel.obj
 0002:000571c0       ??$_Iter_cat@V?$_List_const_iterator@V?$_List_val@PAVUIElement@@V?$allocator@PAVUIElement@@@std@@@std@@@std@@@std@@YA?AUbidirectional_iterator_tag@0@ABV?$_List_const_iterator@V?$_List_val@PAVUIElement@@V?$allocator@PAVUIElement@@@std@@@std@@@0@@Z 301511c0 f i StackPanel.obj
 0002:00057240       ??$_Insert@V?$_List_const_iterator@V?$_List_val@PAVUIElement@@V?$allocator@PAVUIElement@@@std@@@std@@@std@@@?$list@PAVUIElement@@V?$allocator@PAVUIElement@@@std@@@std@@QAEXV?$_List_const_iterator@V?$_List_val@PAVUIElement@@V?$allocator@PAVUIElement@@@std@@@std@@@1@00Uforward_iterator_tag@1@@Z 30151240 f i StackPanel.obj
 0002:00057520       ?_Insert@?$list@PAVUIElement@@V?$allocator@PAVUIElement@@@std@@@std@@QAEXV?$_List_const_iterator@V?$_List_val@PAVUIElement@@V?$allocator@PAVUIElement@@@std@@@std@@@2@ABQAVUIElement@@@Z 30151520 f i StackPanel.obj
 0002:00057670       ?_Incsize@?$list@PAVUIElement@@V?$allocator@PAVUIElement@@@std@@@std@@QAEXI@Z 30151670 f i StackPanel.obj
 0002:00057700       ?_Buynode@?$_List_val@PAVUIElement@@V?$allocator@PAVUIElement@@@std@@@std@@QAEPAU_Node@?$_List_nod@PAVUIElement@@V?$allocator@PAVUIElement@@@std@@@2@PAU342@0ABQAVUIElement@@@Z 30151700 f i StackPanel.obj
 0002:00057880       ?_Mynode@?$_List_unchecked_const_iterator@V?$_List_val@PAVUIElement@@V?$allocator@PAVUIElement@@@std@@@std@@U_Iterator_base12@2@@std@@QBEPAU_Node@?$_List_nod@PAVUIElement@@V?$allocator@PAVUIElement@@@std@@@2@XZ 30151880 f i StackPanel.obj
 0002:000578c0       ?max_size@?$list@PAVUIElement@@V?$allocator@PAVUIElement@@@std@@@std@@QBEIXZ 301518c0 f i StackPanel.obj
 0002:00057920       ?max_size@?$allocator@PAVUIElement@@@std@@QBEIXZ 30151920 f i StackPanel.obj
 0002:00057990       ??$addressof@PAVUIElement@@@std@@YAPAPAVUIElement@@AAPAV1@@Z 30151990 f i StackPanel.obj
 0002:000579d0       ??$_Cons_val@V?$allocator@PAVUIElement@@@std@@PAVUIElement@@ABQAV3@@std@@YAXAAV?$allocator@PAVUIElement@@@0@PAPAVUIElement@@ABQAV2@@Z 301519d0 f i StackPanel.obj
 0002:00057a30       ?construct@?$allocator@PAVUIElement@@@std@@QAEXPAPAVUIElement@@ABQAV3@@Z 30151a30 f i StackPanel.obj
 0002:00057a90       ??$_Iter_cat@V?$_List_const_iterator@V?$_List_val@PAUitemDef_s@@V?$allocator@PAUitemDef_s@@@std@@@std@@@std@@@std@@YA?AUbidirectional_iterator_tag@0@ABV?$_List_const_iterator@V?$_List_val@PAUitemDef_s@@V?$allocator@PAUitemDef_s@@@std@@@std@@@0@@Z 30151a90 f i StackPanel.obj
 0002:00057b10       ??$_Insert@V?$_List_const_iterator@V?$_List_val@PAUitemDef_s@@V?$allocator@PAUitemDef_s@@@std@@@std@@@std@@@?$list@PAUitemDef_s@@V?$allocator@PAUitemDef_s@@@std@@@std@@QAEXV?$_List_const_iterator@V?$_List_val@PAUitemDef_s@@V?$allocator@PAUitemDef_s@@@std@@@std@@@1@00Uforward_iterator_tag@1@@Z 30151b10 f i StackPanel.obj
 0002:00057df0       ?_Insert@?$list@PAUitemDef_s@@V?$allocator@PAUitemDef_s@@@std@@@std@@QAEXV?$_List_const_iterator@V?$_List_val@PAUitemDef_s@@V?$allocator@PAUitemDef_s@@@std@@@std@@@2@ABQAUitemDef_s@@@Z 30151df0 f i StackPanel.obj
 0002:00057f40       ?_Incsize@?$list@PAUitemDef_s@@V?$allocator@PAUitemDef_s@@@std@@@std@@QAEXI@Z 30151f40 f i StackPanel.obj
 0002:00057fd0       ?_Buynode@?$_List_val@PAUitemDef_s@@V?$allocator@PAUitemDef_s@@@std@@@std@@QAEPAU_Node@?$_List_nod@PAUitemDef_s@@V?$allocator@PAUitemDef_s@@@std@@@2@PAU342@0ABQAUitemDef_s@@@Z 30151fd0 f i StackPanel.obj
 0002:00058150       ?_Mynode@?$_List_unchecked_const_iterator@V?$_List_val@PAUitemDef_s@@V?$allocator@PAUitemDef_s@@@std@@@std@@U_Iterator_base12@2@@std@@QBEPAU_Node@?$_List_nod@PAUitemDef_s@@V?$allocator@PAUitemDef_s@@@std@@@2@XZ 30152150 f i StackPanel.obj
 0002:00058190       ?max_size@?$list@PAUitemDef_s@@V?$allocator@PAUitemDef_s@@@std@@@std@@QBEIXZ 30152190 f i StackPanel.obj
 0002:000581f0       ?max_size@?$allocator@PAUitemDef_s@@@std@@QBEIXZ 301521f0 f i StackPanel.obj
 0002:00058260       ??$addressof@PAUitemDef_s@@@std@@YAPAPAUitemDef_s@@AAPAU1@@Z 30152260 f i StackPanel.obj
 0002:000582a0       ??$_Cons_val@V?$allocator@PAUitemDef_s@@@std@@PAUitemDef_s@@ABQAU3@@std@@YAXAAV?$allocator@PAUitemDef_s@@@0@PAPAUitemDef_s@@ABQAU2@@Z 301522a0 f i StackPanel.obj
 0002:00058300       ?construct@?$allocator@PAUitemDef_s@@@std@@QAEXPAPAUitemDef_s@@ABQAU3@@Z 30152300 f i StackPanel.obj
 0002:00058360       ??$forward@ABQAVUIElement@@@std@@YAABQAVUIElement@@ABQAV1@@Z 30152360 f i StackPanel.obj
 0002:000583a0       ??$forward@U_Container_proxy@std@@@std@@YA$$QAU_Container_proxy@0@AAU10@@Z 301523a0 f i StackPanel.obj
 0002:000583e0       ??$forward@ABQAUitemDef_s@@@std@@YAABQAUitemDef_s@@ABQAU1@@Z 301523e0 f i StackPanel.obj
 0002:00058420       ??$_Construct@PAVUIElement@@ABQAV1@@std@@YAXPAPAVUIElement@@ABQAV1@@Z 30152420 f i StackPanel.obj
 0002:00058520       ??$_Destroy@U_Node@?$_List_nod@PAVUIElement@@V?$allocator@PAVUIElement@@@std@@@std@@@std@@YAXPAU_Node@?$_List_nod@PAVUIElement@@V?$allocator@PAVUIElement@@@std@@@0@@Z 30152520 f i StackPanel.obj
 0002:00058550       ??$_Construct@PAUitemDef_s@@ABQAU1@@std@@YAXPAPAUitemDef_s@@ABQAU1@@Z 30152550 f i StackPanel.obj
 0002:00058650       ??$_Destroy@U_Node@?$_List_nod@PAUitemDef_s@@V?$allocator@PAUitemDef_s@@@std@@@std@@@std@@YAXPAU_Node@?$_List_nod@PAUitemDef_s@@V?$allocator@PAUitemDef_s@@@std@@@0@@Z 30152650 f i StackPanel.obj
 0002:00058680       ??$_Destroy@U_Container_proxy@std@@@std@@YAXPAU_Container_proxy@0@@Z 30152680 f i StackPanel.obj
 0002:000586b0       ?erase@?$list@PAVUIElement@@V?$allocator@PAVUIElement@@@std@@@std@@QAE?AV?$_List_iterator@V?$_List_val@PAVUIElement@@V?$allocator@PAVUIElement@@@std@@@std@@@2@V?$_List_const_iterator@V?$_List_val@PAVUIElement@@V?$allocator@PAVUIElement@@@std@@@std@@@2@@Z 301526b0 f i StackPanel.obj
 0002:00058900       ?erase@?$list@PAUitemDef_s@@V?$allocator@PAUitemDef_s@@@std@@@std@@QAE?AV?$_List_iterator@V?$_List_val@PAUitemDef_s@@V?$allocator@PAUitemDef_s@@@std@@@std@@@2@V?$_List_const_iterator@V?$_List_val@PAUitemDef_s@@V?$allocator@PAUitemDef_s@@@std@@@std@@@2@@Z 30152900 f i StackPanel.obj
 0002:00058b50       ??F?$_List_const_iterator@V?$_List_val@PAUitemDef_s@@V?$allocator@PAUitemDef_s@@@std@@@std@@@std@@QAEAAV01@XZ 30152b50 f i StackPanel.obj
 0002:00058c70       ??F?$_List_const_iterator@V?$_List_val@PAVUIElement@@V?$allocator@PAVUIElement@@@std@@@std@@@std@@QAEAAV01@XZ 30152c70 f i StackPanel.obj
 0002:00058d90       ?_Make_iter@?$list@PAVUIElement@@V?$allocator@PAVUIElement@@@std@@@std@@QBE?AV?$_List_iterator@V?$_List_val@PAVUIElement@@V?$allocator@PAVUIElement@@@std@@@std@@@2@V?$_List_const_iterator@V?$_List_val@PAVUIElement@@V?$allocator@PAVUIElement@@@std@@@std@@@2@@Z 30152d90 f i StackPanel.obj
 0002:00058e60       ?_Make_iter@?$list@PAUitemDef_s@@V?$allocator@PAUitemDef_s@@@std@@@std@@QBE?AV?$_List_iterator@V?$_List_val@PAUitemDef_s@@V?$allocator@PAUitemDef_s@@@std@@@std@@@2@V?$_List_const_iterator@V?$_List_val@PAUitemDef_s@@V?$allocator@PAUitemDef_s@@@std@@@std@@@2@@Z 30152e60 f i StackPanel.obj
 0002:00058f30       ??E?$_List_const_iterator@V?$_List_val@PAUitemDef_s@@V?$allocator@PAUitemDef_s@@@std@@@std@@@std@@QAE?AV01@H@Z 30152f30 f i StackPanel.obj
 0002:00059050       ??E?$_List_const_iterator@V?$_List_val@PAVUIElement@@V?$allocator@PAVUIElement@@@std@@@std@@@std@@QAE?AV01@H@Z 30153050 f i StackPanel.obj
 0002:00059170       ??$_Debug_range@V?$_List_const_iterator@V?$_List_val@PAVUIElement@@V?$allocator@PAVUIElement@@@std@@@std@@@std@@@std@@YAXV?$_List_const_iterator@V?$_List_val@PAVUIElement@@V?$allocator@PAVUIElement@@@std@@@std@@@0@0PB_WI@Z 30153170 f i StackPanel.obj
 0002:000592a0       ??$_Debug_range@V?$_List_const_iterator@V?$_List_val@PAUitemDef_s@@V?$allocator@PAUitemDef_s@@@std@@@std@@@std@@@std@@YAXV?$_List_const_iterator@V?$_List_val@PAUitemDef_s@@V?$allocator@PAUitemDef_s@@@std@@@std@@@0@0PB_WI@Z 301532a0 f i StackPanel.obj
 0002:000593d0       ??$_Debug_range2@V?$_List_const_iterator@V?$_List_val@PAVUIElement@@V?$allocator@PAVUIElement@@@std@@@std@@@std@@@std@@YAXV?$_List_const_iterator@V?$_List_val@PAVUIElement@@V?$allocator@PAVUIElement@@@std@@@std@@@0@0PB_WIUinput_iterator_tag@0@@Z 301533d0 f i StackPanel.obj
 0002:00059490       ??$_Debug_range2@V?$_List_const_iterator@V?$_List_val@PAUitemDef_s@@V?$allocator@PAUitemDef_s@@@std@@@std@@@std@@@std@@YAXV?$_List_const_iterator@V?$_List_val@PAUitemDef_s@@V?$allocator@PAUitemDef_s@@@std@@@std@@@0@0PB_WIUinput_iterator_tag@0@@Z 30153490 f i StackPanel.obj
 0002:00059550       ?CGCam_Init@@YAXXZ         30153550 f   cg_camera.obj
 0002:00059580       ?CGCam_Enable@@YAXXZ       30153580 f   cg_camera.obj
 0002:00059650       ?CGCam_Disable@@YAXXZ      30153650 f   cg_camera.obj
 0002:00059740       ?CGCam_SetPosition@@YAXQAM@Z 30153740 f   cg_camera.obj
 0002:000597d0       ?CGCam_Move@@YAXQAMM@Z     301537d0 f   cg_camera.obj
 0002:000598d0       ?CGCam_SetAngles@@YAXQAM@Z 301538d0 f   cg_camera.obj
 0002:00059960       ?CGCam_Pan@@YAXQAM0M@Z     30153960 f   cg_camera.obj
 0002:00059c30       ?CGCam_SetRoll@@YAXM@Z     30153c30 f   cg_camera.obj
 0002:00059c70       ?CGCam_Roll@@YAXMM@Z       30153c70 f   cg_camera.obj
 0002:00059d60       ?CGCam_SetFOV@@YAXM@Z      30153d60 f   cg_camera.obj
 0002:00059da0       ?CGCam_Zoom@@YAXMM@Z       30153da0 f   cg_camera.obj
 0002:00059e40       ?CGCam_Zoom2@@YAXMMM@Z     30153e40 f   cg_camera.obj
 0002:00059ef0       ?CGCam_ZoomAccel@@YAXMMMM@Z 30153ef0 f   cg_camera.obj
 0002:00059f90       ?CGCam_SetFade@@YAXQAM@Z   30153f90 f   cg_camera.obj
 0002:0005a050       ?CGCam_Fade@@YAXQAM0M@Z    30154050 f   cg_camera.obj
 0002:0005a160       ?CGCam_FollowDisable@@YAXXZ 30154160 f   cg_camera.obj
 0002:0005a1f0       ?CGCam_TrackDisable@@YAXXZ 301541f0 f   cg_camera.obj
 0002:0005a240       ?CGCam_DistanceDisable@@YAXXZ 30154240 f   cg_camera.obj
 0002:0005a280       ?CGCam_Follow@@YAXQAHMM@Z  30154280 f   cg_camera.obj
 0002:0005a390       ?CG_CameraAutoAim@@YAXPBD@Z 30154390 f   cg_camera.obj
 0002:0005a3c0       ?CGCam_Track@@YAXHMM@Z     301543c0 f   cg_camera.obj
 0002:0005a550       ?CG_CameraAutoTrack@@YAXPBD@Z 30154550 f   cg_camera.obj
 0002:0005a580       ?CGCam_Distance@@YAXMM@Z   30154580 f   cg_camera.obj
 0002:0005a5f0       ?CGCam_FollowUpdate@@YAXXZ 301545f0 f   cg_camera.obj
 0002:0005b110       ?CGCam_TrackEntUpdate@@YAXXZ 30155110 f   cg_camera.obj
 0002:0005b140       ?CGCam_TrackUpdate@@YAXXZ  30155140 f   cg_camera.obj
 0002:0005b830       ?CGCam_UpdateBarFade@@YAXXZ 30155830 f   cg_camera.obj
 0002:0005b920       ?CGCam_UpdateFade@@YAXXZ   30155920 f   cg_camera.obj
 0002:0005ba40       ?CGCam_Update@@YAXXZ       30155a40 f   cg_camera.obj
 0002:0005c1d0       ?CGCam_DrawWideScreen@@YAXXZ 301561d0 f   cg_camera.obj
 0002:0005c3b0       ?CGCam_RenderScene@@YAXXZ  301563b0 f   cg_camera.obj
 0002:0005c420       ?CGCam_Shake@@YAXMH@Z      30156420 f   cg_camera.obj
 0002:0005c490       ?CGCam_UpdateShake@@YAXQAM0@Z 30156490 f   cg_camera.obj
 0002:0005c720       ?CGCam_Smooth@@YAXMH@Z     30156720 f   cg_camera.obj
 0002:0005c7e0       ?CGCam_UpdateSmooth@@YAXQAM0@Z 301567e0 f   cg_camera.obj
 0002:0005c9a0       ?CGCam_NotetrackProcessFov@@YAXPBD@Z 301569a0 f   cg_camera.obj
 0002:0005cb20       ?CGCam_NotetrackProcessFovZoom@@YAXPBD@Z 30156b20 f   cg_camera.obj
 0002:0005cf10       ?CGCam_NotetrackProcessFovAccel@@YAXPBD@Z 30156f10 f   cg_camera.obj
 0002:0005d430       ?CGCam_StartRoff@@YAXPAD@Z 30157430 f   cg_camera.obj
 0002:0005d490       ?CMD_CGCam_Disable@@YAXXZ  30157490 f   cg_camera.obj
 0002:0005d550       ?CG_CameraParse@@YAXXZ     30157550 f   cg_camera.obj
 0002:0005da30       ?CGCam_DoFade@@YAXXZ       30157a30 f   cg_camera.obj
 0002:0005db10       ?CG_TargetCommand_f@@YAXXZ 30157b10 f   cg_consolecmds.obj
 0002:0005e8a0       ?CG_ConsoleCommand@@YA?AW4qboolean@@XZ 301588a0 f   cg_consolecmds.obj
 0002:0005e960       ?CG_InitConsoleCommands@@YAXXZ 30158960 f   cg_consolecmds.obj
 0002:0005ed00       ?UI_ParseAnimationFile@@YAHPBDPAUanimation_s@@W4qboolean@@@Z 30158d00 f   cg_draw.obj
 0002:0005ed60       ?MenuFontToHandle@@YAHH@Z  30158d60 f   cg_draw.obj
 0002:0005ee10       ?CG_Text_Width@@YAHPBDMH@Z 30158e10 f   cg_draw.obj
 0002:0005ee80       ?CG_Text_Height@@YAHPBDMH@Z 30158e80 f   cg_draw.obj
 0002:0005eef0       ?CG_Text_Paint@@YAXMMMQAMPBDMHHH@Z 30158ef0 f   cg_draw.obj
 0002:0005f050       ?CG_Draw3DModel@@YAXMMMMHPAXHHQAM1@Z 30159050 f   cg_draw.obj
 0002:0005f290       ?CG_DrawHead@@YAXMMMMHQAM@Z 30159290 f   cg_draw.obj
 0002:0005f370       ?CG_DrawFlagModel@@YAXMMMMHW4qboolean@@@Z 30159370 f   cg_draw.obj
 0002:0005f650       ?DrawAmmo@@YAXXZ           30159650 f   cg_draw.obj
 0002:0005f690       ?CG_AddToAddText@@YAXPAD@Z 30159690 f   cg_draw.obj
 0002:0005f7c0       ?CG_RemoveFromAddText@@YAXXZ 301597c0 f   cg_draw.obj
 0002:0005f8c0       ?CG_UpdateAddText@@YAXXZ   301598c0 f   cg_draw.obj
 0002:0005f920       ?CG_DrawAddText@@YAMM@Z    30159920 f   cg_draw.obj
 0002:0005fa80       ?ForcePower_Valid@@YA?AW4qboolean@@H@Z 30159a80 f   cg_draw.obj
 0002:0005fb00       ?CG_DrawForceSelect@@YAXXZ 30159b00 f   cg_draw.obj
 0002:000600c0       ?CG_DrawInvenSelect@@YAXXZ 3015a0c0 f   cg_draw.obj
 0002:000608f0       ?CG_CheckTargetVehicle@@YA?AW4qboolean@@PAPAUcentity_s@@PAM@Z 3015a8f0 f   cg_draw.obj
 0002:00060b50       ?CG_DrawVehicleShields@@YAMPBUmenuDef_t@@PBUcentity_s@@@Z 3015ab50 f   cg_draw.obj
 0002:00060e50       ?CG_DrawVehicleAmmo@@YAXPBUmenuDef_t@@PBUcentity_s@@@Z 3015ae50 f   cg_draw.obj
 0002:000611a0       ?CG_DrawVehicleAmmoUpper@@YAXPBUmenuDef_t@@PBUcentity_s@@@Z 3015b1a0 f   cg_draw.obj
 0002:000614f0       ?CG_DrawVehicleAmmoLower@@YAXPBUmenuDef_t@@PBUcentity_s@@@Z 3015b4f0 f   cg_draw.obj
 0002:00061840       ?CG_DrawVehicleTurboRecharge@@YAXPBUmenuDef_t@@PBUcentity_s@@@Z 3015b840 f   cg_draw.obj
 0002:000619b0       ?CG_DrawVehicleWeaponsLinked@@YAXPBUmenuDef_t@@PBUcentity_s@@@Z 3015b9b0 f   cg_draw.obj
 0002:00061b40       ?CG_DrawVehicleSpeed@@YAXPBUmenuDef_t@@PBUcentity_s@@@Z 3015bb40 f   cg_draw.obj
 0002:00061ed0       ?CG_DrawVehicleArmor@@YAXPBUmenuDef_t@@PBUcentity_s@@@Z 3015bed0 f   cg_draw.obj
 0002:000621c0       ?CG_DrawVehicleDamage@@YAXPBUcentity_s@@HPBUmenuDef_t@@MH@Z 3015c1c0 f   cg_draw.obj
 0002:00062470       ?CG_DrawVehicleDamageHUD@@YAXPBUcentity_s@@HMPADM@Z 3015c470 f   cg_draw.obj
 0002:000628b0       ?CG_DrawVehicleHud@@YA?AW4qboolean@@PBUcentity_s@@@Z 3015c8b0 f   cg_draw.obj
 0002:00062c90       ?CG_DrawTeamBackground@@YAXHHHHMH@Z 3015cc90 f   cg_draw.obj
 0002:00062dc0       ?CG_DrawHealthBarRough@@YAXMMHHMPBM0@Z 3015cdc0 f   cg_draw.obj
 0002:00063050       ?CG_DrawDuelistHealth@@YAXMMMMH@Z 3015d050 f   cg_draw.obj
 0002:000631e0       ?CG_DrawRadar@@YAMM@Z      3015d1e0 f   cg_draw.obj
 0002:00065320       ?CG_AddLagometerFrameInfo@@YAXXZ 3015f320 f   cg_draw.obj
 0002:00065390       ?CG_AddLagometerSnapshotInfo@@YAXPAUsnapshot_t@@@Z 3015f390 f   cg_draw.obj
 0002:00065440       ?CG_DrawSiegeMessage@@YAXPBDH@Z 3015f440 f   cg_draw.obj
 0002:000654d0       ?CG_DrawSiegeMessageNonMenu@@YAXPBD@Z 3015f4d0 f   cg_draw.obj
 0002:000655b0       ?CG_CenterPrint@@YAXPBDHH@Z 3015f5b0 f   cg_draw.obj
 0002:000656b0       ?CG_DrawSiegeInfo@@YAXPAUcentity_s@@MMMM@Z 3015f6b0 f   cg_draw.obj
 0002:00065db0       ?CG_DrawHealthBar@@YAXPAUcentity_s@@MMMM@Z 3015fdb0 f   cg_draw.obj
 0002:00066120       ?CG_DrawHaqrBar@@YAXMMMM@Z 30160120 f   cg_draw.obj
 0002:00066450       ?CG_DrawGenericTimerBar@@YAXXZ 30160450 f   cg_draw.obj
 0002:00066760       ?CG_LerpCrosshairPos@@YAXPAM0@Z 30160760 f   cg_draw.obj
 0002:00066950       ?CG_WorldCoordToScreenCoordFloat@@YA?AW4qboolean@@QAMPAM1@Z 30160950 f   cg_draw.obj
 0002:00066ba0       ?CG_WorldCoordToScreenCoord@@YA?AW4qboolean@@QAMPAH1@Z 30160ba0 f   cg_draw.obj
 0002:00066c70       ?CG_SaberClashFlare@@YAXXZ 30160c70 f   cg_draw.obj
 0002:00066fa0       ?CG_DottedLine@@YAXMMMMMHQAMM@Z 30160fa0 f   cg_draw.obj
 0002:00067140       ?CG_BracketEntity@@YAXPAUcentity_s@@M@Z 30161140 f   cg_draw.obj
 0002:00067d00       ?CG_InFighter@@YA?AW4qboolean@@XZ 30161d00 f   cg_draw.obj
 0002:00067da0       ?CG_InATST@@YA?AW4qboolean@@XZ 30161da0 f   cg_draw.obj
 0002:00067e40       ?CG_DrawBracketedEntities@@YAXXZ 30161e40 f   cg_draw.obj
 0002:00067ef0       ?CG_CalcVehicleMuzzlePoint@@YA?AW4qboolean@@HQAM000@Z 30161ef0 f   cg_draw.obj
 0002:00068450       ?CG_CalcEWebMuzzlePoint@@YAXPAUcentity_s@@QAM111@Z 30162450 f   cg_draw.obj
 0002:00068840       ?CG_SanitizeString@@YAXPAD0@Z 30162840 f   cg_draw.obj
 0002:00068960       ?CG_DrawTimedMenus@@YAXXZ  30162960 f   cg_draw.obj
 0002:00068a00       ?CG_DrawFlagStatus@@YAXXZ  30162a00 f   cg_draw.obj
 0002:00068c30       ?CG_DrawJetpackFuel@@YAXXZ 30162c30 f   cg_draw.obj
 0002:00068f20       ?CG_DrawEWebHealth@@YAXXZ  30162f20 f   cg_draw.obj
 0002:00069280       ?CG_DrawCloakFuel@@YAXXZ   30163280 f   cg_draw.obj
 0002:000695a0       ?CG_ChatBox_StrInsert@@YAXPADH0@Z 301635a0 f   cg_draw.obj
 0002:000696a0       ?CG_ChatBox_AddString@@YAXPAD@Z 301636a0 f   cg_draw.obj
 0002:00069970       ?CG_ChatBox_ArrayInsert@@YAXPAPAUchatBoxItem_s@@HHPAU1@@Z 30163970 f   cg_draw.obj
 0002:00069a20       ?CG_DrawActive@@YAXH@Z     30163a20 f   cg_draw.obj
 0002:00071e50       ?strstr@@YAPADPADPBD@Z     3016be50 f i cg_draw.obj
 0002:000743e0       ?CG_DrawRect@@YAXMMMMMPBM@Z 3016e3e0 f   cg_drawtools.obj
 0002:000744b0       ?CG_GetColorForHealth@@YAXHHQAM@Z 3016e4b0 f   cg_drawtools.obj
 0002:00074620       ?CG_DrawSides@@YAXMMMMM@Z  3016e620 f   cg_drawtools.obj
 0002:00074730       ?CG_DrawTopBottom@@YAXMMMMM@Z 3016e730 f   cg_drawtools.obj
 0002:00074840       ?CG_FillRect2@@YAXMMMMPBM@Z 3016e840 f   cg_drawtools.obj
 0002:000748f0       ?CG_FillRect@@YAXMMMMPBM@Z 3016e8f0 f   cg_drawtools.obj
 0002:000749a0       ?CG_DrawPic@@YAXMMMMH@Z    3016e9a0 f   cg_drawtools.obj
 0002:00074a30       ?CG_DrawRotatePic@@YAXMMMMMH@Z 3016ea30 f   cg_drawtools.obj
 0002:00074ad0       ?CG_DrawRotatePic2@@YAXMMMMMH@Z 3016ead0 f   cg_drawtools.obj
 0002:00074b70       ?CG_DrawChar@@YAXHHHHH@Z   3016eb70 f   cg_drawtools.obj
 0002:00074cb0       ?CG_DrawStringExt@@YAXHHPBDPBMW4qboolean@@2HHH@Z 3016ecb0 f   cg_drawtools.obj
 0002:00075010       ?CG_DrawBigString@@YAXHHPBDM@Z 3016f010 f   cg_drawtools.obj
 0002:000750f0       ?CG_DrawBigStringColor@@YAXHHPBDQAM@Z 3016f0f0 f   cg_drawtools.obj
 0002:00075160       ?CG_DrawSmallString@@YAXHHPBDM@Z 3016f160 f   cg_drawtools.obj
 0002:00075240       ?CG_DrawSmallStringColor@@YAXHHPBDQAM@Z 3016f240 f   cg_drawtools.obj
 0002:000752b0       ?CG_DrawStrlen@@YAHPBD@Z   3016f2b0 f   cg_drawtools.obj
 0002:00075380       ?CG_TileClear@@YAXXZ       3016f380 f   cg_drawtools.obj
 0002:000755f0       ?CG_FadeColor@@YAPAMHH@Z   3016f5f0 f   cg_drawtools.obj
 0002:000756c0       ?CG_ColorForGivenHealth@@YAXQAMH@Z 3016f6c0 f   cg_drawtools.obj
 0002:000757a0       ?CG_ColorForHealth@@YAXQAM@Z 3016f7a0 f   cg_drawtools.obj
 0002:00075890       ?CG_DrawNumField@@YAXMMHHHHHW4qboolean@@@Z 3016f890 f   cg_drawtools.obj
 0002:00075e50       ?UI_DrawProportionalString@@YAXHHPBDHQAM@Z 3016fe50 f   cg_drawtools.obj
 0002:00075fa0       ?UI_DrawScaledProportionalString@@YAXHHPBDHQAMM@Z 3016ffa0 f   cg_drawtools.obj
 0002:000760e0       ?UI_OJPDrawColouredString@@YAXHHPBDQAM@Z 301700e0 f   cg_drawtools.obj
 0002:00076170       ?CG_BubbleTrail@@YAXQAM0M@Z 30170170 f   cg_effects.obj
 0002:000765a0       ?CG_SmokePuff@@YAPAUlocalEntity_s@@QBM0MMMMMMHHHH@Z 301705a0 f   cg_effects.obj
 0002:000768f0       ?CGDEBUG_SaberColor@@YAHH@Z 301708f0 f   cg_effects.obj
 0002:000769b0       ?CG_TestLine@@YAXQAM0HIH@Z 301709b0 f   cg_effects.obj
 0002:00076bb0       ?CG_ThrowChunk@@YAXQAM0HHH@Z 30170bb0 f   cg_effects.obj
 0002:00076e00       ?CG_InitGlass@@YAXXZ       30170e00 f   cg_effects.obj
 0002:00076f50       ?Vector2Set@@YAXQAMMM@Z    30170f50 f   cg_effects.obj
 0002:00076fa0       ?CG_DoGlass@@YAXQAY02MQAM11MH@Z 30170fa0 f   cg_effects.obj
 0002:00078aa0       ?CG_GlassShatter@@YAXHQAM0MH@Z 30172aa0 f   cg_effects.obj
 0002:00078bd0       ?CG_GlassShatter_Old@@YAXHQAM00@Z 30172bd0 f   cg_effects.obj
 0002:00079120       ?CG_CreateDebris@@YAXHQAM00HH@Z 30173120 f   cg_effects.obj
 0002:00079870       ?CG_ExplosionEffects@@YAXQAMMHH@Z 30173870 f   cg_effects.obj
 0002:00079990       ?CG_MiscModelExplosion@@YAXQAM0HH@Z 30173990 f   cg_effects.obj
 0002:00079dc0       ?CG_Chunks@@YAXHQAMQBM11MHHHM@Z 30173dc0 f   cg_effects.obj
 0002:0007a900       ?CG_ScorePlum@@YAXHQAMH@Z  30174900 f   cg_effects.obj
 0002:0007ab70       ?CG_MakeExplosion@@YAPAUlocalEntity_s@@QAM0HHHHW4qboolean@@MH@Z 30174b70 f   cg_effects.obj
 0002:0007b020       ?CG_SurfaceExplosion@@YAXQAM0MMW4qboolean@@@Z 30175020 f   cg_effects.obj
 0002:0007b8a0       ?CG_Bleed@@YAXQAMH@Z       301758a0 f   cg_effects.obj
 0002:0007b9f0       ?CG_LaunchGib@@YAXQAM0H@Z  301759f0 f   cg_effects.obj
 0002:0007bbc0       ?CG_PositionEntityOnTag@@YAXPAUrefEntity_t@@PBU1@HPAD@Z 30175bc0 f   cg_ents.obj
 0002:0007bdb0       ?CG_PositionRotatedEntityOnTag@@YAXPAUrefEntity_t@@PBU1@HPAD@Z 30175db0 f   cg_ents.obj
 0002:0007bfc0       ?CG_SetEntitySoundPosition@@YAXPAUcentity_s@@@Z 30175fc0 f   cg_ents.obj
 0002:0007c100       ?CG_S_AddLoopingSound@@YAXHQBM0H@Z 30176100 f   cg_ents.obj
 0002:0007c2d0       ?CG_S_AddRealLoopingSound@@YAXHQBM0H@Z 301762d0 f   cg_ents.obj
 0002:0007c330       ?CG_S_StopLoopingSound@@YAXHH@Z 30176330 f   cg_ents.obj
 0002:0007c480       ?CG_S_UpdateLoopingSounds@@YAXH@Z 30176480 f   cg_ents.obj
 0002:0007c640       ?FX_AddOrientedLine@@YAPAUlocalEntity_s@@QAM00MMMMMMH@Z 30176640 f   cg_ents.obj
 0002:0007c890       ?FX_DrawPortableShield@@YAXPAUcentity_s@@@Z 30176890 f   cg_ents.obj
 0002:0007cc00       ?CG_Special@@YAXPAUcentity_s@@@Z 30176c00 f   cg_ents.obj
 0002:0007cc80       ?CG_SetGhoul2Info@@YAXPAUrefEntity_t@@PAUcentity_s@@@Z 30176c80 f   cg_ents.obj
 0002:0007cd60       ?CG_CreateBBRefEnts@@YAXPAUentityState_s@@QAM@Z 30176d60 f   cg_ents.obj
 0002:0007cd90       ?G2_BoltToGhoul2Model@@YAXPAUcentity_s@@PAUrefEntity_t@@@Z 30176d90 f   cg_ents.obj
 0002:0007cfa0       ?ScaleModelAxis@@YAXPAUrefEntity_t@@@Z 30176fa0 f   cg_ents.obj
 0002:0007d1b0       ?CG_Disintegration@@YAXPAUcentity_s@@PAUrefEntity_t@@@Z 301771b0 f   cg_ents.obj
 0002:0007d850       ?CG_AddRadarEnt@@YAXPAUcentity_s@@@Z 30177850 f   cg_ents.obj
 0002:0007d8f0       ?CG_AddBracketedEnt@@YAXPAUcentity_s@@@Z 301778f0 f   cg_ents.obj
 0002:0007d990       ?CG_GreyItem@@YA?AW4qboolean@@HHH@Z 30177990 f   cg_ents.obj
 0002:0007da10       ?CG_CreateDistortionTrailPart@@YAXPAUcentity_s@@MQAM@Z 30177a10 f   cg_ents.obj
 0002:0007dda0       ?CG_PlayDoorLoopSound@@YAXPAUcentity_s@@@Z 30177da0 f   cg_ents.obj
 0002:0007df60       ?CG_PlayDoorSound@@YAXPAUcentity_s@@H@Z 30177f60 f   cg_ents.obj
 0002:0007e030       ?CG_Beam@@YAXPAUcentity_s@@@Z 30178030 f   cg_ents.obj
 0002:0007e1b0       ?CG_AdjustPositionForMover@@YAXQBMHHHQAM@Z 301781b0 f   cg_ents.obj
 0002:0007e460       ?CG_CalcEntityLerpPositions@@YAXPAUcentity_s@@@Z 30178460 f   cg_ents.obj
 0002:0007e930       ?CG_ManualEntityRender@@YAXPAUcentity_s@@@Z 30178930 f   cg_ents.obj
 0002:00086690       ?CG_AddPacketEntities@@YAXW4qboolean@@@Z 30180690 f   cg_ents.obj
 0002:00086ba0       ?CG_ROFF_NotetrackCallback@@YAXPAUcentity_s@@PBD@Z 30180ba0 f   cg_ents.obj
 0002:000874f0       ?CG_Cube@@YAXQAM00M@Z      301814f0 f   cg_ents.obj
 0002:000878c0       ?CG_PlaceString@@YAPBDH@Z  301818c0 f   cg_event.obj
 0002:00087c40       ?CG_ToggleBinoculars@@YAXPAUcentity_s@@H@Z 30181c40 f   cg_event.obj
 0002:00087d70       ?CG_LocalTimingBar@@YAXHH@Z 30181d70 f   cg_event.obj
 0002:00087de0       ?CG_PainEvent@@YAXPAUcentity_s@@H@Z 30181de0 f   cg_event.obj
 0002:00087ee0       ?CG_ReattachLimb@@YAXPAUcentity_s@@@Z 30181ee0 f   cg_event.obj
 0002:00087fd0       ?CG_TeamName@@YAPBDH@Z     30181fd0 f   cg_event.obj
 0002:00088040       ?CG_PrintCTFMessage@@YAXPAUclientInfo_t@@PBDH@Z 30182040 f   cg_event.obj
 0002:00088420       ?CG_GetCTFMessageEvent@@YAXPAUentityState_s@@@Z 30182420 f   cg_event.obj
 0002:000884f0       ?DoFall@@YAXPAUcentity_s@@PAUentityState_s@@H@Z 301824f0 f   cg_event.obj
 0002:00088790       ?CG_InClientBitflags@@YAHPAUentityState_s@@H@Z 30182790 f   cg_event.obj
 0002:00088860       ?CG_TryPlayCustomSound@@YAXQAMHHPBD@Z 30182860 f   cg_event.obj
 0002:000888e0       ?CG_G2MarkEvent@@YAXPAUentityState_s@@@Z 301828e0 f   cg_event.obj
 0002:00088dc0       ?CG_CalcVehMuzzle@@YAXPAUVehicle_s@@PAUcentity_s@@H@Z 30182dc0 f   cg_event.obj
 0002:000891e0       ?CG_VehMuzzleFireFX@@YAXPAUcentity_s@@PAUentityState_s@@@Z 301831e0 f   cg_event.obj
 0002:00089400       ?CG_GetStringForVoiceSound@@YAPBDPBD@Z 30183400 f   cg_event.obj
 0002:000894f0       ?CG_EntityEvent@@YAXPAUcentity_s@@QAM@Z 301834f0 f   cg_event.obj
 0002:000929b0       ?CG_CheckEvents@@YAXPAUcentity_s@@@Z 3018c9b0 f   cg_event.obj
 0002:00092b00       ?InitHolsterData@@YAXPAUclientInfo_t@@@Z 3018cb00 f   cg_holster.obj
 0002:00092c20       ?CG_LoadHolsterData@@YAXPAUclientInfo_t@@@Z 3018cc20 f   cg_holster.obj
 0002:000931c0       ?CG_LoadingString@@YAXPBD@Z 3018d1c0 f   cg_info.obj
 0002:00093280       ?CG_LoadingItem@@YAXH@Z    3018d280 f   cg_info.obj
 0002:00093390       ?CG_LoadingClient@@YAXH@Z  3018d390 f   cg_info.obj
 0002:00093490       ?CG_DrawInformation@@YAXXZ 3018d490 f   cg_info.obj
 0002:00094930       ?CG_LoadBar@@YAXXZ         3018e930 f   cg_info.obj
 0002:00094b40       ?CG_DrawHealthTicMethod@@YAXPAUmenuDef_t@@@Z 3018eb40 f   cg_jkehud.obj
 0002:00094cd0       ?CG_DrawArmorTicMethod@@YAXPAUmenuDef_t@@@Z 3018ecd0 f   cg_jkehud.obj
 0002:000950f0       ?CG_DrawBalanceTicMethod@@YAXPAUcentity_s@@PAUmenuDef_t@@@Z 3018f0f0 f   cg_jkehud.obj
 0002:000951e0       ?CG_DrawAmmoTicMethod@@YAXPAUcentity_s@@PAUmenuDef_t@@@Z 3018f1e0 f   cg_jkehud.obj
 0002:000955c0       ?CG_DrawSaberStyleTicMethod@@YAXPAUcentity_s@@PAUmenuDef_t@@@Z 3018f5c0 f   cg_jkehud.obj
 0002:000959a0       ?CG_DrawForcePower@@YAXPAUmenuDef_t@@@Z 3018f9a0 f   cg_jkehud.obj
 0002:00095db0       ?JKEHUD@@YAXPAUcentity_s@@@Z 3018fdb0 f   cg_jkehud.obj
 0002:00096140       ?CG_ClearLightStyles@@YAXXZ 30190140 f   cg_light.obj
 0002:000961e0       ?CG_RunLightStyles@@YAXXZ  301901e0 f   cg_light.obj
 0002:00096370       ?CG_SetLightstyle@@YAXH@Z  30190370 f   cg_light.obj
 0002:000964f0       ?CG_InitLocalEntities@@YAXXZ 301904f0 f   cg_localents.obj
 0002:000965c0       ?CG_FreeLocalEntity@@YAXPAUlocalEntity_s@@@Z 301905c0 f   cg_localents.obj
 0002:00096660       ?CG_AllocLocalEntity@@YAPAUlocalEntity_s@@XZ 30190660 f   cg_localents.obj
 0002:00096730       ?CG_BloodTrail@@YAXPAUlocalEntity_s@@@Z 30190730 f   cg_localents.obj
 0002:000968c0       ?CG_FragmentBounceMark@@YAXPAUlocalEntity_s@@PAUtrace_t@@@Z 301908c0 f   cg_localents.obj
 0002:00096960       ?CG_FragmentBounceSound@@YAXPAUlocalEntity_s@@PAUtrace_t@@@Z 30190960 f   cg_localents.obj
 0002:00096a80       ?CG_ReflectVelocity@@YAXPAUlocalEntity_s@@PAUtrace_t@@@Z 30190a80 f   cg_localents.obj
 0002:00096d10       ?CG_AddFragment@@YAXPAUlocalEntity_s@@@Z 30190d10 f   cg_localents.obj
 0002:000971a0       ?CG_AddFadeRGB@@YAXPAUlocalEntity_s@@@Z 301911a0 f   cg_localents.obj
 0002:00097380       ?CG_AddRefEntity@@YAXPAUlocalEntity_s@@@Z 30191380 f   cg_localents.obj
 0002:00097400       ?CG_AddScorePlum@@YAXPAUlocalEntity_s@@@Z 30191400 f   cg_localents.obj
 0002:00097bb0       ?CG_AddOLine@@YAXPAUlocalEntity_s@@@Z 30191bb0 f   cg_localents.obj
 0002:00097e60       ?CG_AddLine@@YAXPAUlocalEntity_s@@@Z 30191e60 f   cg_localents.obj
 0002:00097ed0       ?CG_AddLocalEntities@@YAXXZ 30191ed0 f   cg_localents.obj
 0002:00099170       ?CG_NoUseableForce@@YA?AW4qboolean@@XZ 30193170 f   cg_main.obj
 0002:00099200       ?vmMain@@YAHHHHHHHHHHHHHH@Z 30193200 f   cg_main.obj
 0002:0009a410       ?CG_MiscEnt@@YAXXZ         30194410 f   cg_main.obj
 0002:0009a820       ?CG_DrawMiscEnts@@YAXXZ    30194820 f   cg_main.obj
 0002:0009aa40       ?CG_RegisterCvars@@YAXXZ   30194a40 f   cg_main.obj
 0002:0009aee0       ?CG_UpdateCvars@@YAXXZ     30194ee0 f   cg_main.obj
 0002:0009b100       ?CG_CrosshairPlayer@@YAHXZ 30195100 f   cg_main.obj
 0002:0009b170       ?CG_LastAttacker@@YAHXZ    30195170 f   cg_main.obj
 0002:0009b1c0       ?CG_Printf@@YAXPBDZZ       301951c0 f   cg_main.obj
 0002:0009b290       ?CG_Error@@YAXPBDZZ        30195290 f   cg_main.obj
 0002:0009b360       ?Com_Error@@YAXHPBDZZ      30195360 f   cg_main.obj
 0002:0009b440       ?Com_Printf@@YAXPBDZZ      30195440 f   cg_main.obj
 0002:0009b520       ?CG_Argv@@YAPBDH@Z         30195520 f   cg_main.obj
 0002:0009b580       ?BG_GetTime@@YAHXZ         30195580 f   cg_main.obj
 0002:0009b5c0       ?CG_ParseWeatherEffect@@YAXPBD@Z 301955c0 f   cg_main.obj
 0002:0009b620       ?CG_ParseSiegeState@@YAXPBD@Z 30195620 f   cg_main.obj
 0002:0009b800       ?CG_GetStringEdString@@YAPBDPAD0@Z 30195800 f   cg_main.obj
 0002:0009b900       ?CG_SiegeCountCvars@@YAXXZ 30195900 f   cg_main.obj
 0002:0009bd20       ?CG_BuildSpectatorString@@YAXXZ 30195d20 f   cg_main.obj
 0002:0009be30       ?CG_ConfigString@@YAPBDH@Z 30195e30 f   cg_main.obj
 0002:0009beb0       ?CG_StartMusic@@YAXW4qboolean@@@Z 30195eb0 f   cg_main.obj
 0002:0009c030       ?CG_GetMenuBuffer@@YAPADPBD@Z 30196030 f   cg_main.obj
 0002:0009c170       ?CG_Asset_Parse@@YA?AW4qboolean@@H@Z 30196170 f   cg_main.obj
 0002:0009c960       ?CG_ParseMenu@@YAXPBD@Z    30196960 f   cg_main.obj
 0002:0009cb10       ?CG_Load_Menu@@YA?AW4qboolean@@PAPBD@Z 30196b10 f   cg_main.obj
 0002:0009cbf0       ?CG_SetScoreSelection@@YAXPAX@Z 30196bf0 f   cg_main.obj
 0002:0009cd70       ?CG_Text_PaintWithCursor@@YAXMMMQAMPBDHDHHH@Z 30196d70 f   cg_main.obj
 0002:0009ce00       ?CG_LoadMenus@@YAXPBD@Z    30196e00 f   cg_main.obj
 0002:0009d030       ?CG_LoadHudMenu@@YAXXZ     30197030 f   cg_main.obj
 0002:0009dec0       ?CG_AssetCache@@YAXXZ      30197ec0 f   cg_main.obj
 0002:0009e080       ?CG_Init_CG@@YAXXZ         30198080 f   cg_main.obj
 0002:0009e0e0       ?CG_Init_CGents@@YAXXZ     301980e0 f   cg_main.obj
 0002:0009e140       ?CG_InitItems@@YAXXZ       30198140 f   cg_main.obj
 0002:0009e1a0       ?CG_TransitionPermanent@@YAXXZ 301981a0 f   cg_main.obj
 0002:0009e310       ?CG_StrPool_Alloc@@YAPADH@Z 30198310 f   cg_main.obj
 0002:0009e3b0       ?CG_StrPool_Reset@@YAXXZ   301983b0 f   cg_main.obj
 0002:0009e3f0       ?CG_NewString@@YAPADPBD@Z  301983f0 f   cg_main.obj
 0002:0009e510       ?CG_CreateSkyPortalFromSpawnEnt@@YAXPAUcgSpawnEnt_s@@@Z 30198510 f   cg_main.obj
 0002:0009e560       ?CG_CreateSkyOriFromSpawnEnt@@YAXPAUcgSpawnEnt_s@@@Z 30198560 f   cg_main.obj
 0002:0009e5e0       ?CG_CreateBrushEntData@@YAXPAUcgSpawnEnt_s@@@Z 301985e0 f   cg_main.obj
 0002:0009e650       ?CG_CreateWeatherZoneFromSpawnEnt@@YAXPAUcgSpawnEnt_s@@@Z 30198650 f   cg_main.obj
 0002:0009e6c0       ?CG_CreateModelFromSpawnEnt@@YAXPAUcgSpawnEnt_s@@@Z 301986c0 f   cg_main.obj
 0002:0009ea70       ?CG_AddSpawnVarToken@@YAPADPBD@Z 30198a70 f   cg_main.obj
 0002:0009eb40       ?CG_ParseSpawnVars@@YA?AW4qboolean@@XZ 30198b40 f   cg_main.obj
 0002:0009ed70       ?CG_SpawnCGameEntFromVars@@YAXXZ 30198d70 f   cg_main.obj
 0002:0009efa0       ?CG_SpawnCGameOnlyEnts@@YAXXZ 30198fa0 f   cg_main.obj
 0002:0009f030       ?CG_Init@@YAXHHH@Z         30199030 f   cg_main.obj
 0002:000a32a0       ?CG_GetLocationString@@YAPBDPBD@Z 3019d2a0 f   cg_main.obj
 0002:000a3320       ?CG_DestroyAllGhoul2@@YAXXZ 3019d320 f   cg_main.obj
 0002:000a3460       ?CG_Shutdown@@YAXXZ        3019d460 f   cg_main.obj
 0002:000a3500       ?CG_NextForcePower_f@@YAXXZ 3019d500 f   cg_main.obj
 0002:000a3690       ?CG_PrevForcePower_f@@YAXXZ 3019d690 f   cg_main.obj
 0002:000a3820       ?CG_NextInventory_f@@YAXXZ 3019d820 f   cg_main.obj
 0002:000a3920       ?CG_PrevInventory_f@@YAXXZ 3019d920 f   cg_main.obj
 0002:000a3a20       ?CG_InitMarkPolys@@YAXXZ   3019da20 f   cg_marks.obj
 0002:000a3af0       ?CG_FreeMarkPoly@@YAXPAUmarkPoly_s@@@Z 3019daf0 f   cg_marks.obj
 0002:000a3b90       ?CG_AllocMark@@YAPAUmarkPoly_s@@XZ 3019db90 f   cg_marks.obj
 0002:000a3c80       ?CG_ImpactMark@@YAXHQBM0MMMMMW4qboolean@@M1@Z 3019dc80 f   cg_marks.obj
 0002:000a45e0       ?CG_AddMarks@@YAXXZ        3019e5e0 f   cg_marks.obj
 0002:000a4b70       ?CG_ClearParticles@@YAXXZ  3019eb70 f   cg_marks.obj
 0002:000a4c80       ?CG_AddParticleToScene@@YAXPAUparticle_s@@QAMM@Z 3019ec80 f   cg_marks.obj
 0002:000a83f0       ?CG_AddParticles@@YAXXZ    301a23f0 f   cg_marks.obj
 0002:000a8970       ?CG_ParticleSnowFlurry@@YAXHPAUcentity_s@@@Z 301a2970 f   cg_marks.obj
 0002:000a8d50       ?CG_ParticleSnow@@YAXHQAM0HMH@Z 301a2d50 f   cg_marks.obj
 0002:000a90b0       ?CG_ParticleBubble@@YAXHQAM0HMH@Z 301a30b0 f   cg_marks.obj
 0002:000a9480       ?CG_ParticleSmoke@@YAXHPAUcentity_s@@@Z 301a3480 f   cg_marks.obj
 0002:000a9700       ?CG_ParticleBulletDebris@@YAXQAM0H@Z 301a3700 f   cg_marks.obj
 0002:000a98e0       ?CG_ParticleExplosion@@YAXPADQAM1HHH@Z 301a38e0 f   cg_marks.obj
 0002:000a9b80       ?CG_AddParticleShrapnel@@YAXPAUlocalEntity_s@@@Z 301a3b80 f   cg_marks.obj
 0002:000a9bb0       ?CG_NewParticleArea@@YAHH@Z 301a3bb0 f   cg_marks.obj
 0002:000a9e80       ?CG_SnowLink@@YAXPAUcentity_s@@W4qboolean@@@Z 301a3e80 f   cg_marks.obj
 0002:000a9f30       ?CG_ParticleImpactSmokePuff@@YAXHQAM@Z 301a3f30 f   cg_marks.obj
 0002:000aa1c0       ?CG_Particle_Bleed@@YAXHQAM0HH@Z 301a41c0 f   cg_marks.obj
 0002:000aa400       ?CG_Particle_OilParticle@@YAXHPAUcentity_s@@@Z 301a4400 f   cg_marks.obj
 0002:000aa650       ?CG_Particle_OilSlick@@YAXHPAUcentity_s@@@Z 301a4650 f   cg_marks.obj
 0002:000aa950       ?CG_OilSlickRemove@@YAXPAUcentity_s@@@Z 301a4950 f   cg_marks.obj
 0002:000aaa30       ?ValidBloodPool@@YA?AW4qboolean@@QAM@Z 301a4a30 f   cg_marks.obj
 0002:000aae30       ?CG_BloodPool@@YAXPAUlocalEntity_s@@HPAUtrace_t@@@Z 301a4e30 f   cg_marks.obj
 0002:000ab100       ?CG_ParticleBloodCloud@@YAXPAUcentity_s@@QAM1@Z 301a5100 f   cg_marks.obj
 0002:000ab4c0       ?CG_ParticleSparks@@YAXQAM0HMMM@Z 301a54c0 f   cg_marks.obj
 0002:000ab880       ?CG_ParticleDust@@YAXPAUcentity_s@@QAM1@Z 301a5880 f   cg_marks.obj
 0002:000abe70       ?CG_ParticleMisc@@YAXHQAMHHM@Z 301a5e70 f   cg_marks.obj
 0002:000ac010       ?CG_GetSelectedPlayer@@YAHXZ 301a6010 f   cg_newDraw.obj
 0002:000ac070       ?CG_StatusHandle@@YAHH@Z   301a6070 f   cg_newDraw.obj
 0002:000ac170       ?CG_GetValue@@YAMH@Z       301a6170 f   cg_newDraw.obj
 0002:000ac3b0       ?CG_OtherTeamHasFlag@@YA?AW4qboolean@@XZ 301a63b0 f   cg_newDraw.obj
 0002:000ac450       ?CG_YourTeamHasFlag@@YA?AW4qboolean@@XZ 301a6450 f   cg_newDraw.obj
 0002:000ac4f0       ?CG_OwnerDrawVisible@@YA?AW4qboolean@@H@Z 301a64f0 f   cg_newDraw.obj
 0002:000ac780       ?CG_GetKillerText@@YAPBDXZ 301a6780 f   cg_newDraw.obj
 0002:000ac810       ?CG_GetGameStatusText@@YAPBDXZ 301a6810 f   cg_newDraw.obj
 0002:000aca30       ?CG_GameTypeString@@YAPBDXZ 301a6a30 f   cg_newDraw.obj
 0002:000acb20       ?CG_DrawNewTeamInfo@@YAXPAVRectangle@@MMMQAMH@Z 301a6b20 f   cg_newDraw.obj
 0002:000ad540       ?CG_DrawTeamSpectators@@YAXPAVRectangle@@MQAMH@Z 301a7540 f   cg_newDraw.obj
 0002:000ad910       ?CG_DrawMedal@@YAXHPAVRectangle@@MQAMH@Z 301a7910 f   cg_newDraw.obj
 0002:000adbf0       ?CG_OwnerDraw@@YAXMMMMMMHHHMMQAMHHH@Z 301a7bf0 f   cg_newDraw.obj
 0002:000adc20       ?CG_MouseEvent@@YAXHH@Z    301a7c20 f   cg_newDraw.obj
 0002:000addc0       ?CG_HideTeamMenu@@YAXXZ    301a7dc0 f   cg_newDraw.obj
 0002:000ade20       ?CG_ShowTeamMenu@@YAXXZ    301a7e20 f   cg_newDraw.obj
 0002:000ade70       ?CG_EventHandling@@YAXH@Z  301a7e70 f   cg_newDraw.obj
 0002:000aded0       ?CG_KeyEvent@@YAXHW4qboolean@@@Z 301a7ed0 f   cg_newDraw.obj
 0002:000adff0       ?CG_ClientNumFromName@@YAHPBD@Z 301a7ff0 f   cg_newDraw.obj
 0002:000ae0a0       ?CG_ShowResponseHead@@YAXXZ 301a80a0 f   cg_newDraw.obj
 0002:000ae120       ?CG_RunMenuScript@@YAXPAPAD@Z 301a8120 f   cg_newDraw.obj
 0002:000ae150       ?CG_DeferMenuScript@@YA?AW4qboolean@@PAPAD@Z 301a8150 f   cg_newDraw.obj
 0002:000ae180       ?CG_GetTeamColor@@YAXPAY03M@Z 301a8180 f   cg_newDraw.obj
 0002:000ae260       ?CheckAnimFrameForEventType@@YAHPAUanimevent_s@@HW4animEventType_t@@@Z 301a8260 f   cg_players.obj
 0002:000ae310       ?ParseAnimationEvtBlock@@YAXPBDPAUanimevent_s@@PAUanimation_s@@PAHPAPBD@Z 301a8310 f   cg_players.obj
 0002:000af6d0       ?CG_ParseAnimationEvtFile@@YAHPADHH@Z 301a96d0 f   cg_players.obj
 0002:000aff70       ?strrchr@@YAPADPADH@Z      301a9f70 f i cg_players.obj
 0002:000affd0       ?CG_CustomSound@@YAHHPBD@Z 301a9fd0 f   cg_players.obj
 0002:000b04e0       ?CG_ParseSurfsFile@@YA?AW4qboolean@@PBD0PAD1@Z 301aa4e0 f   cg_players.obj
 0002:000b08d0       ?CG_G2SkelForModel@@YAHPAX@Z 301aa8d0 f   cg_players.obj
 0002:000b09e0       ?CG_LoadCISounds@@YAXPAUclientInfo_t@@W4qboolean@@@Z 301aa9e0 f   cg_players.obj
 0002:000b12a0       ?CG_LoadClientInfo@@YAXPAUclientInfo_t@@@Z 301ab2a0 f   cg_players.obj
 0002:000b2670       ?CG_NewClientInfo@@YAXHW4qboolean@@@Z 301ac670 f   cg_players.obj
 0002:000b5320       ?CG_ActualLoadDeferredPlayers@@YAXXZ 301af320 f   cg_players.obj
 0002:000b53d0       ?CG_LoadDeferredPlayers@@YAXXZ 301af3d0 f   cg_players.obj
 0002:000b5410       ?CG_PlayerAnimEventDo@@YAXPAUcentity_s@@PAUanimevent_s@@@Z 301af410 f   cg_players.obj
 0002:000b6780       ?CG_PlayerAnimEvents@@YAXHHW4qboolean@@HHH@Z 301b0780 f   cg_players.obj
 0002:000b6ef0       ?CG_PlayerAmbientEvents@@YAXPAUcentity_s@@@Z 301b0ef0 f   cg_players.obj
 0002:000b71b0       ?CG_TriggerAnimSounds@@YAXPAUcentity_s@@@Z 301b11b0 f   cg_players.obj
 0002:000b7470       ?CG_InRoll@@YA?AW4qboolean@@PAUcentity_s@@@Z 301b1470 f   cg_players.obj
 0002:000b7580       ?CG_InRollAnim@@YA?AW4qboolean@@PAUcentity_s@@@Z 301b1580 f   cg_players.obj
 0002:000b75f0       ?CG_G2SetBoneAngles@@YAXPAXHPBDQBMHHHHPAHHH@Z 301b15f0 f   cg_players.obj
 0002:000b7670       ?CG_Rag_Trace@@YAXPAUtrace_t@@QBM111HH@Z 301b1670 f   cg_players.obj
 0002:000b7720       ?CG_RagDoll@@YA?AW4qboolean@@PAUcentity_s@@QAM@Z 301b1720 f   cg_players.obj
 0002:000b95a0       ?CG_G2ServerBoneAngles@@YAXPAUcentity_s@@@Z 301b35a0 f   cg_players.obj
 0002:000b9850       ?CG_G2PlayerHeadAnims@@YA?AW4qboolean@@PAUcentity_s@@@Z 301b3850 f   cg_players.obj
 0002:000ba150       ?CG_AddRefEntityWithPowerups@@YAXPAUrefEntity_t@@PAUentityState_s@@H@Z 301b4150 f   cg_players.obj
 0002:000ba1f0       ?CG_PlayerShieldHit@@YAXHQAMH@Z 301b41f0 f   cg_players.obj
 0002:000ba330       ?CG_PlayerHitFX@@YAXPAUcentity_s@@@Z 301b4330 f   cg_players.obj
 0002:000ba3c0       ?CG_LightVerts@@YAHQAMHPAUpolyVert_t@@@Z 301b43c0 f   cg_players.obj
 0002:000ba700       ?RGB_LerpColor@@YAXQAM0M0@Z 301b4700 f   cg_players.obj
 0002:000ba830       ?getint@@YAHPAPAD@Z        301b4830 f   cg_players.obj
 0002:000ba8a0       ?ParseRGBSaber@@YAXPADQAM@Z 301b48a0 f   cg_players.obj
 0002:000ba970       ?CG_ParseScriptedSaber@@YAXPADPAUclientInfo_t@@H@Z 301b4970 f   cg_players.obj
 0002:000baaf0       ?RGB_AdjustSciptedSaberColor@@YAXPAUclientInfo_t@@QAMH@Z 301b4af0 f   cg_players.obj
 0002:000bad80       ?RGB_RandomRGB@@YAXQAM@Z   301b4d80 f   cg_players.obj
 0002:000bae60       ?RGB_AdjustPimpSaberColor@@YAXPAUclientInfo_t@@QAMH@Z 301b4e60 f   cg_players.obj
 0002:000bb0f0       ?CG_DoSaberLight@@YAXPAUsaberInfo_t@@HH@Z 301b50f0 f   cg_players.obj
 0002:000bc000       ?CG_DoSaber@@YAXQAM0MMMHHW4qboolean@@HH@Z 301b6000 f   cg_players.obj
 0002:000bc9a0       ?CG_DoPrequelSaber@@YAXQAM000MMHHW4qboolean@@1HHH@Z 301b69a0 f   cg_players.obj
 0002:000be8d0       ?CG_DoEp1Saber@@YAXQAM000MMHHW4qboolean@@1HH@Z 301b88d0 f   cg_players.obj
 0002:000c0c90       ?CG_DoEp2Saber@@YAXQAM000MMHHW4qboolean@@1HH@Z 301bac90 f   cg_players.obj
 0002:000c33c0       ?CG_DoEp3Saber@@YAXQAM000MMHHW4qboolean@@1HH@Z 301bd3c0 f   cg_players.obj
 0002:000c5a80       ?CG_DoOTSaber@@YAXQAM000MMHHW4qboolean@@1HH@Z 301bfa80 f   cg_players.obj
 0002:000c7d80       ?CG_DoSFXSaber@@YAXQAM000MMHHW4qboolean@@1HH@Z 301c1d80 f   cg_players.obj
 0002:000ca100       ?CG_GetTagWorldPosition@@YAXPAUrefEntity_t@@PADQAMQAY02M@Z 301c4100 f   cg_players.obj
 0002:000ca2f0       ?CG_CreateSaberMarks@@YAXQAM00@Z 301c42f0 f   cg_players.obj
 0002:000cb0c0       ?CG_G2TraceCollide@@YA?AW4qboolean@@PAUtrace_t@@QBM111@Z 301c50c0 f   cg_players.obj
 0002:000cb490       ?CG_G2SaberEffects@@YAXQAM0PAUcentity_s@@@Z 301c5490 f   cg_players.obj
 0002:000cb6f0       ?CG_AddGhoul2Mark@@YAXHMQAM0H0MPAX0H@Z 301c56f0 f   cg_players.obj
 0002:000cb9a0       ?CG_SaberCompWork@@YAXQAM0PAUcentity_s@@HH@Z 301c59a0 f   cg_players.obj
 0002:000cc380       ?CG_AddSaberBlade@@YAXPAUcentity_s@@0PAUrefEntity_t@@HHHHQAM2W4qboolean@@3@Z 301c6380 f   cg_players.obj
 0002:000cf430       ?CG_IsMindTricked@@YAHHHHHH@Z 301c9430 f   cg_players.obj
 0002:000cf500       ?CG_DrawPlayerSphere@@YAXPAUcentity_s@@QAMMH@Z 301c9500 f   cg_players.obj
 0002:000cfb90       ?CG_AddLightningBeam@@YAXQAM0@Z 301c9b90 f   cg_players.obj
 0002:000d01e0       ?CG_AddRandomLightning@@YAXQAM0@Z 301ca1e0 f   cg_players.obj
 0002:000d04d0       ?CG_ThereIsAMaster@@YA?AW4qboolean@@XZ 301ca4d0 f   cg_players.obj
 0002:000d0550       ?CG_HandleAppendedSkin@@YAHPAD@Z 301ca550 f   cg_players.obj
 0002:000d0760       ?CG_CacheG2AnimInfo@@YAXPAD@Z 301ca760 f   cg_players.obj
 0002:000d0a80       ?CG_G2AnimEntModelLoad@@YAXPAUcentity_s@@@Z 301caa80 f   cg_players.obj
 0002:000d18e0       ?CG_VehicleShouldDrawShields@@YA?AW4qboolean@@PAUcentity_s@@@Z 301cb8e0 f   cg_players.obj
 0002:000d1970       ?CG_VehicleAttachDroidUnit@@YA?AW4qboolean@@PAUcentity_s@@PAUrefEntity_t@@@Z 301cb970 f   cg_players.obj
 0002:000d1be0       ?CG_G2Animated@@YAXPAUcentity_s@@@Z 301cbbe0 f   cg_players.obj
 0002:000d2500       ?FindGender@@YAHPBDPAUcentity_s@@@Z 301cc500 f   cg_players.obj
 0002:000d2750       ?CG_CreateNPCClient@@YAXPAPAUclientInfo_t@@@Z 301cc750 f   cg_players.obj
 0002:000d27b0       ?CG_DestroyNPCClient@@YAXPAPAUclientInfo_t@@@Z 301cc7b0 f   cg_players.obj
 0002:000d2810       ?CG_InitJetpackGhoul2@@YAXXZ 301cc810 f   cg_players.obj
 0002:000d2930       ?CG_CleanJetpackGhoul2@@YAXXZ 301cc930 f   cg_players.obj
 0002:000d29a0       ?CG_RadiusForCent@@YAMPAUcentity_s@@@Z 301cc9a0 f   cg_players.obj
 0002:000d2a80       ?CG_CheckThirdPersonAlpha@@YAXPAUcentity_s@@PAUrefEntity_t@@@Z 301cca80 f   cg_players.obj
 0002:000d2f70       ?GetSelfLegAnimPoint@@YAMXZ 301ccf70 f   cg_players.obj
 0002:000d2fe0       ?GetSelfTorsoAnimPoint@@YAMXZ 301ccfe0 f   cg_players.obj
 0002:000d3050       ?SmoothTrueView@@YAXQAM@Z  301cd050 f   cg_players.obj
 0002:000d3e30       ?ApplyAxisRotation@@YAXQAY02MHM@Z 301cde30 f   cg_players.obj
 0002:000d42f0       ?CG_HolsteredWeaponRender@@YAXPAUcentity_s@@PAUclientInfo_t@@H@Z 301ce2f0 f   cg_players.obj
 0002:000d4bb0       ?CG_VisualWeaponsUpdate@@YAXPAUcentity_s@@PAUclientInfo_t@@@Z 301cebb0 f   cg_players.obj
 0002:000d6790       ?CG_Player@@YAXPAUcentity_s@@@Z 301d0790 f   cg_players.obj
 0002:000df810       ?acos@@YAMM@Z              301d9810 f i cg_players.obj
 0002:000df870       _acosf                     301d9870 f i cg_players.obj
 0002:000e5410       ?CG_ResetPlayerEntity@@YAXPAUcentity_s@@@Z 301df410 f   cg_players.obj
 0002:000e5d60       ?CG_DamageFeedback@@YAXHHH@Z 301dfd60 f   cg_playerstate.obj
 0002:000e6220       ?CG_Respawn@@YAXXZ         301e0220 f   cg_playerstate.obj
 0002:000e6280       ?CG_CheckPlayerstateEvents@@YAXPAUplayerState_s@@0@Z 301e0280 f   cg_playerstate.obj
 0002:000e6490       ?CG_CheckChangedPredictableEvents@@YAXPAUplayerState_s@@@Z 301e0490 f   cg_playerstate.obj
 0002:000e6610       ?CG_CheckLocalSounds@@YAXPAUplayerState_s@@0@Z 301e0610 f   cg_playerstate.obj
 0002:000e6a00       ?CG_TransitionPlayerState@@YAXPAUplayerState_s@@0@Z 301e0a00 f   cg_playerstate.obj
 0002:000e6ba0       ?CG_BuildSolidList@@YAXXZ  301e0ba0 f   cg_predict.obj
 0002:000e7070       ?CG_Trace@@YAXPAUtrace_t@@QBM111HH@Z 301e1070 f   cg_predict.obj
 0002:000e7b40       ?CG_G2Trace@@YAXPAUtrace_t@@QBM111HH@Z 301e1b40 f   cg_predict.obj
 0002:000e7c70       ?CG_PointContents@@YAHQBMH@Z 301e1c70 f   cg_predict.obj
 0002:000e7d80       ?CG_PmoveClientPointerUpdate@@YAXXZ 301e1d80 f   cg_predict.obj
 0002:000e7e60       ?CG_UsingEWeb@@YA?AW4qboolean@@XZ 301e1e60 f   cg_predict.obj
 0002:000e7ed0       ?CG_PredictPlayerState@@YAXXZ 301e1ed0 f   cg_predict.obj
 0002:000ea6b0       ?siege_Str@@YAPADXZ        301e46b0 f   cg_saga.obj
 0002:000ea710       ?siege_Cvar_Set@@YAXPAD0@Z 301e4710 f   cg_saga.obj
 0002:000ea930       ?siege_Cvar_VariableStringBuffer@@YAXPAD0H@Z 301e4930 f   cg_saga.obj
 0002:000eaab0       ?siegecvarlist@@YAXXZ      301e4ab0 f   cg_saga.obj
 0002:000eac10       ?CG_PrecacheSiegeObjectiveAssetsForTeam@@YAXH@Z 301e4c10 f   cg_saga.obj
 0002:000eaf60       ?CG_PrecachePlayersForSiegeTeam@@YAXH@Z 301e4f60 f   cg_saga.obj
 0002:000eb170       ?CG_InitSiegeMode@@YAXXZ   301e5170 f   cg_saga.obj
 0002:000ebd20       ?CG_ParseSiegeObjectiveStatus@@YAXPBD@Z 301e5d20 f   cg_saga.obj
 0002:000ec300       ?CG_SiegeRoundOver@@YAXPAUcentity_s@@H@Z 301e6300 f   cg_saga.obj
 0002:000ec630       ?CG_SiegeGetObjectiveDescription@@YAXHHPAD@Z 301e6630 f   cg_saga.obj
 0002:000ec7b0       ?CG_SiegeGetObjectiveFinal@@YAHHH@Z 301e67b0 f   cg_saga.obj
 0002:000ec960       ?CG_SiegeBriefingDisplay@@YAXHH@Z 301e6960 f   cg_saga.obj
 0002:000ed1e0       ?CG_SiegeObjectiveCompleted@@YAXPAUcentity_s@@HH@Z 301e71e0 f   cg_saga.obj
 0002:000ed5a0       ?CG_ParseSiegeExtendedDataEntry@@YAXPBD@Z 301e75a0 f   cg_saga.obj
 0002:000ed980       ?CG_ParseSiegeExtendedData@@YAXXZ 301e7980 f   cg_saga.obj
 0002:000eda40       ?CG_SetSiegeTimerCvar@@YAXH@Z 301e7a40 f   cg_saga.obj
 0002:000edb10       ?CG_TrueViewInit@@YAXXZ    301e7b10 f   cg_saga.obj
 0002:000edc40       ?CG_AdjustEyePos@@YAXPBD@Z 301e7c40 f   cg_saga.obj
 0002:000edd60       ?CG_GetClassCount@@YAHHH@Z 301e7d60 f   cg_scoreboard.obj
 0002:000ede40       ?CG_GetTeamNonScoreCount@@YAHH@Z 301e7e40 f   cg_scoreboard.obj
 0002:000edf00       ?CG_GetTeamCount@@YAHHH@Z  301e7f00 f   cg_scoreboard.obj
 0002:000edfc0       ?CG_DrawOldScoreboard@@YA?AW4qboolean@@XZ 301e7fc0 f   cg_scoreboard.obj
 0002:000effb0       ?CG_ParseServerinfo@@YAXXZ 301e9fb0 f   cg_servercmds.obj
 0002:000f0620       ?CG_SetConfigValues@@YAXXZ 301ea620 f   cg_servercmds.obj
 0002:000f08d0       ?CG_ShaderStateChanged@@YAXXZ 301ea8d0 f   cg_servercmds.obj
 0002:000f0bc0       ?SetCustomSoundForType@@YAXPAUclientInfo_t@@HHH@Z 301eabc0 f   cg_servercmds.obj
 0002:000f0d10       ?CG_PrecacheNPCSounds@@YAXPBD@Z 301ead10 f   cg_servercmds.obj
 0002:000f10c0       ?CG_HandleNPCSounds@@YAXPAUcentity_s@@@Z 301eb0c0 f   cg_servercmds.obj
 0002:000f1910       ?SetDuelistHealthsFromConfigString@@YAXPBD@Z 301eb910 f   cg_servercmds.obj
 0002:000f1b40       ?CG_KillCEntityG2@@YAXH@Z  301ebb40 f   cg_servercmds.obj
 0002:000f1eb0       ?CG_KillCEntityInstances@@YAXXZ 301ebeb0 f   cg_servercmds.obj
 0002:000f20c0       ?CG_CheckSVStringEdRef@@YAXPADPBD@Z 301ec0c0 f   cg_servercmds.obj
 0002:000f24f0       ?CG_ExecuteNewServerCommands@@YAXH@Z 301ec4f0 f   cg_servercmds.obj
 0002:000f5050       ?CG_SetInitialSnapshot@@YAXPAUsnapshot_t@@@Z 301ef050 f   cg_snapshot.obj
 0002:000f5430       ?CG_ProcessSnapshots@@YAXXZ 301ef430 f   cg_snapshot.obj
 0002:000f5d50       ?strap_G2API_GetBoltMatrix@@YA?AW4qboolean@@PAXHHPAUmdxaBone_t@@QBM2HPAHQAM@Z 301efd50 f   cg_strap.obj
 0002:000f5dd0       ?strap_G2API_GetBoltMatrix_NoReconstruct@@YA?AW4qboolean@@PAXHHPAUmdxaBone_t@@QBM2HPAHQAM@Z 301efdd0 f   cg_strap.obj
 0002:000f5e50       ?strap_G2API_GetBoltMatrix_NoRecNoRot@@YA?AW4qboolean@@PAXHHPAUmdxaBone_t@@QBM2HPAHQAM@Z 301efe50 f   cg_strap.obj
 0002:000f5ed0       ?strap_G2API_SetBoneAngles@@YA?AW4qboolean@@PAXHPBDQBMHHHHPAHHH@Z 301efed0 f   cg_strap.obj
 0002:000f5f50       ?strap_G2API_SetBoneAnim@@YA?AW4qboolean@@PAXHPBDHHHMHMH@Z 301eff50 f   cg_strap.obj
 0002:000f5fe0       ?strap_G2API_GetBoneAnim@@YA?AW4qboolean@@PAXPBDHPAMPAH3323H@Z 301effe0 f   cg_strap.obj
 0002:000f6060       ?strap_G2API_SetRagDoll@@YAXPAXPAUsharedRagDollParams_t@@@Z 301f0060 f   cg_strap.obj
 0002:000f60c0       ?strap_G2API_AnimateG2Models@@YAXPAXHPAUsharedRagDollUpdateParams_t@@@Z 301f00c0 f   cg_strap.obj
 0002:000f6120       ?strap_G2API_SetBoneIKState@@YA?AW4qboolean@@PAXHPBDHPAUsharedSetBoneIKStateParams_t@@@Z 301f0120 f   cg_strap.obj
 0002:000f6190       ?strap_G2API_IKMove@@YA?AW4qboolean@@PAXHPAUsharedIKMoveParams_t@@@Z 301f0190 f   cg_strap.obj
 0002:000f61f0       ?strap_TrueMalloc@@YAXPAPAXH@Z 301f01f0 f   cg_strap.obj
 0002:000f6250       ?strap_TrueFree@@YAXPAPAX@Z 301f0250 f   cg_strap.obj
 0002:000f62a0       ?dllEntry@@YAXP6AHHZZ@Z    301f02a0 f   cg_syscalls.obj
 0002:000f62e0       ?PASSFLOAT@@YAHM@Z         301f02e0 f   cg_syscalls.obj
 0002:000f6320       ?trap_Print@@YAXPBD@Z      301f0320 f   cg_syscalls.obj
 0002:000f6380       ?trap_Error@@YAXPBD@Z      301f0380 f   cg_syscalls.obj
 0002:000f63e0       ?trap_Milliseconds@@YAHXZ  301f03e0 f   cg_syscalls.obj
 0002:000f6440       ?trap_PrecisionTimer_Start@@YAXPAPAX@Z 301f0440 f   cg_syscalls.obj
 0002:000f64a0       ?trap_PrecisionTimer_End@@YAHPAX@Z 301f04a0 f   cg_syscalls.obj
 0002:000f6500       ?trap_Cvar_Register@@YAXPAUvmCvar_t@@PBD1H@Z 301f0500 f   cg_syscalls.obj
 0002:000f6570       ?trap_Cvar_Update@@YAXPAUvmCvar_t@@@Z 301f0570 f   cg_syscalls.obj
 0002:000f65d0       ?trap_Cvar_Set@@YAXPBD0@Z  301f05d0 f   cg_syscalls.obj
 0002:000f6640       ?trap_Cvar_VariableStringBuffer@@YAXPBDPADH@Z 301f0640 f   cg_syscalls.obj
 0002:000f66b0       ?trap_Cvar_GetHiddenVarValue@@YAHPBD@Z 301f06b0 f   cg_syscalls.obj
 0002:000f6710       ?trap_Argc@@YAHXZ          301f0710 f   cg_syscalls.obj
 0002:000f6770       ?trap_Argv@@YAXHPADH@Z     301f0770 f   cg_syscalls.obj
 0002:000f67e0       ?trap_Args@@YAXPADH@Z      301f07e0 f   cg_syscalls.obj
 0002:000f6850       ?trap_FS_FOpenFile@@YAHPBDPAHW4fsMode_t@@@Z 301f0850 f   cg_syscalls.obj
 0002:000f68c0       ?trap_FS_Read@@YAXPAXHH@Z  301f08c0 f   cg_syscalls.obj
 0002:000f6930       ?trap_FS_Write@@YAXPBXHH@Z 301f0930 f   cg_syscalls.obj
 0002:000f69a0       ?trap_FS_FCloseFile@@YAXH@Z 301f09a0 f   cg_syscalls.obj
 0002:000f6a00       ?trap_FS_GetFileList@@YAHPBD0PADH@Z 301f0a00 f   cg_syscalls.obj
 0002:000f6a70       ?trap_SendConsoleCommand@@YAXPBD@Z 301f0a70 f   cg_syscalls.obj
 0002:000f6ad0       ?trap_AddCommand@@YAXPBD@Z 301f0ad0 f   cg_syscalls.obj
 0002:000f6b30       ?trap_RemoveCommand@@YAXPBD@Z 301f0b30 f   cg_syscalls.obj
 0002:000f6b90       ?trap_SendClientCommand@@YAXPBD@Z 301f0b90 f   cg_syscalls.obj
 0002:000f6bf0       ?trap_UpdateScreen@@YAXXZ  301f0bf0 f   cg_syscalls.obj
 0002:000f6c50       ?trap_CM_LoadMap@@YAXPBDW4qboolean@@@Z 301f0c50 f   cg_syscalls.obj
 0002:000f6cc0       ?trap_CM_NumInlineModels@@YAHXZ 301f0cc0 f   cg_syscalls.obj
 0002:000f6d20       ?trap_CM_InlineModel@@YAHH@Z 301f0d20 f   cg_syscalls.obj
 0002:000f6d80       ?trap_CM_TempBoxModel@@YAHQBM0@Z 301f0d80 f   cg_syscalls.obj
 0002:000f6df0       ?trap_CM_TempCapsuleModel@@YAHQBM0@Z 301f0df0 f   cg_syscalls.obj
 0002:000f6e60       ?trap_CM_PointContents@@YAHQBMH@Z 301f0e60 f   cg_syscalls.obj
 0002:000f6ed0       ?trap_CM_TransformedPointContents@@YAHQBMH00@Z 301f0ed0 f   cg_syscalls.obj
 0002:000f6f40       ?trap_CM_BoxTrace@@YAXPAUtrace_t@@QBM111HH@Z 301f0f40 f   cg_syscalls.obj
 0002:000f6fc0       ?trap_CM_CapsuleTrace@@YAXPAUtrace_t@@QBM111HH@Z 301f0fc0 f   cg_syscalls.obj
 0002:000f7040       ?trap_CM_TransformedBoxTrace@@YAXPAUtrace_t@@QBM111HH11@Z 301f1040 f   cg_syscalls.obj
 0002:000f70d0       ?trap_CM_TransformedCapsuleTrace@@YAXPAUtrace_t@@QBM111HH11@Z 301f10d0 f   cg_syscalls.obj
 0002:000f7160       ?trap_CM_MarkFragments@@YAHHPAY02$$CBMQBMHQAMHPAUmarkFragment_t@@@Z 301f1160 f   cg_syscalls.obj
 0002:000f71e0       ?trap_S_GetVoiceVolume@@YAHH@Z 301f11e0 f   cg_syscalls.obj
 0002:000f7240       ?trap_S_MuteSound@@YAXHH@Z 301f1240 f   cg_syscalls.obj
 0002:000f72b0       ?trap_S_StartSound@@YAXQAMHHH@Z 301f12b0 f   cg_syscalls.obj
 0002:000f7320       ?trap_S_StartLocalSound@@YAXHH@Z 301f1320 f   cg_syscalls.obj
 0002:000f7390       ?trap_S_ClearLoopingSounds@@YAXXZ 301f1390 f   cg_syscalls.obj
 0002:000f73f0       ?trap_S_AddLoopingSound@@YAXHQBM0H@Z 301f13f0 f   cg_syscalls.obj
 0002:000f7460       ?trap_S_UpdateEntityPosition@@YAXHQBM@Z 301f1460 f   cg_syscalls.obj
 0002:000f74d0       ?trap_S_AddRealLoopingSound@@YAXHQBM0H@Z 301f14d0 f   cg_syscalls.obj
 0002:000f7540       ?trap_S_StopLoopingSound@@YAXH@Z 301f1540 f   cg_syscalls.obj
 0002:000f75a0       ?trap_S_Respatialize@@YAXHQBMQAY02MH@Z 301f15a0 f   cg_syscalls.obj
 0002:000f7610       ?trap_S_ShutUp@@YAXW4qboolean@@@Z 301f1610 f   cg_syscalls.obj
 0002:000f7670       ?trap_S_RegisterSound@@YAHPBD@Z 301f1670 f   cg_syscalls.obj
 0002:000f76d0       ?trap_S_StartBackgroundTrack@@YAXPBD0W4qboolean@@@Z 301f16d0 f   cg_syscalls.obj
 0002:000f7740       ?trap_S_UpdateAmbientSet@@YAXPBDQAM@Z 301f1740 f   cg_syscalls.obj
 0002:000f77b0       ?trap_AS_ParseSets@@YAXXZ  301f17b0 f   cg_syscalls.obj
 0002:000f7810       ?trap_AS_AddPrecacheEntry@@YAXPBD@Z 301f1810 f   cg_syscalls.obj
 0002:000f7870       ?trap_S_AddLocalSet@@YAHPBDQAM1HH@Z 301f1870 f   cg_syscalls.obj
 0002:000f78e0       ?trap_AS_GetBModelSound@@YAHPBDH@Z 301f18e0 f   cg_syscalls.obj
 0002:000f7950       ?trap_R_LoadWorldMap@@YAXPBD@Z 301f1950 f   cg_syscalls.obj
 0002:000f79b0       ?trap_R_RegisterModel@@YAHPBD@Z 301f19b0 f   cg_syscalls.obj
 0002:000f7a10       ?trap_R_RegisterSkin@@YAHPBD@Z 301f1a10 f   cg_syscalls.obj
 0002:000f7a70       ?trap_R_RegisterShader@@YAHPBD@Z 301f1a70 f   cg_syscalls.obj
 0002:000f7ad0       ?trap_R_RegisterShaderNoMip@@YAHPBD@Z 301f1ad0 f   cg_syscalls.obj
 0002:000f7b30       ?trap_R_RegisterFont@@YAHPBD@Z 301f1b30 f   cg_syscalls.obj
 0002:000f7b90       ?trap_R_Font_StrLenPixels@@YAHPBDHM@Z 301f1b90 f   cg_syscalls.obj
 0002:000f7c10       ?trap_R_Font_StrLenChars@@YAHPBD@Z 301f1c10 f   cg_syscalls.obj
 0002:000f7c70       ?trap_R_Font_HeightPixels@@YAHHM@Z 301f1c70 f   cg_syscalls.obj
 0002:000f7ce0       ?trap_R_Font_DrawString@@YAXHHPBDPBMHHM@Z 301f1ce0 f   cg_syscalls.obj
 0002:000f7d70       ?trap_Language_IsAsian@@YA?AW4qboolean@@XZ 301f1d70 f   cg_syscalls.obj
 0002:000f7dd0       ?trap_Language_UsesSpaces@@YA?AW4qboolean@@XZ 301f1dd0 f   cg_syscalls.obj
 0002:000f7e30       ?trap_AnyLanguage_ReadCharFromString@@YAIPBDPAHPAW4qboolean@@@Z 301f1e30 f   cg_syscalls.obj
 0002:000f7ea0       ?trap_R_ClearScene@@YAXXZ  301f1ea0 f   cg_syscalls.obj
 0002:000f7f00       ?trap_R_ClearDecals@@YAXXZ 301f1f00 f   cg_syscalls.obj
 0002:000f7f60       ?trap_R_AddRefEntityToScene@@YAXPBUrefEntity_t@@@Z 301f1f60 f   cg_syscalls.obj
 0002:000f7fc0       ?trap_R_AddPolyToScene@@YAXHHPBUpolyVert_t@@@Z 301f1fc0 f   cg_syscalls.obj
 0002:000f8030       ?trap_R_AddPolysToScene@@YAXHHPBUpolyVert_t@@H@Z 301f2030 f   cg_syscalls.obj
 0002:000f80a0       ?trap_R_AddDecalToScene@@YAXHQBM0MMMMMW4qboolean@@M1@Z 301f20a0 f   cg_syscalls.obj
 0002:000f8190       ?trap_R_LightForPoint@@YAHQAM000@Z 301f2190 f   cg_syscalls.obj
 0002:000f8200       ?trap_R_AddLightToScene@@YAXQBMMMMM@Z 301f2200 f   cg_syscalls.obj
 0002:000f82b0       ?trap_R_AddAdditiveLightToScene@@YAXQBMMMMM@Z 301f22b0 f   cg_syscalls.obj
 0002:000f8360       ?trap_R_RenderScene@@YAXPBUrefdef_t@@@Z 301f2360 f   cg_syscalls.obj
 0002:000f83c0       ?trap_R_SetColor@@YAXPBM@Z 301f23c0 f   cg_syscalls.obj
 0002:000f8420       ?trap_R_DrawStretchPic@@YAXMMMMMMMMH@Z 301f2420 f   cg_syscalls.obj
 0002:000f8520       ?trap_R_ModelBounds@@YAXHQAM0@Z 301f2520 f   cg_syscalls.obj
 0002:000f8590       ?trap_R_LerpTag@@YAHPAUorientation_t@@HHHMPBD@Z 301f2590 f   cg_syscalls.obj
 0002:000f8620       ?trap_R_DrawRotatePic@@YAXMMMMMMMMMH@Z 301f2620 f   cg_syscalls.obj
 0002:000f8740       ?trap_R_DrawRotatePic2@@YAXMMMMMMMMMH@Z 301f2740 f   cg_syscalls.obj
 0002:000f8860       ?trap_R_SetRangeFog@@YAXM@Z 301f2860 f   cg_syscalls.obj
 0002:000f88d0       ?trap_R_SetRefractProp@@YAXMMW4qboolean@@0@Z 301f28d0 f   cg_syscalls.obj
 0002:000f8960       ?trap_R_RemapShader@@YAXPBD00@Z 301f2960 f   cg_syscalls.obj
 0002:000f89d0       ?trap_R_GetLightStyle@@YAXHQAE@Z 301f29d0 f   cg_syscalls.obj
 0002:000f8a40       ?trap_R_SetLightStyle@@YAXHH@Z 301f2a40 f   cg_syscalls.obj
 0002:000f8ab0       ?trap_R_GetBModelVerts@@YAXHPAY02MQAM@Z 301f2ab0 f   cg_syscalls.obj
 0002:000f8b20       ?trap_R_GetDistanceCull@@YAXPAM@Z 301f2b20 f   cg_syscalls.obj
 0002:000f8b80       ?trap_R_GetRealRes@@YAXPAH0@Z 301f2b80 f   cg_syscalls.obj
 0002:000f8bf0       ?trap_R_AutomapElevAdj@@YAXM@Z 301f2bf0 f   cg_syscalls.obj
 0002:000f8c60       ?trap_R_InitWireframeAutomap@@YA?AW4qboolean@@XZ 301f2c60 f   cg_syscalls.obj
 0002:000f8cc0       ?trap_FX_AddLine@@YAXQBM0MMMMMM00MHHH@Z 301f2cc0 f   cg_syscalls.obj
 0002:000f8dd0       ?trap_GetGlconfig@@YAXPAUglconfig_t@@@Z 301f2dd0 f   cg_syscalls.obj
 0002:000f8e30       ?trap_GetGameState@@YAXPAUgameState_t@@@Z 301f2e30 f   cg_syscalls.obj
 0002:000f8e90       ?trap_GetCurrentSnapshotNumber@@YAXPAH0@Z 301f2e90 f   cg_syscalls.obj
 0002:000f8f00       ?trap_GetSnapshot@@YA?AW4qboolean@@HPAUsnapshot_t@@@Z 301f2f00 f   cg_syscalls.obj
 0002:000f8f70       ?trap_GetDefaultState@@YA?AW4qboolean@@HPAUentityState_s@@@Z 301f2f70 f   cg_syscalls.obj
 0002:000f8fe0       ?trap_GetServerCommand@@YA?AW4qboolean@@H@Z 301f2fe0 f   cg_syscalls.obj
 0002:000f9040       ?trap_GetCurrentCmdNumber@@YAHXZ 301f3040 f   cg_syscalls.obj
 0002:000f90a0       ?trap_GetUserCmd@@YA?AW4qboolean@@HPAUusercmd_s@@@Z 301f30a0 f   cg_syscalls.obj
 0002:000f9110       ?trap_SetUserCmdValue@@YAXHMMMMHHW4qboolean@@@Z 301f3110 f   cg_syscalls.obj
 0002:000f91d0       ?trap_SetClientForceAngle@@YAXHQAM@Z 301f31d0 f   cg_syscalls.obj
 0002:000f9240       ?trap_SetClientTurnExtent@@YAXMMH@Z 301f3240 f   cg_syscalls.obj
 0002:000f92d0       ?trap_OpenUIMenu@@YAXH@Z   301f32d0 f   cg_syscalls.obj
 0002:000f9330       ?testPrintInt@@YAXPADH@Z   301f3330 f   cg_syscalls.obj
 0002:000f93a0       ?testPrintFloat@@YAXPADM@Z 301f33a0 f   cg_syscalls.obj
 0002:000f9420       ?trap_MemoryRemaining@@YAHXZ 301f3420 f   cg_syscalls.obj
 0002:000f9480       ?trap_Key_IsDown@@YA?AW4qboolean@@H@Z 301f3480 f   cg_syscalls.obj
 0002:000f94e0       ?trap_Key_GetCatcher@@YAHXZ 301f34e0 f   cg_syscalls.obj
 0002:000f9540       ?trap_Key_SetCatcher@@YAXH@Z 301f3540 f   cg_syscalls.obj
 0002:000f95a0       ?trap_Key_GetKey@@YAHPBD@Z 301f35a0 f   cg_syscalls.obj
 0002:000f9600       ?trap_PC_AddGlobalDefine@@YAHPAD@Z 301f3600 f   cg_syscalls.obj
 0002:000f9660       ?trap_PC_LoadSource@@YAHPBD@Z 301f3660 f   cg_syscalls.obj
 0002:000f96c0       ?trap_PC_FreeSource@@YAHH@Z 301f36c0 f   cg_syscalls.obj
 0002:000f9720       ?trap_PC_ReadToken@@YAHHPAUpc_token_s@@@Z 301f3720 f   cg_syscalls.obj
 0002:000f9790       ?trap_PC_SourceFileAndLine@@YAHHPADPAH@Z 301f3790 f   cg_syscalls.obj
 0002:000f9800       ?trap_PC_LoadGlobalDefines@@YAHPBD@Z 301f3800 f   cg_syscalls.obj
 0002:000f9860       ?trap_PC_RemoveAllGlobalDefines@@YAXXZ 301f3860 f   cg_syscalls.obj
 0002:000f98c0       ?trap_S_StopBackgroundTrack@@YAXXZ 301f38c0 f   cg_syscalls.obj
 0002:000f9920       ?trap_RealTime@@YAHPAUqtime_s@@@Z 301f3920 f   cg_syscalls.obj
 0002:000f9980       ?trap_SnapVector@@YAXPAM@Z 301f3980 f   cg_syscalls.obj
 0002:000f99e0       ?trap_CIN_PlayCinematic@@YAHPBDHHHHH@Z 301f39e0 f   cg_syscalls.obj
 0002:000f9a60       ?trap_CIN_StopCinematic@@YAHH@Z 301f3a60 f   cg_syscalls.obj
 0002:000f9ac0       ?trap_CIN_RunCinematic@@YAHH@Z 301f3ac0 f   cg_syscalls.obj
 0002:000f9b20       ?trap_CIN_DrawCinematic@@YAXH@Z 301f3b20 f   cg_syscalls.obj
 0002:000f9b80       ?trap_CIN_SetExtents@@YAXHHHHH@Z 301f3b80 f   cg_syscalls.obj
 0002:000f9c00       ?trap_GetEntityToken@@YA?AW4qboolean@@PADH@Z 301f3c00 f   cg_syscalls.obj
 0002:000f9c70       ?trap_R_inPVS@@YA?AW4qboolean@@QBM0PAE@Z 301f3c70 f   cg_syscalls.obj
 0002:000f9ce0       ?trap_FX_RegisterEffect@@YAHPBD@Z 301f3ce0 f   cg_syscalls.obj
 0002:000f9d40       ?trap_FX_PlayEffect@@YAXPBDQAM1HH@Z 301f3d40 f   cg_syscalls.obj
 0002:000f9dc0       ?trap_FX_PlayEntityEffect@@YAXPBDQAMQAY02MHHHH@Z 301f3dc0 f   cg_syscalls.obj
 0002:000f9e40       ?trap_FX_PlayEffectID@@YAXHQAM0HH@Z 301f3e40 f   cg_syscalls.obj
 0002:000f9ec0       ?trap_FX_PlayPortalEffectID@@YAXHQAM0HH@Z 301f3ec0 f   cg_syscalls.obj
 0002:000f9f30       ?trap_FX_PlayEntityEffectID@@YAXHQAMQAY02MHHHH@Z 301f3f30 f   cg_syscalls.obj
 0002:000f9fb0       ?trap_FX_PlayBoltedEffectID@@YAXHQAMPAXHHHHW4qboolean@@@Z 301f3fb0 f   cg_syscalls.obj
 0002:000fa040       ?trap_FX_AddScheduledEffects@@YAXW4qboolean@@@Z 301f4040 f   cg_syscalls.obj
 0002:000fa0a0       ?trap_FX_Draw2DEffects@@YAXMM@Z 301f40a0 f   cg_syscalls.obj
 0002:000fa130       ?trap_FX_InitSystem@@YAHPAUrefdef_t@@@Z 301f4130 f   cg_syscalls.obj
 0002:000fa190       ?trap_FX_SetRefDef@@YAXPAUrefdef_t@@@Z 301f4190 f   cg_syscalls.obj
 0002:000fa1f0       ?trap_FX_FreeSystem@@YA?AW4qboolean@@XZ 301f41f0 f   cg_syscalls.obj
 0002:000fa250       ?trap_FX_Reset@@YAXXZ      301f4250 f   cg_syscalls.obj
 0002:000fa2b0       ?trap_FX_AdjustTime@@YAXH@Z 301f42b0 f   cg_syscalls.obj
 0002:000fa310       ?trap_FX_AddPoly@@YAXPAUaddpolyArgStruct_s@@@Z 301f4310 f   cg_syscalls.obj
 0002:000fa370       ?trap_FX_AddBezier@@YAXPAUaddbezierArgStruct_s@@@Z 301f4370 f   cg_syscalls.obj
 0002:000fa3d0       ?trap_FX_AddPrimitive@@YAXPAUeffectTrailArgStruct_s@@@Z 301f43d0 f   cg_syscalls.obj
 0002:000fa430       ?trap_FX_AddSprite@@YAXPAUaddspriteArgStruct_s@@@Z 301f4430 f   cg_syscalls.obj
 0002:000fa490       ?trap_FX_AddElectricity@@YAXPAUaddElectricityArgStruct_t@@@Z 301f4490 f   cg_syscalls.obj
 0002:000fa4f0       ?trap_SP_GetStringTextString@@YAHPBDPADH@Z 301f44f0 f   cg_syscalls.obj
 0002:000fa560       ?trap_ROFF_Clean@@YA?AW4qboolean@@XZ 301f4560 f   cg_syscalls.obj
 0002:000fa5c0       ?trap_ROFF_UpdateEntities@@YAXXZ 301f45c0 f   cg_syscalls.obj
 0002:000fa620       ?trap_ROFF_Cache@@YAHPAD@Z 301f4620 f   cg_syscalls.obj
 0002:000fa680       ?trap_ROFF_Play@@YA?AW4qboolean@@HHW41@@Z 301f4680 f   cg_syscalls.obj
 0002:000fa6f0       ?trap_ROFF_Purge_Ent@@YA?AW4qboolean@@H@Z 301f46f0 f   cg_syscalls.obj
 0002:000fa750       ?trap_TrueMalloc@@YAXPAPAXH@Z 301f4750 f   cg_syscalls.obj
 0002:000fa7c0       ?trap_TrueFree@@YAXPAPAX@Z 301f47c0 f   cg_syscalls.obj
 0002:000fa820       ?trap_G2_ListModelSurfaces@@YAXPAX@Z 301f4820 f   cg_syscalls.obj
 0002:000fa880       ?trap_G2_ListModelBones@@YAXPAXH@Z 301f4880 f   cg_syscalls.obj
 0002:000fa8f0       ?trap_G2_SetGhoul2ModelIndexes@@YAXPAXPAH1@Z 301f48f0 f   cg_syscalls.obj
 0002:000fa960       ?trap_G2_HaveWeGhoul2Models@@YA?AW4qboolean@@PAX@Z 301f4960 f   cg_syscalls.obj
 0002:000fa9c0       ?trap_G2API_GetBoltMatrix@@YA?AW4qboolean@@PAXHHPAUmdxaBone_t@@QBM2HPAHQAM@Z 301f49c0 f   cg_syscalls.obj
 0002:000faa50       ?trap_G2API_GetBoltMatrix_NoReconstruct@@YA?AW4qboolean@@PAXHHPAUmdxaBone_t@@QBM2HPAHQAM@Z 301f4a50 f   cg_syscalls.obj
 0002:000faae0       ?trap_G2API_GetBoltMatrix_NoRecNoRot@@YA?AW4qboolean@@PAXHHPAUmdxaBone_t@@QBM2HPAHQAM@Z 301f4ae0 f   cg_syscalls.obj
 0002:000fab70       ?trap_G2API_InitGhoul2Model@@YAHPAPAXPBDHHHHH@Z 301f4b70 f   cg_syscalls.obj
 0002:000fabf0       ?trap_G2API_SetSkin@@YA?AW4qboolean@@PAXHHH@Z 301f4bf0 f   cg_syscalls.obj
 0002:000fac60       ?trap_G2API_CollisionDetect@@YAXPAUCollisionRecord_t@@PAXQBM2HH222HHM@Z 301f4c60 f   cg_syscalls.obj
 0002:000fad10       ?trap_G2API_CollisionDetectCache@@YAXPAUCollisionRecord_t@@PAXQBM2HH222HHM@Z 301f4d10 f   cg_syscalls.obj
 0002:000fadc0       ?trap_G2API_CleanGhoul2Models@@YAXPAPAX@Z 301f4dc0 f   cg_syscalls.obj
 0002:000fae20       ?trap_G2API_SetBoneAngles@@YA?AW4qboolean@@PAXHPBDQBMHHHHPAHHH@Z 301f4e20 f   cg_syscalls.obj
 0002:000faec0       ?trap_G2API_SetBoneAnim@@YA?AW4qboolean@@PAXHPBDHHHMHMH@Z 301f4ec0 f   cg_syscalls.obj
 0002:000faf70       ?trap_G2API_GetBoneAnim@@YA?AW4qboolean@@PAXPBDHPAMPAH3323H@Z 301f4f70 f   cg_syscalls.obj
 0002:000fb000       ?trap_G2API_GetBoneFrame@@YA?AW4qboolean@@PAXPBDHPAMPAHH@Z 301f5000 f   cg_syscalls.obj
 0002:000fb080       ?trap_G2API_GetGLAName@@YAXPAXHPAD@Z 301f5080 f   cg_syscalls.obj
 0002:000fb0f0       ?trap_G2API_CopyGhoul2Instance@@YAHPAX0H@Z 301f50f0 f   cg_syscalls.obj
 0002:000fb160       ?trap_G2API_CopySpecificGhoul2Model@@YAXPAXH0H@Z 301f5160 f   cg_syscalls.obj
 0002:000fb1d0       ?trap_G2API_DuplicateGhoul2Instance@@YAXPAXPAPAX@Z 301f51d0 f   cg_syscalls.obj
 0002:000fb240       ?trap_G2API_HasGhoul2ModelOnIndex@@YA?AW4qboolean@@PAXH@Z 301f5240 f   cg_syscalls.obj
 0002:000fb2b0       ?trap_G2API_RemoveGhoul2Model@@YA?AW4qboolean@@PAXH@Z 301f52b0 f   cg_syscalls.obj
 0002:000fb320       ?trap_G2API_SkinlessModel@@YA?AW4qboolean@@PAXH@Z 301f5320 f   cg_syscalls.obj
 0002:000fb390       ?trap_G2API_GetNumGoreMarks@@YAHPAXH@Z 301f5390 f   cg_syscalls.obj
 0002:000fb400       ?trap_G2API_AddSkinGore@@YAXPAXPAUSSkinGoreData_s@@@Z 301f5400 f   cg_syscalls.obj
 0002:000fb470       ?trap_G2API_ClearSkinGore@@YAXPAX@Z 301f5470 f   cg_syscalls.obj
 0002:000fb4d0       ?trap_G2API_Ghoul2Size@@YAHPAX@Z 301f54d0 f   cg_syscalls.obj
 0002:000fb530       ?trap_G2API_AddBolt@@YAHPAXHPBD@Z 301f5530 f   cg_syscalls.obj
 0002:000fb5a0       ?trap_G2API_AttachEnt@@YA?AW4qboolean@@PAHPAXHHH@Z 301f55a0 f   cg_syscalls.obj
 0002:000fb620       ?trap_G2API_SetBoltInfo@@YAXPAXHH@Z 301f5620 f   cg_syscalls.obj
 0002:000fb690       ?trap_G2API_SetRootSurface@@YA?AW4qboolean@@PAXHPBD@Z 301f5690 f   cg_syscalls.obj
 0002:000fb700       ?trap_G2API_SetSurfaceOnOff@@YA?AW4qboolean@@PAXPBDH@Z 301f5700 f   cg_syscalls.obj
 0002:000fb770       ?trap_G2API_SetNewOrigin@@YA?AW4qboolean@@PAXH@Z 301f5770 f   cg_syscalls.obj
 0002:000fb7e0       ?trap_G2API_DoesBoneExist@@YA?AW4qboolean@@PAXHPBD@Z 301f57e0 f   cg_syscalls.obj
 0002:000fb850       ?trap_G2API_GetSurfaceRenderStatus@@YAHPAXHPBD@Z 301f5850 f   cg_syscalls.obj
 0002:000fb8c0       ?trap_G2API_GetTime@@YAHXZ 301f58c0 f   cg_syscalls.obj
 0002:000fb920       ?trap_G2API_SetTime@@YAXHH@Z 301f5920 f   cg_syscalls.obj
 0002:000fb990       ?trap_G2API_AbsurdSmoothing@@YAXPAXW4qboolean@@@Z 301f5990 f   cg_syscalls.obj
 0002:000fba00       ?trap_G2API_SetRagDoll@@YAXPAXPAUsharedRagDollParams_t@@@Z 301f5a00 f   cg_syscalls.obj
 0002:000fba70       ?trap_G2API_AnimateG2Models@@YAXPAXHPAUsharedRagDollUpdateParams_t@@@Z 301f5a70 f   cg_syscalls.obj
 0002:000fbae0       ?trap_G2API_RagPCJConstraint@@YA?AW4qboolean@@PAXPBDQAM2@Z 301f5ae0 f   cg_syscalls.obj
 0002:000fbb50       ?trap_G2API_RagPCJGradientSpeed@@YA?AW4qboolean@@PAXPBDM@Z 301f5b50 f   cg_syscalls.obj
 0002:000fbbd0       ?trap_G2API_RagEffectorGoal@@YA?AW4qboolean@@PAXPBDQAM@Z 301f5bd0 f   cg_syscalls.obj
 0002:000fbc40       ?trap_G2API_GetRagBonePos@@YA?AW4qboolean@@PAXPBDQAM222@Z 301f5c40 f   cg_syscalls.obj
 0002:000fbcc0       ?trap_G2API_RagEffectorKick@@YA?AW4qboolean@@PAXPBDQAM@Z 301f5cc0 f   cg_syscalls.obj
 0002:000fbd30       ?trap_G2API_RagForceSolve@@YA?AW4qboolean@@PAXW41@@Z 301f5d30 f   cg_syscalls.obj
 0002:000fbda0       ?trap_G2API_SetBoneIKState@@YA?AW4qboolean@@PAXHPBDHPAUsharedSetBoneIKStateParams_t@@@Z 301f5da0 f   cg_syscalls.obj
 0002:000fbe20       ?trap_G2API_IKMove@@YA?AW4qboolean@@PAXHPAUsharedIKMoveParams_t@@@Z 301f5e20 f   cg_syscalls.obj
 0002:000fbe90       ?trap_G2API_RemoveBone@@YA?AW4qboolean@@PAXPBDH@Z 301f5e90 f   cg_syscalls.obj
 0002:000fbf00       ?trap_G2API_AttachInstanceToEntNum@@YAXPAXHW4qboolean@@@Z 301f5f00 f   cg_syscalls.obj
 0002:000fbf70       ?trap_G2API_ClearAttachedInstance@@YAXH@Z 301f5f70 f   cg_syscalls.obj
 0002:000fbfd0       ?trap_G2API_CleanEntAttachments@@YAXXZ 301f5fd0 f   cg_syscalls.obj
 0002:000fc030       ?trap_G2API_OverrideServer@@YA?AW4qboolean@@PAX@Z 301f6030 f   cg_syscalls.obj
 0002:000fc090       ?trap_G2API_GetSurfaceName@@YAXPAXHHPAD@Z 301f6090 f   cg_syscalls.obj
 0002:000fc100       ?trap_CG_RegisterSharedMemory@@YAXPAD@Z 301f6100 f   cg_syscalls.obj
 0002:000fc160       ?trap_CM_RegisterTerrain@@YAHPBD@Z 301f6160 f   cg_syscalls.obj
 0002:000fc1c0       ?trap_RMG_Init@@YAXHPBD@Z  301f61c0 f   cg_syscalls.obj
 0002:000fc230       ?trap_RE_InitRendererTerrain@@YAXPBD@Z 301f6230 f   cg_syscalls.obj
 0002:000fc290       ?trap_R_WeatherContentsOverride@@YAXH@Z 301f6290 f   cg_syscalls.obj
 0002:000fc2f0       ?trap_R_WorldEffectCommand@@YAXPBD@Z 301f62f0 f   cg_syscalls.obj
 0002:000fc350       ?trap_WE_AddWeatherZone@@YAXQBM0@Z 301f6350 f   cg_syscalls.obj
 0002:000fc3c0       ?CreepToPosition@@YAXQAM0@Z 301f63c0 f   cg_turret.obj
 0002:000fc770       ?TurretClientRun@@YAXPAUcentity_s@@@Z 301f6770 f   cg_turret.obj
 0002:000fd080       ?CG_TestModel_f@@YAXXZ     301f7080 f   cg_view.obj
 0002:000fd280       ?CG_TestGun_f@@YAXXZ       301f7280 f   cg_view.obj
 0002:000fd2e0       ?CG_TestModelNextFrame_f@@YAXXZ 301f72e0 f   cg_view.obj
 0002:000fd350       ?CG_TestModelPrevFrame_f@@YAXXZ 301f7350 f   cg_view.obj
 0002:000fd3d0       ?CG_TestModelNextSkin_f@@YAXXZ 301f73d0 f   cg_view.obj
 0002:000fd440       ?CG_TestModelPrevSkin_f@@YAXXZ 301f7440 f   cg_view.obj
 0002:000fd4c0       ?CG_CalcVrect@@YAXXZ       301f74c0 f   cg_view.obj
 0002:000fd610       ?CG_GetVehicleCamPos@@YAXQAM@Z 301f7610 f   cg_view.obj
 0002:000fd670       ?CG_ZoomDown_f@@YAXXZ      301f7670 f   cg_view.obj
 0002:000fd6d0       ?CG_ZoomUp_f@@YAXXZ        301f76d0 f   cg_view.obj
 0002:000fd730       ?CG_CalcFOVFromX@@YA?AW4qboolean@@M@Z 301f7730 f   cg_view.obj
 0002:000fd820       ?tan@@YAMM@Z               301f7820 f i cg_view.obj
 0002:000fd880       _tanf                      301f7880 f i cg_view.obj
 0002:000fd8f0       ?CG_CheckPassengerTurretView@@YA?AW4qboolean@@XZ 301f78f0 f   cg_view.obj
 0002:000fda90       ?CG_DrawSkyBoxPortal@@YAXPBD@Z 301f7a90 f   cg_view.obj
 0002:000fe4b0       ?CG_AddBufferedSound@@YAXH@Z 301f84b0 f   cg_view.obj
 0002:000fe540       ?CG_UpdateSoundTrackers@@YAXXZ 301f8540 f   cg_view.obj
 0002:000fe6c0       ?CG_SE_UpdateMusic@@YAXXZ  301f86c0 f   cg_view.obj
 0002:000fe8f0       ?CG_CalcScreenEffects@@YAXXZ 301f88f0 f   cg_view.obj
 0002:000fe940       ?CG_DoCameraShake@@YAXQAMMHH@Z 301f8940 f   cg_view.obj
 0002:000fea60       ?CGCam_SetMusicMult@@YAXMH@Z 301f8a60 f   cg_view.obj
 0002:000feaf0       ?CG_EmplacedView@@YAXQAM@Z 301f8af0 f   cg_view.obj
 0002:000fec50       ?CG_AddRadarAutomapEnts@@YAXXZ 301f8c50 f   cg_view.obj
 0002:000fef50       ?CG_DrawAutoMap@@YAXXZ     301f8f50 f   cg_view.obj
 0002:000ff860       ?CG_DrawActiveFrame@@YAXHHW4qboolean@@@Z 301f9860 f   cg_view.obj
 0002:00102870       _powf                      301fc870 f i cg_view.obj
 0002:00104170       ?CheckCameraLocation@@YAXQAM@Z 301fe170 f   cg_view.obj
 0002:00104280       ?CG_RegisterWeapon@@YAXH@Z 301fe280 f   cg_weaponinit.obj
 0002:00105eb0       ?CG_SetGhoul2InfoRef@@YAXPAUrefEntity_t@@0@Z 301ffeb0 f   cg_weapons.obj
 0002:00105f90       ?CG_RegisterItemVisuals@@YAXH@Z 301fff90 f   cg_weapons.obj
 0002:00106260       ?CG_AddPlayerWeapon@@YAXPAUrefEntity_t@@PAUplayerState_s@@PAUcentity_s@@HQAMW4qboolean@@4@Z 30200260 f   cg_weapons.obj
 0002:00107570       ?CG_AddViewWeapon@@YAXPAUplayerState_s@@@Z 30201570 f   cg_weapons.obj
 0002:00108490       ?CG_DrawIconBackground@@YAXXZ 30202490 f   cg_weapons.obj
 0002:00108740       ?CG_WeaponCheck@@YA?AW4qboolean@@H@Z 30202740 f   cg_weapons.obj
 0002:00108810       ?CG_DrawWeaponSelect@@YAXXZ 30202810 f   cg_weapons.obj
 0002:001093c0       ?CG_NextWeapon_f@@YAXXZ    302033c0 f   cg_weapons.obj
 0002:00109550       ?CG_PrevWeapon_f@@YAXXZ    30203550 f   cg_weapons.obj
 0002:001096e0       ?CG_Weapon_f@@YAXXZ        302036e0 f   cg_weapons.obj
 0002:001099f0       ?CG_WeaponClean_f@@YAXXZ   302039f0 f   cg_weapons.obj
 0002:00109c50       ?CG_GetClientWeaponMuzzleBoltPoint@@YAXHQAMW4qboolean@@@Z 30203c50 f   cg_weapons.obj
 0002:00109de0       ?CG_FireWeapon@@YAXPAUcentity_s@@W4qboolean@@@Z 30203de0 f   cg_weapons.obj
 0002:0010a2b0       ?CG_VehicleWeaponImpact@@YA?AW4qboolean@@PAUcentity_s@@@Z 302042b0 f   cg_weapons.obj
 0002:0010a3e0       ?CG_MissileHitWall@@YAXHHQAM0W4impactSound_t@@W4qboolean@@H@Z 302043e0 f   cg_weapons.obj
 0002:0010a790       ?CG_MissileHitPlayer@@YAXHQAM0HW4qboolean@@@Z 30204790 f   cg_weapons.obj
 0002:0010ab30       ?CG_CalcMuzzlePoint@@YA?AW4qboolean@@HQAM@Z 30204b30 f   cg_weapons.obj
 0002:0010b120       ?CG_InitG2Weapons@@YAXXZ   30205120 f   cg_weapons.obj
 0002:0010b3f0       ?CG_ShutDownG2Weapons@@YAXXZ 302053f0 f   cg_weapons.obj
 0002:0010b4a0       ?CG_G2WeaponInstance@@YAPAXPAUcentity_s@@H@Z 302054a0 f   cg_weapons.obj
 0002:0010b5c0       ?CG_G2WeaponInstance2@@YAPAXPAUcentity_s@@H@Z 302055c0 f   cg_weapons.obj
 0002:0010b6c0       ?CG_G2HolsterWeaponInstance@@YAPAXPAUcentity_s@@HW4qboolean@@@Z 302056c0 f   cg_weapons.obj
 0002:0010b800       ?CG_CopyG2WeaponInstance@@YAXPAUcentity_s@@HPAX@Z 30205800 f   cg_weapons.obj
 0002:0010bb30       ?CG_CheckPlayerG2Weapons@@YAXPAUplayerState_s@@PAUcentity_s@@@Z 30205b30 f   cg_weapons.obj
 0002:0010c110       ?BG_FighterUpdate@@YA?AW4qboolean@@PAUVehicle_s@@PBUusercmd_s@@QAM2MP6AXPAUtrace_t@@QBM444HH@Z@Z 30206110 f   FighterNPC.obj
 0002:0010c2f0       ?FighterOverValidLandingSurface@@YA?AW4qboolean@@PAUVehicle_s@@@Z 302062f0 f   FighterNPC.obj
 0002:0010c360       ?FighterIsLanded@@YA?AW4qboolean@@PAUVehicle_s@@PAUplayerState_s@@@Z 30206360 f   FighterNPC.obj
 0002:0010c3e0       ?FighterIsLanding@@YA?AW4qboolean@@PAUVehicle_s@@PAUplayerState_s@@@Z 302063e0 f   FighterNPC.obj
 0002:0010c480       ?FighterIsLaunching@@YA?AW4qboolean@@PAUVehicle_s@@PAUplayerState_s@@@Z 30206480 f   FighterNPC.obj
 0002:0010c510       ?FighterSuspended@@YA?AW4qboolean@@PAUVehicle_s@@PAUplayerState_s@@@Z 30206510 f   FighterNPC.obj
 0002:0010c540       ?FighterYawAdjust@@YAXPAUVehicle_s@@PAUplayerState_s@@1@Z 30206540 f   FighterNPC.obj
 0002:0010c6c0       ?FighterPitchAdjust@@YAXPAUVehicle_s@@PAUplayerState_s@@1@Z 302066c0 f   FighterNPC.obj
 0002:0010c840       ?FighterPitchClamp@@YAXPAUVehicle_s@@PAUplayerState_s@@1H@Z 30206840 f   FighterNPC.obj
 0002:0010c980       ?G_SetFighterVehicleFunctions@@YAXPAUvehicleInfo_t@@@Z 30206980 f   FighterNPC.obj
 0002:0010f5f0       ?G_CreateFighterNPC@@YAXPAPAUVehicle_s@@PBD@Z 302095f0 f   FighterNPC.obj
 0002:0010f6a0       ?FX_BlasterProjectileThink@@YAXPAUcentity_s@@PBUweaponInfo_s@@@Z 302096a0 f   fx_blaster.obj
 0002:0010f790       ?FX_BlasterAltFireThink@@YAXPAUcentity_s@@PBUweaponInfo_s@@@Z 30209790 f   fx_blaster.obj
 0002:0010f880       ?FX_BlasterWeaponHitWall@@YAXQAM0@Z 30209880 f   fx_blaster.obj
 0002:0010f8e0       ?FX_BlasterWeaponHitPlayer@@YAXQAM0W4qboolean@@@Z 302098e0 f   fx_blaster.obj
 0002:0010f970       ?FX_BowcasterProjectileThink@@YAXPAUcentity_s@@PBUweaponInfo_s@@@Z 30209970 f   fx_bowcaster.obj
 0002:0010fa60       ?FX_BowcasterHitWall@@YAXQAM0@Z 30209a60 f   fx_bowcaster.obj
 0002:0010fac0       ?FX_BowcasterHitPlayer@@YAXQAM0W4qboolean@@@Z 30209ac0 f   fx_bowcaster.obj
 0002:0010fb20       ?FX_BowcasterAltProjectileThink@@YAXPAUcentity_s@@PBUweaponInfo_s@@@Z 30209b20 f   fx_bowcaster.obj
 0002:0010fc10       ?FX_BryarProjectileThink@@YAXPAUcentity_s@@PBUweaponInfo_s@@@Z 30209c10 f   fx_bryarpistol.obj
 0002:0010fd00       ?FX_BryarHitWall@@YAXQAM0@Z 30209d00 f   fx_bryarpistol.obj
 0002:0010fd60       ?FX_BryarHitPlayer@@YAXQAM0W4qboolean@@@Z 30209d60 f   fx_bryarpistol.obj
 0002:0010fdf0       ?FX_BryarAltProjectileThink@@YAXPAUcentity_s@@PBUweaponInfo_s@@@Z 30209df0 f   fx_bryarpistol.obj
 0002:0010ff30       ?FX_BryarAltHitWall@@YAXQAM0H@Z 30209f30 f   fx_bryarpistol.obj
 0002:00110030       ?FX_BryarAltHitPlayer@@YAXQAM0W4qboolean@@@Z 3020a030 f   fx_bryarpistol.obj
 0002:001100c0       ?FX_TurretProjectileThink@@YAXPAUcentity_s@@PBUweaponInfo_s@@@Z 3020a0c0 f   fx_bryarpistol.obj
 0002:001101b0       ?FX_TurretHitWall@@YAXQAM0@Z 3020a1b0 f   fx_bryarpistol.obj
 0002:00110210       ?FX_TurretHitPlayer@@YAXQAM0W4qboolean@@@Z 3020a210 f   fx_bryarpistol.obj
 0002:001102a0       ?FX_ConcussionHitWall@@YAXQAM0@Z 3020a2a0 f   fx_bryarpistol.obj
 0002:00110300       ?FX_ConcussionHitPlayer@@YAXQAM0W4qboolean@@@Z 3020a300 f   fx_bryarpistol.obj
 0002:00110360       ?FX_ConcussionProjectileThink@@YAXPAUcentity_s@@PBUweaponInfo_s@@@Z 3020a360 f   fx_bryarpistol.obj
 0002:00110450       ?FX_ConcAltShot@@YAXQAM0@Z 3020a450 f   fx_bryarpistol.obj
 0002:00110590       ?FX_DEMP2_ProjectileThink@@YAXPAUcentity_s@@PBUweaponInfo_s@@@Z 3020a590 f   fx_demp2.obj
 0002:00110680       ?FX_DEMP2_HitWall@@YAXQAM0@Z 3020a680 f   fx_demp2.obj
 0002:001106e0       ?FX_DEMP2_HitPlayer@@YAXQAM0W4qboolean@@@Z 3020a6e0 f   fx_demp2.obj
 0002:00110740       ?FX_DEMP2_AltBeam@@YAXQAM0000@Z 3020a740 f   fx_demp2.obj
 0002:00110770       ?FX_DEMP2_AltDetonate@@YAXQAMM@Z 3020a770 f   fx_demp2.obj
 0002:001108d0       ?FX_TuskenRifleMainShot@@YAXQAM0@Z 3020a8d0 f   fx_disruptor.obj
 0002:00110990       ?FX_TuskenRifleThink@@YAXPAUcentity_s@@PBUweaponInfo_s@@@Z 3020a990 f   fx_disruptor.obj
 0002:00110a80       ?FX_DisruptorMainShot@@YAXQAM0@Z 3020aa80 f   fx_disruptor.obj
 0002:00110b40       ?FX_DisruptorAltShot@@YAXQAM0W4qboolean@@@Z 3020ab40 f   fx_disruptor.obj
 0002:00110cf0       ?FX_DisruptorAltMiss@@YAXQAM0@Z 3020acf0 f   fx_disruptor.obj
 0002:00111050       ?FX_DisruptorAltHit@@YAXQAM0@Z 3020b050 f   fx_disruptor.obj
 0002:001110b0       ?FX_DisruptorHitWall@@YAXQAM0@Z 3020b0b0 f   fx_disruptor.obj
 0002:00111110       ?FX_TuskenHitWall@@YAXQAM0@Z 3020b110 f   fx_disruptor.obj
 0002:00111170       ?FX_DisruptorHitPlayer@@YAXQAM0W4qboolean@@@Z 3020b170 f   fx_disruptor.obj
 0002:001111d0       ?FX_TuskenWeaponHitPlayer@@YAXQAM0@Z 3020b1d0 f   fx_disruptor.obj
 0002:00111230       ?FX_FlechetteProjectileThink@@YAXPAUcentity_s@@PBUweaponInfo_s@@@Z 3020b230 f   fx_flechette.obj
 0002:00111320       ?FX_FlechetteWeaponHitWall@@YAXQAM0@Z 3020b320 f   fx_flechette.obj
 0002:00111380       ?FX_FlechetteWeaponHitWallAlt@@YAXQAM0@Z 3020b380 f   fx_flechette.obj
 0002:001113e0       ?FX_FlechetteWeaponHitPlayer@@YAXQAM0W4qboolean@@@Z 3020b3e0 f   fx_flechette.obj
 0002:00111440       ?FX_FlechetteAltProjectileThink@@YAXPAUcentity_s@@PBUweaponInfo_s@@@Z 3020b440 f   fx_flechette.obj
 0002:00111530       ?FX_ForceDrained@@YAXQAM0@Z 3020b530 f   fx_force.obj
 0002:001115e0       ?FX_RepeaterProjectileThink@@YAXPAUcentity_s@@PBUweaponInfo_s@@@Z 3020b5e0 f   fx_heavyrepeater.obj
 0002:001116d0       ?FX_RepeaterHitWall@@YAXQAM0@Z 3020b6d0 f   fx_heavyrepeater.obj
 0002:00111730       ?FX_RepeaterHitPlayer@@YAXQAM0W4qboolean@@@Z 3020b730 f   fx_heavyrepeater.obj
 0002:00111790       ?FX_RepeaterAltProjectileThink@@YAXPAUcentity_s@@PBUweaponInfo_s@@@Z 3020b790 f   fx_heavyrepeater.obj
 0002:00111cd0       ?FX_RepeaterAltHitWall@@YAXQAM0@Z 3020bcd0 f   fx_heavyrepeater.obj
 0002:00111d30       ?FX_RepeaterAltHitPlayer@@YAXQAM0W4qboolean@@@Z 3020bd30 f   fx_heavyrepeater.obj
 0002:00111d90       ?FX_RocketProjectileThink@@YAXPAUcentity_s@@PBUweaponInfo_s@@@Z 3020bd90 f   fx_rocketlauncher.obj
 0002:00111e80       ?FX_RocketHitWall@@YAXQAM0@Z 3020be80 f   fx_rocketlauncher.obj
 0002:00111ee0       ?FX_RocketHitPlayer@@YAXQAM0W4qboolean@@@Z 3020bee0 f   fx_rocketlauncher.obj
 0002:00111f40       ?FX_RocketAltProjectileThink@@YAXPAUcentity_s@@PBUweaponInfo_s@@@Z 3020bf40 f   fx_rocketlauncher.obj
 0002:00112030       ?Cvar_FindVar@@YAPAUcvar_s@@PBD@Z 3020c030 f   g_engine.obj
 0002:00112080       ?Q_rand@@YAHPAH@Z          3020c080 f   q_math.obj
 0002:001120d0       ?Q_random@@YAMPAH@Z        3020c0d0 f   q_math.obj
 0002:00112150       ?Q_crandom@@YAMPAH@Z       3020c150 f   q_math.obj
 0002:001121c0       ?ClampChar@@YACH@Z         3020c1c0 f   q_math.obj
 0002:00112210       ?ClampShort@@YAFH@Z        3020c210 f   q_math.obj
 0002:00112270       ?DirToByte@@YAHQAM@Z       3020c270 f   q_math.obj
 0002:00112360       ?ByteToDir@@YAXHQAM@Z      3020c360 f   q_math.obj
 0002:00112420       ?ColorBytes3@@YAIMMM@Z     3020c420 f   q_math.obj
 0002:00112540       ?ColorBytes4@@YAIMMMM@Z    3020c540 f   q_math.obj
 0002:001126a0       ?NormalizeColor@@YAMQBMQAM@Z 3020c6a0 f   q_math.obj
 0002:00112790       ?PlaneFromPoints@@YA?AW4qboolean@@QAMQBM11@Z 3020c790 f   q_math.obj
 0002:001129c0       ?RotatePointAroundVector@@YAXQAMQBM1M@Z 3020c9c0 f   q_math.obj
 0002:00112d80       ?RotateAroundDirection@@YAXQAY02MM@Z 3020cd80 f   q_math.obj
 0002:00112ea0       ?vectoangles@@YAXQBMQAM@Z  3020cea0 f   q_math.obj
 0002:001130a0       ?AnglesToAxis@@YAXQBMQAY02M@Z 3020d0a0 f   q_math.obj
 0002:001131a0       ?AxisClear@@YAXQAY02M@Z    3020d1a0 f   q_math.obj
 0002:00113230       ?AxisCopy@@YAXQAY02M0@Z    3020d230 f   q_math.obj
 0002:001132f0       ?ProjectPointOnPlane@@YAXQAMQBM1@Z 3020d2f0 f   q_math.obj
 0002:001134a0       ?MakeNormalVectors@@YAXQBMQAM1@Z 3020d4a0 f   q_math.obj
 0002:001135d0       ?VectorRotate@@YAXQAMQAY02M0@Z 3020d5d0 f   q_math.obj
 0002:001136b0       ?Q_rsqrt@@YAMM@Z           3020d6b0 f   q_math.obj
 0002:00113740       ?Q_fabs@@YAMM@Z            3020d740 f   q_math.obj
 0002:00113790       ?LerpAngle@@YAMMMM@Z       3020d790 f   q_math.obj
 0002:00113830       ?AngleSubtract@@YAMMM@Z    3020d830 f   q_math.obj
 0002:001138f0       ?fmod@@YAMMM@Z             3020d8f0 f i q_math.obj
 0002:00113950       _fmodf                     3020d950 f i q_math.obj
 0002:001139c0       ?AnglesSubtract@@YAXQAM00@Z 3020d9c0 f   q_math.obj
 0002:00113a80       ?AngleMod@@YAMM@Z          3020da80 f   q_math.obj
 0002:00113b00       ?AngleNormalize360@@YAMM@Z 3020db00 f   q_math.obj
 0002:00113b80       ?AngleNormalize180@@YAMM@Z 3020db80 f   q_math.obj
 0002:00113c00       ?AngleDelta@@YAMMM@Z       3020dc00 f   q_math.obj
 0002:00113c70       ?SetPlaneSignbits@@YAXPAUcplane_s@@@Z 3020dc70 f   q_math.obj
 0002:00113d10       ?BoxOnPlaneSide@@YAHQAM0PAUcplane_s@@@Z 3020dd10 f   q_math.obj
 0002:00113fe0       ?RadiusFromBounds@@YAMQBM0@Z 3020dfe0 f   q_math.obj
 0002:001141b0       ?ClearBounds@@YAXQAM0@Z    3020e1b0 f   q_math.obj
 0002:00114240       ?DistanceHorizontal@@YAMQBM0@Z 3020e240 f   q_math.obj
 0002:00114330       ?DistanceHorizontalSquared@@YAMQBM0@Z 3020e330 f   q_math.obj
 0002:00114400       ?AddPointToBounds@@YAXQBMQAM1@Z 3020e400 f   q_math.obj
 0002:00114520       ?VectorNormalize@@YAMQAM@Z 3020e520 f   q_math.obj
 0002:00114600       ?VectorNormalize2@@YAMQBMQAM@Z 3020e600 f   q_math.obj
 0002:00114700       ?_VectorMA@@YAXQBMM0QAM@Z  3020e700 f   q_math.obj
 0002:00114780       ?_DotProduct@@YAMQBM0@Z    3020e780 f   q_math.obj
 0002:001147f0       ?_VectorSubtract@@YAXQBM0QAM@Z 3020e7f0 f   q_math.obj
 0002:00114860       ?_VectorAdd@@YAXQBM0QAM@Z  3020e860 f   q_math.obj
 0002:001148d0       ?_VectorCopy@@YAXQBMQAM@Z  3020e8d0 f   q_math.obj
 0002:00114930       ?_VectorScale@@YAXQBMMQAM@Z 3020e930 f   q_math.obj
 0002:001149a0       ?Vector4Scale@@YAXQBMMQAM@Z 3020e9a0 f   q_math.obj
 0002:00114a20       ?Q_log2@@YAHH@Z            3020ea20 f   q_math.obj
 0002:00114a80       ?MatrixMultiply@@YAXQAY02M00@Z 3020ea80 f   q_math.obj
 0002:00114cb0       ?AngleVectors@@YAXQBMQAM11@Z 3020ecb0 f   q_math.obj
 0002:00114f40       ?PerpendicularVector@@YAXQAMQBM@Z 3020ef40 f   q_math.obj
 0002:001150a0       ?NormalToLatLong@@YAXQBMQAE@Z 3020f0a0 f   q_math.obj
 0002:00115200       ?Rand_Init@@YAXH@Z         3020f200 f   q_math.obj
 0002:00115240       ?flrand@@YAMMM@Z           3020f240 f   q_math.obj
 0002:001152d0       ?Q_flrand@@YAMMM@Z         3020f2d0 f   q_math.obj
 0002:00115330       ?irand@@YAHHH@Z            3020f330 f   q_math.obj
 0002:001153f0       ?Q_irand@@YAHHH@Z          3020f3f0 f   q_math.obj
 0002:00115450       ?DotProductNormalize@@YAMQBM0@Z 3020f450 f   q_math.obj
 0002:00115550       ?G_FindClosestPointOnLineSegment@@YA?AW4qboolean@@QBM00QAM@Z 3020f550 f   q_math.obj
 0002:00115a90       ?G_PointDistFromLineSegment@@YAMQBM00@Z 3020fa90 f   q_math.obj
 0002:00115f70       ?G_FindClosestPointBetweenLineSegments@@YAXQAM0000@Z 3020ff70 f   q_math.obj
 0002:00116290       ?ShortestLineSegBewteen2LineSegs@@YAMQAM00000@Z 30210290 f   q_math.obj
 0002:00116ba0       ?VectorDistance@@YAMQAM0@Z 30210ba0 f   q_math.obj
 0002:00116c80       ?GetIDForString@@YAHPAUstringID_table_s@@PBD@Z 30210c80 f   q_shared.obj
 0002:00116d30       ?GetStringForID@@YAPBDPAUstringID_table_s@@H@Z 30210d30 f   q_shared.obj
 0002:00116dc0       ?Com_Clampi@@YAHHHH@Z      30210dc0 f   q_shared.obj
 0002:00116e20       ?Com_Clamp@@YAMMMM@Z       30210e20 f   q_shared.obj
 0002:00116e90       ?COM_SkipPath@@YAPADPAD@Z  30210e90 f   q_shared.obj
 0002:00116f00       ?COM_StripExtension@@YAXPBDPAD@Z 30210f00 f   q_shared.obj
 0002:00116f80       ?COM_DefaultExtension@@YAXPADHPBD@Z 30210f80 f   q_shared.obj
 0002:001170a0       ?ShortSwap@@YAFF@Z         302110a0 f   q_shared.obj
 0002:00117100       ?ShortNoSwap@@YAFF@Z       30211100 f   q_shared.obj
 0002:00117140       ?LongSwap@@YAHH@Z          30211140 f   q_shared.obj
 0002:001171e0       ?LongNoSwap@@YAHH@Z        302111e0 f   q_shared.obj
 0002:00117220       ?Long64Swap@@YA?AUqint64@@U1@@Z 30211220 f   q_shared.obj
 0002:001172d0       ?Long64NoSwap@@YA?AUqint64@@U1@@Z 302112d0 f   q_shared.obj
 0002:00117310       ?FloatSwap@@YAMPBM@Z       30211310 f   q_shared.obj
 0002:001173b0       ?FloatNoSwap@@YAMPBM@Z     302113b0 f   q_shared.obj
 0002:001173f0       ?COM_BeginParseSession@@YAXPBD@Z 302113f0 f   q_shared.obj
 0002:00117460       ?COM_GetCurrentParseLine@@YAHXZ 30211460 f   q_shared.obj
 0002:001174a0       ?COM_Parse@@YAPADPAPBD@Z   302114a0 f   q_shared.obj
 0002:001174f0       ?COM_ParseError@@YAXPADZZ  302114f0 f   q_shared.obj
 0002:00117580       ?COM_ParseWarning@@YAXPADZZ 30211580 f   q_shared.obj
 0002:00117610       ?SkipWhitespace@@YAPBDPBDPAW4qboolean@@@Z 30211610 f   q_shared.obj
 0002:001176a0       ?COM_Compress@@YAHPAD@Z    302116a0 f   q_shared.obj
 0002:00117940       ?COM_ParseExt@@YAPADPAPBDW4qboolean@@@Z 30211940 f   q_shared.obj
 0002:00117c70       ?COM_ParseString@@YA?AW4qboolean@@PAPBD0@Z 30211c70 f   q_shared.obj
 0002:00117cf0       ?COM_ParseInt@@YA?AW4qboolean@@PAPBDPAH@Z 30211cf0 f   q_shared.obj
 0002:00117d90       ?COM_ParseFloat@@YA?AW4qboolean@@PAPBDPAM@Z 30211d90 f   q_shared.obj
 0002:00117e30       ?COM_ParseVec4@@YA?AW4qboolean@@PAPBDPAY03M@Z 30211e30 f   q_shared.obj
 0002:00117f00       ?COM_MatchToken@@YAXPAPBDPAD@Z 30211f00 f   q_shared.obj
 0002:00117f90       ?SkipBracedSection@@YAXPAPBD@Z 30211f90 f   q_shared.obj
 0002:00118040       ?SkipRestOfLine@@YAXPAPBD@Z 30212040 f   q_shared.obj
 0002:001180f0       ?Parse1DMatrix@@YAXPAPBDHPAM@Z 302120f0 f   q_shared.obj
 0002:001181b0       ?Parse2DMatrix@@YAXPAPBDHHPAM@Z 302121b0 f   q_shared.obj
 0002:00118270       ?Parse3DMatrix@@YAXPAPBDHHHPAM@Z 30212270 f   q_shared.obj
 0002:00118330       ?Q_isprint@@YAHH@Z         30212330 f   q_shared.obj
 0002:00118380       ?Q_islower@@YAHH@Z         30212380 f   q_shared.obj
 0002:001183d0       ?Q_isupper@@YAHH@Z         302123d0 f   q_shared.obj
 0002:00118420       ?Q_isalpha@@YAHH@Z         30212420 f   q_shared.obj
 0002:00118480       ?Q_strrchr@@YAPADPBDH@Z    30212480 f   q_shared.obj
 0002:00118510       ?Q_strncpyz@@YAXPADPBDH@Z  30212510 f   q_shared.obj
 0002:001185d0       ?Q_stricmpn@@YAHPBD0H@Z    302125d0 f   q_shared.obj
 0002:00118700       ?Q_strncmp@@YAHPBD0H@Z     30212700 f   q_shared.obj
 0002:001187b0       ?Q_stricmp@@YAHPBD0@Z      302127b0 f   q_shared.obj
 0002:00118840       ?Q_stristr@@YAPADPBD0@Z    30212840 f   q_shared.obj
 0002:001189b0       ?Q_StrReplace@@YAPADPAD00@Z 302129b0 f   q_shared.obj
 0002:00118c90       ?COM_BitCheck@@YA?AW4qboolean@@QBHH@Z 30212c90 f   q_shared.obj
 0002:00118d20       ?COM_BitSet@@YAXQAHH@Z     30212d20 f   q_shared.obj
 0002:00118db0       ?COM_BitClear@@YAXQAHH@Z   30212db0 f   q_shared.obj
 0002:00118e40       ?Q_strlwr@@YAPADPAD@Z      30212e40 f   q_shared.obj
 0002:00118ec0       ?Q_strupr@@YAPADPAD@Z      30212ec0 f   q_shared.obj
 0002:00118f40       ?Q_strcat@@YAXPADHPBD@Z    30212f40 f   q_shared.obj
 0002:00118fd0       ?Q_PrintStrlen@@YAHPBD@Z   30212fd0 f   q_shared.obj
 0002:001190b0       ?Q_CleanStr@@YAPADPAD@Z    302130b0 f   q_shared.obj
 0002:001191a0       ?Q_vsnprintf@@YAHPADHPBD0@Z 302131a0 f   q_shared.obj
 0002:00119230       ?Com_sprintf@@YAXPADHPBDZZ 30213230 f   q_shared.obj
 0002:001192c0       ?va@@YAPADPADZZ            302132c0 f   q_shared.obj
 0002:001193d0       ?Info_ValueForKey@@YAPADPBD0@Z 302133d0 f   q_shared.obj
 0002:00119630       ?Info_NextPair@@YAXPAPBDPAD1@Z 30213630 f   q_shared.obj
 0002:00119760       ?Info_RemoveKey@@YAXPADPBD@Z 30213760 f   q_shared.obj
 0002:001199c0       ?Info_RemoveKey_Big@@YAXPADPBD@Z 302139c0 f   q_shared.obj
 0002:00119c20       ?Info_Validate@@YA?AW4qboolean@@PBD@Z 30213c20 f   q_shared.obj
 0002:00119ca0       ?Info_SetValueForKey@@YAXPADPBD1@Z 30213ca0 f   q_shared.obj
 0002:00119ef0       ?Info_SetValueForKey_Big@@YAXPADPBD1@Z 30213ef0 f   q_shared.obj
 0002:0011a130       ?VEH_StartStrafeRam@@YA?AW4qboolean@@PAUVehicle_s@@W41@H@Z 30214130 f   SpeederNPC.obj
 0002:0011a160       ?ProcessOrientCommands@@YAXPAUVehicle_s@@@Z 30214160 f   SpeederNPC.obj
 0002:0011a3a0       ?AnimateRiders@@YAXPAUVehicle_s@@@Z 302143a0 f   SpeederNPC.obj
 0002:0011af80       ?G_SetSpeederVehicleFunctions@@YAXPAUvehicleInfo_t@@@Z 30214f80 f   SpeederNPC.obj
 0002:0011b620       ?G_CreateSpeederNPC@@YAXPAPAUVehicle_s@@PBD@Z 30215620 f   SpeederNPC.obj
 0002:0011b6d0       ??_H@YGXPAXIHP6EPAX0@Z@Z   302156d0 f i ui_shared.obj
 0002:0011b740       ?UI_Alloc@@YAPAXH@Z        30215740 f   ui_shared.obj
 0002:0011b810       ?UI_InitMemory@@YAXXZ      30215810 f   ui_shared.obj
 0002:0011b860       ?UI_OutOfMemory@@YA?AW4qboolean@@XZ 30215860 f   ui_shared.obj
 0002:0011b8a0       ?String_Alloc@@YAPBDPBD@Z  302158a0 f   ui_shared.obj
 0002:0011bb70       ?String_Report@@YAXXZ      30215b70 f   ui_shared.obj
 0002:0011bc80       ?String_Init@@YAXXZ        30215c80 f   ui_shared.obj
 0002:0011bd70       ?PC_SourceWarning@@YAXHPADZZ 30215d70 f   ui_shared.obj
 0002:0011bea0       ?PC_SourceError@@YAXHPADZZ 30215ea0 f   ui_shared.obj
 0002:0011bfd0       ?LerpColor@@YAXQAM00M@Z    30215fd0 f   ui_shared.obj
 0002:0011c0b0       ?Float_Parse@@YA?AW4qboolean@@PAPADPAM@Z 302160b0 f   ui_shared.obj
 0002:0011c140       ?PC_Float_Parse@@YA?AW4qboolean@@HPAM@Z 30216140 f   ui_shared.obj
 0002:0011c2a0       ?Color_Parse@@YA?AW4qboolean@@PAPADPAY03M@Z 302162a0 f   ui_shared.obj
 0002:0011c370       ?PC_Color_Parse@@YA?AW4qboolean@@HPAY03M@Z 30216370 f   ui_shared.obj
 0002:0011c440       ?Int_Parse@@YA?AW4qboolean@@PAPADPAH@Z 30216440 f   ui_shared.obj
 0002:0011c4d0       ?PC_Int_Parse@@YA?AW4qboolean@@HPAH@Z 302164d0 f   ui_shared.obj
 0002:0011c630       ?Rect_Parse@@YA?AW4qboolean@@PAPADPAVRectangle@@@Z 30216630 f   ui_shared.obj
 0002:0011c6f0       ?PC_Rect_Parse@@YA?AW4qboolean@@HPAVRectangle@@@Z 302166f0 f   ui_shared.obj
 0002:0011c7b0       ?String_Parse@@YA?AW4qboolean@@PAPADPAPBD@Z 302167b0 f   ui_shared.obj
 0002:0011c850       ?PC_String_Parse@@YA?AW4qboolean@@HPAPBD@Z 30216850 f   ui_shared.obj
 0002:0011c950       ?PC_Script_Parse@@YA?AW4qboolean@@HPAPBD@Z 30216950 f   ui_shared.obj
 0002:0011cb50       ?Init_Display@@YAXPAUdisplayContextDef_t@@@Z 30216b50 f   ui_shared.obj
 0002:0011cb90       ?GradientBar_Paint@@YAXPAVRectangle@@QAM@Z 30216b90 f   ui_shared.obj
 0002:0011cc70       ?Window_Init@@YAXPAUwindowDef_t@@@Z 30216c70 f   ui_shared.obj
 0002:0011cd10       ?Fade@@YAXPAHPAMM0HW4qboolean@@M@Z 30216d10 f   ui_shared.obj
 0002:0011ce20       ?Window_Paint@@YAXPAUwindowDef_t@@MMM@Z 30216e20 f   ui_shared.obj
 0002:0011d750       ?Item_SetScreenCoords@@YAXPAUitemDef_s@@MM@Z 30217750 f   ui_shared.obj
 0002:0011d890       ?Item_UpdatePosition@@YAXPAUitemDef_s@@@Z 30217890 f   ui_shared.obj
 0002:0011d960       ?Menu_UpdatePosition@@YAXPAUmenuDef_t@@@Z 30217960 f   ui_shared.obj
 0002:0011da40       ?Menu_PostParse@@YAXPAUmenuDef_t@@@Z 30217a40 f   ui_shared.obj
 0002:0011dae0       ?Container_ClearFocus@@YAPAUitemDef_s@@PAVContainerElement@@@Z 30217ae0 f   ui_shared.obj
 0002:0011de90       ??4?$_List_const_iterator@V?$_List_val@PAUitemDef_s@@V?$allocator@PAUitemDef_s@@@std@@@std@@@std@@QAEAAV01@ABV01@@Z 30217e90 f i ui_shared.obj
 0002:0011def0       ??4?$_List_unchecked_const_iterator@V?$_List_val@PAUitemDef_s@@V?$allocator@PAUitemDef_s@@@std@@@std@@U_Iterator_base12@2@@std@@QAEAAV01@ABV01@@Z 30217ef0 f i ui_shared.obj
 0002:0011df60       ??4?$_Iterator012@Ubidirectional_iterator_tag@std@@PAUitemDef_s@@HPBQAU3@ABQAU3@U_Iterator_base12@2@@std@@QAEAAU01@ABU01@@Z 30217f60 f i ui_shared.obj
 0002:0011dfc0       ?Menu_ClearFocus@@YAPAUitemDef_s@@PAUmenuDef_t@@@Z 30217fc0 f   ui_shared.obj
 0002:0011e180       ?IsVisible@@YA?AW4qboolean@@H@Z 30218180 f   ui_shared.obj
 0002:0011e1f0       ?Rect_ContainsPoint@@YA?AW4qboolean@@PAVRectangle@@MM@Z 302181f0 f   ui_shared.obj
 0002:0011e2a0       ?Container_ItemsMatchingGroup@@YAHPAVContainerElement@@PBD@Z 302182a0 f   ui_shared.obj
 0002:0011e670       ?Menu_ItemsMatchingGroup@@YAHPAUmenuDef_t@@PBD@Z 30218670 f   ui_shared.obj
 0002:0011e830       ?Container_GetMatchingItemByNumber@@YAPAUitemDef_s@@PAVContainerElement@@PAHHPBD@Z 30218830 f   ui_shared.obj
 0002:0011ec80       ?Menu_GetMatchingItemByNumber@@YAPAUitemDef_s@@PAUmenuDef_t@@HPBD@Z 30218c80 f   ui_shared.obj
 0002:0011ee60       ?Script_SetColor@@YA?AW4qboolean@@PAUitemDef_s@@PAPAD@Z 30218e60 f   ui_shared.obj
 0002:0011f020       ?Script_SetAsset@@YA?AW4qboolean@@PAUitemDef_s@@PAPAD@Z 30219020 f   ui_shared.obj
 0002:0011f0b0       ?Script_SetBackground@@YA?AW4qboolean@@PAUitemDef_s@@PAPAD@Z 302190b0 f   ui_shared.obj
 0002:0011f170       ?Script_SetItemRectCvar@@YA?AW4qboolean@@PAUitemDef_s@@PAPAD@Z 30219170 f   ui_shared.obj
 0002:0011f500       ?Script_SetItemBackground@@YA?AW4qboolean@@PAUitemDef_s@@PAPAD@Z 30219500 f   ui_shared.obj
 0002:0011f5f0       ?Script_SetItemText@@YA?AW4qboolean@@PAUitemDef_s@@PAPAD@Z 302195f0 f   ui_shared.obj
 0002:0011f6e0       ?Menu_FindItemByName@@YAPAUitemDef_s@@PAUmenuDef_t@@PBD@Z 302196e0 f   ui_shared.obj
 0002:0011f7a0       ?Script_SetTeamColor@@YA?AW4qboolean@@PAUitemDef_s@@PAPAD@Z 302197a0 f   ui_shared.obj
 0002:0011f8a0       ?Script_SetItemColor@@YA?AW4qboolean@@PAUitemDef_s@@PAPAD@Z 302198a0 f   ui_shared.obj
 0002:0011fb80       ?Script_SetItemColorCvar@@YA?AW4qboolean@@PAUitemDef_s@@PAPAD@Z 30219b80 f   ui_shared.obj
 0002:00120050       ?Script_SetItemRect@@YA?AW4qboolean@@PAUitemDef_s@@PAPAD@Z 3021a050 f   ui_shared.obj
 0002:00120200       ?Menu_ShowGroup@@YAXPAUmenuDef_t@@PADW4qboolean@@@Z 3021a200 f   ui_shared.obj
 0002:001202d0       ?Menu_ShowItemByName@@YAXPAUmenuDef_t@@PBDW4qboolean@@@Z 3021a2d0 f   ui_shared.obj
 0002:001203f0       ?Menu_FadeItemByName@@YAXPAUmenuDef_t@@PBDW4qboolean@@@Z 3021a3f0 f   ui_shared.obj
 0002:001204f0       ?Menus_FindByName@@YAPAUmenuDef_t@@PBD@Z 3021a4f0 f   ui_shared.obj
 0002:001205a0       ?Menus_ShowByName@@YAXPBD@Z 3021a5a0 f   ui_shared.obj
 0002:00120610       ?Menus_OpenByName@@YAXPBD@Z 3021a610 f   ui_shared.obj
 0002:00120660       ?Menus_CloseByName@@YAXPBD@Z 3021a660 f   ui_shared.obj
 0002:00120840       ??0itemDef_s@@QAE@XZ       3021a840 f i ui_shared.obj
 0002:001208b0       ??0windowDef_t@@QAE@XZ     3021a8b0 f i ui_shared.obj
 0002:00120930       ?Menus_CloseAll@@YAXXZ     3021a930 f   ui_shared.obj
 0002:00120a00       ?Script_Show@@YA?AW4qboolean@@PAUitemDef_s@@PAPAD@Z 3021aa00 f   ui_shared.obj
 0002:00120ab0       ?Script_Hide@@YA?AW4qboolean@@PAUitemDef_s@@PAPAD@Z 3021aab0 f   ui_shared.obj
 0002:00120b60       ?Script_FadeIn@@YA?AW4qboolean@@PAUitemDef_s@@PAPAD@Z 3021ab60 f   ui_shared.obj
 0002:00120c10       ?Script_FadeOut@@YA?AW4qboolean@@PAUitemDef_s@@PAPAD@Z 3021ac10 f   ui_shared.obj
 0002:00120cc0       ?Script_Open@@YA?AW4qboolean@@PAUitemDef_s@@PAPAD@Z 3021acc0 f   ui_shared.obj
 0002:00120d70       ?Script_Close@@YA?AW4qboolean@@PAUitemDef_s@@PAPAD@Z 3021ad70 f   ui_shared.obj
 0002:00120e40       ?Menu_TransitionItemByName@@YAXPAUmenuDef_t@@PBDPBVRectangle@@2HM@Z 3021ae40 f   ui_shared.obj
 0002:00121040       ?abs@@YAMM@Z               3021b040 f i ui_shared.obj
 0002:001210a0       ?Menu_Transition3ItemByName@@YAXPAUmenuDef_t@@PBDMMMMMMMMHM@Z 3021b0a0 f   ui_shared.obj
 0002:001213c0       ?Script_Defer@@YA?AW4qboolean@@PAUitemDef_s@@PAPAD@Z 3021b3c0 f   ui_shared.obj
 0002:00121460       ?Script_RunDeferred@@YA?AW4qboolean@@PAUitemDef_s@@PAPAD@Z 3021b460 f   ui_shared.obj
 0002:001214e0       ?Script_Transition@@YA?AW4qboolean@@PAUitemDef_s@@PAPAD@Z 3021b4e0 f   ui_shared.obj
 0002:00121680       ?Menu_OrbitItemByName@@YAXPAUmenuDef_t@@PBDMMMMH@Z 3021b680 f   ui_shared.obj
 0002:00121780       ?Menu_ItemDisable@@YAXPAUmenuDef_t@@PADH@Z 3021b780 f   ui_shared.obj
 0002:00121840       ?Script_Disable@@YA?AW4qboolean@@PAUitemDef_s@@PAPAD@Z 3021b840 f   ui_shared.obj
 0002:001219b0       ?Script_Scale@@YA?AW4qboolean@@PAUitemDef_s@@PAPAD@Z 3021b9b0 f   ui_shared.obj
 0002:00121c20       ?Script_Orbit@@YA?AW4qboolean@@PAUitemDef_s@@PAPAD@Z 3021bc20 f   ui_shared.obj
 0002:00121de0       ?Script_SetFocus@@YA?AW4qboolean@@PAUitemDef_s@@PAPAD@Z 3021bde0 f   ui_shared.obj
 0002:00121f60       ?Script_SetPlayerModel@@YA?AW4qboolean@@PAUitemDef_s@@PAPAD@Z 3021bf60 f   ui_shared.obj
 0002:00122020       ?ParseRect@@YA?AW4qboolean@@PAPBDPAVRectangle@@@Z 3021c020 f   ui_shared.obj
 0002:001220e0       ?Script_Transition2@@YA?AW4qboolean@@PAUitemDef_s@@PAPAD@Z 3021c0e0 f   ui_shared.obj
 0002:00122260       ?Script_Transition3@@YA?AW4qboolean@@PAUitemDef_s@@PAPAD@Z 3021c260 f   ui_shared.obj
 0002:00122590       ?Script_SetCvar@@YA?AW4qboolean@@PAUitemDef_s@@PAPAD@Z 3021c590 f   ui_shared.obj
 0002:00122680       ?Script_SetCvarToCvar@@YA?AW4qboolean@@PAUitemDef_s@@PAPAD@Z 3021c680 f   ui_shared.obj
 0002:001227d0       ?Script_Exec@@YA?AW4qboolean@@PAUitemDef_s@@PAPAD@Z 3021c7d0 f   ui_shared.obj
 0002:00122990       ?Script_Play@@YA?AW4qboolean@@PAUitemDef_s@@PAPAD@Z 3021c990 f   ui_shared.obj
 0002:00122a70       ?Script_PlayVoice@@YA?AW4qboolean@@PAUitemDef_s@@PAPAD@Z 3021ca70 f   ui_shared.obj
 0002:00122b50       ?Script_playLooped@@YA?AW4qboolean@@PAUitemDef_s@@PAPAD@Z 3021cb50 f   ui_shared.obj
 0002:00122c30       ?Menu_SetItemBackground@@YAXPBUmenuDef_t@@PBD1@Z 3021cc30 f   ui_shared.obj
 0002:00122d10       ?Menu_SetItemText@@YAXPBUmenuDef_t@@PBD1@Z 3021cd10 f   ui_shared.obj
 0002:00122eb0       ?Item_RunScript@@YAXPAUitemDef_s@@PBD@Z 3021ceb0 f   ui_shared.obj
 0002:00123110       ?Item_EnableShowViaCvar@@YA?AW4qboolean@@PAUitemDef_s@@H@Z 3021d110 f   ui_shared.obj
 0002:00123420       ?Item_SetFocus@@YA?AW4qboolean@@PAUitemDef_s@@MM@Z 3021d420 f   ui_shared.obj
 0002:00123710       ?Item_TextScroll_MaxScroll@@YAHPAUitemDef_s@@@Z 3021d710 f   ui_shared.obj
 0002:001237a0       ?Item_TextScroll_ThumbPosition@@YAHPAUitemDef_s@@@Z 3021d7a0 f   ui_shared.obj
 0002:00123890       ?Item_TextScroll_ThumbDrawPosition@@YAHPAUitemDef_s@@@Z 3021d890 f   ui_shared.obj
 0002:001239b0       ?Item_TextScroll_OverLB@@YAHPAUitemDef_s@@MM@Z 3021d9b0 f   ui_shared.obj
 0002:00123bf0       ?Item_TextScroll_MouseEnter@@YAXPAUitemDef_s@@MM@Z 3021dbf0 f   ui_shared.obj
 0002:00123c80       ?Item_TextScroll_HandleKey@@YA?AW4qboolean@@PAUitemDef_s@@HW41@1@Z 3021dc80 f   ui_shared.obj
 0002:00123fd0       ?Item_ListBox_MaxScroll@@YAHPAUitemDef_s@@@Z 3021dfd0 f   ui_shared.obj
 0002:001240d0       ?Item_ListBox_ThumbPosition@@YAHPAUitemDef_s@@@Z 3021e0d0 f   ui_shared.obj
 0002:00124250       ?Item_ListBox_ThumbDrawPosition@@YAHPAUitemDef_s@@@Z 3021e250 f   ui_shared.obj
 0002:00124460       ?Item_Slider_ThumbPosition@@YAMPAUitemDef_s@@@Z 3021e460 f   ui_shared.obj
 0002:001245d0       ?Item_Slider_OverSlider@@YAHPAUitemDef_s@@MM@Z 3021e5d0 f   ui_shared.obj
 0002:001246c0       ?Item_ListBox_OverLB@@YAHPAUitemDef_s@@MM@Z 3021e6c0 f   ui_shared.obj
 0002:00124c30       ?Item_ListBox_MouseEnter@@YAXPAUitemDef_s@@MM@Z 3021ec30 f   ui_shared.obj
 0002:00124f80       ?Item_MouseEnter@@YAXPAUitemDef_s@@MM@Z 3021ef80 f   ui_shared.obj
 0002:00125240       ?Item_MouseLeave@@YAXPAUitemDef_s@@@Z 3021f240 f   ui_shared.obj
 0002:00125300       ?Menu_HitTest@@YAPAUitemDef_s@@PAUmenuDef_t@@MM@Z 3021f300 f   ui_shared.obj
 0002:001253b0       ?Item_SetMouseOver@@YAXPAUitemDef_s@@W4qboolean@@@Z 3021f3b0 f   ui_shared.obj
 0002:00125420       ?IsForceRank@@YA?AW4qboolean@@H@Z 3021f420 f   ui_shared.obj
 0002:001254a0       ?Item_OwnerDraw_HandleKey@@YA?AW4qboolean@@PAUitemDef_s@@H@Z 3021f4a0 f   ui_shared.obj
 0002:001255d0       ?Item_ListBox_HandleKey@@YA?AW4qboolean@@PAUitemDef_s@@HW41@1@Z 3021f5d0 f   ui_shared.obj
 0002:001260f0       ?Item_YesNo_HandleKey@@YA?AW4qboolean@@PAUitemDef_s@@H@Z 302200f0 f   ui_shared.obj
 0002:00126270       ?Item_Multi_CountSettings@@YAHPAUitemDef_s@@@Z 30220270 f   ui_shared.obj
 0002:001262d0       ?Item_Multi_FindCvarByValue@@YAHPAUitemDef_s@@@Z 302202d0 f   ui_shared.obj
 0002:001264d0       ?Item_Multi_Setting@@YAPBDPAUitemDef_s@@@Z 302204d0 f   ui_shared.obj
 0002:00126710       ?Item_Multi_HandleKey@@YA?AW4qboolean@@PAUitemDef_s@@H@Z 30220710 f   ui_shared.obj
 0002:001269f0       ?Leaving_EditField@@YAXPAUitemDef_s@@@Z 302209f0 f   ui_shared.obj
 0002:00126a60       ?Item_TextField_HandleKey@@YA?AW4qboolean@@PAUitemDef_s@@H@Z 30220a60 f   ui_shared.obj
 0002:00127370       ?Item_StartCapture@@YAXPAUitemDef_s@@H@Z 30221370 f   ui_shared.obj
 0002:001281e0       ?Item_StopCapture@@YAXPAUitemDef_s@@@Z 302221e0 f   ui_shared.obj
 0002:00128210       ?Item_Slider_HandleKey@@YA?AW4qboolean@@PAUitemDef_s@@HW41@@Z 30222210 f   ui_shared.obj
 0002:00128510       ?Item_HandleKey@@YA?AW4qboolean@@PAUitemDef_s@@HW41@@Z 30222510 f   ui_shared.obj
 0002:001287b0       ?Item_HandleAccept@@YA?AW4qboolean@@PAUitemDef_s@@@Z 302227b0 f   ui_shared.obj
 0002:00128830       ?Item_Action@@YAXPAUitemDef_s@@@Z 30222830 f   ui_shared.obj
 0002:001288a0       ?Menu_SetPrevCursorItem@@YAPAUitemDef_s@@PAUmenuDef_t@@@Z 302228a0 f   ui_shared.obj
 0002:00128aa0       ?Menu_SetNextCursorItem@@YAPAUitemDef_s@@PAUmenuDef_t@@@Z 30222aa0 f   ui_shared.obj
 0002:00128c90       ?Menus_Activate@@YAXPAUmenuDef_t@@@Z 30222c90 f   ui_shared.obj
 0002:00129010       ?Display_VisibleMenuCount@@YAHXZ 30223010 f   ui_shared.obj
 0002:001290a0       ?Menus_HandleOOBClick@@YAXPAUmenuDef_t@@HW4qboolean@@@Z 302230a0 f   ui_shared.obj
 0002:001292a0       ?Container_GetFocusedItem@@YAPAUitemDef_s@@PAVContainerElement@@@Z 302232a0 f   ui_shared.obj
 0002:00129690       ?Menu_HandleKey@@YAXPAUmenuDef_t@@HW4qboolean@@@Z 30223690 f   ui_shared.obj
 0002:0012a000       ?ToWindowCoords@@YAXPAM0PAUwindowDef_t@@@Z 30224000 f   ui_shared.obj
 0002:0012a090       ?Rect_ToWindowCoords@@YAXPAVRectangle@@PAUwindowDef_t@@@Z 30224090 f   ui_shared.obj
 0002:0012a0f0       ?Item_SetTextExtents@@YAXPAUitemDef_s@@PAH1PBD@Z 302240f0 f   ui_shared.obj
 0002:0012a4f0       ?Item_TextColor@@YAXPAUitemDef_s@@PAY03M@Z 302244f0 f   ui_shared.obj
 0002:0012a8a0       ?Item_Text_AutoWrapped_Paint@@YAXPAUitemDef_s@@@Z 302248a0 f   ui_shared.obj
 0002:0012ae70       ?Item_Text_Wrapped_Paint@@YAXPAUitemDef_s@@@Z 30224e70 f   ui_shared.obj
 0002:0012b2a0       ?Item_Text_Paint@@YAXPAUitemDef_s@@@Z 302252a0 f   ui_shared.obj
 0002:0012b6a0       ?Item_TextField_Paint@@YAXPAUitemDef_s@@@Z 302256a0 f   ui_shared.obj
 0002:0012bba0       ?Item_YesNo_Paint@@YAXPAUitemDef_s@@@Z 30225ba0 f   ui_shared.obj
 0002:0012bfe0       ?Item_Multi_Paint@@YAXPAUitemDef_s@@@Z 30225fe0 f   ui_shared.obj
 0002:0012c3c0       ?Controls_GetConfig@@YAXXZ 302263c0 f   ui_shared.obj
 0002:0012c600       ?Controls_SetConfig@@YAXW4qboolean@@@Z 30226600 f   ui_shared.obj
 0002:0012c710       ?BindingIDFromName@@YAHPBD@Z 30226710 f   ui_shared.obj
 0002:0012c7a0       ?BindingFromName@@YAXPBD@Z 302267a0 f   ui_shared.obj
 0002:0012c990       ?Item_Slider_Paint@@YAXPAUitemDef_s@@@Z 30226990 f   ui_shared.obj
 0002:0012cd10       ?Item_Bind_Paint@@YAXPAUitemDef_s@@@Z 30226d10 f   ui_shared.obj
 0002:0012d2c0       ?Display_KeyBindPending@@YA?AW4qboolean@@XZ 302272c0 f   ui_shared.obj
 0002:0012d300       ?Item_Bind_HandleKey@@YA?AW4qboolean@@PAUitemDef_s@@HW41@@Z 30227300 f   ui_shared.obj
 0002:0012d860       ?UI_ScaleModelAxis@@YAXPAUrefEntity_t@@@Z 30227860 f   ui_shared.obj
 0002:0012da70       ?Item_Model_Paint@@YAXPAUitemDef_s@@@Z 30227a70 f   ui_shared.obj
 0002:0012e300       ?Item_Image_Paint@@YAXPAUitemDef_s@@@Z 30228300 f   ui_shared.obj
 0002:0012e400       ?Item_TextScroll_Paint@@YAXPAUitemDef_s@@@Z 30228400 f   ui_shared.obj
 0002:0012e9b0       ?Item_ListBox_Paint@@YAXPAUitemDef_s@@@Z 302289b0 f   ui_shared.obj
 0002:001302e0       ?Item_OwnerDraw_Paint@@YAXPAUitemDef_s@@@Z 3022a2e0 f   ui_shared.obj
 0002:00130a80       ?Item_Paint@@YAXPAUitemDef_s@@@Z 3022aa80 f   ui_shared.obj
 0002:001321c0       ?Menu_Init@@YAXPAUmenuDef_t@@@Z 3022c1c0 f   ui_shared.obj
 0002:00132290       ?Menu_GetFocusedItem@@YAPAUitemDef_s@@PAUmenuDef_t@@@Z 3022c290 f   ui_shared.obj
 0002:00132320       ?Menu_GetFocused@@YAPAUmenuDef_t@@XZ 3022c320 f   ui_shared.obj
 0002:001323c0       ?Menu_ScrollFeeder@@YAXPAUmenuDef_t@@HW4qboolean@@@Z 3022c3c0 f   ui_shared.obj
 0002:00132490       ?Menu_SetFeederSelection@@YAXPAUmenuDef_t@@HHPBD@Z 3022c490 f   ui_shared.obj
 0002:00132620       ?Menus_AnyFullScreenVisible@@YA?AW4qboolean@@XZ 3022c620 f   ui_shared.obj
 0002:001326b0       ?Menus_ActivateByName@@YAPAUmenuDef_t@@PBD@Z 3022c6b0 f   ui_shared.obj
 0002:00132820       ?Item_Init@@YAXPAUitemDef_s@@@Z 3022c820 f   ui_shared.obj
 0002:00132930       ?Container_FocusItem@@YAXPAVContainerElement@@HH_NH@Z 3022c930 f   ui_shared.obj
 0002:00132e10       ?Menu_HandleMouseMove@@YAXPAUmenuDef_t@@MM@Z 3022ce10 f   ui_shared.obj
 0002:001331d0       ?Menu_Paint@@YAXPAUmenuDef_t@@W4qboolean@@@Z 3022d1d0 f   ui_shared.obj
 0002:001335b0       ?Item_ValidateTypeData@@YAXPAUitemDef_s@@@Z 3022d5b0 f   ui_shared.obj
 0002:001337d0       ?LayoutHash_Key@@YAHPAD@Z  3022d7d0 f   ui_shared.obj
 0002:001338c0       ?LayoutHash_Add@@YAXQAPAUlayoutKeywordHash_s@@PAU1@@Z 3022d8c0 f   ui_shared.obj
 0002:00133940       ?LayoutHash_Find@@YAPAUlayoutKeywordHash_s@@QAPAU1@PAD@Z 3022d940 f   ui_shared.obj
 0002:001339e0       ?KeywordHash_Key@@YAHPAD@Z 3022d9e0 f   ui_shared.obj
 0002:00133ad0       ?KeywordHash_Add@@YAXQAPAUkeywordHash_s@@PAU1@@Z 3022dad0 f   ui_shared.obj
 0002:00133b50       ?KeywordHash_Find@@YAPAUkeywordHash_s@@QAPAU1@PAD@Z 3022db50 f   ui_shared.obj
 0002:00133bf0       ?ItemParse_name@@YA?AW4qboolean@@PAUitemDef_s@@H@Z 3022dbf0 f   ui_shared.obj
 0002:00133c60       ?ItemParse_focusSound@@YA?AW4qboolean@@PAUitemDef_s@@H@Z 3022dc60 f   ui_shared.obj
 0002:00133d50       ?ItemParse_text@@YA?AW4qboolean@@PAUitemDef_s@@H@Z 3022dd50 f   ui_shared.obj
 0002:00133dc0       ?ItemParse_descText@@YA?AW4qboolean@@PAUitemDef_s@@H@Z 3022ddc0 f   ui_shared.obj
 0002:00133e30       ?ItemParse_text2@@YA?AW4qboolean@@PAUitemDef_s@@H@Z 3022de30 f   ui_shared.obj
 0002:00133ea0       ?ItemParse_text2alignx@@YA?AW4qboolean@@PAUitemDef_s@@H@Z 3022dea0 f   ui_shared.obj
 0002:00133f10       ?ItemParse_text2aligny@@YA?AW4qboolean@@PAUitemDef_s@@H@Z 3022df10 f   ui_shared.obj
 0002:00133f80       ?ItemParse_group@@YA?AW4qboolean@@PAUitemDef_s@@H@Z 3022df80 f   ui_shared.obj
 0002:00133ff0       ?UI_InsertG2Pointer@@YAXPAX@Z 3022dff0 f   ui_shared.obj
 0002:001340d0       ?UI_ClearG2Pointer@@YAXPAX@Z 3022e0d0 f   ui_shared.obj
 0002:00134150       ?UI_CleanupGhoul2@@YAXXZ   3022e150 f   ui_shared.obj
 0002:001341e0       ?ItemParse_asset_model_go@@YA?AW4qboolean@@PAUitemDef_s@@PBDPAH@Z 3022e1e0 f   ui_shared.obj
 0002:00134220       ?ItemParse_asset_model@@YA?AW4qboolean@@PAUitemDef_s@@H@Z 3022e220 f   ui_shared.obj
 0002:00134340       ?ItemParse_asset_shader@@YA?AW4qboolean@@PAUitemDef_s@@H@Z 3022e340 f   ui_shared.obj
 0002:00134430       ?ItemParse_model_origin@@YA?AW4qboolean@@PAUitemDef_s@@H@Z 3022e430 f   ui_shared.obj
 0002:001344f0       ?ItemParse_model_fovx@@YA?AW4qboolean@@PAUitemDef_s@@H@Z 3022e4f0 f   ui_shared.obj
 0002:00134580       ?ItemParse_model_fovy@@YA?AW4qboolean@@PAUitemDef_s@@H@Z 3022e580 f   ui_shared.obj
 0002:00134610       ?ItemParse_model_rotation@@YA?AW4qboolean@@PAUitemDef_s@@H@Z 3022e610 f   ui_shared.obj
 0002:001346a0       ?ItemParse_model_angle@@YA?AW4qboolean@@PAUitemDef_s@@H@Z 3022e6a0 f   ui_shared.obj
 0002:00134720       ?ItemParse_model_g2mins@@YA?AW4qboolean@@PAUitemDef_s@@H@Z 3022e720 f   ui_shared.obj
 0002:001347e0       ?ItemParse_model_g2maxs@@YA?AW4qboolean@@PAUitemDef_s@@H@Z 3022e7e0 f   ui_shared.obj
 0002:001348a0       ?ItemParse_model_g2scale@@YA?AW4qboolean@@PAUitemDef_s@@H@Z 3022e8a0 f   ui_shared.obj
 0002:00134960       ?ItemParse_model_g2skin@@YA?AW4qboolean@@PAUitemDef_s@@H@Z 3022e960 f   ui_shared.obj
 0002:00134a70       ?ItemParse_model_g2anim@@YA?AW4qboolean@@PAUitemDef_s@@H@Z 3022ea70 f   ui_shared.obj
 0002:00134bf0       ?ItemParse_model_g2skin_go@@YA?AW4qboolean@@PAUitemDef_s@@PBD@Z 3022ebf0 f   ui_shared.obj
 0002:00134ce0       ?ItemParse_model_g2anim_go@@YA?AW4qboolean@@PAUitemDef_s@@PBD@Z 3022ece0 f   ui_shared.obj
 0002:00134de0       ?ItemParse_rectcvar@@YA?AW4qboolean@@PAUitemDef_s@@H@Z 3022ede0 f   ui_shared.obj
 0002:00135030       ?ItemParse_rect@@YA?AW4qboolean@@PAUitemDef_s@@H@Z 3022f030 f   ui_shared.obj
 0002:001350a0       ?ItemParse_flag@@YA?AW4qboolean@@PAUitemDef_s@@H@Z 3022f0a0 f   ui_shared.obj
 0002:00135200       ?ItemParse_style@@YA?AW4qboolean@@PAUitemDef_s@@H@Z 3022f200 f   ui_shared.obj
 0002:00135280       ?ItemParse_decoration@@YA?AW4qboolean@@PAUitemDef_s@@H@Z 3022f280 f   ui_shared.obj
 0002:001352d0       ?ItemParse_notselectable@@YA?AW4qboolean@@PAUitemDef_s@@H@Z 3022f2d0 f   ui_shared.obj
 0002:00135360       ?ItemParse_scrollhidden@@YA?AW4qboolean@@PAUitemDef_s@@H@Z 3022f360 f   ui_shared.obj
 0002:001353f0       ?ItemParse_wrapped@@YA?AW4qboolean@@PAUitemDef_s@@H@Z 3022f3f0 f   ui_shared.obj
 0002:00135440       ?ItemParse_autowrapped@@YA?AW4qboolean@@PAUitemDef_s@@H@Z 3022f440 f   ui_shared.obj
 0002:00135490       ?ItemParse_horizontalscroll@@YA?AW4qboolean@@PAUitemDef_s@@H@Z 3022f490 f   ui_shared.obj
 0002:001354e0       ?ItemParse_type@@YA?AW4qboolean@@PAUitemDef_s@@H@Z 3022f4e0 f   ui_shared.obj
 0002:00135560       ?ItemParse_elementwidth@@YA?AW4qboolean@@PAUitemDef_s@@H@Z 3022f560 f   ui_shared.obj
 0002:001355f0       ?ItemParse_elementheight@@YA?AW4qboolean@@PAUitemDef_s@@H@Z 3022f5f0 f   ui_shared.obj
 0002:00135680       ?ItemParse_feeder@@YA?AW4qboolean@@PAUitemDef_s@@H@Z 3022f680 f   ui_shared.obj
 0002:001356f0       ?ItemParse_elementtype@@YA?AW4qboolean@@PAUitemDef_s@@H@Z 3022f6f0 f   ui_shared.obj
 0002:00135790       ?ItemParse_columns@@YA?AW4qboolean@@PAUitemDef_s@@H@Z 3022f790 f   ui_shared.obj
 0002:00135980       ?ItemParse_border@@YA?AW4qboolean@@PAUitemDef_s@@H@Z 3022f980 f   ui_shared.obj
 0002:001359f0       ?ItemParse_bordersize@@YA?AW4qboolean@@PAUitemDef_s@@H@Z 3022f9f0 f   ui_shared.obj
 0002:00135a60       ?ItemParse_visible@@YA?AW4qboolean@@PAUitemDef_s@@H@Z 3022fa60 f   ui_shared.obj
 0002:00135b20       ?ItemParse_ownerdraw@@YA?AW4qboolean@@PAUitemDef_s@@H@Z 3022fb20 f   ui_shared.obj
 0002:00135ba0       ?ItemParse_align@@YA?AW4qboolean@@PAUitemDef_s@@H@Z 3022fba0 f   ui_shared.obj
 0002:00135c10       ?ItemParse_isCharacter@@YA?AW4qboolean@@PAUitemDef_s@@H@Z 3022fc10 f   ui_shared.obj
 0002:00135cf0       ?ItemParse_textalign@@YA?AW4qboolean@@PAUitemDef_s@@H@Z 3022fcf0 f   ui_shared.obj
 0002:00135d70       ?ItemParse_textalignx@@YA?AW4qboolean@@PAUitemDef_s@@H@Z 3022fd70 f   ui_shared.obj
 0002:00135de0       ?ItemParse_textaligny@@YA?AW4qboolean@@PAUitemDef_s@@H@Z 3022fde0 f   ui_shared.obj
 0002:00135e50       ?ItemParse_textscale@@YA?AW4qboolean@@PAUitemDef_s@@H@Z 3022fe50 f   ui_shared.obj
 0002:00135ec0       ?ItemParse_textstyle@@YA?AW4qboolean@@PAUitemDef_s@@H@Z 3022fec0 f   ui_shared.obj
 0002:00135f30       ?ItemParse_invertyesno@@YA?AW4qboolean@@PAUitemDef_s@@H@Z 3022ff30 f   ui_shared.obj
 0002:00135fa0       ?ItemParse_xoffset@@YA?AW4qboolean@@PAUitemDef_s@@H@Z 3022ffa0 f   ui_shared.obj
 0002:00136010       ?ItemParse_backcolor@@YA?AW4qboolean@@PAUitemDef_s@@H@Z 30230010 f   ui_shared.obj
 0002:001360e0       ?ItemParse_forecolor@@YA?AW4qboolean@@PAUitemDef_s@@H@Z 302300e0 f   ui_shared.obj
 0002:001361f0       ?ItemParse_bordercolor@@YA?AW4qboolean@@PAUitemDef_s@@H@Z 302301f0 f   ui_shared.obj
 0002:001362c0       ?ItemParse_outlinecolor@@YA?AW4qboolean@@PAUitemDef_s@@H@Z 302302c0 f   ui_shared.obj
 0002:00136330       ?ItemParse_background@@YA?AW4qboolean@@PAUitemDef_s@@H@Z 30230330 f   ui_shared.obj
 0002:00136420       ?ItemParse_cinematic@@YA?AW4qboolean@@PAUitemDef_s@@H@Z 30230420 f   ui_shared.obj
 0002:00136490       ?ItemParse_doubleClick@@YA?AW4qboolean@@PAUitemDef_s@@H@Z 30230490 f   ui_shared.obj
 0002:00136530       ?ItemParse_onFocus@@YA?AW4qboolean@@PAUitemDef_s@@H@Z 30230530 f   ui_shared.obj
 0002:001365a0       ?ItemParse_leaveFocus@@YA?AW4qboolean@@PAUitemDef_s@@H@Z 302305a0 f   ui_shared.obj
 0002:00136610       ?ItemParse_mouseEnter@@YA?AW4qboolean@@PAUitemDef_s@@H@Z 30230610 f   ui_shared.obj
 0002:00136680       ?ItemParse_mouseExit@@YA?AW4qboolean@@PAUitemDef_s@@H@Z 30230680 f   ui_shared.obj
 0002:001366f0       ?ItemParse_mouseEnterText@@YA?AW4qboolean@@PAUitemDef_s@@H@Z 302306f0 f   ui_shared.obj
 0002:00136760       ?ItemParse_mouseExitText@@YA?AW4qboolean@@PAUitemDef_s@@H@Z 30230760 f   ui_shared.obj
 0002:001367d0       ?ItemParse_action@@YA?AW4qboolean@@PAUitemDef_s@@H@Z 302307d0 f   ui_shared.obj
 0002:00136840       ?ItemParse_special@@YA?AW4qboolean@@PAUitemDef_s@@H@Z 30230840 f   ui_shared.obj
 0002:001368b0       ?ItemParse_cvarTest@@YA?AW4qboolean@@PAUitemDef_s@@H@Z 302308b0 f   ui_shared.obj
 0002:00136920       ?ItemParse_cvar@@YA?AW4qboolean@@PAUitemDef_s@@H@Z 30230920 f   ui_shared.obj
 0002:00136a40       ?ItemParse_font@@YA?AW4qboolean@@PAUitemDef_s@@H@Z 30230a40 f   ui_shared.obj
 0002:00136ac0       ?ItemParse_maxChars@@YA?AW4qboolean@@PAUitemDef_s@@H@Z 30230ac0 f   ui_shared.obj
 0002:00136ba0       ?ItemParse_maxPaintChars@@YA?AW4qboolean@@PAUitemDef_s@@H@Z 30230ba0 f   ui_shared.obj
 0002:00136c80       ?ItemParse_maxLineChars@@YA?AW4qboolean@@PAUitemDef_s@@H@Z 30230c80 f   ui_shared.obj
 0002:00136d60       ?ItemParse_lineHeight@@YA?AW4qboolean@@PAUitemDef_s@@H@Z 30230d60 f   ui_shared.obj
 0002:00136e40       ?ItemParse_cvarInt@@YA?AW4qboolean@@PAUitemDef_s@@H@Z 30230e40 f   ui_shared.obj
 0002:00136fa0       ?ItemParse_cvarFloat@@YA?AW4qboolean@@PAUitemDef_s@@H@Z 30230fa0 f   ui_shared.obj
 0002:00137090       ?ItemParse_cvarStrList@@YA?AW4qboolean@@PAUitemDef_s@@H@Z 30231090 f   ui_shared.obj
 0002:001373d0       ?ItemParse_cvarFloatList@@YA?AW4qboolean@@PAUitemDef_s@@H@Z 302313d0 f   ui_shared.obj
 0002:00137650       ?ItemParse_addColorRange@@YA?AW4qboolean@@PAUitemDef_s@@H@Z 30231650 f   ui_shared.obj
 0002:00137790       ?ItemParse_ownerdrawFlag@@YA?AW4qboolean@@PAUitemDef_s@@H@Z 30231790 f   ui_shared.obj
 0002:00137840       ?ItemParse_enableCvar@@YA?AW4qboolean@@PAUitemDef_s@@H@Z 30231840 f   ui_shared.obj
 0002:001378c0       ?ItemParse_disableCvar@@YA?AW4qboolean@@PAUitemDef_s@@H@Z 302318c0 f   ui_shared.obj
 0002:00137940       ?ItemParse_showCvar@@YA?AW4qboolean@@PAUitemDef_s@@H@Z 30231940 f   ui_shared.obj
 0002:001379c0       ?ItemParse_hideCvar@@YA?AW4qboolean@@PAUitemDef_s@@H@Z 302319c0 f   ui_shared.obj
 0002:00137a40       ?ItemParse_cvarSubString@@YA?AW4qboolean@@PAUitemDef_s@@H@Z 30231a40 f   ui_shared.obj
 0002:00137a90       ?ItemParse_Appearance_slot@@YA?AW4qboolean@@PAUitemDef_s@@H@Z 30231a90 f   ui_shared.obj
 0002:00137b00       ?ItemParse_isSaber@@YA?AW4qboolean@@PAUitemDef_s@@H@Z 30231b00 f   ui_shared.obj
 0002:00137b30       ?ItemParse_isSaber2@@YA?AW4qboolean@@PAUitemDef_s@@H@Z 30231b30 f   ui_shared.obj
 0002:00137b60       ?Item_SetupKeywordHash@@YAXXZ 30231b60 f   ui_shared.obj
 0002:00137c10       ?Layout_SetupKeywordHash@@YAXXZ 30231c10 f   ui_shared.obj
 0002:00137cc0       ?Item_Parse@@YA?AW4qboolean@@HPAUitemDef_s@@@Z 30231cc0 f   ui_shared.obj
 0002:00138460       ?Item_InitControls@@YAXPAUitemDef_s@@@Z 30232460 f   ui_shared.obj
 0002:00138510       ?MenuParse_font@@YA?AW4qboolean@@PAUitemDef_s@@H@Z 30232510 f   ui_shared.obj
 0002:001385e0       ?MenuParse_name@@YA?AW4qboolean@@PAUitemDef_s@@H@Z 302325e0 f   ui_shared.obj
 0002:00138670       ?MenuParse_fullscreen@@YA?AW4qboolean@@PAUitemDef_s@@H@Z 30232670 f   ui_shared.obj
 0002:001386e0       ?MenuParse_rect@@YA?AW4qboolean@@PAUitemDef_s@@H@Z 302326e0 f   ui_shared.obj
 0002:00138750       ?MenuParse_style@@YA?AW4qboolean@@PAUitemDef_s@@H@Z 30232750 f   ui_shared.obj
 0002:001387d0       ?MenuParse_visible@@YA?AW4qboolean@@PAUitemDef_s@@H@Z 302327d0 f   ui_shared.obj
 0002:00138890       ?MenuParse_onOpen@@YA?AW4qboolean@@PAUitemDef_s@@H@Z 30232890 f   ui_shared.obj
 0002:00138900       ?MenuParse_onClose@@YA?AW4qboolean@@PAUitemDef_s@@H@Z 30232900 f   ui_shared.obj
 0002:00138970       ?MenuParse_onAccept@@YA?AW4qboolean@@PAUitemDef_s@@H@Z 30232970 f   ui_shared.obj
 0002:001389e0       ?MenuParse_onESC@@YA?AW4qboolean@@PAUitemDef_s@@H@Z 302329e0 f   ui_shared.obj
 0002:00138a50       ?MenuParse_border@@YA?AW4qboolean@@PAUitemDef_s@@H@Z 30232a50 f   ui_shared.obj
 0002:00138ac0       ?MenuParse_borderSize@@YA?AW4qboolean@@PAUitemDef_s@@H@Z 30232ac0 f   ui_shared.obj
 0002:00138b30       ?MenuParse_backcolor@@YA?AW4qboolean@@PAUitemDef_s@@H@Z 30232b30 f   ui_shared.obj
 0002:00138c00       ?MenuParse_descAlignment@@YA?AW4qboolean@@PAUitemDef_s@@H@Z 30232c00 f   ui_shared.obj
 0002:00138c80       ?MenuParse_descX@@YA?AW4qboolean@@PAUitemDef_s@@H@Z 30232c80 f   ui_shared.obj
 0002:00138cf0       ?MenuParse_descY@@YA?AW4qboolean@@PAUitemDef_s@@H@Z 30232cf0 f   ui_shared.obj
 0002:00138d60       ?MenuParse_descScale@@YA?AW4qboolean@@PAUitemDef_s@@H@Z 30232d60 f   ui_shared.obj
 0002:00138dd0       ?MenuParse_descColor@@YA?AW4qboolean@@PAUitemDef_s@@H@Z 30232dd0 f   ui_shared.obj
 0002:00138ea0       ?MenuParse_forecolor@@YA?AW4qboolean@@PAUitemDef_s@@H@Z 30232ea0 f   ui_shared.obj
 0002:00138fc0       ?MenuParse_bordercolor@@YA?AW4qboolean@@PAUitemDef_s@@H@Z 30232fc0 f   ui_shared.obj
 0002:00139090       ?MenuParse_focuscolor@@YA?AW4qboolean@@PAUitemDef_s@@H@Z 30233090 f   ui_shared.obj
 0002:00139160       ?MenuParse_disablecolor@@YA?AW4qboolean@@PAUitemDef_s@@H@Z 30233160 f   ui_shared.obj
 0002:00139230       ?MenuParse_outlinecolor@@YA?AW4qboolean@@PAUitemDef_s@@H@Z 30233230 f   ui_shared.obj
 0002:001392a0       ?MenuParse_background@@YA?AW4qboolean@@PAUitemDef_s@@H@Z 302332a0 f   ui_shared.obj
 0002:001393a0       ?MenuParse_cinematic@@YA?AW4qboolean@@PAUitemDef_s@@H@Z 302333a0 f   ui_shared.obj
 0002:00139410       ?MenuParse_ownerdrawFlag@@YA?AW4qboolean@@PAUitemDef_s@@H@Z 30233410 f   ui_shared.obj
 0002:001394d0       ?MenuParse_ownerdraw@@YA?AW4qboolean@@PAUitemDef_s@@H@Z 302334d0 f   ui_shared.obj
 0002:00139540       ?MenuParse_popup@@YA?AW4qboolean@@PAUitemDef_s@@H@Z 30233540 f   ui_shared.obj
 0002:001395a0       ?MenuParse_outOfBounds@@YA?AW4qboolean@@PAUitemDef_s@@H@Z 302335a0 f   ui_shared.obj
 0002:00139600       ?MenuParse_soundLoop@@YA?AW4qboolean@@PAUitemDef_s@@H@Z 30233600 f   ui_shared.obj
 0002:00139670       ?MenuParse_fadeClamp@@YA?AW4qboolean@@PAUitemDef_s@@H@Z 30233670 f   ui_shared.obj
 0002:001396e0       ?MenuParse_fadeAmount@@YA?AW4qboolean@@PAUitemDef_s@@H@Z 302336e0 f   ui_shared.obj
 0002:00139750       ?MenuParse_fadeCycle@@YA?AW4qboolean@@PAUitemDef_s@@H@Z 30233750 f   ui_shared.obj
 0002:001397c0       ?MenuParse_appearanceIncrement@@YA?AW4qboolean@@PAUitemDef_s@@H@Z 302337c0 f   ui_shared.obj
 0002:00139830       ?MenuParse_itemDef@@YA?AW4qboolean@@PAUitemDef_s@@H@Z 30233830 f   ui_shared.obj
 0002:00139980       ?ContainerParse_StackPanel@@YA_NPAVContainerElement@@PAUmenuDef_t@@H@Z 30233980 f   ui_shared.obj
 0002:00139d90       ?SetRectangle@UIElement@@QAEXVRectangle@@@Z 30233d90 f i ui_shared.obj
 0002:00139df0       ?AddOldElement@ContainerElement@@QAEXPAUitemDef_s@@@Z 30233df0 f i ui_shared.obj
 0002:00139e50       ?AddElement@ContainerElement@@QAEXPAVUIElement@@@Z 30233e50 f i ui_shared.obj
 0002:00139eb0       ?SetOrientation@StackPanel@@QAEXW4Orientation@@@Z 30233eb0 f i ui_shared.obj
 0002:00139f00       ?MenuParse_stackPanel@@YA?AW4qboolean@@PAUitemDef_s@@H@Z 30233f00 f   ui_shared.obj
 0002:0013a360       ?Menu_SetupKeywordHash@@YAXXZ 30234360 f   ui_shared.obj
 0002:0013a410       ?Menu_Parse@@YA?AW4qboolean@@HPAUmenuDef_t@@@Z 30234410 f   ui_shared.obj
 0002:0013a5f0       ?Menu_New@@YAXH@Z          302345f0 f   ui_shared.obj
 0002:0013a6a0       ?Menu_Count@@YAHXZ         302346a0 f   ui_shared.obj
 0002:0013a6e0       ?Menu_PaintAll@@YAXXZ      302346e0 f   ui_shared.obj
 0002:0013a910       ?Menu_Reset@@YAXXZ         30234910 f   ui_shared.obj
 0002:0013a950       ?Display_GetContext@@YAPAUdisplayContextDef_t@@XZ 30234950 f   ui_shared.obj
 0002:0013a990       ?Display_CaptureItem@@YAPAXHH@Z 30234990 f   ui_shared.obj
 0002:0013aa40       ?Display_MouseMove@@YA?AW4qboolean@@PAXHH@Z 30234a40 f   ui_shared.obj
 0002:0013ab70       ?Display_CursorType@@YAHHH@Z 30234b70 f   ui_shared.obj
 0002:0013aca0       ?Display_HandleKey@@YAXHW4qboolean@@HH@Z 30234ca0 f   ui_shared.obj
 0002:0013ad30       ?Display_CacheAll@@YAXXZ   30234d30 f   ui_shared.obj
 0002:0013b190       ?push_back@?$list@PAVUIElement@@V?$allocator@PAVUIElement@@@std@@@std@@QAEXABQAVUIElement@@@Z 30235190 f i ui_shared.obj
 0002:0013b290       ?push_back@?$list@PAUitemDef_s@@V?$allocator@PAUitemDef_s@@@std@@@std@@QAEXABQAUitemDef_s@@@Z 30235290 f i ui_shared.obj
 0002:0013b390       ??0?$_List_const_iterator@V?$_List_val@PAUitemDef_s@@V?$allocator@PAUitemDef_s@@@std@@@std@@@std@@QAE@XZ 30235390 f i ui_shared.obj
 0002:0013b3f0       ??0?$_List_unchecked_const_iterator@V?$_List_val@PAUitemDef_s@@V?$allocator@PAUitemDef_s@@@std@@@std@@U_Iterator_base12@2@@std@@QAE@XZ 302353f0 f i ui_shared.obj
 0002:0013b450       ??0menuDef_t@@QAE@XZ       30235450 f i ui_shared.obj
 0002:0013b4b0       ?WalkerYawAdjust@@YAXPAUVehicle_s@@PAUplayerState_s@@1@Z 302354b0 f   WalkerNPC.obj
 0002:0013b710       ?G_SetWalkerVehicleFunctions@@YAXPAUvehicleInfo_t@@@Z 30235710 f   WalkerNPC.obj
 0002:0013be40       ?G_CreateWalkerNPC@@YAXPAPAUVehicle_s@@PBD@Z 30235e40 f   WalkerNPC.obj
 0002:0013bef0       ?RegisterEffect@@YAHPAUSQVM@@@Z 30235ef0 f   Squirrel.obj
 0002:0013bf90       ??0StackHandler@@QAE@PAUSQVM@@@Z 30235f90 f i Squirrel.obj
 0002:0013c000       ?GetString@StackHandler@@QAEPBDH@Z 30236000 f i Squirrel.obj
 0002:0013c0c0       ?RegisterSound@@YAHPAUSQVM@@@Z 302360c0 f   Squirrel.obj
 0002:0013c160       ?RegisterModel@@YAHPAUSQVM@@@Z 30236160 f   Squirrel.obj
 0002:0013c200       ?printfunc@@YAXPAUSQVM@@PBDZZ 30236200 f   Squirrel.obj
 0002:0013c2e0       ?LoadSquirrel@@YAXXZ       302362e0 f   Squirrel.obj
 0002:0013c660       ?GetVMPtr@SquirrelVM@@SAPAUSQVM@@XZ 30236660 f i Squirrel.obj
 0002:0013c6a0       ?SetMuzzleEffect@E11Test@@SAXH@Z 302366a0 f i Squirrel.obj
 0002:0013c6e0       ?SetSelectSound@E11Test@@SAXH@Z 302366e0 f i Squirrel.obj
 0002:0013c720       ?SetFlashSound@E11Test@@SAXH@Z 30236720 f i Squirrel.obj
 0002:0013c760       ?SetFiringSound@E11Test@@SAXH@Z 30236760 f i Squirrel.obj
 0002:0013c7a0       ?SetChargeSound@E11Test@@SAXH@Z 302367a0 f i Squirrel.obj
 0002:0013c7e0       ?SetMissileSound@E11Test@@SAXH@Z 302367e0 f i Squirrel.obj
 0002:0013c820       ?SetMissileHitSound@E11Test@@SAXH@Z 30236820 f i Squirrel.obj
 0002:0013c860       ?SetAltFlashSound@E11Test@@SAXH@Z 30236860 f i Squirrel.obj
 0002:0013c8a0       ?SetAltFiringSound@E11Test@@SAXH@Z 302368a0 f i Squirrel.obj
 0002:0013c8e0       ?SetAltChargeSound@E11Test@@SAXH@Z 302368e0 f i Squirrel.obj
 0002:0013c920       ?SetAltMuzzleEffect@E11Test@@SAXH@Z 30236920 f i Squirrel.obj
 0002:0013c960       ?SetAltMissileSound@E11Test@@SAXH@Z 30236960 f i Squirrel.obj
 0002:0013c9a0       ?SetWallImpactEffect@E11Test@@SAXH@Z 302369a0 f i Squirrel.obj
 0002:0013c9e0       ?SetFleshImpactEffect@E11Test@@SAXH@Z 302369e0 f i Squirrel.obj
 0002:0013ca20       ?SetDroidImpactEffect@E11Test@@SAXH@Z 30236a20 f i Squirrel.obj
 0002:0013ca60       ?SetShotEffect@E11Test@@SAXH@Z 30236a60 f i Squirrel.obj
 0002:0013caa0       ?SetAltMissileHitSound@E11Test@@SAXH@Z 30236aa0 f i Squirrel.obj
 0002:0013cae0       ?SetMissileModel@E11Test@@SAXH@Z 30236ae0 f i Squirrel.obj
 0002:0013cb20       ?SetAltMissileModel@E11Test@@SAXH@Z 30236b20 f i Squirrel.obj
 0002:0013cb60       ?SetMissileDLight@E11Test@@SAXM@Z 30236b60 f i Squirrel.obj
 0002:0013cba0       ?SetAltMissileDLight@E11Test@@SAXM@Z 30236ba0 f i Squirrel.obj
 0002:0013cbe0       ?Register@EffectManager@@SAHPAUSQVM@@@Z 30236be0 f i Squirrel.obj
 0002:0013cc80       ??1?$SQClassDef@VE11Test@@USQNoBaseClass@SqPlus@@@SqPlus@@QAE@XZ 30236c80 f i Squirrel.obj
 0002:0013ccd0       ??1?$SQClassDef@VEffectManager@@USQNoBaseClass@SqPlus@@@SqPlus@@QAE@XZ 30236cd0 f i Squirrel.obj
 0002:0013cd20       ??1?$SQClassDefBase@VE11Test@@USQNoBaseClass@SqPlus@@@SqPlus@@QAE@XZ 30236d20 f i Squirrel.obj
 0002:0013cde0       ??1?$SQClassDefBase@VEffectManager@@USQNoBaseClass@SqPlus@@@SqPlus@@QAE@XZ 30236de0 f i Squirrel.obj
 0002:0013cea0       ??1FunctionNameEnumerator@?$SQClassDefBase@VE11Test@@USQNoBaseClass@SqPlus@@@SqPlus@@QAE@XZ 30236ea0 f i Squirrel.obj
 0002:0013cef0       ??1FunctionNameEnumerator@?$SQClassDefBase@VEffectManager@@USQNoBaseClass@SqPlus@@@SqPlus@@QAE@XZ 30236ef0 f i Squirrel.obj
 0002:0013cf40       ?CloseSquirrel@@YAXXZ      30236f40 f   Squirrel.obj
 0002:0013cf90       ?Shutdown@SquirrelVM@@SAXXZ 30236f90 f i Squirrel.obj
 0002:0013cfe0       ?RunScript@@YAXPBD@Z       30236fe0 f   Squirrel.obj
 0002:0013d1f0       ?RunFunction@@YAXPBD@Z     302371f0 f   Squirrel.obj
 0002:0013d330       ??1?$SquirrelFunction@X@SqPlus@@QAE@XZ 30237330 f i Squirrel.obj
 0002:0013d3e0       ??0?$SQClassDef@VE11Test@@USQNoBaseClass@SqPlus@@@SqPlus@@QAE@PBD0@Z 302373e0 f i Squirrel.obj
 0002:0013d500       ??0?$SQClassDef@VEffectManager@@USQNoBaseClass@SqPlus@@@SqPlus@@QAE@PBD0@Z 30237500 f i Squirrel.obj
 0002:0013d620       ??0?$SquirrelFunction@X@SqPlus@@QAE@PBD@Z 30237620 f i Squirrel.obj
 0002:0013d760       ??R?$SquirrelFunction@X@SqPlus@@QAEXXZ 30237760 f i Squirrel.obj
 0002:0013d870       ?GetObjectHandle@SquirrelObject@@QBEAAUtagSQObject@@XZ 30237870 f i Squirrel.obj
 0002:0013d8b0       ??0SquirrelError@@QAE@PBD@Z 302378b0 f i Squirrel.obj
 0002:0013d900       ?GetRet@SqPlus@@YAXU?$TypeWrapper@X@1@PAUSQVM@@H@Z 30237900 f i Squirrel.obj
 0002:0013d950       ??0?$SQClassDefBase@VE11Test@@USQNoBaseClass@SqPlus@@@SqPlus@@QAE@PBD0@Z 30237950 f i Squirrel.obj
 0002:0013da60       ??0?$SQClassDefBase@VEffectManager@@USQNoBaseClass@SqPlus@@@SqPlus@@QAE@PBD0@Z 30237a60 f i Squirrel.obj
 0002:0013db70       ?InitBase@?$SQClassDefBase@VE11Test@@USQNoBaseClass@SqPlus@@@SqPlus@@QAEXU?$TypeWrapper@USQNoBaseClass@SqPlus@@@2@@Z 30237b70 f i Squirrel.obj
 0002:0013dbd0       ??0FunctionNameEnumerator@?$SQClassDefBase@VE11Test@@USQNoBaseClass@SqPlus@@@SqPlus@@QAE@XZ 30237bd0 f i Squirrel.obj
 0002:0013dc30       ?InitBase@?$SQClassDefBase@VEffectManager@@USQNoBaseClass@SqPlus@@@SqPlus@@QAEXU?$TypeWrapper@USQNoBaseClass@SqPlus@@@2@@Z 30237c30 f i Squirrel.obj
 0002:0013dc90       ??0FunctionNameEnumerator@?$SQClassDefBase@VEffectManager@@USQNoBaseClass@SqPlus@@@SqPlus@@QAE@XZ 30237c90 f i Squirrel.obj
 0002:0013dcf0       ?CheckInitDefaultNames@?$SQClassDefBase@VE11Test@@USQNoBaseClass@SqPlus@@@SqPlus@@QAEXXZ 30237cf0 f i Squirrel.obj
 0002:0013dd80       ??0?$TypeInfo@USQNoBaseClass@SqPlus@@@SqPlus@@QAE@XZ 30237d80 f i Squirrel.obj
 0002:0013ddd0       ?CheckInitDefaultNames@?$SQClassDefBase@VEffectManager@@USQNoBaseClass@SqPlus@@@SqPlus@@QAEXXZ 30237dd0 f i Squirrel.obj
 0002:0013de60       ??$RegisterGlobal@P6AHPAUSQVM@@@Z@SqPlus@@YAXP6AHPAUSQVM@@@ZPBD@Z 30237e60 f i Squirrel.obj
 0002:0013dec0       ??$BindConstant@H@SqPlus@@YAXHPBD@Z 30237ec0 f i Squirrel.obj
 0002:0013dfb0       ??$staticFunc@P6AXH@Z@?$SQClassDefBase@VE11Test@@USQNoBaseClass@SqPlus@@@SqPlus@@QAEAAU01@P6AXH@ZPBD@Z 30237fb0 f i Squirrel.obj
 0002:0013e030       ??$staticFunc@P6AXM@Z@?$SQClassDefBase@VE11Test@@USQNoBaseClass@SqPlus@@@SqPlus@@QAEAAU01@P6AXM@ZPBD@Z 30238030 f i Squirrel.obj
 0002:0013e0b0       ??$staticFunc@P6AHPAUSQVM@@@Z@?$SQClassDefBase@VEffectManager@@USQNoBaseClass@SqPlus@@@SqPlus@@QAEAAU01@P6AHPAUSQVM@@@ZPBD@Z 302380b0 f i Squirrel.obj
 0002:0013e130       ??$RegisterClassType@VE11Test@@@SqPlus@@YA?AVSquirrelObject@@PAUSQVM@@PBD1@Z 30238130 f i Squirrel.obj
 0002:0013e2f0       ?setupClassHierarchy@SqPlus@@YAXVSquirrelObject@@@Z 302382f0 f i Squirrel.obj
 0002:0013e540       ??$RegisterClassType@VEffectManager@@@SqPlus@@YA?AVSquirrelObject@@PAUSQVM@@PBD1@Z 30238540 f i Squirrel.obj
 0002:0013e700       ?type@?$ClassType@VE11Test@@@SqPlus@@SAPAU?$ClassTypeCopyImpl@VE11Test@@$00@2@XZ 30238700 f i Squirrel.obj
 0002:0013e750       ?construct@?$ConstructReleaseClass@VE11Test@@@SqPlus@@SAHPAUSQVM@@@Z 30238750 f i Squirrel.obj
 0002:0013e850       ??0E11Test@@QAE@XZ         30238850 f i Squirrel.obj
 0002:0013e890       ?type@?$ClassType@VEffectManager@@@SqPlus@@SAPAU?$ClassTypeCopyImpl@VEffectManager@@$00@2@XZ 30238890 f i Squirrel.obj
 0002:0013e8e0       ?construct@?$ConstructReleaseClass@VEffectManager@@@SqPlus@@SAHPAUSQVM@@@Z 302388e0 f i Squirrel.obj
 0002:0013e9b0       ?Get@?$ClassType@VE11Test@@@SqPlus@@SAPAU12@XZ 302389b0 f i Squirrel.obj
 0002:0013ea70       ?release@?$ConstructReleaseClass@VE11Test@@@SqPlus@@SAHPAXH@Z 30238a70 f i Squirrel.obj
 0002:0013eae0       ?Get@?$ClassType@VEffectManager@@@SqPlus@@SAPAU12@XZ 30238ae0 f i Squirrel.obj
 0002:0013eba0       ?release@?$ConstructReleaseClass@VEffectManager@@@SqPlus@@SAHPAXH@Z 30238ba0 f i Squirrel.obj
 0002:0013ec10       ??0?$ClassType@VE11Test@@@SqPlus@@QAE@XZ 30238c10 f i Squirrel.obj
 0002:0013ec80       ?vgetCopyFunc@?$ClassType@VE11Test@@@SqPlus@@UAEP6AXPAX0@ZXZ 30238c80 f i Squirrel.obj
 0002:0013ecc0       ?GetTypeName@?$ClassType@VE11Test@@@SqPlus@@UAEPBDXZ 30238cc0 f i Squirrel.obj
 0002:0013ed00       ?copy@?$ClassTypeCopyImpl@VE11Test@@$00@SqPlus@@SAXPAVE11Test@@0@Z 30238d00 f i Squirrel.obj
 0002:0013ed30       ??0?$ClassType@VEffectManager@@@SqPlus@@QAE@XZ 30238d30 f i Squirrel.obj
 0002:0013eda0       ?vgetCopyFunc@?$ClassType@VEffectManager@@@SqPlus@@UAEP6AXPAX0@ZXZ 30238da0 f i Squirrel.obj
 0002:0013ede0       ?GetTypeName@?$ClassType@VEffectManager@@@SqPlus@@UAEPBDXZ 30238de0 f i Squirrel.obj
 0002:0013ee20       ?copy@?$ClassTypeCopyImpl@VEffectManager@@$00@SqPlus@@SAXPAVEffectManager@@0@Z 30238e20 f i Squirrel.obj
 0002:0013ee50       ??0?$ClassTypeCopyImpl@VE11Test@@$00@SqPlus@@QAE@XZ 30238e50 f i Squirrel.obj
 0002:0013eeb0       ??0ClassTypeBase@SqPlus@@QAE@XZ 30238eb0 f i Squirrel.obj
 0002:0013ef30       ??0?$ClassTypeCopyImpl@VEffectManager@@$00@SqPlus@@QAE@XZ 30238f30 f i Squirrel.obj
 0002:0013ef90       ?stGetName@?$ClassType@VE11Test@@@SqPlus@@SAPBDXZ 30238f90 f i Squirrel.obj
 0002:0013efd0       ?stGetName@?$ClassType@VEffectManager@@@SqPlus@@SAPBDXZ 30238fd0 f i Squirrel.obj
 0002:0013f010       ??$RegisterGlobal@P6AHPAUSQVM@@@Z@SqPlus@@YAXPAUSQVM@@P6AH0@ZPBD@Z 30239010 f i Squirrel.obj
 0002:0013f090       ??$BindConstant@H@SqPlus@@YAXAAVSquirrelObject@@HPBD@Z 30239090 f i Squirrel.obj
 0002:0013f1b0       ??0?$TypeInfo@H@SqPlus@@QAE@XZ 302391b0 f i Squirrel.obj
 0002:0013f200       ??B?$TypeInfo@H@SqPlus@@QAE?AW4ScriptVarType@1@XZ 30239200 f i Squirrel.obj
 0002:0013f240       ??0VarRef@SqPlus@@QAE@PAXW4ScriptVarType@1@PAUClassTypeBase@1@2HW4VarAccessType@1@@Z 30239240 f i Squirrel.obj
 0002:0013f470       ?createTableSetGetHandlers@SqPlus@@YAXAAVSquirrelObject@@@Z 30239470 f i Squirrel.obj
 0002:0013f640       ?createVarRef@SqPlus@@YAPAUVarRef@1@AAVSquirrelObject@@PBD@Z 30239640 f i Squirrel.obj
 0002:0013f7d0       ??BScriptStringVarBase@SqPlus@@QAEPADXZ 302397d0 f i Squirrel.obj
 0002:0013f810       ?getVarNameTag@SqPlus@@YAXPADHPBD@Z 30239810 f i Squirrel.obj
 0002:0013f8c0       ??0?$ScriptStringVar@$0BAA@@SqPlus@@QAE@XZ 302398c0 f i Squirrel.obj
 0002:0013f930       ??0ScriptStringVarBase@SqPlus@@QAE@H@Z 30239930 f i Squirrel.obj
 0002:0013f980       ??$Register@P6AXH@Z@SqPlus@@YAXPAUSQVM@@UtagSQObject@@P6AXH@ZPBD@Z 30239980 f i Squirrel.obj
 0002:0013fa00       ??$Register@P6AXM@Z@SqPlus@@YAXPAUSQVM@@UtagSQObject@@P6AXM@ZPBD@Z 30239a00 f i Squirrel.obj
 0002:0013fa80       ??$Register@P6AHPAUSQVM@@@Z@SqPlus@@YAXPAUSQVM@@UtagSQObject@@P6AH0@ZPBD@Z 30239a80 f i Squirrel.obj
 0002:0013fb00       ??$?0VSquirrelObject@@@SquirrelObject@@QAE@AAV0@@Z 30239b00 f i Squirrel.obj
 0002:0013fb80       ??$PostConstruct@VE11Test@@@SqPlus@@YAHPAUSQVM@@PAVE11Test@@P6AHPAXH@Z@Z 30239b80 f i Squirrel.obj
 0002:0013fd00       ?GetObjectHandle@StackHandler@@QAE?AUtagSQObject@@H@Z 30239d00 f i Squirrel.obj
 0002:0013fe10       ??$PostConstruct@VEffectManager@@@SqPlus@@YAHPAUSQVM@@PAVEffectManager@@P6AHPAXH@Z@Z 30239e10 f i Squirrel.obj
 0002:0013ff90       ??_GSquirrelObject@@UAEPAXI@Z 30239f90 f i Squirrel.obj
 0002:0013ff90       ??_ESquirrelObject@@UAEPAXI@Z 30239f90 f i Squirrel.obj
 0002:00140000       ?type@?$ClassType@H@SqPlus@@SAPAU?$ClassTypeCopyImpl@H$00@2@XZ 3023a000 f i Squirrel.obj
 0002:00140050       ?Get@?$ClassType@H@SqPlus@@SAPAU12@XZ 3023a050 f i Squirrel.obj
 0002:00140110       ??0?$ClassType@H@SqPlus@@QAE@XZ 3023a110 f i Squirrel.obj
 0002:00140180       ?vgetCopyFunc@?$ClassType@H@SqPlus@@UAEP6AXPAX0@ZXZ 3023a180 f i Squirrel.obj
 0002:001401c0       ?GetTypeName@?$ClassType@H@SqPlus@@UAEPBDXZ 3023a1c0 f i Squirrel.obj
 0002:00140200       ?copy@?$ClassTypeCopyImpl@H$00@SqPlus@@SAXPAH0@Z 3023a200 f i Squirrel.obj
 0002:00140240       ??0?$ClassTypeCopyImpl@H$00@SqPlus@@QAE@XZ 3023a240 f i Squirrel.obj
 0002:001402a0       ?stGetName@?$ClassType@H@SqPlus@@SAPBDXZ 3023a2a0 f i Squirrel.obj
 0002:001402f0       ??$Register@P6AHPAUSQVM@@@Z@SqPlus@@YAXPAUSQVM@@P6AH0@ZPBD@Z 3023a2f0 f i Squirrel.obj
 0002:00140370       ??$validateConstantType@H@SqPlus@@YAXH@Z 3023a370 f i Squirrel.obj
 0002:00140430       ??$Register@P6AXH@Z@SqPlus@@YAXPAUSQVM@@P6AXH@ZPBD@Z 3023a430 f i Squirrel.obj
 0002:001404b0       ??$Register@P6AXM@Z@SqPlus@@YAXPAUSQVM@@P6AXM@ZPBD@Z 3023a4b0 f i Squirrel.obj
 0002:00140530       ??$Set@VSquirrelObject@@@SquirrelObject@@QAEAAV0@AAV0@@Z 3023a530 f i Squirrel.obj
 0002:001405b0       ?Push@SqPlus@@YAXPAUSQVM@@AAVSquirrelObject@@@Z 3023a5b0 f i Squirrel.obj
 0002:00140610       ??$PopulateAncestry@VE11Test@@@SqPlus@@YAXPAUSQVM@@AAVSquirrelObject@@PAVE11Test@@@Z 3023a610 f i Squirrel.obj
 0002:00140860       ??$PopulateAncestry@VEffectManager@@@SqPlus@@YAXPAUSQVM@@AAVSquirrelObject@@PAVEffectManager@@@Z 3023a860 f i Squirrel.obj
 0002:00140ab0       ??$sq_pushdirectclosure@P6AHPAUSQVM@@@Z@SqPlus@@YAXPAUSQVM@@P6AH0@ZI@Z 3023aab0 f i Squirrel.obj
 0002:00140b40       ??$sq_pushdirectclosure@P6AXH@Z@SqPlus@@YAXPAUSQVM@@P6AXH@ZI@Z 3023ab40 f i Squirrel.obj
 0002:00140bd0       ??$sq_pushdirectclosure@P6AXM@Z@SqPlus@@YAXPAUSQVM@@P6AXM@ZI@Z 3023abd0 f i Squirrel.obj
 0002:00140c60       ?Dispatch@?$DirectCallFunction@P6AHPAUSQVM@@@Z@SqPlus@@SAHPAUSQVM@@@Z 3023ac60 f i Squirrel.obj
 0002:00140d20       ?GetUserData@StackHandler@@QAEPAXHPAX@Z 3023ad20 f i Squirrel.obj
 0002:00140e00       ?GetParamCount@StackHandler@@QAEHXZ 3023ae00 f i Squirrel.obj
 0002:00140e40       ?Dispatch@?$DirectCallFunction@P6AXH@Z@SqPlus@@SAHPAUSQVM@@@Z 3023ae40 f i Squirrel.obj
 0002:00140f00       ?Dispatch@?$DirectCallFunction@P6AXM@Z@SqPlus@@SAHPAUSQVM@@@Z 3023af00 f i Squirrel.obj
 0002:00140fc0       ??$Call@HPAUSQVM@@@SqPlus@@YAHP6AHPAUSQVM@@@Z0H@Z 3023afc0 f i Squirrel.obj
 0002:00141020       ??$Call@XH@SqPlus@@YAHP6AXH@ZPAUSQVM@@H@Z 3023b020 f i Squirrel.obj
 0002:00141080       ??$Call@XM@SqPlus@@YAHP6AXM@ZPAUSQVM@@H@Z 3023b080 f i Squirrel.obj
 0002:001410e0       ??$Call@PAUSQVM@@@?$ReturnSpecialization@H@SqPlus@@SAHP6AHPAUSQVM@@@Z0H@Z 3023b0e0 f i Squirrel.obj
 0002:001411d0       ?Push@SqPlus@@YAXPAUSQVM@@H@Z 3023b1d0 f i Squirrel.obj
 0002:00141230       ?Match@SqPlus@@YA_NU?$TypeWrapper@PAUSQVM@@@1@PAUSQVM@@H@Z 3023b230 f i Squirrel.obj
 0002:00141260       ?Get@SqPlus@@YAPAUSQVM@@U?$TypeWrapper@PAUSQVM@@@1@PAU2@H@Z 3023b260 f i Squirrel.obj
 0002:001412c0       ??$Call@H@?$ReturnSpecialization@X@SqPlus@@SAHP6AXH@ZPAUSQVM@@H@Z 3023b2c0 f i Squirrel.obj
 0002:00141390       ?Match@SqPlus@@YA_NU?$TypeWrapper@H@1@PAUSQVM@@H@Z 3023b390 f i Squirrel.obj
 0002:00141400       ?Get@SqPlus@@YAHU?$TypeWrapper@H@1@PAUSQVM@@H@Z 3023b400 f i Squirrel.obj
 0002:001414d0       ??$Call@M@?$ReturnSpecialization@X@SqPlus@@SAHP6AXM@ZPAUSQVM@@H@Z 3023b4d0 f i Squirrel.obj
 0002:001415a0       ?Match@SqPlus@@YA_NU?$TypeWrapper@M@1@PAUSQVM@@H@Z 3023b5a0 f i Squirrel.obj
 0002:00141610       ?Get@SqPlus@@YAMU?$TypeWrapper@M@1@PAUSQVM@@H@Z 3023b610 f i Squirrel.obj
 0002:001416e0       __RTC_CheckEsp             3023b6e0 f   LIBCMTD:_stack_.obj
 0002:00141710       @_RTC_CheckStackVars@8     3023b710 f   LIBCMTD:_stack_.obj
 0002:00141790       @_RTC_AllocaHelper@12      3023b790 f   LIBCMTD:_stack_.obj
 0002:001417d0       @_RTC_CheckStackVars2@12   3023b7d0 f   LIBCMTD:_stack_.obj
 0002:001418e0       __RTC_InitBase             3023b8e0 f   LIBCMTD:_init_.obj
 0002:00141920       __RTC_Shutdown             3023b920 f   LIBCMTD:_init_.obj
 0002:00141940       __fpmath                   3023b940 f   LIBCMTD:_fpinit_.obj
 0002:00141960       __cfltcvt_init             3023b960 f   LIBCMTD:_fpinit_.obj
 0002:001419f0       ___setfflag                3023b9f0 f   LIBCMTD:_fpinit_.obj
 0002:00141a20       _memset                    3023ba20 f   LIBCMTD:memset.obj
 0002:00141ac0       @__security_check_cookie@4 3023bac0 f   LIBCMTD:secchk.obj
 0002:00141ae0       __atof_l                   3023bae0 f   LIBCMTD:atof.obj
 0002:00141c60       ??0_LocaleUpdate@@QAE@PAUlocaleinfo_struct@@@Z 3023bc60 f i LIBCMTD:atof.obj
 0002:00141d70       ??1_LocaleUpdate@@QAE@XZ   3023bd70 f i LIBCMTD:atof.obj
 0002:00141db0       ?GetLocaleT@_LocaleUpdate@@QAEPAUlocaleinfo_struct@@XZ 3023bdb0 f i LIBCMTD:atof.obj
 0002:00141dd0       _atof                      3023bdd0 f   LIBCMTD:atof.obj
 0002:00141df0       ___strgtold12              3023bdf0 f   LIBCMTD:atof.obj
 0002:00141e60       ___STRINGTOLD              3023be60 f   LIBCMTD:atof.obj
 0002:00141ec0       _atol                      3023bec0 f   LIBCMTD:atox.obj
 0002:00141ee0       __atol_l                   3023bee0 f   LIBCMTD:atox.obj
 0002:00141f10       _atoi                      3023bf10 f   LIBCMTD:atox.obj
 0002:00141f30       __atoi_l                   3023bf30 f   LIBCMTD:atox.obj
 0002:00141f50       __atoi64                   3023bf50 f   LIBCMTD:atox.obj
 0002:00141f70       __atoi64_l                 3023bf70 f   LIBCMTD:atox.obj
 0002:00141fa0       _sscanf                    3023bfa0 f   LIBCMTD:sscanf.obj
 0002:00142190       __sscanf_l                 3023c190 f   LIBCMTD:sscanf.obj
 0002:001421d0       _sscanf_s                  3023c1d0 f   LIBCMTD:sscanf.obj
 0002:00142210       __sscanf_s_l               3023c210 f   LIBCMTD:sscanf.obj
 0002:00142250       _strcpy                    3023c250 f   LIBCMTD:strcat.obj
 0002:00142260       _strcat                    3023c260 f   LIBCMTD:strcat.obj
 0002:00142390       _strlen                    3023c390 f   LIBCMTD:strlen.obj
 0002:00142440       _atan2                     3023c440 f   LIBCMTD:_87ctriga_.obj
 0002:0014244a       __CIatan2                  3023c44a f   LIBCMTD:_87ctriga_.obj
 0002:00142460       _cos                       3023c460 f   LIBCMTD:_cos_.obj
 0002:001424a0       __CIcos                    3023c4a0 f   LIBCMTD:_cos_.obj
 0002:001424db       __CIcos_default            3023c4db f   LIBCMTD:_cos_.obj
 0002:001424ef       __cos_default              3023c4ef     LIBCMTD:_cos_.obj
 0002:001425e0       _sin                       3023c5e0 f   LIBCMTD:_sin_.obj
 0002:00142620       __CIsin                    3023c620 f   LIBCMTD:_sin_.obj
 0002:0014265b       __CIsin_default            3023c65b f   LIBCMTD:_sin_.obj
 0002:0014266f       __sin_default              3023c66f     LIBCMTD:_sin_.obj
 0002:00142760       _fabs                      3023c760 f   LIBCMTD:_fabs_.obj
 0002:001428b0       _strchr                    3023c8b0 f   LIBCMTD:strchr.obj
 0002:001428b6       ___from_strstr_to_strchr   3023c8b6     LIBCMTD:strchr.obj
 0002:001429b0       __wassert                  3023c9b0 f   LIBCMTD:wassert.obj
 0002:00143820       __invoke_watson_if_error   3023d820 f i LIBCMTD:wassert.obj
 0002:001438b0       __ftol2_sse                3023d8b0 f   LIBCMTD:ftol2.obj
 0002:001438b9       __ftol2_pentium4           3023d8b9 f   LIBCMTD:ftol2.obj
 0002:001438cc       __ftol2_sse_excpt          3023d8cc f   LIBCMTD:ftol2.obj
 0002:001438e6       __ftol2                    3023d8e6 f   LIBCMTD:ftol2.obj
 0002:00143990       _strstr                    3023d990 f   LIBCMTD:strstr.obj
 0002:00143a40       __chkstk                   3023da40 f   LIBCMTD:chkstk.obj
 0002:00143a40       __alloca_probe             3023da40     LIBCMTD:chkstk.obj
 0002:00143a80       _ceil                      3023da80 f   LIBCMTD:_ceil_pentium4_.obj
 0002:00143ac0       __ceil_pentium4            3023dac0 f   LIBCMTD:_ceil_pentium4_.obj
 0002:00143bf0       _floor                     3023dbf0 f   LIBCMTD:_floor_pentium4_.obj
 0002:00143c30       __floor_pentium4           3023dc30 f   LIBCMTD:_floor_pentium4_.obj
 0002:00143d60       __CIsqrt                   3023dd60 f   LIBCMTD:_sqrt_.obj
 0002:00143d74       _sqrt                      3023dd74     LIBCMTD:_sqrt_.obj
 0002:00143e50       _memcpy                    3023de50 f   LIBCMTD:memcpy.obj
 0002:00144290       _abs                       3023e290 f   LIBCMTD:abs.obj
 0002:001442c0       __abs64                    3023e2c0 f   LIBCMTD:abs.obj
 0002:00144320       _strcmp                    3023e320 f   LIBCMTD:strcmp.obj
 0002:001443d0       ?name@type_info@@QBEPBDPAU__type_info_node@@@Z 3023e3d0 f   LIBCMTD:typinfo.obj
 0002:00144400       ??1type_info@@UAE@XZ       3023e400 f   LIBCMTD:typinfo.obj
 0002:00144430       ??_Gtype_info@@UAEPAXI@Z   3023e430 f i LIBCMTD:typinfo.obj
 0002:00144430       ??_Etype_info@@UAEPAXI@Z   3023e430 f i LIBCMTD:typinfo.obj
 0002:00144470       ?_name_internal_method@type_info@@QBEPBDPAU__type_info_node@@@Z 3023e470 f   LIBCMTD:typinfo.obj
 0002:001444a0       ?_type_info_dtor_internal_method@type_info@@QAEXXZ 3023e4a0 f   LIBCMTD:typinfo.obj
 0002:001444c0       ??8type_info@@QBE_NABV0@@Z 3023e4c0 f   LIBCMTD:typinfo.obj
 0002:00144500       ??9type_info@@QBE_NABV0@@Z 3023e500 f   LIBCMTD:typinfo.obj
 0002:00144540       ?before@type_info@@QBEHABV1@@Z 3023e540 f   LIBCMTD:typinfo.obj
 0002:00144580       ?raw_name@type_info@@QBEPBDXZ 3023e580 f   LIBCMTD:typinfo.obj
 0002:001445a0       ??0type_info@@AAE@ABV0@@Z  3023e5a0 f   LIBCMTD:typinfo.obj
 0002:001445d0       ??4type_info@@AAEAAV0@ABV0@@Z 3023e5d0 f   LIBCMTD:typinfo.obj
 0002:001445f0       ?_JumpToContinuation@@YGXPAXPAUEHRegistrationNode@@@Z 3023e5f0 f   LIBCMTD:_trnsctrl_.obj
 0002:00144640       ?_CallMemberFunction0@@YGXPAX0@Z 3023e640 f   LIBCMTD:_trnsctrl_.obj
 0002:00144650       ?_CallMemberFunction1@@YGXPAX00@Z 3023e650 f   LIBCMTD:_trnsctrl_.obj
 0002:00144660       ?_CallMemberFunction2@@YGXPAX00H@Z 3023e660 f   LIBCMTD:_trnsctrl_.obj
 0002:00144670       ?_UnwindNestedFrames@@YGXPAUEHRegistrationNode@@PAUEHExceptionRecord@@@Z 3023e670 f   LIBCMTD:_trnsctrl_.obj
 0002:001446e0       ___CxxFrameHandler         3023e6e0 f   LIBCMTD:_trnsctrl_.obj
 0002:00144730       ___CxxFrameHandler3        3023e730 f   LIBCMTD:_trnsctrl_.obj
 0002:00144780       ___CxxFrameHandler2        3023e780 f   LIBCMTD:_trnsctrl_.obj
 0002:001447d0       ___CxxLongjmpUnwind@4      3023e7d0 f   LIBCMTD:_trnsctrl_.obj
 0002:00144810       ?_CallCatchBlock2@@YAPAXPAUEHRegistrationNode@@PBU_s_FuncInfo@@PAXHK@Z 3023e810 f   LIBCMTD:_trnsctrl_.obj
 0002:00144900       ?_CallSETranslator@@YAHPAUEHExceptionRecord@@PAUEHRegistrationNode@@PAX2PBU_s_FuncInfo@@H1@Z 3023e900 f   LIBCMTD:_trnsctrl_.obj
 0002:00144b10       ?_GetRangeOfTrysToCheck@@YAPBU_s_TryBlockMapEntry@@PBU_s_FuncInfo@@HHPAI1@Z 3023eb10 f   LIBCMTD:_trnsctrl_.obj
 0002:00144bb0       __CreateFrameInfo          3023ebb0 f   LIBCMTD:_trnsctrl_.obj
 0002:00144bf0       __IsExceptionObjectToBeDestroyed 3023ebf0 f   LIBCMTD:_trnsctrl_.obj
 0002:00144c30       __FindAndUnlinkFrame       3023ec30 f   LIBCMTD:_trnsctrl_.obj
 0002:00144ca0       ___RTCastToVoid            3023eca0 f   LIBCMTD:rtti.obj
 0002:00144da0       ___RTtypeid                3023eda0 f   LIBCMTD:rtti.obj
 0002:00144f20       ___RTDynamicCast           3023ef20 f   LIBCMTD:rtti.obj
 0002:001457e0       __CxxThrowException@8      3023f7e0 f   LIBCMTD:throw.obj
 0002:00145850       __initp_misc_invarg        3023f850 f   LIBCMTD:invarg.obj
 0002:00145870       __invalid_parameter        3023f870 f   LIBCMTD:invarg.obj
 0002:001458e0       __invoke_watson            3023f8e0 f   LIBCMTD:invarg.obj
 0002:00145920       __call_reportfault         3023f920 f   LIBCMTD:invarg.obj
 0002:00145ad0       __set_invalid_parameter_handler 3023fad0 f   LIBCMTD:invarg.obj
 0002:00145b20       __get_invalid_parameter_handler 3023fb20 f   LIBCMTD:invarg.obj
 0002:00145b60       ?_invalid_parameter@@YAXPBG00II@Z 3023fb60 f   LIBCMTD:invarg.obj
 0002:00145b90       ?_invoke_watson@@YAXPBG00II@Z 3023fb90 f   LIBCMTD:invarg.obj
 0002:00145bc0       __CrtSetReportHookW2       3023fbc0 f   LIBCMTD:dbgrptw.obj
 0002:00145fb0       __CrtDbgReportW            3023ffb0 f   LIBCMTD:dbgrptw.obj
 0002:00146000       __CrtDbgReportWV           30240000 f i LIBCMTD:dbgrptw.obj
 0002:00146030       ___crtMessageWindowW       30240030 f   LIBCMTD:dbgrptw.obj
 0002:00146530       __invoke_watson_if_oneof   30240530 f i LIBCMTD:dbgrptw.obj
 0002:00146580       ?_CrtDbgReportW@@YAHHPBGH00ZZ 30240580 f   LIBCMTD:dbgrptw.obj
 0002:001465d0       ??3@YAXPAX@Z               302405d0 f   LIBCMTD:dbgdel.obj
 0002:001466f0       ??2@YAPAXI@Z               302406f0 f   LIBCMTD:new.obj
 0002:00146790       ??0bad_alloc@std@@QAE@XZ   30240790 f i LIBCMTD:new.obj
 0002:001467d0       ??0exception@std@@QAE@XZ   302407d0 f   LIBCMTD:stdexcpt.obj
 0002:00146810       ??_Eexception@std@@UAEPAXI@Z 30240810 f i LIBCMTD:stdexcpt.obj
 0002:00146810       ??_Gexception@std@@UAEPAXI@Z 30240810 f i LIBCMTD:stdexcpt.obj
 0002:00146850       ??0exception@std@@QAE@ABQBD@Z 30240850 f   LIBCMTD:stdexcpt.obj
 0002:001468a0       ??0exception@std@@QAE@ABQBDH@Z 302408a0 f   LIBCMTD:stdexcpt.obj
 0002:001468e0       ??0exception@std@@QAE@ABV01@@Z 302408e0 f   LIBCMTD:stdexcpt.obj
 0002:00146930       ??4exception@std@@QAEAAV01@ABV01@@Z 30240930 f   LIBCMTD:stdexcpt.obj
 0002:00146990       ??1exception@std@@UAE@XZ   30240990 f   LIBCMTD:stdexcpt.obj
 0002:001469c0       ?what@exception@std@@UBEPBDXZ 302409c0 f   LIBCMTD:stdexcpt.obj
 0002:00146a00       ?_Copy_str@exception@std@@AAEXPBD@Z 30240a00 f   LIBCMTD:stdexcpt.obj
 0002:00146a80       ?_Tidy@exception@std@@AAEXXZ 30240a80 f   LIBCMTD:stdexcpt.obj
 0002:00146ad0       ??0bad_cast@std@@QAE@PBD@Z 30240ad0 f   LIBCMTD:stdexcpt.obj
 0002:00146b00       ??_Ebad_cast@std@@UAEPAXI@Z 30240b00 f i LIBCMTD:stdexcpt.obj
 0002:00146b00       ??_Gbad_cast@std@@UAEPAXI@Z 30240b00 f i LIBCMTD:stdexcpt.obj
 0002:00146b40       ??0bad_cast@std@@QAE@ABV01@@Z 30240b40 f   LIBCMTD:stdexcpt.obj
 0002:00146b70       ??1bad_cast@std@@UAE@XZ    30240b70 f   LIBCMTD:stdexcpt.obj
 0002:00146ba0       ??0bad_typeid@std@@QAE@PBD@Z 30240ba0 f   LIBCMTD:stdexcpt.obj
 0002:00146bd0       ??_Gbad_typeid@std@@UAEPAXI@Z 30240bd0 f i LIBCMTD:stdexcpt.obj
 0002:00146bd0       ??_Ebad_typeid@std@@UAEPAXI@Z 30240bd0 f i LIBCMTD:stdexcpt.obj
 0002:00146c10       ??0bad_typeid@std@@QAE@ABV01@@Z 30240c10 f   LIBCMTD:stdexcpt.obj
 0002:00146c40       ??1bad_typeid@std@@UAE@XZ  30240c40 f   LIBCMTD:stdexcpt.obj
 0002:00146c70       ??0__non_rtti_object@std@@QAE@PBD@Z 30240c70 f   LIBCMTD:stdexcpt.obj
 0002:00146ca0       ??_G__non_rtti_object@std@@UAEPAXI@Z 30240ca0 f i LIBCMTD:stdexcpt.obj
 0002:00146ca0       ??_E__non_rtti_object@std@@UAEPAXI@Z 30240ca0 f i LIBCMTD:stdexcpt.obj
 0002:00146ce0       ??0__non_rtti_object@std@@QAE@ABV01@@Z 30240ce0 f   LIBCMTD:stdexcpt.obj
 0002:00146d10       ??1__non_rtti_object@std@@UAE@XZ 30240d10 f   LIBCMTD:stdexcpt.obj
 0002:00146d40       _srand                     30240d40 f   LIBCMTD:rand.obj
 0002:00146d60       _rand                      30240d60 f   LIBCMTD:rand.obj
 0002:00146db0       __isalpha_l                30240db0 f i LIBCMTD:_ctype.obj
 0002:00146e60       _isalpha                   30240e60 f i LIBCMTD:_ctype.obj
 0002:00146ea0       __isupper_l                30240ea0 f i LIBCMTD:_ctype.obj
 0002:00146f40       _isupper                   30240f40 f i LIBCMTD:_ctype.obj
 0002:00146f80       __islower_l                30240f80 f i LIBCMTD:_ctype.obj
 0002:00147020       _islower                   30241020 f i LIBCMTD:_ctype.obj
 0002:00147060       __isdigit_l                30241060 f i LIBCMTD:_ctype.obj
 0002:00147100       _isdigit                   30241100 f i LIBCMTD:_ctype.obj
 0002:00147140       __isxdigit_l               30241140 f i LIBCMTD:_ctype.obj
 0002:001471f0       _isxdigit                  302411f0 f i LIBCMTD:_ctype.obj
 0002:00147230       __isspace_l                30241230 f i LIBCMTD:_ctype.obj
 0002:001472d0       _isspace                   302412d0 f i LIBCMTD:_ctype.obj
 0002:00147310       __ispunct_l                30241310 f i LIBCMTD:_ctype.obj
 0002:001473b0       _ispunct                   302413b0 f i LIBCMTD:_ctype.obj
 0002:001473f0       __isalnum_l                302413f0 f i LIBCMTD:_ctype.obj
 0002:001474a0       _isalnum                   302414a0 f i LIBCMTD:_ctype.obj
 0002:001474e0       __isprint_l                302414e0 f i LIBCMTD:_ctype.obj
 0002:00147590       _isprint                   30241590 f i LIBCMTD:_ctype.obj
 0002:001475d0       __isgraph_l                302415d0 f i LIBCMTD:_ctype.obj
 0002:00147680       _isgraph                   30241680 f i LIBCMTD:_ctype.obj
 0002:001476c0       __iscntrl_l                302416c0 f i LIBCMTD:_ctype.obj
 0002:00147760       _iscntrl                   30241760 f i LIBCMTD:_ctype.obj
 0002:001477a0       ___isascii                 302417a0 f i LIBCMTD:_ctype.obj
 0002:001477c0       ___toascii                 302417c0 f i LIBCMTD:_ctype.obj
 0002:001477d0       __iscsymf_l                302417d0 f i LIBCMTD:_ctype.obj
 0002:00147820       ___iscsymf                 30241820 f i LIBCMTD:_ctype.obj
 0002:00147860       __iscsym_l                 30241860 f i LIBCMTD:_ctype.obj
 0002:001478b0       ___iscsym                  302418b0 f i LIBCMTD:_ctype.obj
 0002:00147900       _strncmp                   30241900 f   LIBCMTD:strncmp.obj
 0002:00147ad0       _sprintf                   30241ad0 f   LIBCMTD:sprintf.obj
 0002:00147cd0       __sprintf_l                30241cd0 f   LIBCMTD:sprintf.obj
 0002:00147d10       _sprintf_s                 30241d10 f   LIBCMTD:sprintf.obj
 0002:00147d50       __sprintf_s_l              30241d50 f   LIBCMTD:sprintf.obj
 0002:00147d90       __snprintf_s               30241d90 f   LIBCMTD:sprintf.obj
 0002:00147dd0       __snprintf_s_l             30241dd0 f   LIBCMTD:sprintf.obj
 0002:00147e10       __sprintf_p                30241e10 f   LIBCMTD:sprintf.obj
 0002:00147e50       __sprintf_p_l              30241e50 f   LIBCMTD:sprintf.obj
 0002:00147e90       __scprintf                 30241e90 f   LIBCMTD:sprintf.obj
 0002:00147ec0       __scprintf_p               30241ec0 f   LIBCMTD:sprintf.obj
 0002:00147ef0       __scprintf_l               30241ef0 f   LIBCMTD:sprintf.obj
 0002:00147f20       __scprintf_p_l             30241f20 f   LIBCMTD:sprintf.obj
 0002:00147f50       __vsprintf_l               30241f50 f   LIBCMTD:vsprintf.obj
 0002:00148150       _vsprintf                  30242150 f   LIBCMTD:vsprintf.obj
 0002:00148180       __vscprintf_helper         30242180 f   LIBCMTD:vsprintf.obj
 0002:00148290       __vscprintf                30242290 f   LIBCMTD:vsprintf.obj
 0002:001482c0       __vscprintf_l              302422c0 f   LIBCMTD:vsprintf.obj
 0002:001482f0       __vscprintf_p              302422f0 f   LIBCMTD:vsprintf.obj
 0002:00148320       __vscprintf_p_l            30242320 f   LIBCMTD:vsprintf.obj
 0002:00148350       _strrchr                   30242350 f   LIBCMTD:strrchr.obj
 0002:00148390       __strtod_l                 30242390 f   LIBCMTD:strtod.obj
 0002:00148610       _strtod                    30242610 f   LIBCMTD:strtod.obj
 0002:00148630       _acos                      30242630 f   LIBCMTD:_acos_.obj
 0002:00148670       __CIacos                   30242670 f   LIBCMTD:_acos_.obj
 0002:001486ab       __CIacos_default           302426ab f   LIBCMTD:_acos_.obj
 0002:001486bf       __acos_default             302426bf     LIBCMTD:_acos_.obj
 0002:001487d0       ?_RTC_Failure@@YAXPAXH@Z   302427d0 f   LIBCMTD:_error_.obj
 0002:00148c60       ?_RTC_StackFailure@@YAXPAXPBD@Z 30242c60 f   LIBCMTD:_error_.obj
 0002:00148da0       ?_RTC_AllocaFailure@@YAXPAXPAU_RTC_ALLOCA_NODE@@H@Z 30242da0 f   LIBCMTD:_error_.obj
 0002:00148fb0       __RTC_UninitUse            30242fb0 f   LIBCMTD:_error_.obj
 0002:001490e0       _strncpy                   302430e0 f   LIBCMTD:strncpy.obj
 0002:00149250       _tan                       30243250 f   LIBCMTD:_tan_.obj
 0002:00149290       __CItan                    30243290 f   LIBCMTD:_tan_.obj
 0002:001492cb       __CItan_default            302432cb f   LIBCMTD:_tan_.obj
 0002:001492df       __tan_default              302432df     LIBCMTD:_tan_.obj
 0002:001493d0       _pow                       302433d0 f   LIBCMTD:_pow_.obj
 0002:00149410       __CIpow                    30243410 f   LIBCMTD:_pow_.obj
 0002:0014944b       __CIpow_default            3024344b f   LIBCMTD:_pow_.obj
 0002:00149464       __pow_default              30243464     LIBCMTD:_pow_.obj
 0002:00149700       _fmod                      30243700 f   LIBCMTD:_87fmod_.obj
 0002:0014970a       __CIfmod                   3024370a f   LIBCMTD:_87fmod_.obj
 0002:00149730       __tolower                  30243730 f   LIBCMTD:tolower.obj
 0002:00149740       __tolower_l                30243740 f   LIBCMTD:tolower.obj
 0002:00149990       _tolower                   30243990 f   LIBCMTD:tolower.obj
 0002:001499f0       __toupper                  302439f0 f   LIBCMTD:toupper.obj
 0002:00149a00       __toupper_l                30243a00 f   LIBCMTD:toupper.obj
 0002:00149c50       _toupper                   30243c50 f   LIBCMTD:toupper.obj
 0002:00149cb0       __vsnprintf_l              30243cb0 f   LIBCMTD:vsnprint.obj
 0002:00149ee0       __vsnprintf                30243ee0 f   LIBCMTD:vsnprint.obj
 0002:00149f10       _memmove                   30243f10 f   LIBCMTD:memmove.obj
 0002:0014a350       __purecall                 30244350 f   LIBCMTD:purevirt.obj
 0002:0014a3a0       __set_purecall_handler     302443a0 f   LIBCMTD:purevirt.obj
 0002:0014a3e0       __get_purecall_handler     302443e0 f   LIBCMTD:purevirt.obj
 0002:0014a400       __CRT_INIT@12              30244400 f   LIBCMTD:dllcrt0.obj
 0002:0014a6a0       __DllMainCRTStartup@12     302446a0 f   LIBCMTD:dllcrt0.obj
 0002:0014a900       __RTC_NumErrors            30244900 f   LIBCMTD:_userapi_.obj
 0002:0014a910       __RTC_GetErrDesc           30244910 f   LIBCMTD:_userapi_.obj
 0002:0014a930       __RTC_SetErrorType         30244930 f   LIBCMTD:_userapi_.obj
 0002:0014a960       __RTC_SetErrorFunc         30244960 f   LIBCMTD:_userapi_.obj
 0002:0014a990       __RTC_SetErrorFuncW        30244990 f   LIBCMTD:_userapi_.obj
 0002:0014a9c0       ?_RTC_GetErrorFunc@@YAP6AHHPBDH00ZZPBX@Z 302449c0 f   LIBCMTD:_userapi_.obj
 0002:0014a9d0       ?_RTC_GetErrorFuncW@@YAP6AHHPB_WH00ZZPBX@Z 302449d0 f   LIBCMTD:_userapi_.obj
 0002:0014a9e0       __chkesp                   302449e0 f   LIBCMTD:chkesp.obj
 0002:0014aa30       __CRT_RTC_INIT             30244a30 f   LIBCMTD:chkesp.obj
 0002:0014aa40       __CRT_RTC_INITW            30244a40 f   LIBCMTD:chkesp.obj
 0002:0014aa50       __setdefaultprecision      30244a50 f   LIBCMTD:fp8.obj
 0002:0014aaa0       __forcdecpt                30244aa0 f   LIBCMTD:cvt.obj
 0002:0014aac0       __forcdecpt_l              30244ac0 f   LIBCMTD:cvt.obj
 0002:0014abb0       __cropzeros                30244bb0 f   LIBCMTD:cvt.obj
 0002:0014abd0       __cropzeros_l              30244bd0 f   LIBCMTD:cvt.obj
 0002:0014ad20       __positive                 30244d20 f   LIBCMTD:cvt.obj
 0002:0014ad60       __fassign_l                30244d60 f   LIBCMTD:cvt.obj
 0002:0014add0       __fassign                  30244dd0 f   LIBCMTD:cvt.obj
 0002:0014ae00       __cftoe_l                  30244e00 f   LIBCMTD:cvt.obj
 0002:0014b4a0       __cftoe                    302454a0 f   LIBCMTD:cvt.obj
 0002:0014b4d0       __cftoa_l                  302454d0 f   LIBCMTD:cvt.obj
 0002:0014bea0       __cftoa                    30245ea0 f   LIBCMTD:cvt.obj
 0002:0014bed0       __cftof_l                  30245ed0 f   LIBCMTD:cvt.obj
 0002:0014c3d0       __cftof                    302463d0 f   LIBCMTD:cvt.obj
 0002:0014c400       __cftog_l                  30246400 f   LIBCMTD:cvt.obj
 0002:0014c6c0       __cftog                    302466c0 f   LIBCMTD:cvt.obj
 0002:0014c6f0       __cfltcvt_l                302466f0 f   LIBCMTD:cvt.obj
 0002:0014c7e0       __cfltcvt                  302467e0 f   LIBCMTD:cvt.obj
 0002:0014c860       __initp_misc_cfltcvt_tab   30246860 f   LIBCMTD:cmiscdat.obj
 0002:0014c8b0       __VEC_memzero              302468b0 f   LIBCMTD:p4_memset.obj
 0002:0014c9a0       ___sse2_available_init     302469a0 f   LIBCMTD:cpu_disp.obj
 0002:0014c9c0       ___report_gsfailure        302469c0 f   LIBCMTD:gs_report.obj
 0002:0014cb20       __fltin2                   30246b20 f   LIBCMTD:_cfin_.obj
 0002:0014cc30       __chvalidator              30246c30 f   LIBCMTD:isctype.obj
 0002:0014cc90       __chvalidator_l            30246c90 f   LIBCMTD:isctype.obj
 0002:0014cd70       __isctype_l                30246d70 f   LIBCMTD:isctype.obj
 0002:0014ced0       __isctype                  30246ed0 f   LIBCMTD:isctype.obj
 0002:0014cf20       __dosmaperr                30246f20 f   LIBCMTD:dosmap.obj
 0002:0014cf60       __get_errno_from_oserr     30246f60 f   LIBCMTD:dosmap.obj
 0002:0014d000       __set_errno                30247000 f   LIBCMTD:dosmap.obj
 0002:0014d040       __get_errno                30247040 f   LIBCMTD:dosmap.obj
 0002:0014d0e0       __set_doserrno             302470e0 f   LIBCMTD:dosmap.obj
 0002:0014d120       __get_doserrno             30247120 f   LIBCMTD:dosmap.obj
 0002:0014d1c0       __errno                    302471c0 f   LIBCMTD:dosmap.obj
 0002:0014d1f0       ___doserrno                302471f0 f   LIBCMTD:dosmap.obj
 0002:0014d220       ___updatetmbcinfo          30247220 f   LIBCMTD:mbctype.obj
 0002:0014d370       __setmbcp                  30247370 f   LIBCMTD:mbctype.obj
 0002:0014d800       __setmbcp_nolock           30247800 f   LIBCMTD:mbctype.obj
 0002:0014e1e0       __getmbcp                  302481e0 f   LIBCMTD:mbctype.obj
 0002:0014e270       ___initmbctable            30248270 f   LIBCMTD:mbctype.obj
 0002:0014e2a0       ___addlocaleref            302482a0 f   LIBCMTD:localref.obj
 0002:0014e410       ___removelocaleref         30248410 f   LIBCMTD:localref.obj
 0002:0014e590       ___freetlocinfo            30248590 f   LIBCMTD:localref.obj
 0002:0014e930       __updatetlocinfoEx_nolock  30248930 f   LIBCMTD:localref.obj
 0002:0014e9d0       ___updatetlocinfo          302489d0 f   LIBCMTD:localref.obj
 0002:0014ead0       __encoded_null             30248ad0 f   LIBCMTD:tidtable.obj
 0002:0014eaf0       ___crtTlsAlloc@4           30248af0 f   LIBCMTD:tidtable.obj
 0002:0014eb10       ___fls_getvalue@4          30248b10 f   LIBCMTD:tidtable.obj
 0002:0014eb40       ___get_flsindex            30248b40 f   LIBCMTD:tidtable.obj
 0002:0014eb50       ___set_flsgetvalue         30248b50 f   LIBCMTD:tidtable.obj
 0002:0014ebb0       ___fls_setvalue@8          30248bb0 f   LIBCMTD:tidtable.obj
 0002:0014ebe0       __mtinit                   30248be0 f   LIBCMTD:tidtable.obj
 0002:0014ee60       __mtterm                   30248e60 f   LIBCMTD:tidtable.obj
 0002:0014eed0       __initptd                  30248ed0 f   LIBCMTD:tidtable.obj
 0002:0014f040       __getptd_noexit            30249040 f   LIBCMTD:tidtable.obj
 0002:0014f130       __getptd                   30249130 f   LIBCMTD:tidtable.obj
 0002:0014f160       __freefls@4                30249160 f   LIBCMTD:tidtable.obj
 0002:0014f3f0       __freeptd                  302493f0 f   LIBCMTD:tidtable.obj
 0002:0014f490       ___threadid                30249490 f   LIBCMTD:tidtable.obj
 0002:0014f4a0       ___threadhandle            302494a0 f   LIBCMTD:tidtable.obj
 0002:0014f4b0       ___strgtold12_l            302494b0 f   LIBCMTD:_strgtold_.obj
 0002:00150210       ___multtenpow12            3024a210 f i LIBCMTD:_strgtold_.obj
 0002:00150320       ___ld12mul                 3024a320 f i LIBCMTD:_strgtold_.obj
 0002:00150820       ___addl                    3024a820 f i LIBCMTD:_strgtold_.obj
 0002:00150870       ___shl_12                  3024a870 f i LIBCMTD:_strgtold_.obj
 0002:001508f0       ___shr_12                  3024a8f0 f i LIBCMTD:_strgtold_.obj
 0002:00150970       ___STRINGTOLD_L            3024a970 f   LIBCMTD:_strgtold_.obj
 0002:00150a00       _strtol                    3024aa00 f   LIBCMTD:strtol.obj
 0002:00151080       __strtol_l                 3024b080 f   LIBCMTD:strtol.obj
 0002:001510b0       _strtoul                   3024b0b0 f   LIBCMTD:strtol.obj
 0002:00151110       __strtoul_l                3024b110 f   LIBCMTD:strtol.obj
 0002:00151140       __strtoi64                 3024b140 f   LIBCMTD:strtoq.obj
 0002:00151810       __strtoi64_l               3024b810 f   LIBCMTD:strtoq.obj
 0002:00151840       __strtoui64                3024b840 f   LIBCMTD:strtoq.obj
 0002:001518a0       __strtoui64_l              3024b8a0 f   LIBCMTD:strtoq.obj
 0002:001518d0       __input_l                  3024b8d0 f   LIBCMTD:input.obj
 0002:00153760       __INTRN_LOCALE_CONV        3024d760 f i LIBCMTD:input.obj
 0002:001538d0       __input_s_l                3024d8d0 f   LIBCMTD:inputs.obj
 0002:00155d5c       __fFATN2                   3024fd5c     LIBCMTD:_87triga_.obj
 0002:00155dac       __rtpiby2                  3024fdac     LIBCMTD:_87triga_.obj
 0002:00155e20       __cintrindisp2             3024fe20 f   LIBCMTD:_87cdisp_.obj
 0002:00155e5e       __cintrindisp1             3024fe5e f   LIBCMTD:_87cdisp_.obj
 0002:00155e9b       __ctrandisp2               3024fe9b f   LIBCMTD:_87cdisp_.obj
 0002:0015602a       __ctrandisp1               3025002a f   LIBCMTD:_87cdisp_.obj
 0002:0015605d       __fload                    3025005d f   LIBCMTD:_87cdisp_.obj
 0002:00156140       __set_SSE2_enable          30250140 f   LIBCMTD:_mathfcns_.obj
 0002:00156170       __sse2_mathfcns_init       30250170 f   LIBCMTD:_mathfcns_.obj
 0002:00156190       __CIcos_pentium4           30250190 f   LIBCMTD:_cos_pentium4_.obj
 0002:001561a8       __cos_pentium4             302501a8     LIBCMTD:_cos_pentium4_.obj
 0002:001563b0       __trandisp1                302503b0 f   LIBCMTD:_87disp_.obj
 0002:00156417       __trandisp2                30250417 f   LIBCMTD:_87disp_.obj
 0002:001564a3       __rttospopde               302504a3     LIBCMTD:_87disp_.obj
 0002:001564a8       __rttospop                 302504a8     LIBCMTD:_87disp_.obj
 0002:001564aa       __rtnospop                 302504aa     LIBCMTD:_87disp_.obj
 0002:001564ac       __rttosnpop                302504ac     LIBCMTD:_87disp_.obj
 0002:001564ad       __rtnospopde               302504ad     LIBCMTD:_87disp_.obj
 0002:001564b4       __rtzeropop                302504b4     LIBCMTD:_87disp_.obj
 0002:001564b6       __rtzeronpop               302504b6     LIBCMTD:_87disp_.obj
 0002:001564bb       __rtonepop                 302504bb     LIBCMTD:_87disp_.obj
 0002:001564bd       __rtonenpop                302504bd     LIBCMTD:_87disp_.obj
 0002:001564c2       __tosnan1                  302504c2     LIBCMTD:_87disp_.obj
 0002:001564ed       __nosnan2                  302504ed     LIBCMTD:_87disp_.obj
 0002:001564ef       __tosnan2                  302504ef     LIBCMTD:_87disp_.obj
 0002:00156517       __nan2                     30250517     LIBCMTD:_87disp_.obj
 0002:00156556       __rtindfpop                30250556     LIBCMTD:_87disp_.obj
 0002:00156558       __rtindfnpop               30250558     LIBCMTD:_87disp_.obj
 0002:00156569       __rttosnpopde              30250569     LIBCMTD:_87disp_.obj
 0002:00156573       __rtchsifneg               30250573     LIBCMTD:_87disp_.obj
 0002:001565f0       __twoToTOS                 302505f0 f   LIBCMTD:_common_.obj
 0002:00156605       __load_CW                  30250605 f   LIBCMTD:_common_.obj
 0002:0015661c       __convertTOStoQNaN         3025061c f   LIBCMTD:_common_.obj
 0002:00156635       __fload_withFB             30250635 f   LIBCMTD:_common_.obj
 0002:00156678       __checkTOS_withFB          30250678 f   LIBCMTD:_common_.obj
 0002:0015668e       __fast_exit                3025068e f   LIBCMTD:_common_.obj
 0002:0015669b       __math_exit                3025069b f   LIBCMTD:_common_.obj
 0002:001566c5       __check_overflow_exit      302506c5 f   LIBCMTD:_common_.obj
 0002:001566d9       __check_range_exit         302506d9 f   LIBCMTD:_common_.obj
 0002:001567e0       __startTwoArgErrorHandling 302507e0 f   LIBCMTD:_genexcep_.obj
 0002:001567f7       __startOneArgErrorHandling 302507f7 f   LIBCMTD:_genexcep_.obj
 0002:00156850       __CIsin_pentium4           30250850 f   LIBCMTD:_sin_pentium4_.obj
 0002:00156868       __sin_pentium4             30250868     LIBCMTD:_sin_pentium4_.obj
 0002:00156a90       __handle_qnan1             30250a90 f   LIBCMTD:_fpexcept_.obj
 0002:00156b10       __handle_qnan2             30250b10 f   LIBCMTD:_fpexcept_.obj
 0002:00156ba0       __except1                  30250ba0 f   LIBCMTD:_fpexcept_.obj
 0002:00156ce0       __except2                  30250ce0 f   LIBCMTD:_fpexcept_.obj
 0002:00156e30       __raise_exc_ex             30250e30 f   LIBCMTD:_fpexcept_.obj
 0002:001574b0       __raise_exc                302514b0 f   LIBCMTD:_fpexcept_.obj
 0002:001574f0       __raise_excf               302514f0 f   LIBCMTD:_fpexcept_.obj
 0002:00157530       __handle_exc               30251530 f   LIBCMTD:_fpexcept_.obj
 0002:00157900       __umatherr                 30251900 f   LIBCMTD:_fpexcept_.obj
 0002:001579d0       __set_errno_from_matherr   302519d0 f   LIBCMTD:_fpexcept_.obj
 0002:00157a80       __errcode                  30251a80 f   LIBCMTD:_fpexcept_.obj
 0002:00157b10       __set_exp                  30251b10 f   LIBCMTD:_util_.obj
 0002:00157b60       __get_exp                  30251b60 f   LIBCMTD:_util_.obj
 0002:00157ba0       __add_exp                  30251ba0 f   LIBCMTD:_util_.obj
 0002:00157be0       __set_bexp                 30251be0 f   LIBCMTD:_util_.obj
 0002:00157c20       __sptype                   30251c20 f   LIBCMTD:_util_.obj
 0002:00157cc0       __decomp                   30251cc0 f   LIBCMTD:_util_.obj
 0002:00157e30       __statfp                   30251e30 f   LIBCMTD:_fpctrl_.obj
 0002:00157e50       __clrfp                    30251e50 f   LIBCMTD:_fpctrl_.obj
 0002:00157e70       __ctrlfp                   30251e70 f   LIBCMTD:_fpctrl_.obj
 0002:00157eb0       __set_statfp               30251eb0 f   LIBCMTD:_fpctrl_.obj
 0002:00157f30       ___get_fpsr_sse2           30251f30 f   LIBCMTD:_fpctrl_.obj
 0002:00157f60       ___set_fpsr_sse2           30251f60 f   LIBCMTD:_fpctrl_.obj
 0002:00158070       ___fclrf_sse2              30252070 f   LIBCMTD:_fpctrl_.obj
 0002:001580a0       ___statfp_sse2             302520a0 f   LIBCMTD:_fpctrl_.obj
 0002:001580e0       ___clrfp_sse2              302520e0 f   LIBCMTD:_fpctrl_.obj
 0002:00158130       ___ctrlfp_sse2             30252130 f   LIBCMTD:_fpctrl_.obj
 0002:001581a0       ___set_statfp_sse2         302521a0 f   LIBCMTD:_fpctrl_.obj
 0002:001581e0       __cinit                    302521e0 f   LIBCMTD:crt0dat.obj
 0002:001582b0       _exit                      302522b0 f   LIBCMTD:crt0dat.obj
 0002:001582d0       __exit                     302522d0 f   LIBCMTD:crt0dat.obj
 0002:001582f0       __cexit                    302522f0 f   LIBCMTD:crt0dat.obj
 0002:00158310       __c_exit                   30252310 f   LIBCMTD:crt0dat.obj
 0002:00158330       __amsg_exit                30252330 f   LIBCMTD:crt0dat.obj
 0002:00158360       ___freeCrtMemory           30252360 f   LIBCMTD:crt0dat.obj
 0002:00158770       ___crtCorExitProcess       30252770 f   LIBCMTD:crt0dat.obj
 0002:001587c0       ___crtExitProcess          302527c0 f   LIBCMTD:crt0dat.obj
 0002:001587f0       __lockexit                 302527f0 f   LIBCMTD:crt0dat.obj
 0002:00158810       __unlockexit               30252810 f   LIBCMTD:crt0dat.obj
 0002:00158830       __init_pointers            30252830 f   LIBCMTD:crt0dat.obj
 0002:001588e0       __initterm_e               302528e0 f   LIBCMTD:crt0dat.obj
 0002:00158930       __get_wpgmptr              30252930 f   LIBCMTD:crt0dat.obj
 0002:00158a60       __get_pgmptr               30252a60 f   LIBCMTD:crt0dat.obj
 0002:00158b90       __initp_misc_winsig        30252b90 f   LIBCMTD:winsig.obj
 0002:00158bd0       _signal                    30252bd0 f   LIBCMTD:winsig.obj
 0002:00159180       _raise                     30253180 f   LIBCMTD:winsig.obj
 0002:001595d0       ___get_sigabrt             302535d0 f   LIBCMTD:winsig.obj
 0002:001595f0       ___fpecode                 302535f0 f   LIBCMTD:winsig.obj
 0002:00159610       ___pxcptinfoptrs           30253610 f   LIBCMTD:winsig.obj
 0002:00159630       ___crtMessageBoxW          30253630 f   LIBCMTD:crtmboxw.obj
 0002:001598e0       __itow_s                   302538e0 f   LIBCMTD:xtows.obj
 0002:00159db0       __ltow_s                   30253db0 f   LIBCMTD:xtows.obj
 0002:00159e00       __ultow_s                  30253e00 f   LIBCMTD:xtows.obj
 0002:00159e30       __i64tow_s                 30253e30 f   LIBCMTD:xtows.obj
 0002:0015a350       __ui64tow_s                30254350 f   LIBCMTD:xtows.obj
 0002:0015a380       _wcsncat_s                 30254380 f   LIBCMTD:wcsncat_s.obj
 0002:0015a960       _wcsncpy_s                 30254960 f   LIBCMTD:wcsncpy_s.obj
 0002:0015ae70       _wcscat_s                  30254e70 f   LIBCMTD:wcscat_s.obj
 0002:0015b350       _wcscpy_s                  30255350 f   LIBCMTD:wcscpy_s.obj
 0002:0015b6f0       _fflush                    302556f0 f   LIBCMTD:fflush.obj
 0002:0015b7b0       __fflush_nolock            302557b0 f   LIBCMTD:fflush.obj
 0002:0015b820       __flush                    30255820 f   LIBCMTD:fflush.obj
 0002:0015b910       __flushall                 30255910 f   LIBCMTD:fflush.obj
 0002:0015bb40       _fwprintf                  30255b40 f   LIBCMTD:fwprintf.obj
 0002:0015bd20       __fwprintf_l               30255d20 f   LIBCMTD:fwprintf.obj
 0002:0015bd60       __fwprintf_s_l             30255d60 f   LIBCMTD:fwprintf.obj
 0002:0015bda0       _fwprintf_s                30255da0 f   LIBCMTD:fwprintf.obj
 0002:0015bdd0       __fwprintf_p_l             30255dd0 f   LIBCMTD:fwprintf.obj
 0002:0015be10       __fwprintf_p               30255e10 f   LIBCMTD:fwprintf.obj
 0002:0015be40       _setvbuf                   30255e40 f   LIBCMTD:setvbuf.obj
 0002:0015c1d0       ___iob_func                302561d0 f   LIBCMTD:_file.obj
 0002:0015c1e0       ___initstdio               302561e0 f   LIBCMTD:_file.obj
 0002:0015c380       ___endstdio                30256380 f   LIBCMTD:_file.obj
 0002:0015c3c0       __lock_file                302563c0 f   LIBCMTD:_file.obj
 0002:0015c430       __lock_file2               30256430 f   LIBCMTD:_file.obj
 0002:0015c480       __unlock_file              30256480 f   LIBCMTD:_file.obj
 0002:0015c4f0       __unlock_file2             302564f0 f   LIBCMTD:_file.obj
 0002:0015c540       _abort                     30256540 f   LIBCMTD:abort.obj
 0002:0015c5c0       __set_abort_behavior       302565c0 f   LIBCMTD:abort.obj
 0002:0015c600       _wcslen                    30256600 f   LIBCMTD:wcslen.obj
 0002:0015c640       __set_error_mode           30256640 f   LIBCMTD:errmode.obj
 0002:0015c730       ___set_app_type            30256730 f   LIBCMTD:errmode.obj
 0002:0015c750       __vswprintf_helper         30256750 f   LIBCMTD:vswprnc.obj
 0002:0015ca40       __vswprintf_c              30256a40 f   LIBCMTD:vswprnc.obj
 0002:0015caa0       __vswprintf_c_l            30256aa0 f   LIBCMTD:vswprnc.obj
 0002:0015cb00       __vswprintf_s_l            30256b00 f   LIBCMTD:vswprnc.obj
 0002:0015ce00       _vswprintf_s               30256e00 f   LIBCMTD:vswprnc.obj
 0002:0015ce30       __vsnwprintf_s_l           30256e30 f   LIBCMTD:vswprnc.obj
 0002:0015d2d0       __vsnwprintf_s             302572d0 f   LIBCMTD:vswprnc.obj
 0002:0015d300       __vswprintf_p              30257300 f   LIBCMTD:vswprnc.obj
 0002:0015d360       __vswprintf_p_l            30257360 f   LIBCMTD:vswprnc.obj
 0002:0015d3c0       ___libm_setusermatherr     302573c0 f   LIBCMTD:_libm_error_.obj
 0002:0015d400       ___libm_error_support      30257400 f   LIBCMTD:_libm_error_.obj
 0002:0015e200       __ceil_default             30258200 f   LIBCMTD:_ceil_.obj
 0002:0015e390       __floor_default            30258390 f   LIBCMTD:_floor_.obj
 0002:0015e520       __VEC_memcpy               30258520 f   LIBCMTD:p4_memcpy.obj
 0002:0015e670       ?_Type_info_dtor@type_info@@CAXPAV1@@Z 30258670 f   LIBCMTD:typname.obj
 0002:0015e7c0       ?_Name_base@type_info@@CAPBDPBV1@PAU__type_info_node@@@Z 302587c0 f   LIBCMTD:typname.obj
 0002:0015e9d0       ?_Type_info_dtor_internal@type_info@@CAXPAV1@@Z 302589d0 f   LIBCMTD:typname.obj
 0002:0015eb20       ___unDNameHelper           30258b20 f   LIBCMTD:typname.obj
 0002:0015eb70       ?_Name_base_internal@type_info@@CAPBDPBV1@PAU__type_info_node@@@Z 30258b70 f   LIBCMTD:typname.obj
 0002:0015eda0       ___clean_type_info_names_internal 30258da0 f   LIBCMTD:typname.obj
 0002:0015ee80       ___InternalCxxFrameHandler 30258e80 f   LIBCMTD:frame.obj
 0002:0015f5f0       ??0bad_exception@std@@QAE@PBD@Z 302595f0 f i LIBCMTD:frame.obj
 0002:0015f620       ??1bad_exception@std@@UAE@XZ 30259620 f i LIBCMTD:frame.obj
 0002:0015f650       ??_Gbad_exception@std@@UAEPAXI@Z 30259650 f i LIBCMTD:frame.obj
 0002:0015f650       ??_Ebad_exception@std@@UAEPAXI@Z 30259650 f i LIBCMTD:frame.obj
 0002:0015f690       ??0bad_exception@std@@QAE@ABV01@@Z 30259690 f i LIBCMTD:frame.obj
 0002:0015f8b0       ___TypeMatch               302598b0 f   LIBCMTD:frame.obj
 0002:0015f990       ___FrameUnwindFilter       30259990 f   LIBCMTD:frame.obj
 0002:0015fa30       ___FrameUnwindToState      30259a30 f   LIBCMTD:frame.obj
 0002:001600c0       ___BuildCatchObjectHelper  3025a0c0 f   LIBCMTD:frame.obj
 0002:001603d0       ___BuildCatchObject        3025a3d0 f   LIBCMTD:frame.obj
 0002:00160520       ___DestructExceptionObject 3025a520 f   LIBCMTD:frame.obj
 0002:00160600       ___AdjustPointer           3025a600 f   LIBCMTD:frame.obj
 0002:00160660       ?__uncaught_exception@@YA_NXZ 3025a660 f   LIBCMTD:frame.obj
 0002:00160680       ___CxxExceptionFilter      3025a680 f   LIBCMTD:frame.obj
 0002:001608f0       ___CxxRegisterExceptionObject 3025a8f0 f   LIBCMTD:frame.obj
 0002:00160a70       ___CxxDetectRethrow        3025aa70 f   LIBCMTD:frame.obj
 0002:00160b20       ___CxxUnregisterExceptionObject 3025ab20 f   LIBCMTD:frame.obj
 0002:00160d00       ___CxxQueryExceptionSize   3025ad00 f   LIBCMTD:frame.obj
 0002:00160d10       ___CxxCallUnwindDtor       3025ad10 f   LIBCMTD:frame.obj
 0002:00160db0       ___CxxCallUnwindDelDtor    3025adb0 f   LIBCMTD:frame.obj
 0002:00160e50       ___CxxCallUnwindStdDelDtor 3025ae50 f   LIBCMTD:frame.obj
 0002:00160ef0       ___CxxCallUnwindVecDtor    3025aef0 f   LIBCMTD:frame.obj
 0002:001611c0       ?_is_exception_typeof@@YAHABVtype_info@@PAU_EXCEPTION_POINTERS@@@Z 3025b1c0 f   LIBCMTD:frame.obj
 0002:001612d0       __CallSettingFrame@12      3025b2d0 f   LIBCMTD:lowhelpr.obj
 0002:001612f7       __NLG_Return               3025b2f7     LIBCMTD:lowhelpr.obj
 0002:00161330       __initp_eh_hooks           3025b330 f   LIBCMTD:hooks.obj
 0002:00161350       ?terminate@@YAXXZ          3025b350 f   LIBCMTD:hooks.obj
 0002:001613f0       ?unexpected@@YAXXZ         3025b3f0 f   LIBCMTD:hooks.obj
 0002:00161420       ?_inconsistency@@YAXXZ     3025b420 f   LIBCMTD:hooks.obj
 0002:001614d0       __except_handler4          3025b4d0 f   LIBCMTD:chandler4.obj
 0002:00161780       __CrtDefaultAllocHook      3025b780 f   LIBCMTD:dbghook.obj
 0002:00161790       __crt_debugger_hook        3025b790 f   LIBCMTD:dbghook.obj
 0002:001617b0       __mtinitlocks              3025b7b0 f   LIBCMTD:mlock.obj
 0002:00161860       __mtdeletelocks            3025b860 f   LIBCMTD:mlock.obj
 0002:00161950       __mtinitlocknum            3025b950 f   LIBCMTD:mlock.obj
 0002:00161af0       __lock                     3025baf0 f   LIBCMTD:mlock.obj
 0002:00161b40       __unlock                   3025bb40 f   LIBCMTD:mlock.obj
 0002:00161b60       __lockerr_exit             3025bb60 f   LIBCMTD:mlock.obj
 0002:00161b90       __malloc_dbg               3025bb90 f   LIBCMTD:dbgheap.obj
 0002:00161bd0       __nh_malloc                3025bbd0 f   LIBCMTD:dbgheap.obj
 0002:00161c00       __nh_malloc_dbg            3025bc00 f   LIBCMTD:dbgheap.obj
 0002:00161d00       __heap_alloc               3025bd00 f   LIBCMTD:dbgheap.obj
 0002:001621d0       __heap_alloc_dbg           3025c1d0 f   LIBCMTD:dbgheap.obj
 0002:00162240       __calloc_dbg_impl          3025c240 f   LIBCMTD:dbgheap.obj
 0002:001622e0       __calloc_dbg               3025c2e0 f   LIBCMTD:dbgheap.obj
 0002:00162350       __recalloc                 3025c350 f   LIBCMTD:dbgheap.obj
 0002:00162390       __realloc_dbg              3025c390 f   LIBCMTD:dbgheap.obj
 0002:00162bd0       __recalloc_dbg             3025cbd0 f   LIBCMTD:dbgheap.obj
 0002:00162cb0       __expand                   3025ccb0 f   LIBCMTD:dbgheap.obj
 0002:00162ce0       __expand_dbg               3025cce0 f   LIBCMTD:dbgheap.obj
 0002:00162e30       __free_nolock              3025ce30 f   LIBCMTD:dbgheap.obj
 0002:00162e50       __free_dbg                 3025ce50 f   LIBCMTD:dbgheap.obj
 0002:00162ef0       __free_dbg_nolock          3025cef0 f   LIBCMTD:dbgheap.obj
 0002:00163510       __msize                    3025d510 f   LIBCMTD:dbgheap.obj
 0002:00163530       __msize_dbg                3025d530 f   LIBCMTD:dbgheap.obj
 0002:00163790       __CrtSetBreakAlloc         3025d790 f   LIBCMTD:dbgheap.obj
 0002:001637c0       __CrtSetDbgBlockType       3025d7c0 f   LIBCMTD:dbgheap.obj
 0002:001638e0       __CrtSetAllocHook          3025d8e0 f   LIBCMTD:dbgheap.obj
 0002:00163910       __CrtGetAllocHook          3025d910 f   LIBCMTD:dbgheap.obj
 0002:00163970       __CrtCheckMemory           3025d970 f   LIBCMTD:dbgheap.obj
 0002:00163ee0       __CrtSetDbgFlag            3025dee0 f   LIBCMTD:dbgheap.obj
 0002:00164080       __CrtDoForAllClientObjects 3025e080 f   LIBCMTD:dbgheap.obj
 0002:001641f0       __CrtIsValidPointer        3025e1f0 f   LIBCMTD:dbgheap.obj
 0002:00164210       __CrtIsValidHeapPointer    3025e210 f   LIBCMTD:dbgheap.obj
 0002:00164270       __CrtIsMemoryBlock         3025e270 f   LIBCMTD:dbgheap.obj
 0002:00164440       __CrtReportBlockType       3025e440 f   LIBCMTD:dbgheap.obj
 0002:00164480       __CrtSetDumpClient         3025e480 f   LIBCMTD:dbgheap.obj
 0002:001644b0       __CrtGetDumpClient         3025e4b0 f   LIBCMTD:dbgheap.obj
 0002:001644c0       __CrtMemCheckpoint         3025e4c0 f   LIBCMTD:dbgheap.obj
 0002:00164760       __CrtMemDifference         3025e760 f   LIBCMTD:dbgheap.obj
 0002:00164a00       __CrtMemDumpAllObjectsSince 3025ea00 f   LIBCMTD:dbgheap.obj
 0002:00165030       __CrtDumpMemoryLeaks       3025f030 f   LIBCMTD:dbgheap.obj
 0002:001650d0       __CrtMemDumpStatistics     3025f0d0 f   LIBCMTD:dbgheap.obj
 0002:00165220       __aligned_malloc           3025f220 f   LIBCMTD:dbgheap.obj
 0002:00165250       __aligned_malloc_dbg       3025f250 f   LIBCMTD:dbgheap.obj
 0002:00165280       __aligned_realloc          3025f280 f   LIBCMTD:dbgheap.obj
 0002:001652b0       __aligned_recalloc         3025f2b0 f   LIBCMTD:dbgheap.obj
 0002:001652e0       __aligned_realloc_dbg      3025f2e0 f   LIBCMTD:dbgheap.obj
 0002:00165310       __aligned_recalloc_dbg     3025f310 f   LIBCMTD:dbgheap.obj
 0002:00165350       __aligned_offset_malloc    3025f350 f   LIBCMTD:dbgheap.obj
 0002:00165380       __aligned_offset_malloc_dbg 3025f380 f   LIBCMTD:dbgheap.obj
 0002:001655b0       __aligned_offset_realloc   3025f5b0 f   LIBCMTD:dbgheap.obj
 0002:001655e0       __aligned_offset_recalloc  3025f5e0 f   LIBCMTD:dbgheap.obj
 0002:00165610       __aligned_offset_realloc_dbg 3025f610 f   LIBCMTD:dbgheap.obj
 0002:001659c0       __aligned_offset_recalloc_dbg 3025f9c0 f   LIBCMTD:dbgheap.obj
 0002:00165ab0       __aligned_free             3025fab0 f   LIBCMTD:dbgheap.obj
 0002:00165ad0       __aligned_free_dbg         3025fad0 f   LIBCMTD:dbgheap.obj
 0002:00165bb0       __CrtSetDebugFillThreshold 3025fbb0 f   LIBCMTD:dbgheap.obj
 0002:00165be0       __CrtSetCheckCount         3025fbe0 f   LIBCMTD:dbgheap.obj
 0002:00165c00       __CrtGetCheckCount         3025fc00 f   LIBCMTD:dbgheap.obj
 0002:00165c10       __aligned_msize            3025fc10 f   LIBCMTD:dbgheap.obj
 0002:00165c40       __aligned_msize_dbg        3025fc40 f   LIBCMTD:dbgheap.obj
 0002:00165d90       __CrtDbgBreak              3025fd90 f   LIBCMTD:dbgrptt.obj
 0002:00165da0       __CrtSetReportMode         3025fda0 f   LIBCMTD:dbgrptt.obj
 0002:00165f30       __CrtSetReportFile         3025ff30 f   LIBCMTD:dbgrptt.obj
 0002:00166060       __CrtSetReportHook         30260060 f   LIBCMTD:dbgrptt.obj
 0002:00166090       __CrtGetReportHook         30260090 f   LIBCMTD:dbgrptt.obj
 0002:001660a0       __VCrtDbgReportA           302600a0 f   LIBCMTD:dbgrptt.obj
 0002:00166ad0       __VCrtDbgReportW           30260ad0 f   LIBCMTD:dbgrptt.obj
 0002:00167650       __swprintf                 30261650 f   LIBCMTD:swprintf.obj
 0002:001678d0       ___swprintf_l              302618d0 f   LIBCMTD:swprintf.obj
 0002:00167910       _swprintf_s                30261910 f   LIBCMTD:swprintf.obj
 0002:00167950       __snwprintf_s              30261950 f   LIBCMTD:swprintf.obj
 0002:00167990       __swprintf_p               30261990 f   LIBCMTD:swprintf.obj
 0002:001679d0       __swprintf_s_l             302619d0 f   LIBCMTD:swprintf.obj
 0002:00167a10       __snwprintf_s_l            30261a10 f   LIBCMTD:swprintf.obj
 0002:00167a50       __swprintf_p_l             30261a50 f   LIBCMTD:swprintf.obj
 0002:00167a90       __scwprintf                30261a90 f   LIBCMTD:swprintf.obj
 0002:00167ac0       __scwprintf_p              30261ac0 f   LIBCMTD:swprintf.obj
 0002:00167af0       __scwprintf_l              30261af0 f   LIBCMTD:swprintf.obj
 0002:00167b20       __scwprintf_p_l            30261b20 f   LIBCMTD:swprintf.obj
 0002:00167b50       _memcpy_s                  30261b50 f   LIBCMTD:memcpy_s.obj
 0002:00167d40       __onexit                   30261d40 f   LIBCMTD:onexit.obj
 0002:00167f80       _atexit                    30261f80 f   LIBCMTD:onexit.obj
 0002:00167fb0       ___onexitinit              30261fb0 f   LIBCMTD:onexit.obj
 0002:00168020       __initp_heap_handler       30262020 f   LIBCMTD:handler.obj
 0002:00168040       ?_set_new_handler@@YAP6AHI@ZP6AHI@Z@Z 30262040 f   LIBCMTD:handler.obj
 0002:00168090       ?_set_new_handler@@YAP6AHI@ZH@Z 30262090 f   LIBCMTD:handler.obj
 0002:001680e0       ?_query_new_handler@@YAP6AHI@ZXZ 302620e0 f   LIBCMTD:handler.obj
 0002:00168100       __callnewh                 30262100 f   LIBCMTD:handler.obj
 0002:00168150       _malloc                    30262150 f   LIBCMTD:dbgmalloc.obj
 0002:00168190       _strcpy_s                  30262190 f   LIBCMTD:strcpy_s.obj
 0002:00168520       _free                      30262520 f   LIBCMTD:dbgfree.obj
 0002:00168540       ____setlc_active_func      30262540 f   LIBCMTD:setlocal.obj
 0002:00168550       ____unguarded_readlc_active_add_func 30262550 f   LIBCMTD:setlocal.obj
 0002:00168560       __configthreadlocale       30262560 f   LIBCMTD:setlocal.obj
 0002:001686b0       __locterm                  302626b0 f   LIBCMTD:setlocal.obj
 0002:00168770       __free_locale              30262770 f   LIBCMTD:setlocal.obj
 0002:00168900       ___free_locale             30262900 f   LIBCMTD:setlocal.obj
 0002:00168920       __create_locale            30262920 f   LIBCMTD:setlocal.obj
 0002:00168be0       ___create_locale           30262be0 f   LIBCMTD:setlocal.obj
 0002:00168c00       __get_current_locale       30262c00 f   LIBCMTD:setlocal.obj
 0002:00168d60       ___get_current_locale      30262d60 f   LIBCMTD:setlocal.obj
 0002:00168d70       _setlocale                 30262d70 f   LIBCMTD:setlocal.obj
 0002:00169fd0       __expandlocale             30263fd0 f   LIBCMTD:setlocal.obj
 0002:0016a320       ___init_dummy              30264320 f   LIBCMTD:setlocal.obj
 0002:0016a330       __strcats                  30264330 f   LIBCMTD:setlocal.obj
 0002:0016a3d0       ___lc_strtolc              302643d0 f   LIBCMTD:setlocal.obj
 0002:0016a650       ___lc_lctostr              30264650 f   LIBCMTD:setlocal.obj
 0002:0016a710       __flsbuf                   30264710 f   LIBCMTD:_flsbuf.obj
 0002:0016aa80       __output_l                 30264a80 f   LIBCMTD:output.obj
 0002:0016c400       _get_int_arg               30266400 f i LIBCMTD:output.obj
 0002:0016c430       _get_int64_arg             30266430 f i LIBCMTD:output.obj
 0002:0016c460       _get_short_arg             30266460 f i LIBCMTD:output.obj
 0002:0016c490       __vsnprintf_helper         30266490 f   LIBCMTD:vsnprnc.obj
 0002:0016c6f0       __vsnprintf_c              302666f0 f   LIBCMTD:vsnprnc.obj
 0002:0016c750       __vsnprintf_c_l            30266750 f   LIBCMTD:vsnprnc.obj
 0002:0016c7b0       __vsprintf_s_l             302667b0 f   LIBCMTD:vsnprnc.obj
 0002:0016cab0       _vsprintf_s                30266ab0 f   LIBCMTD:vsnprnc.obj
 0002:0016cae0       __vsnprintf_s_l            30266ae0 f   LIBCMTD:vsnprnc.obj
 0002:0016cf60       __vsnprintf_s              30266f60 f   LIBCMTD:vsnprnc.obj
 0002:0016cf90       __vsprintf_p               30266f90 f   LIBCMTD:vsnprnc.obj
 0002:0016cff0       __vsprintf_p_l             30266ff0 f   LIBCMTD:vsnprnc.obj
 0002:0016d050       __validate_param_reuseA    30267050 f   LIBCMTD:outputp.obj
 0002:0016d360       __output_p_l               30267360 f   LIBCMTD:outputp.obj
 0002:00171e50       _get_crtdouble_arg         3026be50 f i LIBCMTD:outputp.obj
 0002:00171e80       __CIacos_pentium4          3026be80 f   LIBCMTD:_acos_pentium4_.obj
 0002:00171e98       __acos_pentium4            3026be98     LIBCMTD:_acos_pentium4_.obj
 0002:00172530       ?_RTC_GetSrcLine@@YAHPAEPA_WKPAH1K@Z 3026c530 f   LIBCMTD:_pdblkup_.obj
 0002:00172b10       __CItan_pentium4           3026cb10 f   LIBCMTD:_tan_pentium4_.obj
 0002:00172b28       __tan_pentium4             3026cb28     LIBCMTD:_tan_pentium4_.obj
 0002:00172e10       __CIpow_pentium4           3026ce10 f   LIBCMTD:_pow_pentium4_.obj
 0002:00172e29       __pow_pentium4             3026ce29     LIBCMTD:_pow_pentium4_.obj
 0002:00173c61       __fFEXP                    3026dc61     LIBCMTD:_87tran_.obj
 0002:00173cb8       __rtinfpopse               3026dcb8     LIBCMTD:_87tran_.obj
 0002:00173cba       __rtinfnpopse              3026dcba     LIBCMTD:_87tran_.obj
 0002:00173cca       __fFLN                     3026dcca     LIBCMTD:_87tran_.obj
 0002:00173d7f       __rtinfpop                 3026dd7f     LIBCMTD:_87tran_.obj
 0002:00173d81       __rtinfnpop                3026dd81     LIBCMTD:_87tran_.obj
 0002:00173d9e       __ffexpm1                  3026dd9e     LIBCMTD:_87tran_.obj
 0002:00173ed0       __powhlp                   3026ded0 f   LIBCMTD:_powhlp_.obj
 0002:001740e0       __d_inttype                3026e0e0 f   LIBCMTD:_powhlp_.obj
 0002:00174190       ___crtLCMapStringA         3026e190 f   LIBCMTD:a_map.obj
 0002:00174540       __MarkAllocaS              3026e540 f i LIBCMTD:a_map.obj
 0002:00174570       __freea                    3026e570 f i LIBCMTD:a_map.obj
 0002:00174650       __isleadbyte_l             3026e650 f i LIBCMTD:_wctype.obj
 0002:001746b0       _isleadbyte                3026e6b0 f i LIBCMTD:_wctype.obj
 0002:001746d0       __iswalpha_l               3026e6d0 f i LIBCMTD:_wctype.obj
 0002:001746f0       _iswalpha                  3026e6f0 f i LIBCMTD:_wctype.obj
 0002:00174710       __iswupper_l               3026e710 f i LIBCMTD:_wctype.obj
 0002:00174730       _iswupper                  3026e730 f i LIBCMTD:_wctype.obj
 0002:00174750       __iswlower_l               3026e750 f i LIBCMTD:_wctype.obj
 0002:00174770       _iswlower                  3026e770 f i LIBCMTD:_wctype.obj
 0002:00174790       __iswdigit_l               3026e790 f i LIBCMTD:_wctype.obj
 0002:001747b0       _iswdigit                  3026e7b0 f i LIBCMTD:_wctype.obj
 0002:001747d0       __iswxdigit_l              3026e7d0 f i LIBCMTD:_wctype.obj
 0002:001747f0       _iswxdigit                 3026e7f0 f i LIBCMTD:_wctype.obj
 0002:00174810       __iswspace_l               3026e810 f i LIBCMTD:_wctype.obj
 0002:00174830       _iswspace                  3026e830 f i LIBCMTD:_wctype.obj
 0002:00174850       __iswpunct_l               3026e850 f i LIBCMTD:_wctype.obj
 0002:00174870       _iswpunct                  3026e870 f i LIBCMTD:_wctype.obj
 0002:00174890       __iswalnum_l               3026e890 f i LIBCMTD:_wctype.obj
 0002:001748b0       _iswalnum                  3026e8b0 f i LIBCMTD:_wctype.obj
 0002:001748d0       __iswprint_l               3026e8d0 f i LIBCMTD:_wctype.obj
 0002:001748f0       _iswprint                  3026e8f0 f i LIBCMTD:_wctype.obj
 0002:00174910       __iswgraph_l               3026e910 f i LIBCMTD:_wctype.obj
 0002:00174930       _iswgraph                  3026e930 f i LIBCMTD:_wctype.obj
 0002:00174950       __iswcntrl_l               3026e950 f i LIBCMTD:_wctype.obj
 0002:00174970       _iswcntrl                  3026e970 f i LIBCMTD:_wctype.obj
 0002:00174990       _iswascii                  3026e990 f i LIBCMTD:_wctype.obj
 0002:001749b0       __iswcsym_l                3026e9b0 f i LIBCMTD:_wctype.obj
 0002:00174a00       ___iswcsym                 3026ea00 f i LIBCMTD:_wctype.obj
 0002:00174a50       __iswcsymf_l               3026ea50 f i LIBCMTD:_wctype.obj
 0002:00174aa0       ___iswcsymf                3026eaa0 f i LIBCMTD:_wctype.obj
 0002:00174af0       __FF_MSGBANNER             3026eaf0 f   LIBCMTD:crt0msg.obj
 0002:00174b50       __GET_RTERRMSG             3026eb50 f   LIBCMTD:crt0msg.obj
 0002:00174bb0       __NMSG_WRITE               3026ebb0 f   LIBCMTD:crt0msg.obj
 0002:00174fb0       ___getlocaleinfo           3026efb0 f   LIBCMTD:inithelp.obj
 0002:00175340       __initp_misc_purevirt      3026f340 f   LIBCMTD:inithelp.obj
 0002:00175360       __ioinit                   3026f360 f   LIBCMTD:ioinit.obj
 0002:00175880       __ioterm                   3026f880 f   LIBCMTD:ioinit.obj
 0002:00175950       __setenvp                  3026f950 f   LIBCMTD:stdenvp.obj
 0002:00175b60       __setargv                  3026fb60 f   LIBCMTD:stdargv.obj
 0002:00175cc0       __set_pgmptr               3026fcc0 f i LIBCMTD:stdargv.obj
 0002:00176120       ___crtGetEnvironmentStringsA 30270120 f   LIBCMTD:a_env.obj
 0002:00176260       __RTC_Initialize           30270260 f   LIBCMTD:_initsect_.obj
 0002:00176290       __RTC_Terminate            30270290 f   LIBCMTD:_initsect_.obj
 0002:001762c0       __heap_init                302702c0 f   LIBCMTD:heapinit.obj
 0002:00176310       __heap_term                30270310 f   LIBCMTD:heapinit.obj
 0002:00176340       __get_heap_handle          30270340 f   LIBCMTD:heapinit.obj
 0002:00176380       ___security_init_cookie    30270380 f   LIBCMTD:gs_support.obj
 0002:001764a0       ___CppXcptFilter           302704a0 f   LIBCMTD:winxfltr.obj
 0002:001764d0       __XcptFilter               302704d0 f   LIBCMTD:winxfltr.obj
 0002:001767c0       _DllMain@12                302707c0 f   LIBCMTD:dllmain.obj
 0002:001767e0       __CrtSetReportHook2        302707e0 f   LIBCMTD:dbgrpt.obj
 0002:00176bd0       __CrtDbgReport             30270bd0 f   LIBCMTD:dbgrpt.obj
 0002:00176c20       __CrtDbgReportV            30270c20 f i LIBCMTD:dbgrpt.obj
 0002:00176c50       ___crtMessageWindowA       30270c50 f   LIBCMTD:dbgrpt.obj
 0002:00177150       __controlfp_s              30271150 f   LIBCMTD:_contrlfp_.obj
 0002:00177270       __atodbl_l                 30271270 f   LIBCMTD:atodbl.obj
 0002:001773c0       __atodbl                   302713c0 f   LIBCMTD:atodbl.obj
 0002:001773e0       __atoldbl_l                302713e0 f   LIBCMTD:atodbl.obj
 0002:00177530       __atoldbl                  30271530 f   LIBCMTD:atodbl.obj
 0002:00177550       __atoflt_l                 30271550 f   LIBCMTD:atodbl.obj
 0002:001776a0       __atoflt                   302716a0 f   LIBCMTD:atodbl.obj
 0002:001776c0       __fptostr                  302716c0 f   LIBCMTD:_fptostr.obj
 0002:00177a10       __fltout2                  30271a10 f   LIBCMTD:_cfout_.obj
 0002:00177af0       ___dtold                   30271af0 f   LIBCMTD:_cfout_.obj
 0002:00177ca0       __set_output_format        30271ca0 f   LIBCMTD:outputformat.obj
 0002:00177d40       __get_output_format        30271d40 f   LIBCMTD:outputformat.obj
 0002:00177d50       __allrem                   30271d50 f   LIBCMTD:llrem.obj
 0002:00177e30       __alldiv                   30271e30 f   LIBCMTD:lldiv.obj
 0002:00177f10       __allshl                   30271f10 f   LIBCMTD:llshl.obj
 0002:00177f40       __aullshr                  30271f40 f   LIBCMTD:ullshr.obj
 0002:00177f70       __fptrap                   30271f70 f   LIBCMTD:crt0fp.obj
 0002:00177f90       __ld12tod                  30271f90 f   LIBCMTD:_intrncvt_.obj
 0002:00177fc0       __ld12cvt                  30271fc0 f i LIBCMTD:_intrncvt_.obj
 0002:001782c0       __RoundMan                 302722c0 f i LIBCMTD:_intrncvt_.obj
 0002:001783d0       __ZeroTail                 302723d0 f i LIBCMTD:_intrncvt_.obj
 0002:00178480       __IncMan                   30272480 f i LIBCMTD:_intrncvt_.obj
 0002:00178560       __CopyMan                  30272560 f i LIBCMTD:_intrncvt_.obj
 0002:001785d0       __FillZeroMan              302725d0 f i LIBCMTD:_intrncvt_.obj
 0002:00178610       __IsZeroMan                30272610 f i LIBCMTD:_intrncvt_.obj
 0002:00178660       __ShrMan                   30272660 f i LIBCMTD:_intrncvt_.obj
 0002:00178790       __ld12tof                  30272790 f   LIBCMTD:_intrncvt_.obj
 0002:001787c0       __ld12told                 302727c0 f   LIBCMTD:_intrncvt_.obj
 0002:001788c0       ___crtGetStringTypeA       302728c0 f   LIBCMTD:a_str.obj
 0002:00178a80       ___init_time               30272a80 f   LIBCMTD:inittime.obj
 0002:00179af0       ___free_lc_time            30273af0 f   LIBCMTD:inittime.obj
 0002:0017a300       ___init_numeric            30274300 f   LIBCMTD:initnum.obj
 0002:0017a7a0       ___free_lconv_num          302747a0 f   LIBCMTD:initnum.obj
 0002:0017a880       ___init_monetary           30274880 f   LIBCMTD:initmon.obj
 0002:0017afe0       ___free_lconv_mon          30274fe0 f   LIBCMTD:initmon.obj
 0002:0017b1f0       _localeconv                302751f0 f   LIBCMTD:lconv.obj
 0002:0017b250       ___pwctype_func            30275250 f   LIBCMTD:ctype.obj
 0002:0017b260       ___pctype_func             30275260 f   LIBCMTD:ctype.obj
 0002:0017b2c0       ___mtold12                 302752c0 f   LIBCMTD:_mantold_.obj
 0002:0017b470       ___add_12                  30275470 f i LIBCMTD:_mantold_.obj
 0002:0017b550       __allmul                   30275550 f   LIBCMTD:llmul.obj
 0002:0017b5a0       __aullrem                  302755a0 f   LIBCMTD:ullrem.obj
 0002:0017b640       __aulldiv                  30275640 f   LIBCMTD:ulldiv.obj
 0002:0017b6d0       __mbtowc_l                 302756d0 f   LIBCMTD:mbtowc.obj
 0002:0017b970       _mbtowc                    30275970 f   LIBCMTD:mbtowc.obj
 0002:0017b9a0       __fileno                   302759a0 f   LIBCMTD:fileno.obj
 0002:0017ba30       __filbuf                   30275a30 f   LIBCMTD:_filbuf.obj
 0002:0017bd10       _ungetc                    30275d10 f   LIBCMTD:ungetc.obj
 0002:0017be40       __ungetc_nolock            30275e40 f   LIBCMTD:ungetc.obj
 0002:0017c0f0       __87except                 302760f0 f   LIBCMTD:_87except_.obj
 0002:0017c310       __matherr                  30276310 f   LIBCMTD:_matherr_.obj
 0002:0017c320       __ValidateImageBase        30276320 f   LIBCMTD:pesect.obj
 0002:0017c3a0       __FindPESection            302763a0 f   LIBCMTD:pesect.obj
 0002:0017c440       __IsNonwritableInCurrentImage 30276440 f   LIBCMTD:pesect.obj
 0002:0017c5a0       __initp_misc_rand_s        302765a0 f   LIBCMTD:rand_s.obj
 0002:0017c5c0       _rand_s                    302765c0 f   LIBCMTD:rand_s.obj
 0002:0017c860       __commit                   30276860 f   LIBCMTD:commit.obj
 0002:0017cb00       __write                    30276b00 f   LIBCMTD:write.obj
 0002:0017cdb0       __write_nolock             30276db0 f   LIBCMTD:write.obj
 0002:0017dbc0       __stbuf                    30277bc0 f   LIBCMTD:_sftbuf.obj
 0002:0017dd70       __ftbuf                    30277d70 f   LIBCMTD:_sftbuf.obj
 0002:0017de20       __woutput_l                30277e20 f   LIBCMTD:woutput.obj
 0002:0017f4a0       _vfwprintf_helper          302794a0 f   LIBCMTD:vfwprint.obj
 0002:0017f680       __vfwprintf_l              30279680 f   LIBCMTD:vfwprint.obj
 0002:0017f6b0       __vfwprintf_s_l            302796b0 f   LIBCMTD:vfwprint.obj
 0002:0017f6e0       __vfwprintf_p_l            302796e0 f   LIBCMTD:vfwprint.obj
 0002:0017f710       _vfwprintf                 30279710 f   LIBCMTD:vfwprint.obj
 0002:0017f740       _vfwprintf_s               30279740 f   LIBCMTD:vfwprint.obj
 0002:0017f770       __vfwprintf_p              30279770 f   LIBCMTD:vfwprint.obj
 0002:0017f7a0       __freebuf                  302797a0 f   LIBCMTD:_freebuf.obj
 0002:0017f850       __fcloseall                30279850 f   LIBCMTD:closeall.obj
 0002:0017f9d0       __woutput_s_l              302799d0 f   LIBCMTD:woutputs.obj
 0002:00181200       __validate_param_reuseW    3027b200 f   LIBCMTD:woutputp.obj
 0002:00181510       __woutput_p_l              3027b510 f   LIBCMTD:woutputp.obj
 0002:00185a80       __frnd                     3027fa80 f   LIBCMTD:_frnd_.obj
 0002:00185aa0       ___unDName                 3027faa0 f   LIBCMTD:undname.obj
 0002:00185bb0       ?Constructor@_HeapManager@@QAEXP6APAXI@ZP6AXPAX@Z@Z 3027fbb0 f i LIBCMTD:undname.obj
 0002:00185c00       ?Destructor@_HeapManager@@QAEXXZ 3027fc00 f i LIBCMTD:undname.obj
 0002:00185c60       ___unDNameEx               3027fc60 f   LIBCMTD:undname.obj
 0002:00185d70       ??0UnDecorator@@QAE@PADPBDHP6APADJ@ZK@Z 3027fd70 f i LIBCMTD:undname.obj
 0002:00185e30       ??BUnDecorator@@QAEPADXZ   3027fe30 f i LIBCMTD:undname.obj
 0002:001860f0       ?dbGetString@DName@@QBEPADXZ 302800f0 f   LIBCMTD:undname.obj
 0002:00186120       ?getDecoratedName@UnDecorator@@CA?AVDName@@XZ 30280120 f   LIBCMTD:undname.obj
 0002:00186500       ?getSymbolName@UnDecorator@@CA?AVDName@@XZ 30280500 f i LIBCMTD:undname.obj
 0002:00186590       ?getZName@UnDecorator@@CA?AVDName@@_N0@Z 30280590 f   LIBCMTD:undname.obj
 0002:001868e0       ?getOperatorName@UnDecorator@@CA?AVDName@@_NPA_N@Z 302808e0 f i LIBCMTD:undname.obj
 0002:001874a0       ?getStringEncoding@UnDecorator@@CA?AVDName@@PADH@Z 302814a0 f   LIBCMTD:undname.obj
 0002:001875e0       ?getScope@UnDecorator@@CA?AVDName@@XZ 302815e0 f   LIBCMTD:undname.obj
 0002:00187ab0       ?getSignedDimension@UnDecorator@@CA?AVDName@@XZ 30281ab0 f   LIBCMTD:undname.obj
 0002:00187b50       ?getDimension@UnDecorator@@CA?AVDName@@_N@Z 30281b50 f   LIBCMTD:undname.obj
 0002:00187eb0       ?getNumberOfDimensions@UnDecorator@@CAHXZ 30281eb0 f   LIBCMTD:undname.obj
 0002:00187ff0       ?getTemplateName@UnDecorator@@CA?AVDName@@_N@Z 30281ff0 f   LIBCMTD:undname.obj
 0002:00188220       ?getTemplateArgumentList@UnDecorator@@CA?AVDName@@XZ 30282220 f   LIBCMTD:undname.obj
 0002:00188540       ?getTemplateConstant@UnDecorator@@CA?AVDName@@XZ 30282540 f   LIBCMTD:undname.obj
 0002:00188af0       ?composeDeclaration@UnDecorator@@CA?AVDName@@ABV2@@Z 30282af0 f i LIBCMTD:undname.obj
 0002:0018a660       ?getTypeEncoding@UnDecorator@@CAHXZ 30284660 f i LIBCMTD:undname.obj
 0002:0018b330       ?getBasedType@UnDecorator@@CA?AVDName@@XZ 30285330 f   LIBCMTD:undname.obj
 0002:0018b420       ?getScopedName@UnDecorator@@CA?AVDName@@XZ 30285420 f   LIBCMTD:undname.obj
 0002:0018b580       ?getCallingConvention@UnDecorator@@CA?AVDName@@XZ 30285580 f   LIBCMTD:undname.obj
 0002:0018b750       ?getReturnType@UnDecorator@@CA?AVDName@@PAV2@@Z 30285750 f   LIBCMTD:undname.obj
 0002:0018b7b0       ?getDataType@UnDecorator@@CA?AVDName@@PAV2@@Z 302857b0 f   LIBCMTD:undname.obj
 0002:0018b910       ?getPrimaryDataType@UnDecorator@@CA?AVDName@@ABV2@@Z 30285910 f   LIBCMTD:undname.obj
 0002:0018bd90       ?getArgumentTypes@UnDecorator@@CA?AVDName@@XZ 30285d90 f   LIBCMTD:undname.obj
 0002:0018bf40       ?getArgumentList@UnDecorator@@CA?AVDName@@XZ 30285f40 f   LIBCMTD:undname.obj
 0002:0018c0e0       ?getThrowTypes@UnDecorator@@CA?AVDName@@XZ 302860e0 f   LIBCMTD:undname.obj
 0002:0018c1c0       ?getBasicDataType@UnDecorator@@CA?AVDName@@ABV2@@Z 302861c0 f   LIBCMTD:undname.obj
 0002:0018c8f0       ?getECSUDataType@UnDecorator@@CA?AVDName@@XZ 302868f0 f   LIBCMTD:undname.obj
 0002:0018cb40       ?getECSUName@UnDecorator@@CA?AVDName@@XZ 30286b40 f i LIBCMTD:undname.obj
 0002:0018cb60       ?getEnumType@UnDecorator@@CA?AVDName@@XZ 30286b60 f i LIBCMTD:undname.obj
 0002:0018cd00       ?getFunctionIndirectType@UnDecorator@@CA?AVDName@@ABV2@@Z 30286d00 f   LIBCMTD:undname.obj
 0002:0018d250       ?getPtrRefType@UnDecorator@@CA?AVDName@@ABV2@0PBD@Z 30287250 f   LIBCMTD:undname.obj
 0002:0018d410       ?getExtendedDataIndirectType@UnDecorator@@CA?AVDName@@AAPBDAA_NH@Z 30287410 f   LIBCMTD:undname.obj
 0002:0018d6c0       ?getDataIndirectType@UnDecorator@@CA?AVDName@@ABV2@PBD0H@Z 302876c0 f   LIBCMTD:undname.obj
 0002:0018df80       ?getPtrRefDataType@UnDecorator@@CA?AVDName@@ABV2@H@Z 30287f80 f i LIBCMTD:undname.obj
 0002:0018e110       ?getArrayType@UnDecorator@@CA?AVDName@@ABV2@@Z 30288110 f i LIBCMTD:undname.obj
 0002:0018e3d0       ?getLexicalFrame@UnDecorator@@CA?AVDName@@XZ 302883d0 f i LIBCMTD:undname.obj
 0002:0018e420       ?getThisType@UnDecorator@@CA?AVDName@@XZ 30288420 f i LIBCMTD:undname.obj
 0002:0018e470       ?getPointerType@UnDecorator@@CA?AVDName@@ABV2@0@Z 30288470 f i LIBCMTD:undname.obj
 0002:0018e4b0       ?getPointerTypeArray@UnDecorator@@CA?AVDName@@ABV2@0@Z 302884b0 f i LIBCMTD:undname.obj
 0002:0018e4f0       ?getReferenceType@UnDecorator@@CA?AVDName@@ABV2@0PBD@Z 302884f0 f i LIBCMTD:undname.obj
 0002:0018e520       ?getDisplacement@UnDecorator@@CA?AVDName@@XZ 30288520 f i LIBCMTD:undname.obj
 0002:0018e540       ?getCallIndex@UnDecorator@@CA?AVDName@@XZ 30288540 f i LIBCMTD:undname.obj
 0002:0018e560       ?getGuardNumber@UnDecorator@@CA?AVDName@@XZ 30288560 f i LIBCMTD:undname.obj
 0002:0018e580       ?getVbTableType@UnDecorator@@CA?AVDName@@ABV2@@Z 30288580 f i LIBCMTD:undname.obj
 0002:0018e5a0       ?getVCallThunkType@UnDecorator@@CA?AVDName@@XZ 302885a0 f i LIBCMTD:undname.obj
 0002:0018e620       ?getVfTableType@UnDecorator@@CA?AVDName@@ABV2@@Z 30288620 f i LIBCMTD:undname.obj
 0002:0018e850       ?getStorageConvention@UnDecorator@@CA?AVDName@@XZ 30288850 f i LIBCMTD:undname.obj
 0002:0018e870       ?getDataIndirectType@UnDecorator@@CA?AVDName@@XZ 30288870 f i LIBCMTD:undname.obj
 0002:0018e8c0       ?getVdispMapType@UnDecorator@@CA?AVDName@@ABV2@@Z 302888c0 f i LIBCMTD:undname.obj
 0002:0018e950       ?getExternalDataType@UnDecorator@@CA?AVDName@@ABV2@@Z 30288950 f i LIBCMTD:undname.obj
 0002:0018ea10       ?doMSKeywords@UnDecorator@@SAHXZ 30288a10 f i LIBCMTD:undname.obj
 0002:0018ea30       ?doPtr64@UnDecorator@@SAHXZ 30288a30 f i LIBCMTD:undname.obj
 0002:0018ea50       ?doFunctionReturns@UnDecorator@@SAHXZ 30288a50 f i LIBCMTD:undname.obj
 0002:0018ea70       ?doAllocationModel@UnDecorator@@SAHXZ 30288a70 f i LIBCMTD:undname.obj
 0002:0018ea90       ?doAllocationLanguage@UnDecorator@@SAHXZ 30288a90 f i LIBCMTD:undname.obj
 0002:0018eab0       ?doThisTypes@UnDecorator@@SAHXZ 30288ab0 f i LIBCMTD:undname.obj
 0002:0018ead0       ?doAccessSpecifiers@UnDecorator@@SAHXZ 30288ad0 f i LIBCMTD:undname.obj
 0002:0018eaf0       ?doThrowTypes@UnDecorator@@SAHXZ 30288af0 f i LIBCMTD:undname.obj
 0002:0018eb10       ?doMemberTypes@UnDecorator@@SAHXZ 30288b10 f i LIBCMTD:undname.obj
 0002:0018eb30       ?doNameOnly@UnDecorator@@SAHXZ 30288b30 f i LIBCMTD:undname.obj
 0002:0018eb50       ?doTypeOnly@UnDecorator@@SAHXZ 30288b50 f i LIBCMTD:undname.obj
 0002:0018eb70       ?haveTemplateParameters@UnDecorator@@SAHXZ 30288b70 f i LIBCMTD:undname.obj
 0002:0018eb90       ?doEcsu@UnDecorator@@SAHXZ 30288b90 f i LIBCMTD:undname.obj
 0002:0018ebb0       ?doEllipsis@UnDecorator@@SAHXZ 30288bb0 f i LIBCMTD:undname.obj
 0002:0018ebd0       ?UScore@UnDecorator@@SAPBDW4Tokens@@@Z 30288bd0 f   LIBCMTD:undname.obj
 0002:0018ec10       ?doUnderScore@UnDecorator@@SAHXZ 30288c10 f i LIBCMTD:undname.obj
 0002:0018ec30       ??2@YAPAXIAAV_HeapManager@@H@Z 30288c30 f i LIBCMTD:undname.obj
 0002:0018ec50       ?getMemory@_HeapManager@@QAEPAXIH@Z 30288c50 f   LIBCMTD:undname.obj
 0002:0018eda0       ??0Block@_HeapManager@@QAE@XZ 30288da0 f i LIBCMTD:undname.obj
 0002:0018edc0       ??H@YA?AVDName@@DABV0@@Z   30288dc0 f i LIBCMTD:undname.obj
 0002:0018ee00       ??H@YA?AVDName@@W4DNameStatus@@ABV0@@Z 30288e00 f i LIBCMTD:undname.obj
 0002:0018ee40       ??H@YA?AVDName@@PBDABV0@@Z 30288e40 f i LIBCMTD:undname.obj
 0002:0018ee80       ??0DName@@QAE@XZ           30288e80 f i LIBCMTD:undname.obj
 0002:0018ef70       ??0DName@@QAE@D@Z          30288f70 f   LIBCMTD:undname.obj
 0002:0018f080       ??0DName@@QAE@ABV0@@Z      30289080 f i LIBCMTD:undname.obj
 0002:0018f0b0       ??0DName@@QAE@PAV0@@Z      302890b0 f   LIBCMTD:undname.obj
 0002:0018f230       ??0DName@@QAE@PBD@Z        30289230 f   LIBCMTD:undname.obj
 0002:0018f360       ??0DName@@QAE@AAPBDD@Z     30289360 f   LIBCMTD:undname.obj
 0002:0018f6d0       ?doNoIdentCharCheck@UnDecorator@@SAHXZ 302896d0 f i LIBCMTD:undname.obj
 0002:0018f6f0       ??0DName@@QAE@_K@Z         302896f0 f   LIBCMTD:undname.obj
 0002:0018f880       ??0DName@@QAE@_J@Z         30289880 f   LIBCMTD:undname.obj
 0002:0018fa60       ??0DName@@QAE@W4DNameStatus@@@Z 30289a60 f   LIBCMTD:undname.obj
 0002:0018fbc0       ?isValid@DName@@QBEHXZ     30289bc0 f i LIBCMTD:undname.obj
 0002:0018fbf0       ?isEmpty@DName@@QBEHXZ     30289bf0 f i LIBCMTD:undname.obj
 0002:0018fc10       ?status@DName@@QBE?AW4DNameStatus@@XZ 30289c10 f i LIBCMTD:undname.obj
 0002:0018fc30       ?setPtrRef@DName@@QAEAAV1@XZ 30289c30 f i LIBCMTD:undname.obj
 0002:0018fc60       ?isPtrRef@DName@@QBEHXZ    30289c60 f i LIBCMTD:undname.obj
 0002:0018fc80       ?isUDC@DName@@QBEHXZ       30289c80 f i LIBCMTD:undname.obj
 0002:0018fcd0       ?setIsUDC@DName@@QAEXXZ    30289cd0 f i LIBCMTD:undname.obj
 0002:0018fd10       ?isUDTThunk@DName@@QBEHXZ  30289d10 f i LIBCMTD:undname.obj
 0002:0018fd60       ?setIsArray@DName@@QAEXXZ  30289d60 f i LIBCMTD:undname.obj
 0002:0018fd90       ?isArray@DName@@QBEHXZ     30289d90 f i LIBCMTD:undname.obj
 0002:0018fdb0       ?isNoTE@DName@@QBEHXZ      30289db0 f i LIBCMTD:undname.obj
 0002:0018fdd0       ?setIsNoTE@DName@@QAEXXZ   30289dd0 f i LIBCMTD:undname.obj
 0002:0018fe00       ?isPinPtr@DName@@QBEHXZ    30289e00 f i LIBCMTD:undname.obj
 0002:0018fe20       ?setIsPinPtr@DName@@QAEXXZ 30289e20 f i LIBCMTD:undname.obj
 0002:0018fe50       ?isComArray@DName@@QBEHXZ  30289e50 f i LIBCMTD:undname.obj
 0002:0018fe70       ?setIsComArray@DName@@QAEXXZ 30289e70 f i LIBCMTD:undname.obj
 0002:0018fea0       ?isVCallThunk@DName@@QBEHXZ 30289ea0 f i LIBCMTD:undname.obj
 0002:0018fec0       ?setIsVCallThunk@DName@@QAEXXZ 30289ec0 f i LIBCMTD:undname.obj
 0002:0018fef0       ?length@DName@@QBEHXZ      30289ef0 f i LIBCMTD:undname.obj
 0002:0018ff30       ?getLastChar@DName@@QBEDXZ 30289f30 f i LIBCMTD:undname.obj
 0002:0018ff70       ?getString@DName@@QBEPADPADH@Z 30289f70 f i LIBCMTD:undname.obj
 0002:00190020       ?getString@DName@@QBEPADPAD0@Z 3028a020 f i LIBCMTD:undname.obj
 0002:00190070       ??HDName@@QBE?AV0@D@Z      3028a070 f   LIBCMTD:undname.obj
 0002:001900c0       ??HDName@@QBE?AV0@PBD@Z    3028a0c0 f   LIBCMTD:undname.obj
 0002:00190110       ??HDName@@QBE?AV0@ABV0@@Z  3028a110 f   LIBCMTD:undname.obj
 0002:00190160       ??HDName@@QBE?AV0@PAV0@@Z  3028a160 f   LIBCMTD:undname.obj
 0002:001901b0       ??HDName@@QBE?AV0@W4DNameStatus@@@Z 3028a1b0 f   LIBCMTD:undname.obj
 0002:00190200       ?append@DName@@AAEXPAVDNameNode@@@Z 3028a200 f   LIBCMTD:undname.obj
 0002:001902b0       ??YDName@@QAEAAV0@D@Z      3028a2b0 f   LIBCMTD:undname.obj
 0002:00190360       ??YDName@@QAEAAV0@PBD@Z    3028a360 f   LIBCMTD:undname.obj
 0002:00190420       ??YDName@@QAEAAV0@ABV0@@Z  3028a420 f   LIBCMTD:undname.obj
 0002:001904a0       ??YDName@@QAEAAV0@PAV0@@Z  3028a4a0 f   LIBCMTD:undname.obj
 0002:00190580       ??YDName@@QAEAAV0@W4DNameStatus@@@Z 3028a580 f   LIBCMTD:undname.obj
 0002:00190600       ??_5DName@@QAEAAV0@ABV0@@Z 3028a600 f   LIBCMTD:undname.obj
 0002:00190670       ??4DName@@QAEAAV0@D@Z      3028a670 f i LIBCMTD:undname.obj
 0002:00190780       ??4DName@@QAEAAV0@PBD@Z    3028a780 f   LIBCMTD:undname.obj
 0002:00190890       ??4DName@@QAEAAV0@ABV0@@Z  3028a890 f   LIBCMTD:undname.obj
 0002:001908c0       ??4DName@@QAEAAV0@PAV0@@Z  3028a8c0 f   LIBCMTD:undname.obj
 0002:00190a40       ??4DName@@QAEAAV0@W4DNameStatus@@@Z 3028aa40 f   LIBCMTD:undname.obj
 0002:00190b80       ?doPchar@DName@@AAEXPBDH@Z 3028ab80 f   LIBCMTD:undname.obj
 0002:00190d10       ?isFull@Replicator@@QBEHXZ 3028ad10 f i LIBCMTD:undname.obj
 0002:00190d30       ??0Replicator@@QAE@XZ      3028ad30 f i LIBCMTD:undname.obj
 0002:00190d50       ??YReplicator@@QAEAAV0@ABVDName@@@Z 3028ad50 f   LIBCMTD:undname.obj
 0002:00190e00       ??AReplicator@@QBE?AVDName@@H@Z 3028ae00 f   LIBCMTD:undname.obj
 0002:00190e80       ??0DNameNode@@IAE@XZ       3028ae80 f   LIBCMTD:undname.obj
 0002:00190ea0       ??0charNode@@QAE@D@Z       3028aea0 f   LIBCMTD:undname.obj
 0002:00190ee0       ?length@charNode@@UBEHXZ   3028aee0 f i LIBCMTD:undname.obj
 0002:00190f00       ?getLastChar@charNode@@UBEDXZ 3028af00 f i LIBCMTD:undname.obj
 0002:00190f20       ?getString@charNode@@UBEPADPAD0@Z 3028af20 f i LIBCMTD:undname.obj
 0002:00190f60       ??0pcharNode@@QAE@PBDH@Z   3028af60 f   LIBCMTD:undname.obj
 0002:00191020       ?length@pcharNode@@UBEHXZ  3028b020 f i LIBCMTD:undname.obj
 0002:00191040       ?getLastChar@pcharNode@@UBEDXZ 3028b040 f i LIBCMTD:undname.obj
 0002:00191090       ?getString@pcharNode@@UBEPADPAD0@Z 3028b090 f i LIBCMTD:undname.obj
 0002:001910d0       ?getStringHelper@@YAPADPAD00H@Z 3028b0d0 f i LIBCMTD:undname.obj
 0002:00191120       ??0pDNameNode@@QAE@PAVDName@@@Z 3028b120 f   LIBCMTD:undname.obj
 0002:001911a0       ?length@pDNameNode@@UBEHXZ 3028b1a0 f i LIBCMTD:undname.obj
 0002:001911e0       ?getLastChar@pDNameNode@@UBEDXZ 3028b1e0 f i LIBCMTD:undname.obj
 0002:00191220       ?getString@pDNameNode@@UBEPADPAD0@Z 3028b220 f i LIBCMTD:undname.obj
 0002:00191270       ??0DNameStatusNode@@AAE@W4DNameStatus@@@Z 3028b270 f   LIBCMTD:undname.obj
 0002:001912d0       ?length@DNameStatusNode@@UBEHXZ 3028b2d0 f i LIBCMTD:undname.obj
 0002:001912f0       ?getLastChar@DNameStatusNode@@UBEDXZ 3028b2f0 f i LIBCMTD:undname.obj
 0002:00191320       ?getString@DNameStatusNode@@UBEPADPAD0@Z 3028b320 f i LIBCMTD:undname.obj
 0002:00191370       ?make@DNameStatusNode@@SAPAV1@W4DNameStatus@@@Z 3028b370 f i LIBCMTD:undname.obj
 0002:00191450       ??0pairNode@@QAE@PAVDNameNode@@0@Z 3028b450 f   LIBCMTD:undname.obj
 0002:001914a0       ?length@pairNode@@UBEHXZ   3028b4a0 f i LIBCMTD:undname.obj
 0002:00191500       ?getLastChar@pairNode@@UBEDXZ 3028b500 f i LIBCMTD:undname.obj
 0002:00191560       ?getString@pairNode@@UBEPADPAD0@Z 3028b560 f i LIBCMTD:undname.obj
 0002:001916e0       __malloc_base              3028b6e0 f   LIBCMTD:malloc.obj
 0002:00191790       __heap_alloc_base          3028b790 f i LIBCMTD:malloc.obj
 0002:00191800       __free_base                3028b800 f   LIBCMTD:free.obj
 0002:00191870       __local_unwind4            3028b870 f   LIBCMTD:exsup4.obj
 0002:00191946       __seh_longjmp_unwind4@4    3028b946 f   LIBCMTD:exsup4.obj
 0002:00191962       @_EH4_CallFilterFunc@8     3028b962 f   LIBCMTD:exsup4.obj
 0002:00191979       @_EH4_TransferToHandler@8  3028b979 f   LIBCMTD:exsup4.obj
 0002:00191992       @_EH4_GlobalUnwind2@8      3028b992 f   LIBCMTD:exsup4.obj
 0002:001919ab       @_EH4_LocalUnwind@16       3028b9ab f   LIBCMTD:exsup4.obj
 0002:00191a20       ?_ValidateRead@@YAHPBXI@Z  3028ba20 f   LIBCMTD:validate.obj
 0002:00191a50       ?_ValidateWrite@@YAHPAXI@Z 3028ba50 f   LIBCMTD:validate.obj
 0002:00191a80       ?_ValidateExecute@@YAHP6GHXZ@Z 3028ba80 f   LIBCMTD:validate.obj
 0002:00191ab0       __global_unwind2           3028bab0 f   LIBCMTD:exsup.obj
 0002:00191b15       __local_unwind2            3028bb15 f   LIBCMTD:exsup.obj
 0002:00191b99       __abnormal_termination     3028bb99 f   LIBCMTD:exsup.obj
 0002:00191bbc       __NLG_Notify1              3028bbbc f   LIBCMTD:exsup.obj
 0002:00191bc5       __NLG_Notify               3028bbc5 f   LIBCMTD:exsup.obj
 0002:00191bdc       __NLG_Dispatch             3028bbdc     LIBCMTD:exsup.obj
 0002:00191bdc       __NLG_Dispatch2            3028bbdc     LIBCMTD:exsup.obj
 0002:00191be4       __NLG_Call                 3028bbe4 f   LIBCMTD:exsup.obj
 0002:00191be6       __NLG_Return2              3028bbe6     LIBCMTD:exsup.obj
 0002:00191c40       __expand_base              3028bc40 f   LIBCMTD:expand.obj
 0002:00191df0       __realloc_base             3028bdf0 f   LIBCMTD:realloc.obj
 0002:00191f30       __heapchk                  3028bf30 f   LIBCMTD:heapchk.obj
 0002:00191f70       __heapset                  3028bf70 f   LIBCMTD:heapchk.obj
 0002:00191f80       __mbstowcs_l_helper        3028bf80 f   LIBCMTD:mbstowcs.obj
 0002:001923b0       __mbstowcs_l               3028c3b0 f   LIBCMTD:mbstowcs.obj
 0002:001923e0       _mbstowcs                  3028c3e0 f   LIBCMTD:mbstowcs.obj
 0002:00192440       __mbstowcs_s_l             3028c440 f   LIBCMTD:mbstowcs.obj
 0002:001928a0       _mbstowcs_s                3028c8a0 f   LIBCMTD:mbstowcs.obj
 0002:001928d0       _strcat_s                  3028c8d0 f   LIBCMTD:strcat_s.obj
 0002:00192da0       __itoa_s                   3028cda0 f   LIBCMTD:xtoas.obj
 0002:00193250       __ltoa_s                   3028d250 f   LIBCMTD:xtoas.obj
 0002:001932a0       __ultoa_s                  3028d2a0 f   LIBCMTD:xtoas.obj
 0002:001932d0       __i64toa_s                 3028d2d0 f   LIBCMTD:xtoas.obj
 0002:001937d0       __ui64toa_s                3028d7d0 f   LIBCMTD:xtoas.obj
 0002:00193800       __wcstombs_l_helper        3028d800 f   LIBCMTD:wcstombs.obj
 0002:00193ea0       __wcstombs_l               3028dea0 f   LIBCMTD:wcstombs.obj
 0002:00193ed0       _wcstombs                  3028ded0 f   LIBCMTD:wcstombs.obj
 0002:00193f00       __wcstombs_s_l             3028df00 f   LIBCMTD:wcstombs.obj
 0002:001942f0       _wcstombs_s                3028e2f0 f   LIBCMTD:wcstombs.obj
 0002:00194320       __vswprintf_l              3028e320 f   LIBCMTD:vswprint.obj
 0002:00194590       __vswprintf                3028e590 f   LIBCMTD:vswprint.obj
 0002:001945c0       ___vswprintf_l             3028e5c0 f   LIBCMTD:vswprint.obj
 0002:001945f0       __vscwprintf_helper        3028e5f0 f   LIBCMTD:vswprint.obj
 0002:00194700       __vscwprintf               3028e700 f   LIBCMTD:vswprint.obj
 0002:00194730       __vscwprintf_l             3028e730 f   LIBCMTD:vswprint.obj
 0002:00194760       __vscwprintf_p             3028e760 f   LIBCMTD:vswprint.obj
 0002:00194790       __vscwprintf_p_l           3028e790 f   LIBCMTD:vswprint.obj
 0002:001947c0       ___init_ctype              3028e7c0 f   LIBCMTD:initctyp.obj
 0002:00194ee0       ____mb_cur_max_func        3028eee0 f   LIBCMTD:initctyp.obj
 0002:00194f40       ____mb_cur_max_l_func      3028ef40 f   LIBCMTD:initctyp.obj
 0002:00194f80       ____lc_codepage_func       3028ef80 f   LIBCMTD:initctyp.obj
 0002:00194fe0       ____lc_collate_cp_func     3028efe0 f   LIBCMTD:initctyp.obj
 0002:00195040       ____lc_handle_func         3028f040 f   LIBCMTD:initctyp.obj
 0002:001950a0       ___init_collate            3028f0a0 f   LIBCMTD:initcoll.obj
 0002:001950b0       _strncpy_s                 3028f0b0 f   LIBCMTD:strncpy_s.obj
 0002:001955a0       _strcspn                   3028f5a0 f   LIBCMTD:strcspn.obj
 0002:00195600       _strpbrk                   3028f600 f   LIBCMTD:strpbrk.obj
 0002:00195650       _memcmp                    3028f650 f   LIBCMTD:memcmp.obj
 0002:00196370       ___get_qualified_locale    30290370 f   LIBCMTD:getqloc.obj
 0002:00197540       __lseeki64                 30291540 f   LIBCMTD:lseeki64.obj
 0002:00197820       __lseeki64_nolock          30291820 f   LIBCMTD:lseeki64.obj
 0002:00197950       __getbuf                   30291950 f   LIBCMTD:_getbuf.obj
 0002:00197a50       __isatty                   30291a50 f   LIBCMTD:isatty.obj
 0002:00197b40       _printf                    30291b40 f   LIBCMTD:printf.obj
 0002:00197cd0       __printf_l                 30291cd0 f   LIBCMTD:printf.obj
 0002:00197d00       __printf_s_l               30291d00 f   LIBCMTD:printf.obj
 0002:00197d30       _printf_s                  30291d30 f   LIBCMTD:printf.obj
 0002:00197d60       __printf_p_l               30291d60 f   LIBCMTD:printf.obj
 0002:00197d90       __printf_p                 30291d90 f   LIBCMTD:printf.obj
 0002:00197dc0       __set_printf_count_output  30291dc0 f   LIBCMTD:printf.obj
 0002:00197e20       __get_printf_count_output  30291e20 f   LIBCMTD:printf.obj
 0002:00197e50       __wctomb_s_l               30291e50 f   LIBCMTD:wctomb.obj
 0002:00198210       _wctomb_s                  30292210 f   LIBCMTD:wctomb.obj
 0002:00198240       __wctomb_l                 30292240 f   LIBCMTD:wctomb.obj
 0002:001982e0       _wctomb                    302922e0 f   LIBCMTD:wctomb.obj
 0002:00198340       __output_s_l               30292340 f   LIBCMTD:outputs.obj
 0002:00199e70       __copysign                 30293e70 f   LIBCMTD:_ieeemisc_.obj
 0002:00199eb0       __chgsign                  30293eb0 f   LIBCMTD:_ieeemisc_.obj
 0002:00199ef0       __scalb                    30293ef0 f   LIBCMTD:_ieeemisc_.obj
 0002:00199f20       __logb                     30293f20 f   LIBCMTD:_ieeemisc_.obj
 0002:0019a0a0       __nextafter                302940a0 f   LIBCMTD:_ieeemisc_.obj
 0002:0019a490       __finite                   30294490 f   LIBCMTD:_ieeemisc_.obj
 0002:0019a4c0       __isnan                    302944c0 f   LIBCMTD:_ieeemisc_.obj
 0002:0019a520       __fpclass                  30294520 f   LIBCMTD:_ieeemisc_.obj
 0002:0019a620       __iswctype_l               30294620 f   LIBCMTD:iswctype.obj
 0002:0019a640       _iswctype                  30294640 f   LIBCMTD:iswctype.obj
 0002:0019a6c0       _is_wctype                 302946c0 f   LIBCMTD:iswctype.obj
 0002:0019a6e0       ___crtGetLocaleInfoA       302946e0 f   LIBCMTD:a_loc.obj
 0002:0019a890       __ismbbkalnum_l            30294890 f   LIBCMTD:ismbbyte.obj
 0002:0019a8c0       __ismbbkalnum              302948c0 f   LIBCMTD:ismbbyte.obj
 0002:0019a8e0       __ismbbkprint_l            302948e0 f   LIBCMTD:ismbbyte.obj
 0002:0019a910       __ismbbkprint              30294910 f   LIBCMTD:ismbbyte.obj
 0002:0019a930       __ismbbkpunct_l            30294930 f   LIBCMTD:ismbbyte.obj
 0002:0019a960       __ismbbkpunct              30294960 f   LIBCMTD:ismbbyte.obj
 0002:0019a980       __ismbbalnum_l             30294980 f   LIBCMTD:ismbbyte.obj
 0002:0019a9b0       __ismbbalnum               302949b0 f   LIBCMTD:ismbbyte.obj
 0002:0019a9e0       __ismbbalpha_l             302949e0 f   LIBCMTD:ismbbyte.obj
 0002:0019aa10       __ismbbalpha               30294a10 f   LIBCMTD:ismbbyte.obj
 0002:0019aa40       __ismbbgraph_l             30294a40 f   LIBCMTD:ismbbyte.obj
 0002:0019aa70       __ismbbgraph               30294a70 f   LIBCMTD:ismbbyte.obj
 0002:0019aaa0       __ismbbprint_l             30294aa0 f   LIBCMTD:ismbbyte.obj
 0002:0019aad0       __ismbbprint               30294ad0 f   LIBCMTD:ismbbyte.obj
 0002:0019ab00       __ismbbpunct_l             30294b00 f   LIBCMTD:ismbbyte.obj
 0002:0019ab30       __ismbbpunct               30294b30 f   LIBCMTD:ismbbyte.obj
 0002:0019ab50       __ismbblead_l              30294b50 f   LIBCMTD:ismbbyte.obj
 0002:0019ab80       __ismbblead                30294b80 f   LIBCMTD:ismbbyte.obj
 0002:0019aba0       __ismbbtrail_l             30294ba0 f   LIBCMTD:ismbbyte.obj
 0002:0019abd0       __ismbbtrail               30294bd0 f   LIBCMTD:ismbbyte.obj
 0002:0019abf0       __ismbbkana_l              30294bf0 f   LIBCMTD:ismbbyte.obj
 0002:0019ac80       __ismbbkana                30294c80 f   LIBCMTD:ismbbyte.obj
 0002:0019ada0       ___crtMessageBoxA          30294da0 f   LIBCMTD:crtmbox.obj
 0002:0019b050       __statusfp2                30295050 f   LIBCMTD:_ieee87_.obj
 0002:0019b0a0       __statusfp                 302950a0 f   LIBCMTD:_ieee87_.obj
 0002:0019b100       __clearfp                  30295100 f   LIBCMTD:_ieee87_.obj
 0002:0019b160       ___control87_2             30295160 f   LIBCMTD:_ieee87_.obj
 0002:0019b230       __controlfp                30295230 f   LIBCMTD:_ieee87_.obj
 0002:0019b260       __control87                30295260 f i LIBCMTD:_ieee87_.obj
 0002:0019b340       __set_controlfp            30295340 f   LIBCMTD:_ieee87_.obj
 0002:0019b3f0       __fpreset                  302953f0 f   LIBCMTD:_ieee87_.obj
 0002:0019bd90       _$I10_OUTPUT               30295d90 f   LIBCMTD:_x10fout_.obj
 0002:0019c4a0       __read                     302964a0 f   LIBCMTD:read.obj
 0002:0019c7e0       __read_nolock              302967e0 f   LIBCMTD:read.obj
 0002:0019db00       __alloc_osfhnd             30297b00 f   LIBCMTD:osfinfo.obj
 0002:0019de60       __set_osfhnd               30297e60 f   LIBCMTD:osfinfo.obj
 0002:0019df60       __free_osfhnd              30297f60 f   LIBCMTD:osfinfo.obj
 0002:0019e080       __get_osfhandle            30298080 f   LIBCMTD:osfinfo.obj
 0002:0019e240       __open_osfhandle           30298240 f   LIBCMTD:osfinfo.obj
 0002:0019e500       ___lock_fhandle            30298500 f   LIBCMTD:osfinfo.obj
 0002:0019e640       __unlock_fhandle           30298640 f   LIBCMTD:osfinfo.obj
 0002:0019e680       __putwch                   30298680 f   LIBCMTD:putwch.obj
 0002:0019e730       __putwch_nolock            30298730 f   LIBCMTD:putwch.obj
 0002:0019e7a0       _fputwc                    302987a0 f   LIBCMTD:fputwc.obj
 0002:0019e8e0       __fputwc_nolock            302988e0 f   LIBCMTD:fputwc.obj
 0002:0019ec90       _putwc                     30298c90 f   LIBCMTD:fputwc.obj
 0002:0019ecb0       _fclose                    30298cb0 f   LIBCMTD:fclose.obj
 0002:0019ee00       __fclose_nolock            30298e00 f   LIBCMTD:fclose.obj
 0002:0019ef40       _wcstol                    30298f40 f   LIBCMTD:wcstol.obj
 0002:0019f400       __wcstol_l                 30299400 f   LIBCMTD:wcstol.obj
 0002:0019f430       _wcstoul                   30299430 f   LIBCMTD:wcstol.obj
 0002:0019f460       __wcstoul_l                30299460 f   LIBCMTD:wcstol.obj
 0002:0019f490       __stricmp_l                30299490 f   LIBCMTD:stricmp.obj
 0002:0019f6a0       ___ascii_stricmp           302996a0 f   LIBCMTD:stricmp.obj
 0002:0019f730       _stricmp                   30299730 f   LIBCMTD:stricmp.obj
 0002:0019f730       __stricmp                  30299730 f   LIBCMTD:stricmp.obj
 0002:0019f880       __strnicmp_l               30299880 f   LIBCMTD:strnicmp.obj
 0002:0019fb50       __strnicmp                 30299b50 f   LIBCMTD:strnicmp.obj
 0002:0019fd40       _vprintf_helper            30299d40 f   LIBCMTD:vprintf.obj
 0002:0019fea0       __vprintf_l                30299ea0 f   LIBCMTD:vprintf.obj
 0002:0019fed0       __vprintf_s_l              30299ed0 f   LIBCMTD:vprintf.obj
 0002:0019ff00       __vprintf_p_l              30299f00 f   LIBCMTD:vprintf.obj
 0002:0019ff30       _vprintf                   30299f30 f   LIBCMTD:vprintf.obj
 0002:0019ff60       _vprintf_s                 30299f60 f   LIBCMTD:vprintf.obj
 0002:0019ff90       __vprintf_p                30299f90 f   LIBCMTD:vprintf.obj
 0002:0019ffc0       _ldexp                     30299fc0 f   LIBCMTD:_ldexp_.obj
 0002:001a0330       ___initconout              3029a330 f   LIBCMTD:initcon.obj
 0002:001a0360       ___termconout              3029a360 f   LIBCMTD:initcon.obj
 0002:001a0390       __flswbuf                  3029a390 f   LIBCMTD:_flswbuf.obj
 0002:001a0720       __close                    3029a720 f   LIBCMTD:close.obj
 0002:001a09c0       __close_nolock             3029a9c0 f   LIBCMTD:close.obj
 0002:001a0ac0       __wchartodigit             3029aac0 f   LIBCMTD:wchtodig.obj
 0002:001a0eb0       ___ascii_strnicmp          3029aeb0 f   LIBCMTD:_strnicm.obj
 0002:001a0f30       ??0_Init_locks@std@@QAE@XZ 3029af30 f   libcpmtd:xlock.obj
 0002:001a0fa0       ??1_Init_locks@std@@QAE@XZ 3029afa0 f   libcpmtd:xlock.obj
 0002:001a1000       ?_Init_locks_ctor@_Init_locks@std@@CAXPAV12@@Z 3029b000 f   libcpmtd:xlock.obj
 0002:001a1060       ?_Init_locks_dtor@_Init_locks@std@@CAXPAV12@@Z 3029b060 f   libcpmtd:xlock.obj
 0002:001a10c0       ??0_Lockit@std@@QAE@XZ     3029b0c0 f   libcpmtd:xlock.obj
 0002:001a10f0       ??0_Lockit@std@@QAE@H@Z    3029b0f0 f   libcpmtd:xlock.obj
 0002:001a1140       ??1_Lockit@std@@QAE@XZ     3029b140 f   libcpmtd:xlock.obj
 0002:001a1180       ?_Lockit_ctor@_Lockit@std@@CAXPAV12@@Z 3029b180 f   libcpmtd:xlock.obj
 0002:001a11a0       ?_Lockit_ctor@_Lockit@std@@CAXPAV12@H@Z 3029b1a0 f   libcpmtd:xlock.obj
 0002:001a11e0       ?_Lockit_dtor@_Lockit@std@@CAXPAV12@@Z 3029b1e0 f   libcpmtd:xlock.obj
 0002:001a1210       ?_Lockit_ctor@_Lockit@std@@SAXH@Z 3029b210 f   libcpmtd:xlock.obj
 0002:001a1240       ?_Lockit_dtor@_Lockit@std@@SAXH@Z 3029b240 f   libcpmtd:xlock.obj
 0002:001a1270       ?_Debug_message@std@@YAXPB_W0I@Z 3029b270 f   libcpmtd:stdthrow.obj
 0002:001a12a0       ?_Debug_message@std@@YAXPBG0I@Z 3029b2a0 f   libcpmtd:stdthrow.obj
 0002:001a12d0       ?_Xinvalid_argument@std@@YAXPBD@Z 3029b2d0 f   libcpmtd:xthrow.obj
 0002:001a1300       ??0invalid_argument@std@@QAE@PBD@Z 3029b300 f i libcpmtd:xthrow.obj
 0002:001a1330       ??0logic_error@std@@QAE@PBD@Z 3029b330 f i libcpmtd:xthrow.obj
 0002:001a1360       ??_Elogic_error@std@@UAEPAXI@Z 3029b360 f i libcpmtd:xthrow.obj
 0002:001a1360       ??_Glogic_error@std@@UAEPAXI@Z 3029b360 f i libcpmtd:xthrow.obj
 0002:001a13a0       ??1logic_error@std@@UAE@XZ 3029b3a0 f i libcpmtd:xthrow.obj
 0002:001a13c0       ??_Ginvalid_argument@std@@UAEPAXI@Z 3029b3c0 f i libcpmtd:xthrow.obj
 0002:001a13c0       ??_Einvalid_argument@std@@UAEPAXI@Z 3029b3c0 f i libcpmtd:xthrow.obj
 0002:001a1400       ??1invalid_argument@std@@UAE@XZ 3029b400 f i libcpmtd:xthrow.obj
 0002:001a1420       ??0invalid_argument@std@@QAE@ABV01@@Z 3029b420 f i libcpmtd:xthrow.obj
 0002:001a1450       ??0logic_error@std@@QAE@ABV01@@Z 3029b450 f i libcpmtd:xthrow.obj
 0002:001a1480       ?_Xlength_error@std@@YAXPBD@Z 3029b480 f   libcpmtd:xthrow.obj
 0002:001a14b0       ??0length_error@std@@QAE@PBD@Z 3029b4b0 f i libcpmtd:xthrow.obj
 0002:001a14e0       ??_Glength_error@std@@UAEPAXI@Z 3029b4e0 f i libcpmtd:xthrow.obj
 0002:001a14e0       ??_Elength_error@std@@UAEPAXI@Z 3029b4e0 f i libcpmtd:xthrow.obj
 0002:001a1520       ??1length_error@std@@UAE@XZ 3029b520 f i libcpmtd:xthrow.obj
 0002:001a1540       ??0length_error@std@@QAE@ABV01@@Z 3029b540 f i libcpmtd:xthrow.obj
 0002:001a1570       ?_Xout_of_range@std@@YAXPBD@Z 3029b570 f   libcpmtd:xthrow.obj
 0002:001a15a0       ??0out_of_range@std@@QAE@PBD@Z 3029b5a0 f i libcpmtd:xthrow.obj
 0002:001a15d0       ??_Eout_of_range@std@@UAEPAXI@Z 3029b5d0 f i libcpmtd:xthrow.obj
 0002:001a15d0       ??_Gout_of_range@std@@UAEPAXI@Z 3029b5d0 f i libcpmtd:xthrow.obj
 0002:001a1610       ??1out_of_range@std@@UAE@XZ 3029b610 f i libcpmtd:xthrow.obj
 0002:001a1630       ??0out_of_range@std@@QAE@ABV01@@Z 3029b630 f i libcpmtd:xthrow.obj
 0002:001a1660       ?_Xoverflow_error@std@@YAXPBD@Z 3029b660 f   libcpmtd:xthrow.obj
 0002:001a1690       ??0overflow_error@std@@QAE@PBD@Z 3029b690 f i libcpmtd:xthrow.obj
 0002:001a16c0       ??0runtime_error@std@@QAE@PBD@Z 3029b6c0 f i libcpmtd:xthrow.obj
 0002:001a16f0       ??_Eruntime_error@std@@UAEPAXI@Z 3029b6f0 f i libcpmtd:xthrow.obj
 0002:001a16f0       ??_Gruntime_error@std@@UAEPAXI@Z 3029b6f0 f i libcpmtd:xthrow.obj
 0002:001a1730       ??1runtime_error@std@@UAE@XZ 3029b730 f i libcpmtd:xthrow.obj
 0002:001a1750       ??_Eoverflow_error@std@@UAEPAXI@Z 3029b750 f i libcpmtd:xthrow.obj
 0002:001a1750       ??_Goverflow_error@std@@UAEPAXI@Z 3029b750 f i libcpmtd:xthrow.obj
 0002:001a1790       ??1overflow_error@std@@UAE@XZ 3029b790 f i libcpmtd:xthrow.obj
 0002:001a17b0       ??0overflow_error@std@@QAE@ABV01@@Z 3029b7b0 f i libcpmtd:xthrow.obj
 0002:001a17e0       ??0runtime_error@std@@QAE@ABV01@@Z 3029b7e0 f i libcpmtd:xthrow.obj
 0002:001a1810       ?_Xruntime_error@std@@YAXPBD@Z 3029b810 f   libcpmtd:xthrow.obj
 0002:001a1840       __Once                     3029b840 f   libcpmtd:xmtx.obj
 0002:001a18b0       __Mtxinit                  3029b8b0 f   libcpmtd:xmtx.obj
 0002:001a18d0       __Mtxdst                   3029b8d0 f   libcpmtd:xmtx.obj
 0002:001a18f0       __Mtxlock                  3029b8f0 f   libcpmtd:xmtx.obj
 0002:001a1910       __Mtxunlock                3029b910 f   libcpmtd:xmtx.obj
 0002:001a1930       ?sq_aux_gettypedarg@@YA_NPAUSQVM@@HW4tagSQObjectType@@PAPAUSQObjectPtr@@@Z 3029b930 f   squirrelD:sqapi.obj
 0002:001a1a80       ??0SQObjectPtr@@QAE@PAUSQString@@@Z 3029ba80 f i squirrelD:sqapi.obj
 0002:001a1b40       ??1SQObjectPtr@@QAE@XZ     3029bb40 f i squirrelD:sqapi.obj
 0002:001a1bf0       ?stack_get@@YAAAUSQObjectPtr@@PAUSQVM@@H@Z 3029bbf0 f i squirrelD:sqapi.obj
 0002:001a1c90       ?sq_aux_throwobject@@YAHPAUSQVM@@AAUSQObjectPtr@@@Z 3029bc90 f   squirrelD:sqapi.obj
 0002:001a1cf0       ??4SQObjectPtr@@QAEAAU0@ABU0@@Z 3029bcf0 f i squirrelD:sqapi.obj
 0002:001a1e20       ?sq_aux_invalidtype@@YAHPAUSQVM@@W4tagSQObjectType@@@Z 3029be20 f   squirrelD:sqapi.obj
 0002:001a1ec0       _sq_open                   3029bec0 f   squirrelD:sqapi.obj
 0002:001a2080       ??0SQObjectPtr@@QAE@PAUSQVM@@@Z 3029c080 f i squirrelD:sqapi.obj
 0002:001a2140       _sq_newthread              3029c140 f   squirrelD:sqapi.obj
 0002:001a2290       _sq_getvmstate             3029c290 f   squirrelD:sqapi.obj
 0002:001a2300       _sq_seterrorhandler        3029c300 f   squirrelD:sqapi.obj
 0002:001a23d0       ??4SQObjectPtr@@QAEAAU0@ABUtagSQObject@@@Z 3029c3d0 f i squirrelD:sqapi.obj
 0002:001a2500       _sq_setdebughook           3029c500 f   squirrelD:sqapi.obj
 0002:001a25d0       _sq_close                  3029c5d0 f   squirrelD:sqapi.obj
 0002:001a2670       ??_GSQSharedState@@QAEPAXI@Z 3029c670 f i squirrelD:sqapi.obj
 0002:001a26e0       _sq_compile                3029c6e0 f   squirrelD:sqapi.obj
 0002:001a2840       ??0SQObjectPtr@@QAE@XZ     3029c840 f i squirrelD:sqapi.obj
 0002:001a2890       ??0SQObjectPtr@@QAE@PAUSQClosure@@@Z 3029c890 f i squirrelD:sqapi.obj
 0002:001a2950       ?Create@SQClosure@@SAPAU1@PAUSQSharedState@@PAUSQFunctionProto@@@Z 3029c950 f i squirrelD:sqapi.obj
 0002:001a2a50       ??0SQClosure@@AAE@PAUSQSharedState@@PAUSQFunctionProto@@@Z 3029ca50 f i squirrelD:sqapi.obj
 0002:001a2bb0       ??0SQObjectPtr@@QAE@PAUSQFunctionProto@@@Z 3029cbb0 f i squirrelD:sqapi.obj
 0002:001a2c70       ??1SQCollectable@@UAE@XZ   3029cc70 f i squirrelD:sqapi.obj
 0002:001a2cc0       ??0SQCollectable@@QAE@XZ   3029ccc0 f i squirrelD:sqapi.obj
 0002:001a2d20       ??0SQRefCounted@@QAE@XZ    3029cd20 f i squirrelD:sqapi.obj
 0002:001a2d80       ??_ESQRefCounted@@UAEPAXI@Z 3029cd80 f i squirrelD:sqapi.obj
 0002:001a2d80       ??_GSQRefCounted@@UAEPAXI@Z 3029cd80 f i squirrelD:sqapi.obj
 0002:001a2df0       ??_GSQCollectable@@UAEPAXI@Z 3029cdf0 f i squirrelD:sqapi.obj
 0002:001a2df0       ??_ESQCollectable@@UAEPAXI@Z 3029cdf0 f i squirrelD:sqapi.obj
 0002:001a2e60       ?Release@SQClosure@@UAEXXZ 3029ce60 f i squirrelD:sqapi.obj
 0002:001a2ee0       ?Finalize@SQClosure@@UAEXXZ 3029cee0 f i squirrelD:sqapi.obj
 0002:001a2fc0       ??_ESQClosure@@UAEPAXI@Z   3029cfc0 f i squirrelD:sqapi.obj
 0002:001a2fc0       ??_GSQClosure@@UAEPAXI@Z   3029cfc0 f i squirrelD:sqapi.obj
 0002:001a3030       ??1SQClosure@@UAE@XZ       3029d030 f i squirrelD:sqapi.obj
 0002:001a3140       _sq_enabledebuginfo        3029d140 f   squirrelD:sqapi.obj
 0002:001a3190       _sq_notifyallexceptions    3029d190 f   squirrelD:sqapi.obj
 0002:001a31e0       _sq_addref                 3029d1e0 f   squirrelD:sqapi.obj
 0002:001a3250       _sq_release                3029d250 f   squirrelD:sqapi.obj
 0002:001a32d0       _sq_objtostring            3029d2d0 f   squirrelD:sqapi.obj
 0002:001a3320       _sq_objtointeger           3029d320 f   squirrelD:sqapi.obj
 0002:001a33b0       _sq_objtofloat             3029d3b0 f   squirrelD:sqapi.obj
 0002:001a3430       _sq_objtobool              3029d430 f   squirrelD:sqapi.obj
 0002:001a3480       _sq_pushnull               3029d480 f   squirrelD:sqapi.obj
 0002:001a34d0       _sq_pushstring             3029d4d0 f   squirrelD:sqapi.obj
 0002:001a3580       _sq_pushinteger            3029d580 f   squirrelD:sqapi.obj
 0002:001a3600       ??0SQObjectPtr@@QAE@H@Z    3029d600 f i squirrelD:sqapi.obj
 0002:001a3660       _sq_pushbool               3029d660 f   squirrelD:sqapi.obj
 0002:001a36e0       ??0SQObjectPtr@@QAE@_N@Z   3029d6e0 f i squirrelD:sqapi.obj
 0002:001a3750       _sq_pushfloat              3029d750 f   squirrelD:sqapi.obj
 0002:001a37d0       ??0SQObjectPtr@@QAE@M@Z    3029d7d0 f i squirrelD:sqapi.obj
 0002:001a3830       _sq_pushuserpointer        3029d830 f   squirrelD:sqapi.obj
 0002:001a38b0       ??0SQObjectPtr@@QAE@PAX@Z  3029d8b0 f i squirrelD:sqapi.obj
 0002:001a3910       _sq_newuserdata            3029d910 f   squirrelD:sqapi.obj
 0002:001a39b0       ??0SQObjectPtr@@QAE@PAUSQUserData@@@Z 3029d9b0 f i squirrelD:sqapi.obj
 0002:001a3a70       ?Create@SQUserData@@SAPAU1@PAUSQSharedState@@H@Z 3029da70 f i squirrelD:sqapi.obj
 0002:001a3b90       ??0SQUserData@@QAE@PAUSQSharedState@@@Z 3029db90 f i squirrelD:sqapi.obj
 0002:001a3c90       ??1SQDelegable@@UAE@XZ     3029dc90 f i squirrelD:sqapi.obj
 0002:001a3ce0       ?Finalize@SQUserData@@UAEXXZ 3029dce0 f i squirrelD:sqapi.obj
 0002:001a3d40       ?Release@SQUserData@@UAEXXZ 3029dd40 f i squirrelD:sqapi.obj
 0002:001a3e00       ??_GSQUserData@@UAEPAXI@Z  3029de00 f i squirrelD:sqapi.obj
 0002:001a3e00       ??_ESQUserData@@UAEPAXI@Z  3029de00 f i squirrelD:sqapi.obj
 0002:001a3e70       ??1SQUserData@@UAE@XZ      3029de70 f i squirrelD:sqapi.obj
 0002:001a3f50       ??0SQDelegable@@QAE@XZ     3029df50 f i squirrelD:sqapi.obj
 0002:001a3fb0       ??_ESQDelegable@@UAEPAXI@Z 3029dfb0 f i squirrelD:sqapi.obj
 0002:001a3fb0       ??_GSQDelegable@@UAEPAXI@Z 3029dfb0 f i squirrelD:sqapi.obj
 0002:001a4020       _sq_newtable               3029e020 f   squirrelD:sqapi.obj
 0002:001a40b0       ??0SQObjectPtr@@QAE@PAUSQTable@@@Z 3029e0b0 f i squirrelD:sqapi.obj
 0002:001a4170       ?Create@SQTable@@SAPAU1@PAUSQSharedState@@H@Z 3029e170 f i squirrelD:sqapi.obj
 0002:001a4280       _sq_newarray               3029e280 f   squirrelD:sqapi.obj
 0002:001a4310       ??0SQObjectPtr@@QAE@PAUSQArray@@@Z 3029e310 f i squirrelD:sqapi.obj
 0002:001a43d0       ?Create@SQArray@@SAPAU1@PAUSQSharedState@@H@Z 3029e3d0 f i squirrelD:sqapi.obj
 0002:001a44d0       ??0SQArray@@AAE@PAUSQSharedState@@H@Z 3029e4d0 f i squirrelD:sqapi.obj
 0002:001a4620       ?Finalize@SQArray@@UAEXXZ  3029e620 f i squirrelD:sqapi.obj
 0002:001a4700       ?Release@SQArray@@UAEXXZ   3029e700 f i squirrelD:sqapi.obj
 0002:001a4780       ??_ESQArray@@EAEPAXI@Z     3029e780 f i squirrelD:sqapi.obj
 0002:001a4780       ??_GSQArray@@EAEPAXI@Z     3029e780 f i squirrelD:sqapi.obj
 0002:001a47f0       ??1SQArray@@EAE@XZ         3029e7f0 f i squirrelD:sqapi.obj
 0002:001a48d0       _sq_newclass               3029e8d0 f   squirrelD:sqapi.obj
 0002:001a49d0       ??0SQObjectPtr@@QAE@PAUSQClass@@@Z 3029e9d0 f i squirrelD:sqapi.obj
 0002:001a4a90       ?Create@SQClass@@SAPAU1@PAUSQSharedState@@PAU1@@Z 3029ea90 f i squirrelD:sqapi.obj
 0002:001a4b90       _sq_instanceof             3029eb90 f   squirrelD:sqapi.obj
 0002:001a4c50       _sq_arrayappend            3029ec50 f   squirrelD:sqapi.obj
 0002:001a4d50       ?Append@SQArray@@QAEXABUtagSQObject@@@Z 3029ed50 f i squirrelD:sqapi.obj
 0002:001a4e20       ??0SQObjectPtr@@QAE@ABUtagSQObject@@@Z 3029ee20 f i squirrelD:sqapi.obj
 0002:001a4ea0       _sq_arraypop               3029eea0 f   squirrelD:sqapi.obj
 0002:001a4fd0       ?Size@SQArray@@QBEHXZ      3029efd0 f i squirrelD:sqapi.obj
 0002:001a5030       ?Top@SQArray@@QAEAAUSQObjectPtr@@XZ 3029f030 f i squirrelD:sqapi.obj
 0002:001a5090       ?Pop@SQArray@@QAEXXZ       3029f090 f i squirrelD:sqapi.obj
 0002:001a50f0       ?ShrinkIfNeeded@SQArray@@QAEXXZ 3029f0f0 f i squirrelD:sqapi.obj
 0002:001a5170       _sq_arrayresize            3029f170 f   squirrelD:sqapi.obj
 0002:001a5280       ?Resize@SQArray@@QAEXHAAUSQObjectPtr@@@Z 3029f280 f i squirrelD:sqapi.obj
 0002:001a52f0       _sq_arrayreverse           3029f2f0 f   squirrelD:sqapi.obj
 0002:001a54e0       _sq_newclosure             3029f4e0 f   squirrelD:sqapi.obj
 0002:001a55c0       ??0SQObjectPtr@@QAE@PAUSQNativeClosure@@@Z 3029f5c0 f i squirrelD:sqapi.obj
 0002:001a5680       ?Create@SQNativeClosure@@SAPAU1@PAUSQSharedState@@P6AHPAUSQVM@@@Z@Z 3029f680 f i squirrelD:sqapi.obj
 0002:001a5780       ??0SQNativeClosure@@AAE@PAUSQSharedState@@P6AHPAUSQVM@@@Z@Z 3029f780 f i squirrelD:sqapi.obj
 0002:001a58c0       ?Release@SQNativeClosure@@UAEXXZ 3029f8c0 f i squirrelD:sqapi.obj
 0002:001a5940       ?Finalize@SQNativeClosure@@UAEXXZ 3029f940 f i squirrelD:sqapi.obj
 0002:001a5a20       ??_ESQNativeClosure@@UAEPAXI@Z 3029fa20 f i squirrelD:sqapi.obj
 0002:001a5a20       ??_GSQNativeClosure@@UAEPAXI@Z 3029fa20 f i squirrelD:sqapi.obj
 0002:001a5a90       ??1SQNativeClosure@@UAE@XZ 3029fa90 f i squirrelD:sqapi.obj
 0002:001a5bb0       _sq_getclosureinfo         3029fbb0 f   squirrelD:sqapi.obj
 0002:001a5ca0       _sq_setnativeclosurename   3029fca0 f   squirrelD:sqapi.obj
 0002:001a5db0       _sq_setparamscheck         3029fdb0 f   squirrelD:sqapi.obj
 0002:001a5f60       _sq_bindenv                3029ff60 f   squirrelD:sqapi.obj
 0002:001a61c0       ??0SQObjectPtr@@QAE@PAUSQWeakRef@@@Z 302a01c0 f i squirrelD:sqapi.obj
 0002:001a6280       ?Clone@SQClosure@@QAEPAU1@XZ 302a0280 f i squirrelD:sqapi.obj
 0002:001a6320       ?Clone@SQNativeClosure@@QAEPAU1@XZ 302a0320 f i squirrelD:sqapi.obj
 0002:001a6400       _sq_pushroottable          302a0400 f   squirrelD:sqapi.obj
 0002:001a6460       _sq_pushregistrytable      302a0460 f   squirrelD:sqapi.obj
 0002:001a64c0       _sq_setroottable           302a04c0 f   squirrelD:sqapi.obj
 0002:001a65a0       _sq_setforeignptr          302a05a0 f   squirrelD:sqapi.obj
 0002:001a65e0       _sq_getforeignptr          302a05e0 f   squirrelD:sqapi.obj
 0002:001a6620       _sq_push                   302a0620 f   squirrelD:sqapi.obj
 0002:001a6680       _sq_gettype                302a0680 f   squirrelD:sqapi.obj
 0002:001a66e0       _sq_tostring               302a06e0 f   squirrelD:sqapi.obj
 0002:001a67b0       _sq_tobool                 302a07b0 f   squirrelD:sqapi.obj
 0002:001a6830       _sq_getinteger             302a0830 f   squirrelD:sqapi.obj
 0002:001a68f0       _sq_getfloat               302a08f0 f   squirrelD:sqapi.obj
 0002:001a69a0       _sq_getbool                302a09a0 f   squirrelD:sqapi.obj
 0002:001a6a20       _sq_getstring              302a0a20 f   squirrelD:sqapi.obj
 0002:001a6ae0       _sq_getthread              302a0ae0 f   squirrelD:sqapi.obj
 0002:001a6ba0       _sq_clone                  302a0ba0 f   squirrelD:sqapi.obj
 0002:001a6c60       _sq_getsize                302a0c60 f   squirrelD:sqapi.obj
 0002:001a6d70       ?CountUsed@SQTable@@QAEHXZ 302a0d70 f i squirrelD:sqapi.obj
 0002:001a6db0       _sq_getuserdata            302a0db0 f   squirrelD:sqapi.obj
 0002:001a6e90       _sq_settypetag             302a0e90 f   squirrelD:sqapi.obj
 0002:001a6f60       _sq_getobjtypetag          302a0f60 f   squirrelD:sqapi.obj
 0002:001a7020       _sq_gettypetag             302a1020 f   squirrelD:sqapi.obj
 0002:001a70b0       _sq_getuserpointer         302a10b0 f   squirrelD:sqapi.obj
 0002:001a7170       _sq_setinstanceup          302a1170 f   squirrelD:sqapi.obj
 0002:001a7200       _sq_getinstanceup          302a1200 f   squirrelD:sqapi.obj
 0002:001a72f0       _sq_gettop                 302a12f0 f   squirrelD:sqapi.obj
 0002:001a7330       _sq_settop                 302a1330 f   squirrelD:sqapi.obj
 0002:001a73d0       _sq_pop                    302a13d0 f   squirrelD:sqapi.obj
 0002:001a7450       _sq_poptop                 302a1450 f   squirrelD:sqapi.obj
 0002:001a74d0       _sq_remove                 302a14d0 f   squirrelD:sqapi.obj
 0002:001a7520       _sq_cmp                    302a1520 f   squirrelD:sqapi.obj
 0002:001a75d0       _sq_newslot                302a15d0 f   squirrelD:sqapi.obj
 0002:001a76f0       _sq_deleteslot             302a16f0 f   squirrelD:sqapi.obj
 0002:001a78b0       _sq_set                    302a18b0 f   squirrelD:sqapi.obj
 0002:001a7970       _sq_rawset                 302a1970 f   squirrelD:sqapi.obj
 0002:001a7bd0       ?Set@SQInstance@@QAE_NABUSQObjectPtr@@0@Z 302a1bd0 f i squirrelD:sqapi.obj
 0002:001a7d30       _sq_setdelegate            302a1d30 f   squirrelD:sqapi.obj
 0002:001a7f00       _sq_rawdeleteslot          302a1f00 f   squirrelD:sqapi.obj
 0002:001a8090       _sq_getdelegate            302a2090 f   squirrelD:sqapi.obj
 0002:001a8190       _sq_get                    302a2190 f   squirrelD:sqapi.obj
 0002:001a8250       _sq_rawget                 302a2250 f   squirrelD:sqapi.obj
 0002:001a8450       ?Get@SQClass@@QAE_NABUSQObjectPtr@@AAU2@@Z 302a2450 f i squirrelD:sqapi.obj
 0002:001a8590       ?Get@SQInstance@@QAE_NABUSQObjectPtr@@AAU2@@Z 302a2590 f i squirrelD:sqapi.obj
 0002:001a86e0       _sq_getstackobj            302a26e0 f   squirrelD:sqapi.obj
 0002:001a8750       _sq_getlocal               302a2750 f   squirrelD:sqapi.obj
 0002:001a88e0       _sq_pushobject             302a28e0 f   squirrelD:sqapi.obj
 0002:001a8950       _sq_resetobject            302a2950 f   squirrelD:sqapi.obj
 0002:001a89a0       _sq_throwerror             302a29a0 f   squirrelD:sqapi.obj
 0002:001a8a40       _sq_reseterror             302a2a40 f   squirrelD:sqapi.obj
 0002:001a8aa0       _sq_getlasterror           302a2aa0 f   squirrelD:sqapi.obj
 0002:001a8b00       _sq_reservestack           302a2b00 f   squirrelD:sqapi.obj
 0002:001a8bc0       _sq_resume                 302a2bc0 f   squirrelD:sqapi.obj
 0002:001a8cc0       _sq_call                   302a2cc0 f   squirrelD:sqapi.obj
 0002:001a8e70       _sq_suspendvm              302a2e70 f   squirrelD:sqapi.obj
 0002:001a8ec0       _sq_wakeupvm               302a2ec0 f   squirrelD:sqapi.obj
 0002:001a90e0       _sq_setreleasehook         302a30e0 f   squirrelD:sqapi.obj
 0002:001a91c0       _sq_setcompilererrorhandler 302a31c0 f   squirrelD:sqapi.obj
 0002:001a9210       _sq_writeclosure           302a3210 f   squirrelD:sqapi.obj
 0002:001a9340       _sq_readclosure            302a3340 f   squirrelD:sqapi.obj
 0002:001a94f0       _sq_getscratchpad          302a34f0 f   squirrelD:sqapi.obj
 0002:001a9550       _sq_collectgarbage         302a3550 f   squirrelD:sqapi.obj
 0002:001a95b0       _sq_getfreevariable        302a35b0 f   squirrelD:sqapi.obj
 0002:001a9690       _sq_setfreevariable        302a3690 f   squirrelD:sqapi.obj
 0002:001a9810       _sq_setattributes          302a3810 f   squirrelD:sqapi.obj
 0002:001a9a30       _sq_getattributes          302a3a30 f   squirrelD:sqapi.obj
 0002:001a9c00       _sq_getbase                302a3c00 f   squirrelD:sqapi.obj
 0002:001a9d10       _sq_getclass               302a3d10 f   squirrelD:sqapi.obj
 0002:001a9df0       _sq_createinstance         302a3df0 f   squirrelD:sqapi.obj
 0002:001a9ee0       ??0SQObjectPtr@@QAE@PAUSQInstance@@@Z 302a3ee0 f i squirrelD:sqapi.obj
 0002:001a9fa0       _sq_weakref                302a3fa0 f   squirrelD:sqapi.obj
 0002:001aa090       _sq_getweakrefval          302a4090 f   squirrelD:sqapi.obj
 0002:001aa150       _sq_getdefaultdelegate     302a4150 f   squirrelD:sqapi.obj
 0002:001aa3e0       _sq_next                   302a43e0 f   squirrelD:sqapi.obj
 0002:001aa630       ??0SQObjectPtr@@QAE@ABU0@@Z 302a4630 f i squirrelD:sqapi.obj
 0002:001aa6b0       ?buf_lexfeed@@YAHPAX@Z     302a46b0 f   squirrelD:sqapi.obj
 0002:001aa740       _sq_compilebuffer          302a4740 f   squirrelD:sqapi.obj
 0002:001aa7f0       _sq_move                   302a47f0 f   squirrelD:sqapi.obj
 0002:001aa850       _sq_setprintfunc           302a4850 f   squirrelD:sqapi.obj
 0002:001aa8a0       _sq_getprintfunc           302a48a0 f   squirrelD:sqapi.obj
 0002:001aa8f0       _sq_malloc                 302a48f0 f   squirrelD:sqapi.obj
 0002:001aa940       _sq_realloc                302a4940 f   squirrelD:sqapi.obj
 0002:001aa9a0       _sq_free                   302a49a0 f   squirrelD:sqapi.obj
 0002:001aaa00       ??0?$sqvector@USQObjectPtr@@@@QAE@XZ 302a4a00 f i squirrelD:sqapi.obj
 0002:001aaa60       ?copy@?$sqvector@USQObjectPtr@@@@QAEXABV1@@Z 302a4a60 f i squirrelD:sqapi.obj
 0002:001aac00       ??1?$sqvector@USQObjectPtr@@@@QAE@XZ 302a4c00 f i squirrelD:sqapi.obj
 0002:001aacb0       ??_GSQObjectPtr@@QAEPAXI@Z 302a4cb0 f i squirrelD:sqapi.obj
 0002:001aad20       ?resize@?$sqvector@USQObjectPtr@@@@QAEXIABUSQObjectPtr@@@Z 302a4d20 f i squirrelD:sqapi.obj
 0002:001aaec0       ?shrinktofit@?$sqvector@USQObjectPtr@@@@QAEXXZ 302a4ec0 f i squirrelD:sqapi.obj
 0002:001aaf30       ?top@?$sqvector@USQObjectPtr@@@@QBEAAUSQObjectPtr@@XZ 302a4f30 f i squirrelD:sqapi.obj
 0002:001aaf80       ?size@?$sqvector@USQObjectPtr@@@@QBEIXZ 302a4f80 f i squirrelD:sqapi.obj
 0002:001aafc0       ?push_back@?$sqvector@USQObjectPtr@@@@QAEAAUSQObjectPtr@@ABU2@@Z 302a4fc0 f i squirrelD:sqapi.obj
 0002:001ab110       ?pop_back@?$sqvector@USQObjectPtr@@@@QAEXXZ 302a5110 f i squirrelD:sqapi.obj
 0002:001ab190       ?capacity@?$sqvector@USQObjectPtr@@@@QAEIXZ 302a5190 f i squirrelD:sqapi.obj
 0002:001ab1d0       ??A?$sqvector@USQObjectPtr@@@@QBEAAUSQObjectPtr@@I@Z 302a51d0 f i squirrelD:sqapi.obj
 0002:001ab220       ??0?$sqvector@H@@QAE@XZ    302a5220 f i squirrelD:sqapi.obj
 0002:001ab280       ?copy@?$sqvector@H@@QAEXABV1@@Z 302a5280 f i squirrelD:sqapi.obj
 0002:001ab390       ??1?$sqvector@H@@QAE@XZ    302a5390 f i squirrelD:sqapi.obj
 0002:001ab430       ?resize@?$sqvector@H@@QAEXIABH@Z 302a5430 f i squirrelD:sqapi.obj
 0002:001ab560       ?size@?$sqvector@H@@QBEIXZ 302a5560 f i squirrelD:sqapi.obj
 0002:001ab5a0       ??A?$sqvector@USQClassMemeber@@@@QBEAAUSQClassMemeber@@I@Z 302a55a0 f i squirrelD:sqapi.obj
 0002:001ab5f0       ?_realloc@?$sqvector@USQObjectPtr@@@@AAEXI@Z 302a55f0 f i squirrelD:sqapi.obj
 0002:001ab6a0       ?_realloc@?$sqvector@H@@AAEXI@Z 302a56a0 f i squirrelD:sqapi.obj
 0002:001ab750       _sq_stackinfos             302a5750 f   squirrelD:sqdebug.obj
 0002:001ab8d0       ?Raise_Error@SQVM@@QAAXPBDZZ 302a58d0 f   squirrelD:sqdebug.obj
 0002:001aba10       ?Raise_Error@SQVM@@QAEXAAUSQObjectPtr@@@Z 302a5a10 f   squirrelD:sqdebug.obj
 0002:001aba70       ?PrintObjVal@SQVM@@QAEPAUSQString@@ABUtagSQObject@@@Z 302a5a70 f   squirrelD:sqdebug.obj
 0002:001abc80       ?Raise_IdxError@SQVM@@QAEXAAUtagSQObject@@@Z 302a5c80 f   squirrelD:sqdebug.obj
 0002:001abd90       ?Raise_CompareError@SQVM@@QAEXABUtagSQObject@@0@Z 302a5d90 f   squirrelD:sqdebug.obj
 0002:001abef0       ?Raise_ParamTypeError@SQVM@@QAEXHHH@Z 302a5ef0 f   squirrelD:sqdebug.obj
 0002:001ac160       ?BW_OP@SQVM@@QAE_NIAAUSQObjectPtr@@ABU2@1@Z 302a6160 f   squirrelD:sqvm.obj
 0002:001ac360       ?ARITH_OP@SQVM@@QAE_NIAAUSQObjectPtr@@ABU2@1@Z 302a6360 f   squirrelD:sqvm.obj
 0002:001ac7d0       ??0SQVM@@QAE@PAUSQSharedState@@@Z 302a67d0 f   squirrelD:sqvm.obj
 0002:001aca20       ??0VarArgs@SQVM@@QAE@XZ    302a6a20 f i squirrelD:sqvm.obj
 0002:001aca70       ?Release@SQVM@@UAEXXZ      302a6a70 f i squirrelD:sqvm.obj
 0002:001acaf0       ??_GSQVM@@UAEPAXI@Z        302a6af0 f i squirrelD:sqvm.obj
 0002:001acaf0       ??_ESQVM@@UAEPAXI@Z        302a6af0 f i squirrelD:sqvm.obj
 0002:001acb60       ?Finalize@SQVM@@UAEXXZ     302a6b60 f   squirrelD:sqvm.obj
 0002:001acc60       ??1SQVM@@UAE@XZ            302a6c60 f   squirrelD:sqvm.obj
 0002:001acdf0       ?ArithMetaMethod@SQVM@@QAE_NHABUSQObjectPtr@@0AAU2@@Z 302a6df0 f   squirrelD:sqvm.obj
 0002:001acf70       ?NEG_OP@SQVM@@QAE_NAAUSQObjectPtr@@ABU2@@Z 302a6f70 f   squirrelD:sqvm.obj
 0002:001ad1a0       ?ObjCmp@SQVM@@QAE_NABUSQObjectPtr@@0AAH@Z 302a71a0 f   squirrelD:sqvm.obj
 0002:001ad6e0       ?CMP_OP@SQVM@@QAE_NW4CmpOP@@ABUSQObjectPtr@@1AAU3@@Z 302a76e0 f   squirrelD:sqvm.obj
 0002:001ad920       ?ToString@SQVM@@QAEXABUSQObjectPtr@@AAU2@@Z 302a7920 f   squirrelD:sqvm.obj
 0002:001adc30       ?StringCat@SQVM@@QAE_NABUSQObjectPtr@@0AAU2@@Z 302a7c30 f   squirrelD:sqvm.obj
 0002:001ade60       ?IdType2Name@@YAPBDW4tagSQObjectType@@@Z 302a7e60 f   squirrelD:sqvm.obj
 0002:001ae110       ?GetTypeName@@YAPBDABUSQObjectPtr@@@Z 302a8110 f   squirrelD:sqvm.obj
 0002:001ae160       ?TypeOf@SQVM@@QAEXABUSQObjectPtr@@AAU2@@Z 302a8160 f   squirrelD:sqvm.obj
 0002:001ae2a0       ?Init@SQVM@@QAE_NPAU1@H@Z  302a82a0 f   squirrelD:sqvm.obj
 0002:001ae490       ?StartCall@SQVM@@QAE_NPAUSQClosure@@HHH_N@Z 302a8490 f   squirrelD:sqvm.obj
 0002:001ae880       ??0CallInfo@SQVM@@QAE@XZ   302a8880 f i squirrelD:sqvm.obj
 0002:001ae8f0       ?GrowCallStack@SQVM@@QAEXXZ 302a88f0 f i squirrelD:sqvm.obj
 0002:001ae980       ?Return@SQVM@@QAE_NHHAAUSQObjectPtr@@@Z 302a8980 f   squirrelD:sqvm.obj
 0002:001aec30       ?Null@SQObjectPtr@@QAEXXZ  302a8c30 f i squirrelD:sqvm.obj
 0002:001aecf0       ?LOCAL_INC@SQVM@@QAE_NHAAUSQObjectPtr@@00@Z 302a8cf0 f   squirrelD:sqvm.obj
 0002:001aed80       ?PLOCAL_INC@SQVM@@QAE_NHAAUSQObjectPtr@@00@Z 302a8d80 f   squirrelD:sqvm.obj
 0002:001aeed0       ?DerefInc@SQVM@@QAE_NHAAUSQObjectPtr@@000_N@Z 302a8ed0 f   squirrelD:sqvm.obj
 0002:001af150       ?Suspend@SQVM@@QAEHXZ      302a9150 f   squirrelD:sqvm.obj
 0002:001af1f0       ?PopVarArgs@SQVM@@QAEXAAUVarArgs@1@@Z 302a91f0 f   squirrelD:sqvm.obj
 0002:001af270       ?FOREACH_OP@SQVM@@QAE_NAAUSQObjectPtr@@000HAA_N@Z 302a9270 f   squirrelD:sqvm.obj
 0002:001af8e0       ?Next@SQArray@@QAEHABUSQObjectPtr@@AAU2@1@Z 302a98e0 f i squirrelD:sqvm.obj
 0002:001afa70       ?DELEGATE_OP@SQVM@@QAE_NAAUSQObjectPtr@@00@Z 302a9a70 f   squirrelD:sqvm.obj
 0002:001afbb0       ?CLOSURE_OP@SQVM@@QAE_NAAUSQObjectPtr@@PAUSQFunctionProto@@@Z 302a9bb0 f   squirrelD:sqvm.obj
 0002:001afe10       ?GETVARGV_OP@SQVM@@QAE_NAAUSQObjectPtr@@0PAUCallInfo@1@@Z 302a9e10 f   squirrelD:sqvm.obj
 0002:001aff60       ?CLASS_OP@SQVM@@QAE_NAAUSQObjectPtr@@HH@Z 302a9f60 f   squirrelD:sqvm.obj
 0002:001b0250       ?IsEqual@SQVM@@QAE_NAAUSQObjectPtr@@0AA_N@Z 302aa250 f   squirrelD:sqvm.obj
 0002:001b0370       ?IsFalse@SQVM@@QAE_NAAUSQObjectPtr@@@Z 302aa370 f   squirrelD:sqvm.obj
 0002:001b03f0       ?GETPARENT_OP@SQVM@@QAE_NAAUSQObjectPtr@@0@Z 302aa3f0 f   squirrelD:sqvm.obj
 0002:001b0680       ?Execute@SQVM@@QAE_NAAUSQObjectPtr@@HHH0IW4ExecutionType@1@@Z 302aa680 f   squirrelD:sqvm.obj
 0002:001b3ce0       ??0SQObjectPtr@@QAE@PAUSQGenerator@@@Z 302adce0 f i squirrelD:sqvm.obj
 0002:001b3da0       ??0SQExceptionTrap@@QAE@HHPAUSQInstruction@@H@Z 302adda0 f i squirrelD:sqvm.obj
 0002:001b3e10       ??0AutoDec@@QAE@PAH@Z      302ade10 f i squirrelD:sqvm.obj
 0002:001b3e60       ??1AutoDec@@QAE@XZ         302ade60 f i squirrelD:sqvm.obj
 0002:001b3eb0       ?Create@SQGenerator@@SAPAU1@PAUSQSharedState@@PAUSQClosure@@@Z 302adeb0 f i squirrelD:sqvm.obj
 0002:001b3fb0       ??0SQGenerator@@AAE@PAUSQSharedState@@PAUSQClosure@@@Z 302adfb0 f i squirrelD:sqvm.obj
 0002:001b4160       ?Kill@SQGenerator@@QAEXXZ  302ae160 f i squirrelD:sqvm.obj
 0002:001b4260       ?Release@SQGenerator@@UAEXXZ 302ae260 f i squirrelD:sqvm.obj
 0002:001b42e0       ?Finalize@SQGenerator@@UAEXXZ 302ae2e0 f i squirrelD:sqvm.obj
 0002:001b43d0       ??_GSQGenerator@@UAEPAXI@Z 302ae3d0 f i squirrelD:sqvm.obj
 0002:001b43d0       ??_ESQGenerator@@UAEPAXI@Z 302ae3d0 f i squirrelD:sqvm.obj
 0002:001b4440       ??1SQGenerator@@UAE@XZ     302ae440 f i squirrelD:sqvm.obj
 0002:001b4560       ?Reserve@SQArray@@QAEXH@Z  302ae560 f i squirrelD:sqvm.obj
 0002:001b45c0       ?CreateClassInstance@SQVM@@QAE_NPAUSQClass@@AAUSQObjectPtr@@1@Z 302ae5c0 f   squirrelD:sqvm.obj
 0002:001b46d0       ?CallErrorHandler@SQVM@@QAEXAAUSQObjectPtr@@@Z 302ae6d0 f   squirrelD:sqvm.obj
 0002:001b4810       ?CallDebugHook@SQVM@@QAEXHH@Z 302ae810 f   squirrelD:sqvm.obj
 0002:001b4a30       ?CallNative@SQVM@@QAE_NPAUSQNativeClosure@@HH_NAAUSQObjectPtr@@AA_N@Z 302aea30 f   squirrelD:sqvm.obj
 0002:001b4fe0       ?Get@SQVM@@QAE_NABUSQObjectPtr@@0AAU2@_N2@Z 302aefe0 f   squirrelD:sqvm.obj
 0002:001b51b0       ?Get@SQArray@@QAE_NHAAUSQObjectPtr@@@Z 302af1b0 f i squirrelD:sqvm.obj
 0002:001b52a0       ?FallBackGet@SQVM@@QAE_NABUSQObjectPtr@@0AAU2@_N@Z 302af2a0 f   squirrelD:sqvm.obj
 0002:001b5900       ?Set@SQVM@@QAE_NABUSQObjectPtr@@00_N@Z 302af900 f   squirrelD:sqvm.obj
 0002:001b5da0       ?Set@SQArray@@QAE_NHABUSQObjectPtr@@@Z 302afda0 f i squirrelD:sqvm.obj
 0002:001b5e30       ?Clone@SQVM@@QAE_NABUSQObjectPtr@@AAU2@@Z 302afe30 f   squirrelD:sqvm.obj
 0002:001b6160       ?Clone@SQArray@@QAEPAU1@XZ 302b0160 f i squirrelD:sqvm.obj
 0002:001b61e0       ?Clone@SQInstance@@QAEPAU1@PAUSQSharedState@@@Z 302b01e0 f i squirrelD:sqvm.obj
 0002:001b6340       ?NewSlot@SQVM@@QAE_NABUSQObjectPtr@@00_N@Z 302b0340 f   squirrelD:sqvm.obj
 0002:001b6660       ?DeleteSlot@SQVM@@QAE_NABUSQObjectPtr@@0AAU2@@Z 302b0660 f   squirrelD:sqvm.obj
 0002:001b68e0       ?Call@SQVM@@QAE_NAAUSQObjectPtr@@HH0I@Z 302b08e0 f   squirrelD:sqvm.obj
 0002:001b6bd0       ?CallMetaMethod@SQVM@@QAE_NPAUSQDelegable@@W4SQMetaMethod@@HAAUSQObjectPtr@@@Z 302b0bd0 f   squirrelD:sqvm.obj
 0002:001b6d70       ?Remove@SQVM@@QAEXH@Z      302b0d70 f   squirrelD:sqvm.obj
 0002:001b6e90       ?Pop@SQVM@@QAEXXZ          302b0e90 f   squirrelD:sqvm.obj
 0002:001b6f10       ?Pop@SQVM@@QAEXH@Z         302b0f10 f   squirrelD:sqvm.obj
 0002:001b6fc0       ?Push@SQVM@@QAEXABUSQObjectPtr@@@Z 302b0fc0 f   squirrelD:sqvm.obj
 0002:001b7050       ?Top@SQVM@@QAEAAUSQObjectPtr@@XZ 302b1050 f   squirrelD:sqvm.obj
 0002:001b70b0       ?PopGet@SQVM@@QAEAAUSQObjectPtr@@XZ 302b10b0 f   squirrelD:sqvm.obj
 0002:001b7120       ?GetUp@SQVM@@QAEAAUSQObjectPtr@@H@Z 302b1120 f   squirrelD:sqvm.obj
 0002:001b7190       ?GetAt@SQVM@@QAEAAUSQObjectPtr@@H@Z 302b1190 f   squirrelD:sqvm.obj
 0002:001b71f0       ?reserve@?$sqvector@USQObjectPtr@@@@QAEXI@Z 302b11f0 f i squirrelD:sqvm.obj
 0002:001b7250       ??0?$sqvector@USQExceptionTrap@@@@QAE@XZ 302b1250 f i squirrelD:sqvm.obj
 0002:001b72b0       ??1?$sqvector@USQExceptionTrap@@@@QAE@XZ 302b12b0 f i squirrelD:sqvm.obj
 0002:001b7350       ?top@?$sqvector@USQExceptionTrap@@@@QBEAAUSQExceptionTrap@@XZ 302b1350 f i squirrelD:sqvm.obj
 0002:001b73a0       ?push_back@?$sqvector@USQExceptionTrap@@@@QAEAAUSQExceptionTrap@@ABU2@@Z 302b13a0 f i squirrelD:sqvm.obj
 0002:001b74f0       ??0SQExceptionTrap@@QAE@ABU0@@Z 302b14f0 f i squirrelD:sqvm.obj
 0002:001b7550       ?pop_back@?$sqvector@USQExceptionTrap@@@@QAEXXZ 302b1550 f i squirrelD:sqvm.obj
 0002:001b75a0       ??A?$sqvector@H@@QBEAAHI@Z 302b15a0 f i squirrelD:sqvm.obj
 0002:001b75f0       ?size@?$sqvector@USQClassMemeber@@@@QBEIXZ 302b15f0 f i squirrelD:sqvm.obj
 0002:001b7630       ?_realloc@?$sqvector@USQExceptionTrap@@@@AAEXI@Z 302b1630 f i squirrelD:sqvm.obj
 0002:001b76e0       ??0SQSharedState@@QAE@XZ   302b16e0 f   squirrelD:sqstate.obj
 0002:001b78d0       ?CompileTypemask@@YA_NAAV?$sqvector@H@@PBD@Z 302b18d0 f   squirrelD:sqstate.obj
 0002:001b7c60       ?CreateDefaultDelegate@@YAPAUSQTable@@PAUSQSharedState@@PAUtagSQRegFunction@@@Z 302b1c60 f   squirrelD:sqstate.obj
 0002:001b7ea0       ?Init@SQSharedState@@QAEXXZ 302b1ea0 f   squirrelD:sqstate.obj
 0002:001b98b0       ??1SQSharedState@@QAE@XZ   302b38b0 f   squirrelD:sqstate.obj
 0002:001b9e20       ??_G?$sqvector@USQObjectPtr@@@@QAEPAXI@Z 302b3e20 f i squirrelD:sqstate.obj
 0002:001b9e90       ??_GStringTable@@QAEPAXI@Z 302b3e90 f i squirrelD:sqstate.obj
 0002:001b9f00       ?GetMetaMethodIdxByName@SQSharedState@@QAEHABUSQObjectPtr@@@Z 302b3f00 f   squirrelD:sqstate.obj
 0002:001ba050       ?MarkObject@SQSharedState@@SAXAAUSQObjectPtr@@PAPAUSQCollectable@@@Z 302b4050 f   squirrelD:sqstate.obj
 0002:001ba320       ?CollectGarbage@SQSharedState@@QAEHPAUSQVM@@@Z 302b4320 f   squirrelD:sqstate.obj
 0002:001ba650       ?AddToChain@SQCollectable@@SAXPAPAU1@PAU1@@Z 302b4650 f   squirrelD:sqstate.obj
 0002:001ba6c0       ?RemoveFromChain@SQCollectable@@SAXPAPAU1@PAU1@@Z 302b46c0 f   squirrelD:sqstate.obj
 0002:001ba760       ?GetScratchPad@SQSharedState@@QAEPADH@Z 302b4760 f   squirrelD:sqstate.obj
 0002:001ba890       ??0RefTable@@QAE@XZ        302b4890 f   squirrelD:sqstate.obj
 0002:001ba8f0       ?Finalize@RefTable@@QAEXXZ 302b48f0 f   squirrelD:sqstate.obj
 0002:001ba990       ??1RefTable@@QAE@XZ        302b4990 f   squirrelD:sqstate.obj
 0002:001baa00       ?Mark@RefTable@@QAEXPAPAUSQCollectable@@@Z 302b4a00 f   squirrelD:sqstate.obj
 0002:001baab0       ?AddRef@RefTable@@QAEXAAUtagSQObject@@@Z 302b4ab0 f   squirrelD:sqstate.obj
 0002:001bab80       ?Release@RefTable@@QAEIAAUtagSQObject@@@Z 302b4b80 f   squirrelD:sqstate.obj
 0002:001bad90       ?Resize@RefTable@@AAEXI@Z  302b4d90 f   squirrelD:sqstate.obj
 0002:001baf30       ?HashObj@@YAIABUSQObjectPtr@@@Z 302b4f30 f i squirrelD:sqstate.obj
 0002:001bb000       ?Add@RefTable@@AAEPAURefNode@1@IAAUtagSQObject@@@Z 302b5000 f   squirrelD:sqstate.obj
 0002:001bb0f0       ?Get@RefTable@@AAEPAURefNode@1@AAUtagSQObject@@AAIPAPAU21@_N@Z 302b50f0 f   squirrelD:sqstate.obj
 0002:001bb310       ?AllocNodes@RefTable@@AAEXI@Z 302b5310 f   squirrelD:sqstate.obj
 0002:001bb560       ??0StringTable@@QAE@XZ     302b5560 f   squirrelD:sqstate.obj
 0002:001bb5d0       ??1StringTable@@QAE@XZ     302b55d0 f   squirrelD:sqstate.obj
 0002:001bb640       ?AllocNodes@StringTable@@AAEXH@Z 302b5640 f   squirrelD:sqstate.obj
 0002:001bb6d0       ?Add@StringTable@@QAEPAUSQString@@PBDH@Z 302b56d0 f   squirrelD:sqstate.obj
 0002:001bb930       ?_hashstr@@YAIPBDI@Z       302b5930 f i squirrelD:sqstate.obj
 0002:001bb9d0       ??0SQString@@QAE@XZ        302b59d0 f i squirrelD:sqstate.obj
 0002:001bba30       ??_GSQString@@UAEPAXI@Z    302b5a30 f i squirrelD:sqstate.obj
 0002:001bba30       ??_ESQString@@UAEPAXI@Z    302b5a30 f i squirrelD:sqstate.obj
 0002:001bbaa0       ??1SQString@@UAE@XZ        302b5aa0 f i squirrelD:sqstate.obj
 0002:001bbb00       ?Resize@StringTable@@AAEXH@Z 302b5b00 f   squirrelD:sqstate.obj
 0002:001bbc10       ?Remove@StringTable@@QAEXPAUSQString@@@Z 302b5c10 f   squirrelD:sqstate.obj
 0002:001bbd70       ?empty@?$sqvector@USQObjectPtr@@@@QBE_NXZ 302b5d70 f i squirrelD:sqstate.obj
 0002:001bbdc0       ?back@?$sqvector@USQObjectPtr@@@@QBEAAUSQObjectPtr@@XZ 302b5dc0 f i squirrelD:sqstate.obj
 0002:001bbe10       ?push_back@?$sqvector@H@@QAEAAHABH@Z 302b5e10 f i squirrelD:sqstate.obj
 0002:001bbf10       ?sq_vm_malloc@@YAPAXI@Z    302b5f10 f   squirrelD:sqmem.obj
 0002:001bbf60       ?sq_vm_realloc@@YAPAXPAXII@Z 302b5f60 f   squirrelD:sqmem.obj
 0002:001bbfc0       ?sq_vm_free@@YAXPAXI@Z     302b5fc0 f   squirrelD:sqmem.obj
 0002:001bc010       ?Compile@@YA_NPAUSQVM@@P6AHPAX@Z1PBDAAUSQObjectPtr@@_N5@Z 302b6010 f   squirrelD:sqcompiler.obj
 0002:001bc130       ??0SQCompiler@@QAE@PAUSQVM@@P6AHPAX@Z1PBD_N4@Z 302b6130 f i squirrelD:sqcompiler.obj
 0002:001bc2c0       ?ThrowError@SQCompiler@@SAXPAXPBD@Z 302b62c0 f i squirrelD:sqcompiler.obj
 0002:001bc320       ?Error@SQCompiler@@QAAXPBDZZ 302b6320 f i squirrelD:sqcompiler.obj
 0002:001bc3b0       ?Compile@SQCompiler@@QAE_NAAUSQObjectPtr@@@Z 302b63b0 f i squirrelD:sqcompiler.obj
 0002:001bc810       ?AddInstruction@SQFuncState@@QAEXW4SQOpcode@@HHHH@Z 302b6810 f i squirrelD:sqcompiler.obj
 0002:001bc8c0       ??0SQInstruction@@QAE@W4SQOpcode@@HHHH@Z 302b68c0 f i squirrelD:sqcompiler.obj
 0002:001bc940       ?Lex@SQCompiler@@QAEXXZ    302b6940 f i squirrelD:sqcompiler.obj
 0002:001bc9a0       ?OptionalSemicolon@SQCompiler@@QAEXXZ 302b69a0 f i squirrelD:sqcompiler.obj
 0002:001bca30       ?IsEndOfStatement@SQCompiler@@QAE_NXZ 302b6a30 f i squirrelD:sqcompiler.obj
 0002:001bcab0       ?Statement@SQCompiler@@QAEXXZ 302b6ab0 f i squirrelD:sqcompiler.obj
 0002:001bd170       ?SnoozeOpt@SQFuncState@@QAEXXZ 302b7170 f i squirrelD:sqcompiler.obj
 0002:001bd1c0       ?GetCurrentPos@SQFuncState@@QAEHXZ 302b71c0 f i squirrelD:sqcompiler.obj
 0002:001bd220       ?Expect@SQCompiler@@QAE?AUtagSQObject@@H@Z 302b7220 f i squirrelD:sqcompiler.obj
 0002:001bd5a0       ?Statements@SQCompiler@@QAEXXZ 302b75a0 f i squirrelD:sqcompiler.obj
 0002:001bd640       ?CommaExpr@SQCompiler@@QAEXXZ 302b7640 f i squirrelD:sqcompiler.obj
 0002:001bd6d0       ?Expression@SQCompiler@@QAE?AUExpState@@_N@Z 302b76d0 f i squirrelD:sqcompiler.obj
 0002:001bdbb0       ?PushExpState@SQCompiler@@QAEXXZ 302b7bb0 f i squirrelD:sqcompiler.obj
 0002:001bdc20       ??0ExpState@@QAE@XZ        302b7c20 f i squirrelD:sqcompiler.obj
 0002:001bdc80       ?PopExpState@SQCompiler@@QAE?AUExpState@@XZ 302b7c80 f i squirrelD:sqcompiler.obj
 0002:001bdd40       ?EmitDerefOp@SQCompiler@@QAEXW4SQOpcode@@@Z 302b7d40 f i squirrelD:sqcompiler.obj
 0002:001bddf0       ?EmitCompoundArith@SQCompiler@@QAEXH_N@Z 302b7df0 f i squirrelD:sqcompiler.obj
 0002:001bdfb0       ?Emit2ArgsOP@SQCompiler@@QAEXW4SQOpcode@@H@Z 302b7fb0 f i squirrelD:sqcompiler.obj
 0002:001be050       ?LogicalOrExp@SQCompiler@@QAEXXZ 302b8050 f i squirrelD:sqcompiler.obj
 0002:001be1e0       ?LogicalAndExp@SQCompiler@@QAEXXZ 302b81e0 f i squirrelD:sqcompiler.obj
 0002:001be3d0       ?BIN_EXP@SQCompiler@@QAEXW4SQOpcode@@P81@AEXXZH@Z 302b83d0 f i squirrelD:sqcompiler.obj
 0002:001be490       ?BitwiseOrExp@SQCompiler@@QAEXXZ 302b8490 f i squirrelD:sqcompiler.obj
 0002:001be510       ?BitwiseXorExp@SQCompiler@@QAEXXZ 302b8510 f i squirrelD:sqcompiler.obj
 0002:001be590       ?BitwiseAndExp@SQCompiler@@QAEXXZ 302b8590 f i squirrelD:sqcompiler.obj
 0002:001be610       ?CompExp@SQCompiler@@QAEXXZ 302b8610 f i squirrelD:sqcompiler.obj
 0002:001be870       ?ShiftExp@SQCompiler@@QAEXXZ 302b8870 f i squirrelD:sqcompiler.obj
 0002:001be950       ?PlusExp@SQCompiler@@QAEXXZ 302b8950 f i squirrelD:sqcompiler.obj
 0002:001be9f0       ?MultExp@SQCompiler@@QAEXXZ 302b89f0 f i squirrelD:sqcompiler.obj
 0002:001beaa0       ?PrefixedExpr@SQCompiler@@QAEXXZ 302b8aa0 f i squirrelD:sqcompiler.obj
 0002:001bef40       ?Factor@SQCompiler@@QAEHXZ 302b8f40 f i squirrelD:sqcompiler.obj
 0002:001bfa70       ?UnaryOP@SQCompiler@@QAEXW4SQOpcode@@@Z 302b9a70 f i squirrelD:sqcompiler.obj
 0002:001bfb10       ?NeedGet@SQCompiler@@QAE_NXZ 302b9b10 f i squirrelD:sqcompiler.obj
 0002:001bfc70       ?FunctionCallArgs@SQCompiler@@QAEXXZ 302b9c70 f i squirrelD:sqcompiler.obj
 0002:001bfdc0       ?MoveIfCurrentTargetIsLocal@SQCompiler@@QAEXXZ 302b9dc0 f i squirrelD:sqcompiler.obj
 0002:001bfe70       ?ParseTableOrClass@SQCompiler@@QAEXHH@Z 302b9e70 f i squirrelD:sqcompiler.obj
 0002:001c0340       ?LocalDeclStatement@SQCompiler@@QAEXXZ 302ba340 f i squirrelD:sqcompiler.obj
 0002:001c04d0       ?IfStatement@SQCompiler@@QAEXXZ 302ba4d0 f i squirrelD:sqcompiler.obj
 0002:001c06c0       ?WhileStatement@SQCompiler@@QAEXXZ 302ba6c0 f i squirrelD:sqcompiler.obj
 0002:001c0950       ?DoWhileStatement@SQCompiler@@QAEXXZ 302ba950 f i squirrelD:sqcompiler.obj
 0002:001c0ba0       ?ForStatement@SQCompiler@@QAEXXZ 302baba0 f i squirrelD:sqcompiler.obj
 0002:001c10a0       ?GetInstruction@SQFuncState@@QAEAAUSQInstruction@@H@Z 302bb0a0 f i squirrelD:sqcompiler.obj
 0002:001c1100       ?PopInstructions@SQFuncState@@QAEXH@Z 302bb100 f i squirrelD:sqcompiler.obj
 0002:001c1180       ?ForEachStatement@SQCompiler@@QAEXXZ 302bb180 f i squirrelD:sqcompiler.obj
 0002:001c15f0       ?SwitchStatement@SQCompiler@@QAEXXZ 302bb5f0 f i squirrelD:sqcompiler.obj
 0002:001c1960       ?FunctionStatement@SQCompiler@@QAEXXZ 302bb960 f i squirrelD:sqcompiler.obj
 0002:001c1b90       ?ClassStatement@SQCompiler@@QAEXXZ 302bbb90 f i squirrelD:sqcompiler.obj
 0002:001c1ce0       ?TryCatchStatement@SQCompiler@@QAEXXZ 302bbce0 f i squirrelD:sqcompiler.obj
 0002:001c2080       ?FunctionExp@SQCompiler@@QAEXH@Z 302bc080 f i squirrelD:sqcompiler.obj
 0002:001c2150       ?ClassExp@SQCompiler@@QAEXXZ 302bc150 f i squirrelD:sqcompiler.obj
 0002:001c22d0       ?DelegateExpr@SQCompiler@@QAEXXZ 302bc2d0 f i squirrelD:sqcompiler.obj
 0002:001c23a0       ?DeleteExpr@SQCompiler@@QAEXXZ 302bc3a0 f i squirrelD:sqcompiler.obj
 0002:001c24d0       ?PrefixIncDec@SQCompiler@@QAEXH@Z 302bc4d0 f i squirrelD:sqcompiler.obj
 0002:001c2640       ?CreateFunction@SQCompiler@@QAEXAAUtagSQObject@@@Z 302bc640 f i squirrelD:sqcompiler.obj
 0002:001c2a10       ?CleanStack@SQCompiler@@QAEXH@Z 302bca10 f i squirrelD:sqcompiler.obj
 0002:001c2a80       ?ResolveBreaks@SQCompiler@@QAEXPAUSQFuncState@@H@Z 302bca80 f i squirrelD:sqcompiler.obj
 0002:001c2b30       ?ResolveContinues@SQCompiler@@QAEXPAUSQFuncState@@HH@Z 302bcb30 f i squirrelD:sqcompiler.obj
 0002:001c2bd0       ??1SQCompiler@@QAE@XZ      302bcbd0 f i squirrelD:sqcompiler.obj
 0002:001c2c90       ?top@?$sqvector@H@@QBEAAHXZ 302bcc90 f i squirrelD:sqcompiler.obj
 0002:001c2ce0       ?pop_back@?$sqvector@H@@QAEXXZ 302bcce0 f i squirrelD:sqcompiler.obj
 0002:001c2d30       ?back@?$sqvector@H@@QBEAAHXZ 302bcd30 f i squirrelD:sqcompiler.obj
 0002:001c2d80       ??0?$sqvector@USQInstruction@@@@QAE@XZ 302bcd80 f i squirrelD:sqcompiler.obj
 0002:001c2de0       ??1?$sqvector@USQInstruction@@@@QAE@XZ 302bcde0 f i squirrelD:sqcompiler.obj
 0002:001c2e80       ?size@?$sqvector@USQInstruction@@@@QBEIXZ 302bce80 f i squirrelD:sqcompiler.obj
 0002:001c2ec0       ?push_back@?$sqvector@USQInstruction@@@@QAEAAUSQInstruction@@ABU2@@Z 302bcec0 f i squirrelD:sqcompiler.obj
 0002:001c2fc0       ?pop_back@?$sqvector@USQInstruction@@@@QAEXXZ 302bcfc0 f i squirrelD:sqcompiler.obj
 0002:001c3010       ??A?$sqvector@USQInstruction@@@@QBEAAUSQInstruction@@I@Z 302bd010 f i squirrelD:sqcompiler.obj
 0002:001c3060       ?size@?$sqvector@D@@QBEIXZ 302bd060 f i squirrelD:sqcompiler.obj
 0002:001c30a0       ??0?$sqvector@UExpState@@@@QAE@XZ 302bd0a0 f i squirrelD:sqcompiler.obj
 0002:001c3100       ??1?$sqvector@UExpState@@@@QAE@XZ 302bd100 f i squirrelD:sqcompiler.obj
 0002:001c31a0       ?top@?$sqvector@UExpState@@@@QBEAAUExpState@@XZ 302bd1a0 f i squirrelD:sqcompiler.obj
 0002:001c31f0       ?push_back@?$sqvector@UExpState@@@@QAEAAUExpState@@ABU2@@Z 302bd1f0 f i squirrelD:sqcompiler.obj
 0002:001c32f0       ?pop_back@?$sqvector@UExpState@@@@QAEXXZ 302bd2f0 f i squirrelD:sqcompiler.obj
 0002:001c3340       ?_realloc@?$sqvector@USQInstruction@@@@AAEXI@Z 302bd340 f i squirrelD:sqcompiler.obj
 0002:001c33f0       ?_realloc@?$sqvector@UExpState@@@@AAEXI@Z 302bd3f0 f i squirrelD:sqcompiler.obj
 0002:001c34a0       ?Create@SQString@@SAPAU1@PAUSQSharedState@@PBDH@Z 302bd4a0 f   squirrelD:sqobject.obj
 0002:001c3510       ?Release@SQString@@UAEXXZ  302bd510 f   squirrelD:sqobject.obj
 0002:001c3570       ?Next@SQString@@QAEHABUSQObjectPtr@@AAU2@1@Z 302bd570 f   squirrelD:sqobject.obj
 0002:001c36c0       ?TranslateIndex@@YAIABUSQObjectPtr@@@Z 302bd6c0 f   squirrelD:sqobject.obj
 0002:001c3770       ?GetWeakRef@SQRefCounted@@QAEPAUSQWeakRef@@W4tagSQObjectType@@@Z 302bd770 f   squirrelD:sqobject.obj
 0002:001c38a0       ??0SQWeakRef@@QAE@XZ       302bd8a0 f i squirrelD:sqobject.obj
 0002:001c3900       ??_GSQWeakRef@@UAEPAXI@Z   302bd900 f i squirrelD:sqobject.obj
 0002:001c3900       ??_ESQWeakRef@@UAEPAXI@Z   302bd900 f i squirrelD:sqobject.obj
 0002:001c3970       ??1SQWeakRef@@UAE@XZ       302bd970 f i squirrelD:sqobject.obj
 0002:001c39c0       ??1SQRefCounted@@UAE@XZ    302bd9c0 f   squirrelD:sqobject.obj
 0002:001c3a30       ?Release@SQWeakRef@@UAEXXZ 302bda30 f   squirrelD:sqobject.obj
 0002:001c3ad0       ?GetMetaMethod@SQDelegable@@UAE_NPAUSQVM@@W4SQMetaMethod@@AAUSQObjectPtr@@@Z 302bdad0 f   squirrelD:sqobject.obj
 0002:001c3b60       ?SetDelegate@SQDelegable@@QAE_NPAUSQTable@@@Z 302bdb60 f   squirrelD:sqobject.obj
 0002:001c3c70       ?Yield@SQGenerator@@QAE_NPAUSQVM@@@Z 302bdc70 f   squirrelD:sqobject.obj
 0002:001c3f30       ?Resume@SQGenerator@@QAE_NPAUSQVM@@H@Z 302bdf30 f   squirrelD:sqobject.obj
 0002:001c4250       ?Extend@SQArray@@QAEXPBU1@@Z 302be250 f   squirrelD:sqobject.obj
 0002:001c42f0       ?GetLocal@SQFunctionProto@@QAEPBDPAUSQVM@@III@Z 302be2f0 f   squirrelD:sqobject.obj
 0002:001c4420       ?GetLine@SQFunctionProto@@QAEHPAUSQInstruction@@@Z 302be420 f   squirrelD:sqobject.obj
 0002:001c44e0       ?SafeWrite@@YA_NPAUSQVM@@P6AHPAX1H@Z11H@Z 302be4e0 f   squirrelD:sqobject.obj
 0002:001c4570       ?SafeRead@@YA_NPAUSQVM@@P6AHPAX1H@Z11H@Z 302be570 f   squirrelD:sqobject.obj
 0002:001c4600       ?WriteTag@@YA_NPAUSQVM@@P6AHPAX1H@Z1H@Z 302be600 f   squirrelD:sqobject.obj
 0002:001c4660       ?CheckTag@@YA_NPAUSQVM@@P6AHPAX1H@Z1H@Z 302be660 f   squirrelD:sqobject.obj
 0002:001c4730       ?WriteObject@@YA_NPAUSQVM@@PAXP6AH11H@ZAAUSQObjectPtr@@@Z 302be730 f   squirrelD:sqobject.obj
 0002:001c4930       ?ReadObject@@YA_NPAUSQVM@@PAXP6AH11H@ZAAUSQObjectPtr@@@Z 302be930 f   squirrelD:sqobject.obj
 0002:001c4ce0       ?Save@SQClosure@@QAE_NPAUSQVM@@PAXP6AH11H@Z@Z 302bece0 f   squirrelD:sqobject.obj
 0002:001c4de0       ?Load@SQClosure@@SA_NPAUSQVM@@PAXP6AH11H@ZAAUSQObjectPtr@@@Z 302bede0 f   squirrelD:sqobject.obj
 0002:001c5020       ?Save@SQFunctionProto@@QAE_NPAUSQVM@@PAXP6AH11H@Z@Z 302bf020 f   squirrelD:sqobject.obj
 0002:001c5950       ?Load@SQFunctionProto@@SA_NPAUSQVM@@PAXP6AH11H@ZAAUSQObjectPtr@@@Z 302bf950 f   squirrelD:sqobject.obj
 0002:001c70a0       ??0SQOuterVar@@QAE@ABUSQObjectPtr@@0W4SQOuterType@@@Z 302c10a0 f i squirrelD:sqobject.obj
 0002:001c7190       ??0SQLocalVarInfo@@QAE@XZ  302c1190 f i squirrelD:sqobject.obj
 0002:001c7200       ?Create@SQFunctionProto@@SAPAU1@HHHHHHH@Z 302c1200 f i squirrelD:sqobject.obj
 0002:001c7710       ??0SQOuterVar@@QAE@XZ      302c1710 f i squirrelD:sqobject.obj
 0002:001c77c0       ??0SQFunctionProto@@AAE@XZ 302c17c0 f i squirrelD:sqobject.obj
 0002:001c78c0       ??0SQInstruction@@QAE@XZ   302c18c0 f i squirrelD:sqobject.obj
 0002:001c7900       ?Release@SQFunctionProto@@UAEXXZ 302c1900 f i squirrelD:sqobject.obj
 0002:001c7b10       ??_ESQFunctionProto@@UAEPAXI@Z 302c1b10 f i squirrelD:sqobject.obj
 0002:001c7b10       ??_GSQFunctionProto@@UAEPAXI@Z 302c1b10 f i squirrelD:sqobject.obj
 0002:001c7b80       ??_GSQOuterVar@@QAEPAXI@Z  302c1b80 f i squirrelD:sqobject.obj
 0002:001c7bf0       ??_GSQLocalVarInfo@@QAEPAXI@Z 302c1bf0 f i squirrelD:sqobject.obj
 0002:001c7c60       ??1SQFunctionProto@@UAE@XZ 302c1c60 f i squirrelD:sqobject.obj
 0002:001c7d20       ??1SQOuterVar@@QAE@XZ      302c1d20 f i squirrelD:sqobject.obj
 0002:001c7dd0       ??1SQLocalVarInfo@@QAE@XZ  302c1dd0 f i squirrelD:sqobject.obj
 0002:001c7e20       ??4SQOuterVar@@QAEAAU0@ABU0@@Z 302c1e20 f i squirrelD:sqobject.obj
 0002:001c7eb0       ??4SQLocalVarInfo@@QAEAAU0@ABU0@@Z 302c1eb0 f i squirrelD:sqobject.obj
 0002:001c7f40       ?Mark@SQVM@@UAEXPAPAUSQCollectable@@@Z 302c1f40 f   squirrelD:sqobject.obj
 0002:001c8100       ?Mark@SQArray@@UAEXPAPAUSQCollectable@@@Z 302c2100 f   squirrelD:sqobject.obj
 0002:001c8200       ?Mark@SQTable@@UAEXPAPAUSQCollectable@@@Z 302c2200 f   squirrelD:sqobject.obj
 0002:001c8350       ?Mark@SQClass@@UAEXPAPAUSQCollectable@@@Z 302c2350 f   squirrelD:sqobject.obj
 0002:001c85b0       ?Mark@SQInstance@@UAEXPAPAUSQCollectable@@@Z 302c25b0 f   squirrelD:sqobject.obj
 0002:001c86c0       ?Mark@SQGenerator@@UAEXPAPAUSQCollectable@@@Z 302c26c0 f   squirrelD:sqobject.obj
 0002:001c8820       ?Mark@SQClosure@@UAEXPAPAUSQCollectable@@@Z 302c2820 f   squirrelD:sqobject.obj
 0002:001c8910       ?Mark@SQNativeClosure@@UAEXPAPAUSQCollectable@@@Z 302c2910 f   squirrelD:sqobject.obj
 0002:001c8a00       ?Mark@SQUserData@@UAEXPAPAUSQCollectable@@@Z 302c2a00 f   squirrelD:sqobject.obj
 0002:001c8ae0       ?UnMark@SQCollectable@@QAEXXZ 302c2ae0 f   squirrelD:sqobject.obj
 0002:001c8b30       ??0SQTable@@AAE@PAUSQSharedState@@H@Z 302c2b30 f   squirrelD:sqtable.obj
 0002:001c8c60       ?Release@SQTable@@UAEXXZ   302c2c60 f i squirrelD:sqtable.obj
 0002:001c8ce0       ??_ESQTable@@UAEPAXI@Z     302c2ce0 f i squirrelD:sqtable.obj
 0002:001c8ce0       ??_GSQTable@@UAEPAXI@Z     302c2ce0 f i squirrelD:sqtable.obj
 0002:001c8d50       ??1SQTable@@UAE@XZ         302c2d50 f i squirrelD:sqtable.obj
 0002:001c8e90       ??_G_HashNode@SQTable@@QAEPAXI@Z 302c2e90 f i squirrelD:sqtable.obj
 0002:001c8f00       ??1_HashNode@SQTable@@QAE@XZ 302c2f00 f i squirrelD:sqtable.obj
 0002:001c8fb0       ?Remove@SQTable@@QAEXABUSQObjectPtr@@@Z 302c2fb0 f   squirrelD:sqtable.obj
 0002:001c9070       ?_Get@SQTable@@QAEPAU_HashNode@1@ABUSQObjectPtr@@I@Z 302c3070 f i squirrelD:sqtable.obj
 0002:001c9100       ?AllocNodes@SQTable@@AAEXH@Z 302c3100 f   squirrelD:sqtable.obj
 0002:001c9270       ??0_HashNode@SQTable@@QAE@XZ 302c3270 f i squirrelD:sqtable.obj
 0002:001c9330       ?Rehash@SQTable@@AAEX_N@Z  302c3330 f   squirrelD:sqtable.obj
 0002:001c94f0       ?Clone@SQTable@@QAEPAU1@XZ 302c34f0 f   squirrelD:sqtable.obj
 0002:001c96d0       ?Get@SQTable@@QAE_NABUSQObjectPtr@@AAU2@@Z 302c36d0 f   squirrelD:sqtable.obj
 0002:001c97e0       ?NewSlot@SQTable@@QAE_NABUSQObjectPtr@@0@Z 302c37e0 f   squirrelD:sqtable.obj
 0002:001c9ad0       ?Next@SQTable@@QAEH_NABUSQObjectPtr@@AAU2@2@Z 302c3ad0 f   squirrelD:sqtable.obj
 0002:001c9c70       ?Set@SQTable@@QAE_NABUSQObjectPtr@@0@Z 302c3c70 f   squirrelD:sqtable.obj
 0002:001c9d10       ?Finalize@SQTable@@UAEXXZ  302c3d10 f   squirrelD:sqtable.obj
 0002:001c9dd0       ??0SQClass@@QAE@PAUSQSharedState@@PAU0@@Z 302c3dd0 f   squirrelD:sqclass.obj
 0002:001ca050       ?Release@SQClass@@UAEXXZ   302c4050 f i squirrelD:sqclass.obj
 0002:001ca100       ??_GSQClass@@UAEPAXI@Z     302c4100 f i squirrelD:sqclass.obj
 0002:001ca100       ??_ESQClass@@UAEPAXI@Z     302c4100 f i squirrelD:sqclass.obj
 0002:001ca170       ?Finalize@SQClass@@UAEXXZ  302c4170 f   squirrelD:sqclass.obj
 0002:001ca3f0       ??0SQClassMemeber@@QAE@XZ  302c43f0 f i squirrelD:sqclass.obj
 0002:001ca4a0       ??1SQClassMemeber@@QAE@XZ  302c44a0 f i squirrelD:sqclass.obj
 0002:001ca550       ??1SQClass@@UAE@XZ         302c4550 f   squirrelD:sqclass.obj
 0002:001ca680       ?NewSlot@SQClass@@QAE_NPAUSQSharedState@@ABUSQObjectPtr@@1_N@Z 302c4680 f   squirrelD:sqclass.obj
 0002:001caa90       ?CreateInstance@SQClass@@QAEPAUSQInstance@@XZ 302c4a90 f   squirrelD:sqclass.obj
 0002:001cab10       ?Lock@SQClass@@QAEXXZ      302c4b10 f i squirrelD:sqclass.obj
 0002:001cab80       ?Create@SQInstance@@SAPAU1@PAUSQSharedState@@PAUSQClass@@@Z 302c4b80 f i squirrelD:sqclass.obj
 0002:001cacd0       ?Next@SQClass@@QAEHABUSQObjectPtr@@AAU2@1@Z 302c4cd0 f   squirrelD:sqclass.obj
 0002:001caeb0       ?SetAttributes@SQClass@@QAE_NABUSQObjectPtr@@0@Z 302c4eb0 f   squirrelD:sqclass.obj
 0002:001cb050       ?GetAttributes@SQClass@@QAE_NABUSQObjectPtr@@AAU2@@Z 302c5050 f   squirrelD:sqclass.obj
 0002:001cb200       ?Init@SQInstance@@QAEXPAUSQSharedState@@@Z 302c5200 f   squirrelD:sqclass.obj
 0002:001cb2d0       ??0SQInstance@@QAE@PAUSQSharedState@@PAUSQClass@@H@Z 302c52d0 f   squirrelD:sqclass.obj
 0002:001cb490       ?Release@SQInstance@@UAEXXZ 302c5490 f i squirrelD:sqclass.obj
 0002:001cb540       ??_GSQInstance@@UAEPAXI@Z  302c5540 f i squirrelD:sqclass.obj
 0002:001cb540       ??_ESQInstance@@UAEPAXI@Z  302c5540 f i squirrelD:sqclass.obj
 0002:001cb5b0       ??0SQInstance@@QAE@PAUSQSharedState@@PAU0@H@Z 302c55b0 f   squirrelD:sqclass.obj
 0002:001cb760       ?Finalize@SQInstance@@UAEXXZ 302c5760 f   squirrelD:sqclass.obj
 0002:001cb850       ??1SQInstance@@UAE@XZ      302c5850 f   squirrelD:sqclass.obj
 0002:001cb950       ?GetMetaMethod@SQInstance@@UAE_NPAUSQVM@@W4SQMetaMethod@@AAUSQObjectPtr@@@Z 302c5950 f   squirrelD:sqclass.obj
 0002:001cb9f0       ?InstanceOf@SQInstance@@QAE_NPAUSQClass@@@Z 302c59f0 f   squirrelD:sqclass.obj
 0002:001cba60       ??0?$sqvector@USQClassMemeber@@@@QAE@XZ 302c5a60 f i squirrelD:sqclass.obj
 0002:001cbac0       ?copy@?$sqvector@USQClassMemeber@@@@QAEXABV1@@Z 302c5ac0 f i squirrelD:sqclass.obj
 0002:001cbc60       ??0SQClassMemeber@@QAE@ABU0@@Z 302c5c60 f i squirrelD:sqclass.obj
 0002:001cbd40       ??1?$sqvector@USQClassMemeber@@@@QAE@XZ 302c5d40 f i squirrelD:sqclass.obj
 0002:001cbdf0       ?resize@?$sqvector@USQClassMemeber@@@@QAEXIABUSQClassMemeber@@@Z 302c5df0 f i squirrelD:sqclass.obj
 0002:001cbf90       ?push_back@?$sqvector@USQClassMemeber@@@@QAEAAUSQClassMemeber@@ABU2@@Z 302c5f90 f i squirrelD:sqclass.obj
 0002:001cc0e0       ??_GSQClassMemeber@@QAEPAXI@Z 302c60e0 f i squirrelD:sqclass.obj
 0002:001cc150       ?_realloc@?$sqvector@USQClassMemeber@@@@AAEXI@Z 302c6150 f i squirrelD:sqclass.obj
 0002:001cc200       ?str2num@@YA_NPBDAAUSQObjectPtr@@@Z 302c6200 f   squirrelD:sqbaselib.obj
 0002:001ccf90       ?sq_base_register@@YAXPAUSQVM@@@Z 302c6f90 f   squirrelD:sqbaselib.obj
 0002:001cdfb0       ?Insert@SQArray@@QAEXABUtagSQObject@@0@Z 302c7fb0 f i squirrelD:sqbaselib.obj
 0002:001ce2f0       ?Remove@SQArray@@QAEXI@Z   302c82f0 f i squirrelD:sqbaselib.obj
 0002:001ce540       ?_qsort_compare@@YA_NPAUSQVM@@AAUSQObjectPtr@@11HAAH@Z 302c8540 f   squirrelD:sqbaselib.obj
 0002:001ce680       ?_qsort@@YA_NPAUSQVM@@AAUSQObjectPtr@@HHH@Z 302c8680 f   squirrelD:sqbaselib.obj
 0002:001d0c80       ?insert@?$sqvector@USQObjectPtr@@@@QAEXIABUSQObjectPtr@@@Z 302cac80 f i squirrelD:sqbaselib.obj
 0002:001d0dd0       ?remove@?$sqvector@USQObjectPtr@@@@QAEXI@Z 302cadd0 f i squirrelD:sqbaselib.obj
 0002:001d0e90       ??0SQLexer@@QAE@XZ         302cae90 f   squirrelD:sqlexer.obj
 0002:001d0ef0       ??1SQLexer@@QAE@XZ         302caef0 f   squirrelD:sqlexer.obj
 0002:001d0fb0       ?Init@SQLexer@@QAEXPAUSQSharedState@@P6AHPAX@Z1P6AX1PBD@Z1@Z 302cafb0 f   squirrelD:sqlexer.obj
 0002:001d2520       ?Error@SQLexer@@QAEXPBD@Z  302cc520 f   squirrelD:sqlexer.obj
 0002:001d2590       ?Next@SQLexer@@AAEXXZ      302cc590 f   squirrelD:sqlexer.obj
 0002:001d2640       ?Tok2Str@SQLexer@@QAEPBDH@Z 302cc640 f   squirrelD:sqlexer.obj
 0002:001d2860       ?LexBlockComment@SQLexer@@AAEXXZ 302cc860 f   squirrelD:sqlexer.obj
 0002:001d29b0       ?Lex@SQLexer@@QAEHXZ       302cc9b0 f   squirrelD:sqlexer.obj
 0002:001d3990       ?GetIDType@SQLexer@@AAEHPAD@Z 302cd990 f   squirrelD:sqlexer.obj
 0002:001d3b20       ?ReadString@SQLexer@@AAEHH_N@Z 302cdb20 f   squirrelD:sqlexer.obj
 0002:001d43c0       ?LexHexadecimal@@YAXPBDPAI@Z 302ce3c0 f   squirrelD:sqlexer.obj
 0002:001d44f0       ?LexInteger@@YAXPBDPAI@Z   302ce4f0 f   squirrelD:sqlexer.obj
 0002:001d4560       ?isexponent@@YAHH@Z        302ce560 f   squirrelD:sqlexer.obj
 0002:001d45c0       ?ReadNumber@SQLexer@@AAEHXZ 302ce5c0 f   squirrelD:sqlexer.obj
 0002:001d4a40       ?ReadID@SQLexer@@AAEHXZ    302cea40 f   squirrelD:sqlexer.obj
 0002:001d4b90       ??0?$sqvector@D@@QAE@XZ    302ceb90 f i squirrelD:sqlexer.obj
 0002:001d4bf0       ??1?$sqvector@D@@QAE@XZ    302cebf0 f i squirrelD:sqlexer.obj
 0002:001d4c90       ?resize@?$sqvector@D@@QAEXIABD@Z 302cec90 f i squirrelD:sqlexer.obj
 0002:001d4dc0       ?push_back@?$sqvector@D@@QAEAADABD@Z 302cedc0 f i squirrelD:sqlexer.obj
 0002:001d4ec0       ??A?$sqvector@D@@QBEAADI@Z 302ceec0 f i squirrelD:sqlexer.obj
 0002:001d4f10       ?_realloc@?$sqvector@D@@AAEXI@Z 302cef10 f i squirrelD:sqlexer.obj
 0002:001d4fc0       ?DumpLiteral@@YAXAAUSQObjectPtr@@@Z 302cefc0 f   squirrelD:sqfuncstate.obj
 0002:001d50c0       ??0SQFuncState@@QAE@PAUSQSharedState@@PAU0@P6AXPAXPBD@Z2@Z 302cf0c0 f   squirrelD:sqfuncstate.obj
 0002:001d53f0       ?Error@SQFuncState@@QAEXPBD@Z 302cf3f0 f   squirrelD:sqfuncstate.obj
 0002:001d5470       ?GetNumericConstant@SQFuncState@@QAEHH@Z 302cf470 f   squirrelD:sqfuncstate.obj
 0002:001d5560       ?GetNumericConstant@SQFuncState@@QAEHM@Z 302cf560 f   squirrelD:sqfuncstate.obj
 0002:001d5650       ?GetConstant@SQFuncState@@QAEHABUtagSQObject@@@Z 302cf650 f   squirrelD:sqfuncstate.obj
 0002:001d5880       ?SetIntructionParams@SQFuncState@@QAEXHHHHH@Z 302cf880 f   squirrelD:sqfuncstate.obj
 0002:001d5930       ?SetIntructionParam@SQFuncState@@QAEXHHH@Z 302cf930 f   squirrelD:sqfuncstate.obj
 0002:001d5a30       ?AllocStackPos@SQFuncState@@QAEHXZ 302cfa30 f   squirrelD:sqfuncstate.obj
 0002:001d5b70       ?PushTarget@SQFuncState@@QAEHH@Z 302cfb70 f   squirrelD:sqfuncstate.obj
 0002:001d5c00       ?GetUpTarget@SQFuncState@@QAEHH@Z 302cfc00 f   squirrelD:sqfuncstate.obj
 0002:001d5c70       ?TopTarget@SQFuncState@@QAEHXZ 302cfc70 f   squirrelD:sqfuncstate.obj
 0002:001d5cd0       ?PopTarget@SQFuncState@@QAEHXZ 302cfcd0 f   squirrelD:sqfuncstate.obj
 0002:001d5e10       ??0SQLocalVarInfo@@QAE@ABU0@@Z 302cfe10 f i squirrelD:sqfuncstate.obj
 0002:001d5ef0       ?GetStackSize@SQFuncState@@QAEHXZ 302cfef0 f   squirrelD:sqfuncstate.obj
 0002:001d5f50       ?SetStackSize@SQFuncState@@QAEXH@Z 302cff50 f   squirrelD:sqfuncstate.obj
 0002:001d60a0       ?IsLocal@SQFuncState@@QAE_NI@Z 302d00a0 f   squirrelD:sqfuncstate.obj
 0002:001d6130       ?PushLocalVariable@SQFuncState@@QAEHABUtagSQObject@@@Z 302d0130 f   squirrelD:sqfuncstate.obj
 0002:001d62a0       ?GetLocalVariable@SQFuncState@@QAEHABUtagSQObject@@@Z 302d02a0 f   squirrelD:sqfuncstate.obj
 0002:001d6360       ?GetOuterVariable@SQFuncState@@QAEHABUtagSQObject@@@Z 302d0360 f   squirrelD:sqfuncstate.obj
 0002:001d6410       ?AddOuterValue@SQFuncState@@QAEXABUtagSQObject@@@Z 302d0410 f   squirrelD:sqfuncstate.obj
 0002:001d6780       ?AddParameter@SQFuncState@@QAEXABUtagSQObject@@@Z 302d0780 f   squirrelD:sqfuncstate.obj
 0002:001d6860       ?AddLineInfos@SQFuncState@@QAEXH_N0@Z 302d0860 f   squirrelD:sqfuncstate.obj
 0002:001d6960       ?AddInstruction@SQFuncState@@QAEXAAUSQInstruction@@@Z 302d0960 f   squirrelD:sqfuncstate.obj
 0002:001d6e80       ?CreateString@SQFuncState@@QAE?AUtagSQObject@@PBDH@Z 302d0e80 f   squirrelD:sqfuncstate.obj
 0002:001d6fe0       ?BuildProto@SQFuncState@@QAEPAUSQFunctionProto@@XZ 302d0fe0 f   squirrelD:sqfuncstate.obj
 0002:001d74b0       ?PushChildState@SQFuncState@@QAEPAU1@PAUSQSharedState@@@Z 302d14b0 f   squirrelD:sqfuncstate.obj
 0002:001d7620       ?PopChildState@SQFuncState@@QAEXXZ 302d1620 f   squirrelD:sqfuncstate.obj
 0002:001d76b0       ??_GSQFuncState@@QAEPAXI@Z 302d16b0 f i squirrelD:sqfuncstate.obj
 0002:001d7720       ??1SQFuncState@@QAE@XZ     302d1720 f   squirrelD:sqfuncstate.obj
 0002:001d7930       ??0?$sqvector@USQLocalVarInfo@@@@QAE@XZ 302d1930 f i squirrelD:sqfuncstate.obj
 0002:001d7990       ??1?$sqvector@USQLocalVarInfo@@@@QAE@XZ 302d1990 f i squirrelD:sqfuncstate.obj
 0002:001d7a40       ?size@?$sqvector@USQLocalVarInfo@@@@QBEIXZ 302d1a40 f i squirrelD:sqfuncstate.obj
 0002:001d7a80       ?push_back@?$sqvector@USQLocalVarInfo@@@@QAEAAUSQLocalVarInfo@@ABU2@@Z 302d1a80 f i squirrelD:sqfuncstate.obj
 0002:001d7bd0       ?pop_back@?$sqvector@USQLocalVarInfo@@@@QAEXXZ 302d1bd0 f i squirrelD:sqfuncstate.obj
 0002:001d7c50       ?back@?$sqvector@USQLocalVarInfo@@@@QBEAAUSQLocalVarInfo@@XZ 302d1c50 f i squirrelD:sqfuncstate.obj
 0002:001d7ca0       ??A?$sqvector@USQLocalVarInfo@@@@QBEAAUSQLocalVarInfo@@I@Z 302d1ca0 f i squirrelD:sqfuncstate.obj
 0002:001d7cf0       ??0?$sqvector@USQOuterVar@@@@QAE@XZ 302d1cf0 f i squirrelD:sqfuncstate.obj
 0002:001d7d50       ??1?$sqvector@USQOuterVar@@@@QAE@XZ 302d1d50 f i squirrelD:sqfuncstate.obj
 0002:001d7e00       ?size@?$sqvector@USQOuterVar@@@@QBEIXZ 302d1e00 f i squirrelD:sqfuncstate.obj
 0002:001d7e40       ?push_back@?$sqvector@USQOuterVar@@@@QAEAAUSQOuterVar@@ABU2@@Z 302d1e40 f i squirrelD:sqfuncstate.obj
 0002:001d7f90       ??0SQOuterVar@@QAE@ABU0@@Z 302d1f90 f i squirrelD:sqfuncstate.obj
 0002:001d8080       ??A?$sqvector@USQOuterVar@@@@QBEAAUSQOuterVar@@I@Z 302d2080 f i squirrelD:sqfuncstate.obj
 0002:001d80d0       ??0?$sqvector@USQLineInfo@@@@QAE@XZ 302d20d0 f i squirrelD:sqfuncstate.obj
 0002:001d8130       ??1?$sqvector@USQLineInfo@@@@QAE@XZ 302d2130 f i squirrelD:sqfuncstate.obj
 0002:001d81d0       ?size@?$sqvector@USQLineInfo@@@@QBEIXZ 302d21d0 f i squirrelD:sqfuncstate.obj
 0002:001d8210       ?push_back@?$sqvector@USQLineInfo@@@@QAEAAUSQLineInfo@@ABU2@@Z 302d2210 f i squirrelD:sqfuncstate.obj
 0002:001d8310       ?pop_back@?$sqvector@USQLineInfo@@@@QAEXXZ 302d2310 f i squirrelD:sqfuncstate.obj
 0002:001d8360       ??A?$sqvector@USQLineInfo@@@@QBEAAUSQLineInfo@@I@Z 302d2360 f i squirrelD:sqfuncstate.obj
 0002:001d83b0       ??0?$sqvector@PAUSQFuncState@@@@QAE@XZ 302d23b0 f i squirrelD:sqfuncstate.obj
 0002:001d8410       ??1?$sqvector@PAUSQFuncState@@@@QAE@XZ 302d2410 f i squirrelD:sqfuncstate.obj
 0002:001d84b0       ?size@?$sqvector@PAUSQFuncState@@@@QBEIXZ 302d24b0 f i squirrelD:sqfuncstate.obj
 0002:001d84f0       ?push_back@?$sqvector@PAUSQFuncState@@@@QAEAAPAUSQFuncState@@ABQAU2@@Z 302d24f0 f i squirrelD:sqfuncstate.obj
 0002:001d85f0       ?pop_back@?$sqvector@PAUSQFuncState@@@@QAEXXZ 302d25f0 f i squirrelD:sqfuncstate.obj
 0002:001d8640       ?back@?$sqvector@PAUSQFuncState@@@@QBEAAPAUSQFuncState@@XZ 302d2640 f i squirrelD:sqfuncstate.obj
 0002:001d8690       ?_realloc@?$sqvector@USQLocalVarInfo@@@@AAEXI@Z 302d2690 f i squirrelD:sqfuncstate.obj
 0002:001d8740       ?_realloc@?$sqvector@USQOuterVar@@@@AAEXI@Z 302d2740 f i squirrelD:sqfuncstate.obj
 0002:001d87f0       ?_realloc@?$sqvector@USQLineInfo@@@@AAEXI@Z 302d27f0 f i squirrelD:sqfuncstate.obj
 0002:001d88a0       ?_realloc@?$sqvector@PAUSQFuncState@@@@AAEXI@Z 302d28a0 f i squirrelD:sqfuncstate.obj
 0002:001d8950       ??0SQSharedStateNode@@QAE@PAUSQSharedState@@@Z 302d2950 f   sqplusD:SquirrelVM.obj
 0002:001d89b0       ??1SQSharedStateNode@@QAE@XZ 302d29b0 f   sqplusD:SquirrelVM.obj
 0002:001d8a80       ??_GSQSharedStateNode@@QAEPAXI@Z 302d2a80 f i sqplusD:SquirrelVM.obj
 0002:001d8af0       ??0SquirrelError@@QAE@XZ   302d2af0 f   sqplusD:SquirrelVM.obj
 0002:001d8bc0       ??1SquirrelVMSys@@QAE@XZ   302d2bc0 f   sqplusD:SquirrelVM.obj
 0002:001d8c90       ?Set@SquirrelVMSys@@QAEXPAUSQVM@@@Z 302d2c90 f   sqplusD:SquirrelVM.obj
 0002:001d8d00       ?Set@SquirrelVMSys@@QAEXABVSquirrelObject@@@Z 302d2d00 f   sqplusD:SquirrelVM.obj
 0002:001d8db0       ??BSquirrelVMSys@@QBEPAUSQVM@@XZ 302d2db0 f   sqplusD:SquirrelVM.obj
 0002:001d8e40       ?PushRefVM@SquirrelVMSys@@IAEXPAUSQVM@@@Z 302d2e40 f   sqplusD:SquirrelVM.obj
 0002:001d8ed0       ?PopRefVM@SquirrelVMSys@@IAEXXZ 302d2ed0 f   sqplusD:SquirrelVM.obj
 0002:001d8f20       ?Init@SquirrelVM@@SA_NPAUSQVM@@@Z 302d2f20 f   sqplusD:SquirrelVM.obj
 0002:001d9130       ?InitNoRef@SquirrelVM@@SA_NPAUSQVM@@@Z 302d3130 f   sqplusD:SquirrelVM.obj
 0002:001d91b0       ?Release@SquirrelVM@@SAXXZ 302d31b0 f   sqplusD:SquirrelVM.obj
 0002:001d9290       ?DropVMRefIfRefCounted@SquirrelVM@@SAXPAUSQVM@@@Z 302d3290 f   sqplusD:SquirrelVM.obj
 0002:001d92c0       ?Update@SquirrelVM@@SAHXZ  302d32c0 f   sqplusD:SquirrelVM.obj
 0002:001d9300       ?PrintFunc@SquirrelVM@@SAXPAUSQVM@@PBDZZ 302d3300 f   sqplusD:SquirrelVM.obj
 0002:001d9380       ?CompileScript@SquirrelVM@@SA?AVSquirrelObject@@PBD@Z 302d3380 f   sqplusD:SquirrelVM.obj
 0002:001d9500       ?CompileBuffer@SquirrelVM@@SA?AVSquirrelObject@@PBD0@Z 302d3500 f   sqplusD:SquirrelVM.obj
 0002:001d9690       ?RunScript@SquirrelVM@@SA?AVSquirrelObject@@ABV2@PAV2@@Z 302d3690 f   sqplusD:SquirrelVM.obj
 0002:001d9880       ?BeginCall@SquirrelVM@@SAHABVSquirrelObject@@@Z 302d3880 f   sqplusD:SquirrelVM.obj
 0002:001d9920       ?BeginCall@SquirrelVM@@SAHABVSquirrelObject@@AAV2@@Z 302d3920 f   sqplusD:SquirrelVM.obj
 0002:001d99f0       ?PushParam@SquirrelVM@@SAXABVSquirrelObject@@@Z 302d39f0 f   sqplusD:SquirrelVM.obj
 0002:001d9aa0       ?PushParam@SquirrelVM@@SAXPBD@Z 302d3aa0 f   sqplusD:SquirrelVM.obj
 0002:001d9b50       ?PushParam@SquirrelVM@@SAXH@Z 302d3b50 f   sqplusD:SquirrelVM.obj
 0002:001d9c00       ?PushParam@SquirrelVM@@SAXM@Z 302d3c00 f   sqplusD:SquirrelVM.obj
 0002:001d9cb0       ?PushParamNull@SquirrelVM@@SAXXZ 302d3cb0 f   sqplusD:SquirrelVM.obj
 0002:001d9d50       ?PushParam@SquirrelVM@@SAXPAX@Z 302d3d50 f   sqplusD:SquirrelVM.obj
 0002:001d9e00       ?EndCall@SquirrelVM@@SA?AVSquirrelObject@@XZ 302d3e00 f   sqplusD:SquirrelVM.obj
 0002:001d9fd0       ?CreateInstance@SquirrelVM@@SA?AVSquirrelObject@@AAV2@@Z 302d3fd0 f   sqplusD:SquirrelVM.obj
 0002:001da180       ?CreateTable@SquirrelVM@@SA?AVSquirrelObject@@XZ 302d4180 f   sqplusD:SquirrelVM.obj
 0002:001da2b0       ?CreateString@SquirrelVM@@SA?AVSquirrelObject@@PBD@Z 302d42b0 f   sqplusD:SquirrelVM.obj
 0002:001da3f0       ?CreateArray@SquirrelVM@@SA?AVSquirrelObject@@H@Z 302d43f0 f   sqplusD:SquirrelVM.obj
 0002:001da530       ?CreateFunction@SquirrelVM@@SA?AVSquirrelObject@@P6AHPAUSQVM@@@Z@Z 302d4530 f   sqplusD:SquirrelVM.obj
 0002:001da670       ?CreateUserData@SquirrelVM@@SA?AVSquirrelObject@@H@Z 302d4670 f   sqplusD:SquirrelVM.obj
 0002:001da7b0       ?GetRootTable@SquirrelVM@@SAABVSquirrelObject@@XZ 302d47b0 f   sqplusD:SquirrelVM.obj
 0002:001da8f0       ?PushRootTable@SquirrelVM@@SAXXZ 302d48f0 f   sqplusD:SquirrelVM.obj
 0002:001da940       ?CreateFunction@SquirrelVM@@SA?AVSquirrelObject@@P6AHPAUSQVM@@@ZPBD2@Z 302d4940 f   sqplusD:SquirrelVM.obj
 0002:001dabb0       ?CreateFunction@SquirrelVM@@SA?AVSquirrelObject@@AAV2@P6AHPAUSQVM@@@ZPBD3@Z 302d4bb0 f   sqplusD:SquirrelVM.obj
 0002:001dace0       ?PushObject@SquirrelVM@@SAXAAVSquirrelObject@@@Z 302d4ce0 f i sqplusD:SquirrelVM.obj
 0002:001dad40       ?Pop@SquirrelVM@@SAXH@Z    302d4d40 f i sqplusD:SquirrelVM.obj
 0002:001dada0       ?CreateFunctionGlobal@SquirrelVM@@SA?AVSquirrelObject@@P6AHPAUSQVM@@@ZPBD2@Z 302d4da0 f   sqplusD:SquirrelVM.obj
 0002:001daed0       ?allocate@?$_DebugHeapAllocator@D@std@@QAAPADIPBX@Z 302d4ed0 f i sqplusD:SquirrelVM.obj
 0002:001daf90       ?allocate@?$_DebugHeapAllocator@D@std@@QAEPADI@Z 302d4f90 f i sqplusD:SquirrelVM.obj
 0002:001db050       ?deallocate@?$_DebugHeapAllocator@D@std@@QAEXPADI@Z 302d5050 f i sqplusD:SquirrelVM.obj
 0002:001db0b0       ??0?$_DebugHeapAllocator@D@std@@QAE@XZ 302d50b0 f i sqplusD:SquirrelVM.obj
 0002:001db110       ??0?$allocator@D@std@@QAE@XZ 302d5110 f i sqplusD:SquirrelVM.obj
 0002:001db150       ??0?$_DebugHeapAllocator@D@std@@QAE@ABV01@@Z 302d5150 f i sqplusD:SquirrelVM.obj
 0002:001db1b0       ??0?$allocator@D@std@@QAE@ABV01@@Z 302d51b0 f i sqplusD:SquirrelVM.obj
 0002:001db1f0       ??$_DebugHeapDelete@X@std@@YAXPAX@Z 302d51f0 f i sqplusD:SquirrelVM.obj
 0002:001db250       ??1SquirrelVM_ModConstr@@QAE@XZ 302d5250 f i sqplusD:SquirrelVM.obj
 0002:001db2f0       ??0SquirrelObject@@QAE@XZ  302d52f0 f   sqplusD:SquirrelObject.obj
 0002:001db360       ??1SquirrelObject@@UAE@XZ  302d5360 f   sqplusD:SquirrelObject.obj
 0002:001db3c0       ??0SquirrelObject@@QAE@ABV0@@Z 302d53c0 f   sqplusD:SquirrelObject.obj
 0002:001db450       ??0SquirrelObject@@QAE@UtagSQObject@@@Z 302d5450 f   sqplusD:SquirrelObject.obj
 0002:001db4e0       ?Reset@SquirrelObject@@QAEXXZ 302d54e0 f   sqplusD:SquirrelObject.obj
 0002:001db590       ?Clone@SquirrelObject@@QAE?AV1@XZ 302d5590 f   sqplusD:SquirrelObject.obj
 0002:001db710       ??4SquirrelObject@@QAEAAV0@ABV0@@Z 302d5710 f   sqplusD:SquirrelObject.obj
 0002:001db7b0       ??4SquirrelObject@@QAEAAV0@UtagSQObject@@@Z 302d57b0 f   sqplusD:SquirrelObject.obj
 0002:001db850       ??4SquirrelObject@@QAEAAV0@H@Z 302d5850 f   sqplusD:SquirrelObject.obj
 0002:001db8e0       ??4SquirrelObject@@QAEAAV0@PAUSQVM@@@Z 302d58e0 f   sqplusD:SquirrelObject.obj
 0002:001db9f0       ??8SquirrelObject@@QAE_NABV0@@Z 302d59f0 f   sqplusD:SquirrelObject.obj
 0002:001dbad0       ?CompareUserPointer@SquirrelObject@@QAE_NABV1@@Z 302d5ad0 f   sqplusD:SquirrelObject.obj
 0002:001dbb50       ?ArrayAppend@SquirrelObject@@QAEXABV1@@Z 302d5b50 f   sqplusD:SquirrelObject.obj
 0002:001dbc10       ?AttachToStackObject@SquirrelObject@@QAEXH@Z 302d5c10 f   sqplusD:SquirrelObject.obj
 0002:001dbcf0       ?SetDelegate@SquirrelObject@@QAEHAAV1@@Z 302d5cf0 f   sqplusD:SquirrelObject.obj
 0002:001dbe20       ?GetDelegate@SquirrelObject@@QAE?AV1@XZ 302d5e20 f   sqplusD:SquirrelObject.obj
 0002:001dbfb0       ?IsNull@SquirrelObject@@QBEHXZ 302d5fb0 f   sqplusD:SquirrelObject.obj
 0002:001dc000       ?IsNumeric@SquirrelObject@@QBEHXZ 302d6000 f   sqplusD:SquirrelObject.obj
 0002:001dc050       ?Len@SquirrelObject@@QBEHXZ 302d6050 f   sqplusD:SquirrelObject.obj
 0002:001dc120       ?SetValue@SquirrelObject@@QAEHHABV1@@Z 302d6120 f   sqplusD:SquirrelObject.obj
 0002:001dc220       ?SetValue@SquirrelObject@@QAEHHH@Z 302d6220 f   sqplusD:SquirrelObject.obj
 0002:001dc320       ?SetValue@SquirrelObject@@QAEHHM@Z 302d6320 f   sqplusD:SquirrelObject.obj
 0002:001dc420       ?SetValue@SquirrelObject@@QAEHHPBD@Z 302d6420 f   sqplusD:SquirrelObject.obj
 0002:001dc520       ?SetValue@SquirrelObject@@QAEHH_N@Z 302d6520 f   sqplusD:SquirrelObject.obj
 0002:001dc620       ?SetValue@SquirrelObject@@QAEHABV1@0@Z 302d6620 f   sqplusD:SquirrelObject.obj
 0002:001dc720       ?SetValue@SquirrelObject@@QAEHPBDABV1@@Z 302d6720 f   sqplusD:SquirrelObject.obj
 0002:001dc820       ?SetValue@SquirrelObject@@QAEHPBDH@Z 302d6820 f   sqplusD:SquirrelObject.obj
 0002:001dc920       ?SetValue@SquirrelObject@@QAEHPBDM@Z 302d6920 f   sqplusD:SquirrelObject.obj
 0002:001dca20       ?SetValue@SquirrelObject@@QAEHPBD0@Z 302d6a20 f   sqplusD:SquirrelObject.obj
 0002:001dcb20       ?SetValue@SquirrelObject@@QAEHPBD_N@Z 302d6b20 f   sqplusD:SquirrelObject.obj
 0002:001dcc20       ?SetUserPointer@SquirrelObject@@QAEHPBDPAX@Z 302d6c20 f   sqplusD:SquirrelObject.obj
 0002:001dcd20       ?GetUserPointer@SquirrelObject@@QAEPAXPBD@Z 302d6d20 f   sqplusD:SquirrelObject.obj
 0002:001dce10       ?SetUserPointer@SquirrelObject@@QAEHHPAX@Z 302d6e10 f   sqplusD:SquirrelObject.obj
 0002:001dcf10       ?GetUserPointer@SquirrelObject@@QAEPAXH@Z 302d6f10 f   sqplusD:SquirrelObject.obj
 0002:001dd000       ?NewUserData@SquirrelObject@@QAEHPBDHPAPAX@Z 302d7000 f   sqplusD:SquirrelObject.obj
 0002:001dd120       ?GetUserData@SquirrelObject@@QAEHPBDPAPAX1@Z 302d7120 f   sqplusD:SquirrelObject.obj
 0002:001dd1e0       ?RawGetUserData@SquirrelObject@@QAEHPBDPAPAX1@Z 302d71e0 f   sqplusD:SquirrelObject.obj
 0002:001dd2a0       ?ArrayResize@SquirrelObject@@QAEHH@Z 302d72a0 f   sqplusD:SquirrelObject.obj
 0002:001dd350       ?ArrayExtend@SquirrelObject@@QAEHH@Z 302d7350 f   sqplusD:SquirrelObject.obj
 0002:001dd3c0       ?ArrayReverse@SquirrelObject@@QAEHXZ 302d73c0 f   sqplusD:SquirrelObject.obj
 0002:001dd470       ?ArrayPop@SquirrelObject@@QAE?AV1@I@Z 302d7470 f   sqplusD:SquirrelObject.obj
 0002:001dd600       ?GetType@SquirrelObject@@QAE?AW4tagSQObjectType@@XZ 302d7600 f   sqplusD:SquirrelObject.obj
 0002:001dd640       ?GetSlot@SquirrelObject@@ABEHH@Z 302d7640 f   sqplusD:SquirrelObject.obj
 0002:001dd6f0       ?GetValue@SquirrelObject@@QBE?AV1@H@Z 302d76f0 f   sqplusD:SquirrelObject.obj
 0002:001dd840       ?GetFloat@SquirrelObject@@QBEMH@Z 302d7840 f   sqplusD:SquirrelObject.obj
 0002:001dd920       ?GetInt@SquirrelObject@@QBEHH@Z 302d7920 f   sqplusD:SquirrelObject.obj
 0002:001dda10       ?GetString@SquirrelObject@@QBEPBDH@Z 302d7a10 f   sqplusD:SquirrelObject.obj
 0002:001ddb00       ?GetBool@SquirrelObject@@QBE_NH@Z 302d7b00 f   sqplusD:SquirrelObject.obj
 0002:001ddbf0       ?Exists@SquirrelObject@@QBEHPBD@Z 302d7bf0 f   sqplusD:SquirrelObject.obj
 0002:001ddc90       ?GetSlot@SquirrelObject@@ABEHPBD@Z 302d7c90 f   sqplusD:SquirrelObject.obj
 0002:001ddd40       ?RawGetSlot@SquirrelObject@@ABEHPBD@Z 302d7d40 f   sqplusD:SquirrelObject.obj
 0002:001dddf0       ?GetValue@SquirrelObject@@QBE?AV1@PBD@Z 302d7df0 f   sqplusD:SquirrelObject.obj
 0002:001ddf40       ?GetFloat@SquirrelObject@@QBEMPBD@Z 302d7f40 f   sqplusD:SquirrelObject.obj
 0002:001de020       ?GetInt@SquirrelObject@@QBEHPBD@Z 302d8020 f   sqplusD:SquirrelObject.obj
 0002:001de110       ?GetString@SquirrelObject@@QBEPBDPBD@Z 302d8110 f   sqplusD:SquirrelObject.obj
 0002:001de200       ?GetBool@SquirrelObject@@QBE_NPBD@Z 302d8200 f   sqplusD:SquirrelObject.obj
 0002:001de2f0       ?GetInstanceUP@SquirrelObject@@QBEPAXPAX@Z 302d82f0 f   sqplusD:SquirrelObject.obj
 0002:001de3e0       ?SetInstanceUP@SquirrelObject@@QAEHPAX@Z 302d83e0 f   sqplusD:SquirrelObject.obj
 0002:001de490       ?GetAttributes@SquirrelObject@@QAE?AV1@PBD@Z 302d8490 f   sqplusD:SquirrelObject.obj
 0002:001de640       ?BeginIteration@SquirrelObject@@QAEHXZ 302d8640 f   sqplusD:SquirrelObject.obj
 0002:001de6f0       ?Next@SquirrelObject@@QAEHAAV1@0@Z 302d86f0 f   sqplusD:SquirrelObject.obj
 0002:001de790       ?GetTypeTag@SquirrelObject@@QAEHPAPAX@Z 302d8790 f   sqplusD:SquirrelObject.obj
 0002:001de800       ?GetTypeName@SquirrelObject@@QAEPBDPBD@Z 302d8800 f   sqplusD:SquirrelObject.obj
 0002:001de960       ?GetTypeName@SquirrelObject@@QAEPBDH@Z 302d8960 f   sqplusD:SquirrelObject.obj
 0002:001dea90       ?GetTypeName@SquirrelObject@@QAEPBDXZ 302d8a90 f   sqplusD:SquirrelObject.obj
 0002:001dec20       ?GetBase@SquirrelObject@@QAE?AV1@XZ 302d8c20 f   sqplusD:SquirrelObject.obj
 0002:001ded80       ?ToString@SquirrelObject@@QAEPBDXZ 302d8d80 f   sqplusD:SquirrelObject.obj
 0002:001dede0       ?ToInteger@SquirrelObject@@QAEHXZ 302d8de0 f   sqplusD:SquirrelObject.obj
 0002:001dee40       ?ToFloat@SquirrelObject@@QAEMXZ 302d8e40 f   sqplusD:SquirrelObject.obj
 0002:001deea0       ?ToBool@SquirrelObject@@QAE_NXZ 302d8ea0 f   sqplusD:SquirrelObject.obj
 0002:001deef0       ?EndIteration@SquirrelObject@@QAEXXZ 302d8ef0 f   sqplusD:SquirrelObject.obj
 0002:001def50       ?setVarFunc@SqPlus@@YAHPAUSQVM@@@Z 302d8f50 f   sqplusD:SqPlus.obj
 0002:001df060       ?GetType@StackHandler@@QAEHH@Z 302d9060 f i sqplusD:SqPlus.obj
 0002:001df300       ?ThrowError@StackHandler@@QAEHPBD@Z 302d9300 f i sqplusD:SqPlus.obj
 0002:001df730       ?GetFloat@StackHandler@@QAEMH@Z 302d9730 f i sqplusD:SqPlus.obj
 0002:001df7f0       ?GetInt@StackHandler@@QAEHH@Z 302d97f0 f i sqplusD:SqPlus.obj
 0002:001df8b0       ?GetInstanceUp@StackHandler@@QAEPAXHPAX@Z 302d98b0 f i sqplusD:SqPlus.obj
 0002:001df960       ?GetBool@StackHandler@@QAEHH@Z 302d9960 f i sqplusD:SqPlus.obj
 0002:001dfa20       ?Return@StackHandler@@QAEHPBD@Z 302d9a20 f i sqplusD:SqPlus.obj
 0002:001dfa90       ?Return@StackHandler@@QAEHM@Z 302d9a90 f i sqplusD:SqPlus.obj
 0002:001dfb00       ?Return@StackHandler@@QAEHH@Z 302d9b00 f i sqplusD:SqPlus.obj
 0002:001dfb70       ?Return@StackHandler@@QAEH_N@Z 302d9b70 f i sqplusD:SqPlus.obj
 0002:001dfbe0       ?GetVMPtr@StackHandler@@QAEPAUSQVM@@XZ 302d9be0 f i sqplusD:SqPlus.obj
 0002:001dfc20       ??4ScriptStringVarBase@SqPlus@@QAEPBDPBD@Z 302d9c20 f i sqplusD:SqPlus.obj
 0002:001dfc90       ?safeStringCopy@ScriptStringVarBase@SqPlus@@SAPADPADPBDH@Z 302d9c90 f i sqplusD:SqPlus.obj
 0002:001dfd20       ?getVarFunc@SqPlus@@YAHPAUSQVM@@@Z 302d9d20 f   sqplusD:SqPlus.obj
 0002:001e0260       ?Return@StackHandler@@QAEHPAX@Z 302da260 f i sqplusD:SqPlus.obj
 0002:001e02d0       ?setInstanceVarFunc@SqPlus@@YAHPAUSQVM@@@Z 302da2d0 f   sqplusD:SqPlus.obj
 0002:001e0760       ?getInstanceVarFunc@SqPlus@@YAHPAUSQVM@@@Z 302da760 f   sqplusD:SqPlus.obj
 0002:001e0880       ?CreateClass@SqPlus@@YAHPAUSQVM@@AAVSquirrelObject@@PAXPBD3@Z 302da880 f   sqplusD:SqPlus.obj
 0002:001e09e0       ?RegisterClassType@SqPlus@@YA?AVSquirrelObject@@PAUSQVM@@PBDPAXP6AH0@Z@Z 302da9e0 f   sqplusD:SqPlus.obj
 0002:001e0b80       ?CreateStaticNamespace@@YAHPAUSQVM@@PAUScriptNamespaceDecl@@@Z 302dab80 f   sqplusD:SquirrelBindingsUtils.obj
 0002:001e0f10       ?CreateClass@@YAHPAUSQVM@@PAUSquirrelClassDecl@@@Z 302daf10 f   sqplusD:SquirrelBindingsUtils.obj
 0002:001e1150       ?CreateNativeClassInstance@@YAHPAUSQVM@@PBDPAXP6AH2H@Z@Z 302db150 f   sqplusD:SquirrelBindingsUtils.obj
 0002:001e13d0       ?CreateConstructNativeClassInstance@@YAHPAUSQVM@@PBD@Z 302db3d0 f   sqplusD:SquirrelBindingsUtils.obj
 0002:001e14f0       ??$PopulateAncestry@X@SqPlus@@YAXPAUSQVM@@AAVSquirrelObject@@PAX@Z 302db4f0 f i sqplusD:SquirrelBindingsUtils.obj
 0002:001e1740       ?type@?$ClassType@X@SqPlus@@SAPAU?$ClassTypeCopyImpl@X$0A@@2@XZ 302db740 f i sqplusD:SquirrelBindingsUtils.obj
 0002:001e1790       ?Get@?$ClassType@X@SqPlus@@SAPAU12@XZ 302db790 f i sqplusD:SquirrelBindingsUtils.obj
 0002:001e1850       ??0?$ClassType@X@SqPlus@@QAE@XZ 302db850 f i sqplusD:SquirrelBindingsUtils.obj
 0002:001e18c0       ?vgetCopyFunc@?$ClassType@X@SqPlus@@UAEP6AXPAX0@ZXZ 302db8c0 f i sqplusD:SquirrelBindingsUtils.obj
 0002:001e1900       ?copy@?$ClassTypeCopyImpl@X$0A@@SqPlus@@SAXPAX0@Z 302db900 f i sqplusD:SquirrelBindingsUtils.obj
 0002:001e1930       ?GetTypeName@?$ClassType@X@SqPlus@@UAEPBDXZ 302db930 f i sqplusD:SquirrelBindingsUtils.obj
 0002:001e1970       ??0?$ClassTypeCopyImpl@X$0A@@SqPlus@@QAE@XZ 302db970 f i sqplusD:SquirrelBindingsUtils.obj
 0002:001e19d0       ?stGetName@?$ClassType@X@SqPlus@@SAPBDXZ 302db9d0 f i sqplusD:SquirrelBindingsUtils.obj
 0002:001e1a10       _GetModuleFileNameW@12     302dba10 f   kernel32:KERNEL32.dll
 0002:001e1a16       _WriteConsoleW@20          302dba16 f   kernel32:KERNEL32.dll
 0002:001e1a1c       _GetFileType@4             302dba1c f   kernel32:KERNEL32.dll
 0002:001e1a22       _GetStdHandle@4            302dba22 f   kernel32:KERNEL32.dll
 0002:001e1a28       _RtlUnwind@16              302dba28 f   kernel32:KERNEL32.dll
 0002:001e1a2e       _RaiseException@16         302dba2e f   kernel32:KERNEL32.dll
 0002:001e1a34       _DecodePointer@4           302dba34 f   kernel32:KERNEL32.dll
 0002:001e1a3a       _TerminateProcess@8        302dba3a f   kernel32:KERNEL32.dll
 0002:001e1a40       _GetCurrentProcess@0       302dba40 f   kernel32:KERNEL32.dll
 0002:001e1a46       _UnhandledExceptionFilter@4 302dba46 f   kernel32:KERNEL32.dll
 0002:001e1a4c       _SetUnhandledExceptionFilter@4 302dba4c f   kernel32:KERNEL32.dll
 0002:001e1a52       _IsDebuggerPresent@0       302dba52 f   kernel32:KERNEL32.dll
 0002:001e1a58       _EncodePointer@4           302dba58 f   kernel32:KERNEL32.dll
 0002:001e1a5e       _WideCharToMultiByte@32    302dba5e f   kernel32:KERNEL32.dll
 0002:001e1a64       _MultiByteToWideChar@24    302dba64 f   kernel32:KERNEL32.dll
 0002:001e1a6a       _lstrlenA@4                302dba6a f   kernel32:KERNEL32.dll
 0002:001e1a70       _GetProcAddress@8          302dba70 f   kernel32:KERNEL32.dll
 0002:001e1a76       _LoadLibraryW@4            302dba76 f   kernel32:KERNEL32.dll
 0002:001e1a7c       _GetCurrentThreadId@0      302dba7c f   kernel32:KERNEL32.dll
 0002:001e1a82       _GetCommandLineA@0         302dba82 f   kernel32:KERNEL32.dll
 0002:001e1a88       _IsProcessorFeaturePresent@4 302dba88 f   kernel32:KERNEL32.dll
 0002:001e1a8e       _InterlockedIncrement@4    302dba8e f   kernel32:KERNEL32.dll
 0002:001e1a94       _InterlockedDecrement@4    302dba94 f   kernel32:KERNEL32.dll
 0002:001e1a9a       _GetACP@0                  302dba9a f   kernel32:KERNEL32.dll
 0002:001e1aa0       _GetOEMCP@0                302dbaa0 f   kernel32:KERNEL32.dll
 0002:001e1aa6       _GetCPInfo@8               302dbaa6 f   kernel32:KERNEL32.dll
 0002:001e1aac       _IsValidCodePage@4         302dbaac f   kernel32:KERNEL32.dll
 0002:001e1ab2       _TlsAlloc@0                302dbab2 f   kernel32:KERNEL32.dll
 0002:001e1ab8       _TlsGetValue@4             302dbab8 f   kernel32:KERNEL32.dll
 0002:001e1abe       _TlsSetValue@8             302dbabe f   kernel32:KERNEL32.dll
 0002:001e1ac4       _TlsFree@4                 302dbac4 f   kernel32:KERNEL32.dll
 0002:001e1aca       _GetModuleHandleW@4        302dbaca f   kernel32:KERNEL32.dll
 0002:001e1ad0       _SetLastError@4            302dbad0 f   kernel32:KERNEL32.dll
 0002:001e1ad6       _GetLastError@0            302dbad6 f   kernel32:KERNEL32.dll
 0002:001e1adc       _GetCurrentThread@0        302dbadc f   kernel32:KERNEL32.dll
 0002:001e1ae2       _ExitProcess@4             302dbae2 f   kernel32:KERNEL32.dll
 0002:001e1ae8       _SetConsoleCtrlHandler@8   302dbae8 f   kernel32:KERNEL32.dll
 0002:001e1aee       _EnterCriticalSection@4    302dbaee f   kernel32:KERNEL32.dll
 0002:001e1af4       _LeaveCriticalSection@4    302dbaf4 f   kernel32:KERNEL32.dll
 0002:001e1afa       _InitializeCriticalSectionAndSpinCount@8 302dbafa f   kernel32:KERNEL32.dll
 0002:001e1b00       _DeleteCriticalSection@4   302dbb00 f   kernel32:KERNEL32.dll
 0002:001e1b06       _FatalAppExitA@8           302dbb06 f   kernel32:KERNEL32.dll
 0002:001e1b0c       _HeapValidate@12           302dbb0c f   kernel32:KERNEL32.dll
 0002:001e1b12       _IsBadReadPtr@8            302dbb12 f   kernel32:KERNEL32.dll
 0002:001e1b18       _WriteFile@20              302dbb18 f   kernel32:KERNEL32.dll
 0002:001e1b1e       _OutputDebugStringA@4      302dbb1e f   kernel32:KERNEL32.dll
 0002:001e1b24       _OutputDebugStringW@4      302dbb24 f   kernel32:KERNEL32.dll
 0002:001e1b2a       _HeapFree@12               302dbb2a f   kernel32:KERNEL32.dll
 0002:001e1b30       _HeapAlloc@12              302dbb30 f   kernel32:KERNEL32.dll
 0002:001e1b36       _GetProcessHeap@0          302dbb36 f   kernel32:KERNEL32.dll
 0002:001e1b3c       _VirtualQuery@12           302dbb3c f   kernel32:KERNEL32.dll
 0002:001e1b42       _FreeLibrary@4             302dbb42 f   kernel32:KERNEL32.dll
 0002:001e1b48       _LCMapStringW@24           302dbb48 f   kernel32:KERNEL32.dll
 0002:001e1b4e       _GetLocaleInfoW@16         302dbb4e f   kernel32:KERNEL32.dll
 0002:001e1b54       _SetHandleCount@4          302dbb54 f   kernel32:KERNEL32.dll
 0002:001e1b5a       _GetStartupInfoW@4         302dbb5a f   kernel32:KERNEL32.dll
 0002:001e1b60       _GetModuleFileNameA@12     302dbb60 f   kernel32:KERNEL32.dll
 0002:001e1b66       _FreeEnvironmentStringsW@4 302dbb66 f   kernel32:KERNEL32.dll
 0002:001e1b6c       _GetEnvironmentStringsW@0  302dbb6c f   kernel32:KERNEL32.dll
 0002:001e1b72       _HeapCreate@12             302dbb72 f   kernel32:KERNEL32.dll
 0002:001e1b78       _HeapDestroy@4             302dbb78 f   kernel32:KERNEL32.dll
 0002:001e1b7e       _QueryPerformanceCounter@4 302dbb7e f   kernel32:KERNEL32.dll
 0002:001e1b84       _GetTickCount@0            302dbb84 f   kernel32:KERNEL32.dll
 0002:001e1b8a       _GetCurrentProcessId@0     302dbb8a f   kernel32:KERNEL32.dll
 0002:001e1b90       _GetSystemTimeAsFileTime@4 302dbb90 f   kernel32:KERNEL32.dll
 0002:001e1b96       _GetStringTypeW@16         302dbb96 f   kernel32:KERNEL32.dll
 0002:001e1b9c       _InterlockedExchange@8     302dbb9c f   kernel32:KERNEL32.dll
 0002:001e1ba2       _FlushFileBuffers@4        302dbba2 f   kernel32:KERNEL32.dll
 0002:001e1ba8       _GetConsoleCP@0            302dbba8 f   kernel32:KERNEL32.dll
 0002:001e1bae       _GetConsoleMode@8          302dbbae f   kernel32:KERNEL32.dll
 0002:001e1bb4       _HeapReAlloc@16            302dbbb4 f   kernel32:KERNEL32.dll
 0002:001e1bba       _HeapSize@12               302dbbba f   kernel32:KERNEL32.dll
 0002:001e1bc0       _HeapQueryInformation@20   302dbbc0 f   kernel32:KERNEL32.dll
 0002:001e1bc6       _GetLocaleInfoA@16         302dbbc6 f   kernel32:KERNEL32.dll
 0002:001e1bcc       _IsValidLocale@8           302dbbcc f   kernel32:KERNEL32.dll
 0002:001e1bd2       _EnumSystemLocalesA@8      302dbbd2 f   kernel32:KERNEL32.dll
 0002:001e1bd8       _GetUserDefaultLCID@0      302dbbd8 f   kernel32:KERNEL32.dll
 0002:001e1bde       _SetFilePointer@16         302dbbde f   kernel32:KERNEL32.dll
 0002:001e1be4       _ReadFile@20               302dbbe4 f   kernel32:KERNEL32.dll
 0002:001e1bea       _SetStdHandle@8            302dbbea f   kernel32:KERNEL32.dll
 0002:001e1bf0       _CreateFileW@28            302dbbf0 f   kernel32:KERNEL32.dll
 0002:001e1bf6       _CloseHandle@4             302dbbf6 f   kernel32:KERNEL32.dll
 0002:001e1bfc       _Sleep@4                   302dbbfc f   kernel32:KERNEL32.dll
 0002:001e1c02       _InitializeCriticalSection@4 302dbc02 f   kernel32:KERNEL32.dll
 0002:001e1c10       _realloc                   302dbc10 f   LIBCMTD:dbgrealloc.obj
 0002:001e1c40       _longjmp                   302dbc40 f   LIBCMTD:longjmp.obj
 0002:001e1d20       __setjmp3                  302dbd20 f   LIBCMTD:setjmp3.obj
 0002:001e1dc0       ??_M@YGXPAXIHP6EX0@Z@Z     302dbdc0 f   LIBCMTD:ehvecdtr.obj
 0002:001e1ea0       ?__ArrayUnwind@@YGXPAXIHP6EX0@Z@Z 302dbea0 f   LIBCMTD:ehvecdtr.obj
 0002:001e1f90       ??_L@YGXPAXIHP6EX0@Z1@Z    302dbf90 f   LIBCMTD:ehvecctr.obj
 0002:001e2070       _puts                      302dc070 f   LIBCMTD:puts.obj
 0002:001e2400       __snprintf                 302dc400 f   LIBCMTD:snprintf.obj
 0002:001e2640       __snprintf_l               302dc640 f   LIBCMTD:snprintf.obj
 0002:001e2680       __rt_probe_read4@4         302dc680 f   LIBCMTD:sehsupp.obj
 0002:001e2740       _fwrite                    302dc740 f   LIBCMTD:fwrite.obj
 0002:001e2890       __fwrite_nolock            302dc890 f   LIBCMTD:fwrite.obj
 0002:001e2d50       ??2@YAPAXIABU_DebugHeapTag_t@std@@PADH@Z 302dcd50 f   libcpmtd:xdebug.obj
 0002:001e2df0       ??_U@YAPAXIABU_DebugHeapTag_t@std@@PADH@Z 302dcdf0 f   libcpmtd:xdebug.obj
 0002:001e2e20       ??3@YAXPAXABU_DebugHeapTag_t@std@@PADH@Z 302dce20 f   libcpmtd:xdebug.obj
 0002:001e2e40       ??_V@YAXPAXABU_DebugHeapTag_t@std@@PADH@Z 302dce40 f   libcpmtd:xdebug.obj
 0002:001e2e70       ?_DebugHeapTag_func@std@@YAABU_DebugHeapTag_t@1@XZ 302dce70 f   libcpmtd:xdebug.obj
 0002:001e2e80       _sqstd_printcallstack      302dce80 f   sqstdlibD:sqstdaux.obj
 0002:001e35c0       ?_sqstd_compiler_error@@YAXPAUSQVM@@PBD1HH@Z 302dd5c0 f   sqstdlibD:sqstdaux.obj
 0002:001e3650       _sqstd_seterrorhandlers    302dd650 f   sqstdlibD:sqstdaux.obj
 0002:001e4e20       _sqstd_register_stringlib  302dee20 f   sqstdlibD:sqstdstring.obj
 0002:001e55e0       ?asin@@YAMM@Z              302df5e0 f i sqstdlibD:sqstdmath.obj
 0002:001e5640       _asinf                     302df640 f i sqstdlibD:sqstdmath.obj
 0002:001e5830       ?log@@YAMM@Z               302df830 f i sqstdlibD:sqstdmath.obj
 0002:001e5890       _logf                      302df890 f i sqstdlibD:sqstdmath.obj
 0002:001e59c0       ?log10@@YAMM@Z             302df9c0 f i sqstdlibD:sqstdmath.obj
 0002:001e5a20       _log10f                    302dfa20 f i sqstdlibD:sqstdmath.obj
 0002:001e5c10       ?atan@@YAMM@Z              302dfc10 f i sqstdlibD:sqstdmath.obj
 0002:001e5c70       _atanf                     302dfc70 f i sqstdlibD:sqstdmath.obj
 0002:001e5ec0       ?pow@@YAMMM@Z              302dfec0 f i sqstdlibD:sqstdmath.obj
 0002:001e6160       ?exp@@YAMM@Z               302e0160 f i sqstdlibD:sqstdmath.obj
 0002:001e61c0       _expf                      302e01c0 f i sqstdlibD:sqstdmath.obj
 0002:001e6230       _sqstd_register_mathlib    302e0230 f   sqstdlibD:sqstdmath.obj
 0002:001e64f0       ?Resize@SQBlob@@QAE_NH@Z   302e04f0 f i sqstdlibD:sqstdblob.obj
 0002:001e67a0       ?GetBuf@SQBlob@@QAEPAXXZ   302e07a0 f i sqstdlibD:sqstdblob.obj
 0002:001e70f0       ??0SQBlob@@QAE@H@Z         302e10f0 f i sqstdlibD:sqstdblob.obj
 0002:001e71b0       ?Write@SQBlob@@UAEHPAXH@Z  302e11b0 f i sqstdlibD:sqstdblob.obj
 0002:001e7270       ?Read@SQBlob@@UAEHPAXH@Z   302e1270 f i sqstdlibD:sqstdblob.obj
 0002:001e7340       ?GrowBufOf@SQBlob@@QAE_NH@Z 302e1340 f i sqstdlibD:sqstdblob.obj
 0002:001e7410       ?CanAdvance@SQBlob@@QAE_NH@Z 302e1410 f i sqstdlibD:sqstdblob.obj
 0002:001e7470       ?Seek@SQBlob@@UAEHHH@Z     302e1470 f i sqstdlibD:sqstdblob.obj
 0002:001e7590       ?IsValid@SQBlob@@UAE_NXZ   302e1590 f i sqstdlibD:sqstdblob.obj
 0002:001e75e0       ?EOS@SQBlob@@UAE_NXZ       302e15e0 f i sqstdlibD:sqstdblob.obj
 0002:001e7630       ?Flush@SQBlob@@UAEHXZ      302e1630 f i sqstdlibD:sqstdblob.obj
 0002:001e7670       ?Tell@SQBlob@@UAEHXZ       302e1670 f i sqstdlibD:sqstdblob.obj
 0002:001e76b0       ?Len@SQBlob@@UAEHXZ        302e16b0 f i sqstdlibD:sqstdblob.obj
 0002:001e76f0       ??_GSQBlob@@UAEPAXI@Z      302e16f0 f i sqstdlibD:sqstdblob.obj
 0002:001e76f0       ??_ESQBlob@@UAEPAXI@Z      302e16f0 f i sqstdlibD:sqstdblob.obj
 0002:001e7760       ??1SQBlob@@UAE@XZ          302e1760 f i sqstdlibD:sqstdblob.obj
 0002:001e77d0       ??0SQStream@@QAE@XZ        302e17d0 f i sqstdlibD:sqstdblob.obj
 0002:001e7c90       _sqstd_getblob             302e1c90 f   sqstdlibD:sqstdblob.obj
 0002:001e7d40       _sqstd_getblobsize         302e1d40 f   sqstdlibD:sqstdblob.obj
 0002:001e7e00       _sqstd_createblob          302e1e00 f   sqstdlibD:sqstdblob.obj
 0002:001e7f90       _sqstd_register_bloblib    302e1f90 f   sqstdlibD:sqstdblob.obj
 0002:001e8000       _sqstd_fopen               302e2000 f   sqstdlibD:sqstdio.obj
 0002:001e8060       _sqstd_fread               302e2060 f   sqstdlibD:sqstdio.obj
 0002:001e80c0       _sqstd_fwrite              302e20c0 f   sqstdlibD:sqstdio.obj
 0002:001e8120       _sqstd_fseek               302e2120 f   sqstdlibD:sqstdio.obj
 0002:001e81d0       _sqstd_ftell               302e21d0 f   sqstdlibD:sqstdio.obj
 0002:001e8220       _sqstd_fflush              302e2220 f   sqstdlibD:sqstdio.obj
 0002:001e8270       _sqstd_fclose              302e2270 f   sqstdlibD:sqstdio.obj
 0002:001e82c0       _sqstd_feof                302e22c0 f   sqstdlibD:sqstdio.obj
 0002:001e8690       ??0SQFile@@QAE@PAX_N@Z     302e2690 f i sqstdlibD:sqstdio.obj
 0002:001e8710       ?Read@SQFile@@UAEHPAXH@Z   302e2710 f i sqstdlibD:sqstdio.obj
 0002:001e8780       ?Write@SQFile@@UAEHPAXH@Z  302e2780 f i sqstdlibD:sqstdio.obj
 0002:001e87f0       ?Flush@SQFile@@UAEHXZ      302e27f0 f i sqstdlibD:sqstdio.obj
 0002:001e8850       ?Tell@SQFile@@UAEHXZ       302e2850 f i sqstdlibD:sqstdio.obj
 0002:001e88b0       ?Len@SQFile@@UAEHXZ        302e28b0 f i sqstdlibD:sqstdio.obj
 0002:001e8980       ?Seek@SQFile@@UAEHHH@Z     302e2980 f i sqstdlibD:sqstdio.obj
 0002:001e89f0       ?IsValid@SQFile@@UAE_NXZ   302e29f0 f i sqstdlibD:sqstdio.obj
 0002:001e8a40       ?EOS@SQFile@@UAE_NXZ       302e2a40 f i sqstdlibD:sqstdio.obj
 0002:001e8ad0       ??_ESQFile@@UAEPAXI@Z      302e2ad0 f i sqstdlibD:sqstdio.obj
 0002:001e8ad0       ??_GSQFile@@UAEPAXI@Z      302e2ad0 f i sqstdlibD:sqstdio.obj
 0002:001e8b40       ??1SQFile@@UAE@XZ          302e2b40 f i sqstdlibD:sqstdio.obj
 0002:001e8ba0       ?Close@SQFile@@QAEXXZ      302e2ba0 f i sqstdlibD:sqstdio.obj
 0002:001e8ce0       _sqstd_createfile          302e2ce0 f   sqstdlibD:sqstdio.obj
 0002:001e8e20       _sqstd_getfile             302e2e20 f   sqstdlibD:sqstdio.obj
 0002:001e8f00       ?GetHandle@SQFile@@QAEPAXXZ 302e2f00 f i sqstdlibD:sqstdio.obj
 0002:001e8f40       ?file_read@@YAHPAX0H@Z     302e2f40 f   sqstdlibD:sqstdio.obj
 0002:001e8fb0       ?file_write@@YAHPAX0H@Z    302e2fb0 f   sqstdlibD:sqstdio.obj
 0002:001e9010       _sqstd_loadfile            302e3010 f   sqstdlibD:sqstdio.obj
 0002:001e9650       _sqstd_dofile              302e3650 f   sqstdlibD:sqstdio.obj
 0002:001e9720       _sqstd_writeclosuretofile  302e3720 f   sqstdlibD:sqstdio.obj
 0002:001e97e0       ?_g_io_loadfile@@YAHPAUSQVM@@@Z 302e37e0 f   sqstdlibD:sqstdio.obj
 0002:001e98f0       ?_g_io_writeclosuretofile@@YAHPAUSQVM@@@Z 302e38f0 f   sqstdlibD:sqstdio.obj
 0002:001e99b0       ?_g_io_dofile@@YAHPAUSQVM@@@Z 302e39b0 f   sqstdlibD:sqstdio.obj
 0002:001e9ae0       _sqstd_register_iolib      302e3ae0 f   sqstdlibD:sqstdio.obj
 0002:001e9c50       _sqstd_rex_compile         302e3c50 f   sqstdlibD:sqstdrex.obj
 0002:001eb320       _sqstd_rex_free            302e5320 f   sqstdlibD:sqstdrex.obj
 0002:001eb3f0       _sqstd_rex_match           302e53f0 f   sqstdlibD:sqstdrex.obj
 0002:001ec140       _sqstd_rex_searchrange     302e6140 f   sqstdlibD:sqstdrex.obj
 0002:001ec290       _sqstd_rex_search          302e6290 f   sqstdlibD:sqstdrex.obj
 0002:001ec300       _sqstd_rex_getsubexpcount  302e6300 f   sqstdlibD:sqstdrex.obj
 0002:001ec340       _sqstd_rex_getsubexp       302e6340 f   sqstdlibD:sqstdrex.obj
 0002:001ec3b0       ?_stream_readblob@@YAHPAUSQVM@@@Z 302e63b0 f   sqstdlibD:sqstdstream.obj
 0002:001ec5b0       ?_stream_readn@@YAHPAUSQVM@@@Z 302e65b0 f   sqstdlibD:sqstdstream.obj
 0002:001ecb20       ?_stream_writeblob@@YAHPAUSQVM@@@Z 302e6b20 f   sqstdlibD:sqstdstream.obj
 0002:001ecce0       ?_stream_writen@@YAHPAUSQVM@@@Z 302e6ce0 f   sqstdlibD:sqstdstream.obj
 0002:001ed1b0       ?_stream_seek@@YAHPAUSQVM@@@Z 302e71b0 f   sqstdlibD:sqstdstream.obj
 0002:001ed3d0       ?_stream_tell@@YAHPAUSQVM@@@Z 302e73d0 f   sqstdlibD:sqstdstream.obj
 0002:001ed500       ?_stream_len@@YAHPAUSQVM@@@Z 302e7500 f   sqstdlibD:sqstdstream.obj
 0002:001ed630       ?_stream_flush@@YAHPAUSQVM@@@Z 302e7630 f   sqstdlibD:sqstdstream.obj
 0002:001ed770       ?_stream_eos@@YAHPAUSQVM@@@Z 302e7770 f   sqstdlibD:sqstdstream.obj
 0002:001ed8c0       ?init_streamclass@@YAXPAUSQVM@@@Z 302e78c0 f   sqstdlibD:sqstdstream.obj
 0002:001edae0       ?declare_stream@@YAHPAUSQVM@@PADPAX1PAUtagSQRegFunction@@3@Z 302e7ae0 f   sqstdlibD:sqstdstream.obj
 0002:001ede50       _strtok                    302e7e50 f   LIBCMTD:strtok.obj
 0002:001edff0       _asin                      302e7ff0 f   LIBCMTD:_asin_.obj
 0002:001ee030       __CIasin                   302e8030 f   LIBCMTD:_asin_.obj
 0002:001ee06b       __CIasin_default           302e806b f   LIBCMTD:_asin_.obj
 0002:001ee07f       __asin_default             302e807f     LIBCMTD:_asin_.obj
 0002:001ee190       _log                       302e8190 f   LIBCMTD:_log_.obj
 0002:001ee1d0       __CIlog                    302e81d0 f   LIBCMTD:_log_.obj
 0002:001ee20b       __CIlog_default            302e820b f   LIBCMTD:_log_.obj
 0002:001ee21f       __log_default              302e821f     LIBCMTD:_log_.obj
 0002:001ee340       _log10                     302e8340 f   LIBCMTD:_log10_.obj
 0002:001ee380       __CIlog10                  302e8380 f   LIBCMTD:_log10_.obj
 0002:001ee3bb       __CIlog10_default          302e83bb f   LIBCMTD:_log10_.obj
 0002:001ee3cf       __log10_default            302e83cf     LIBCMTD:_log10_.obj
 0002:001ee4f0       _atan                      302e84f0 f   LIBCMTD:_atan_.obj
 0002:001ee530       __CIatan                   302e8530 f   LIBCMTD:_atan_.obj
 0002:001ee56b       __CIatan_default           302e856b f   LIBCMTD:_atan_.obj
 0002:001ee57f       __atan_default             302e857f     LIBCMTD:_atan_.obj
 0002:001ee650       _exp                       302e8650 f   LIBCMTD:_87ctran_.obj
 0002:001ee68c       __CIexp                    302e868c f   LIBCMTD:_87ctran_.obj
 0002:001ee6c7       __exp_default              302e86c7 f   LIBCMTD:_87ctran_.obj
 0002:001ee6d1       __CIexp_default            302e86d1 f   LIBCMTD:_87ctran_.obj
 0002:001ee700       __fsopen                   302e8700 f   LIBCMTD:fopen.obj
 0002:001ee990       _fopen                     302e8990 f   LIBCMTD:fopen.obj
 0002:001ee9b0       _fopen_s                   302e89b0 f   LIBCMTD:fopen.obj
 0002:001eea80       _fread_s                   302e8a80 f   LIBCMTD:fread.obj
 0002:001eec00       __fread_nolock_s           302e8c00 f   LIBCMTD:fread.obj
 0002:001ef350       _fread                     302e9350 f   LIBCMTD:fread.obj
 0002:001ef380       __fread_nolock             302e9380 f   LIBCMTD:fread.obj
 0002:001ef3b0       _fseek                     302e93b0 f   LIBCMTD:fseek.obj
 0002:001ef580       __fseek_nolock             302e9580 f   LIBCMTD:fseek.obj
 0002:001ef6a0       _ftell                     302e96a0 f   LIBCMTD:ftell.obj
 0002:001ef7c0       __ftell_nolock             302e97c0 f   LIBCMTD:ftell.obj
 0002:001efb40       _feof                      302e9b40 f   LIBCMTD:feoferr.obj
 0002:001efbd0       _ferror                    302e9bd0 f   LIBCMTD:feoferr.obj
 0002:001efc60       __CIasin_pentium4          302e9c60 f   LIBCMTD:_asin_pentium4_.obj
 0002:001efc78       __asin_pentium4            302e9c78     LIBCMTD:_asin_pentium4_.obj
 0002:001f0340       __CIlog_pentium4           302ea340 f   LIBCMTD:_log_pentium4_.obj
 0002:001f0358       __log_pentium4             302ea358     LIBCMTD:_log_pentium4_.obj
 0002:001f0650       __CIlog10_pentium4         302ea650 f   LIBCMTD:_log10_pentium4_.obj
 0002:001f0668       __log10_pentium4           302ea668     LIBCMTD:_log10_pentium4_.obj
 0002:001f0990       __CIatan_pentium4          302ea990 f   LIBCMTD:_atan_pentium4_.obj
 0002:001f09a8       __atan_pentium4            302ea9a8     LIBCMTD:_atan_pentium4_.obj
 0002:001f0d40       __CIexp_pentium4           302ead40 f   LIBCMTD:_exp_pentium4_.obj
 0002:001f0d58       __exp_pentium4             302ead58     LIBCMTD:_exp_pentium4_.obj
 0002:001f10b0       __openfile                 302eb0b0 f   LIBCMTD:_open.obj
 0002:001f1a60       __getstream                302eba60 f   LIBCMTD:stream.obj
 0002:001f1d60       __lseek                    302ebd60 f   LIBCMTD:lseek.obj
 0002:001f2010       __lseek_nolock             302ec010 f   LIBCMTD:lseek.obj
 0002:001f2120       __open                     302ec120 f   LIBCMTD:open.obj
 0002:001f2300       __sopen_helper             302ec300 f   LIBCMTD:open.obj
 0002:001f39f0       __sopen                    302ed9f0 f   LIBCMTD:open.obj
 0002:001f3a80       __sopen_s                  302eda80 f   LIBCMTD:open.obj
 0002:001f3ab0       __mbsnbicmp_l              302edab0 f   LIBCMTD:mbsnbicm.obj
 0002:001f4080       __mbsnbicmp                302ee080 f   LIBCMTD:mbsnbicm.obj
 0002:001f40b0       __mbsnbcmp_l               302ee0b0 f   LIBCMTD:mbsnbcmp.obj
 0002:001f4450       __mbsnbcmp                 302ee450 f   LIBCMTD:mbsnbcmp.obj
 0002:001f4480       __chsize_s                 302ee480 f   LIBCMTD:chsize.obj
 0002:001f47c0       __chsize_nolock            302ee7c0 f   LIBCMTD:chsize.obj
 0002:001f4b00       __chsize                   302eeb00 f   LIBCMTD:chsize.obj
 0002:001f4b30       __setmode                  302eeb30 f   LIBCMTD:setmode.obj
 0002:001f4e60       __setmode_nolock           302eee60 f   LIBCMTD:setmode.obj
 0002:001f5160       __set_fmode                302ef160 f   LIBCMTD:setmode.obj
 0002:001f5240       __get_fmode                302ef240 f   LIBCMTD:setmode.obj
 0002:001f52de       _CreateFileA@28            302ef2de f   kernel32:KERNEL32.dll
 0002:001f52e4       _SetEndOfFile@4            302ef2e4 f   kernel32:KERNEL32.dll
 0003:00000000       ___xc_a                    302f9000     LIBCMTD:crt0init.obj
 0003:00000338       ___xc_z                    302f9338     LIBCMTD:crt0init.obj
 0003:0000043c       ___xi_a                    302f943c     LIBCMTD:crt0init.obj
 0003:00000658       ___xi_z                    302f9658     LIBCMTD:crt0init.obj
 0003:0000075c       ___xp_a                    302f975c     LIBCMTD:crt0init.obj
 0003:00000a70       ___xp_z                    302f9a70     LIBCMTD:crt0init.obj
 0003:00000b74       ___xt_a                    302f9b74     LIBCMTD:crt0init.obj
 0003:00000c78       ___xt_z                    302f9c78     LIBCMTD:crt0init.obj
 0003:00000da0       __real@3fc99999a0000000    302f9da0     AnimalNPC.obj
 0003:00000db0       __real@4010000000000000    302f9db0     AnimalNPC.obj
 0003:00000dc0       __real@0000000000000000    302f9dc0     AnimalNPC.obj
 0003:00000dd0       __real@3fd19999a0000000    302f9dd0     AnimalNPC.obj
 0003:00000ddc       __real@00000000            302f9ddc     AnimalNPC.obj
 0003:00000de0       ??_C@_07BNEEMBEL@?$CKr_hand?$AA@ 302f9de0     bg_g2_utils.obj
 0003:00000dec       ??_C@_08MCJJKOHJ@jaw_bone?$AA@ 302f9dec     bg_g2_utils.obj
 0003:00000df8       ??_C@_06EGLMLMG@?$CKmouth?$AA@ 302f9df8     bg_g2_utils.obj
 0003:00000e00       ??_C@_04DJCABLIL@?$CFs?$CFc?$AA@ 302f9e00     bg_g2_utils.obj
 0003:00000e08       ??_C@_0BG@LLNBCDKB@EV_PLAY_EFFECT_BOLTED?$AA@ 302f9e08     bg_misc.obj
 0003:00000e24       ??_C@_08GBKLDCBE@EV_TAUNT?$AA@ 302f9e24     bg_misc.obj
 0003:00000e30       ??_C@_0BF@EAHNFOOG@EV_STARTLOOPINGSOUND?$AA@ 302f9e30     bg_misc.obj
 0003:00000e4c       ??_C@_0BE@OHJHDFJH@EV_STOPLOOPINGSOUND?$AA@ 302f9e4c     bg_misc.obj
 0003:00000e64       ??_C@_0M@LDAKOPJP@EV_TESTLINE?$AA@ 302f9e64     bg_misc.obj
 0003:00000e74       ??_C@_0O@PBPAKHP@EV_DEBUG_LINE?$AA@ 302f9e74     bg_misc.obj
 0003:00000e84       ??_C@_0O@CBLOOGHB@EV_SHIELD_HIT?$AA@ 302f9e84     bg_misc.obj
 0003:00000e94       ??_C@_0BF@LLJHJACN@EV_WEAPON_CHARGE_ALT?$AA@ 302f9e94     bg_misc.obj
 0003:00000eb0       ??_C@_0BB@HAHOHAKJ@EV_WEAPON_CHARGE?$AA@ 302f9eb0     bg_misc.obj
 0003:00000ec4       ??_C@_0BF@KFICFFCM@EV_SET_FORCE_DISABLE?$AA@ 302f9ec4     bg_misc.obj
 0003:00000ee0       ??_C@_0BC@DDJADHAK@EV_SET_FREE_SABER?$AA@ 302f9ee0     bg_misc.obj
 0003:00000ef8       ??_C@_0BB@JIHOLMBD@EV_GIVE_NEW_RANK?$AA@ 302f9ef8     bg_misc.obj
 0003:00000f0c       ??_C@_0BI@CEGPCIEH@EV_DESTROY_WEAPON_MODEL?$AA@ 302f9f0c     bg_misc.obj
 0003:00000f28       ??_C@_0BL@DNICLAEN@EV_DESTROY_GHOUL2_INSTANCE?$AA@ 302f9f28     bg_misc.obj
 0003:00000f48       ??_C@_0BL@CGBBFEIE@EV_SIEGE_OBJECTIVECOMPLETE?$AA@ 302f9f48     bg_misc.obj
 0003:00000f68       ??_C@_0BD@LACADBAO@EV_SIEGE_ROUNDOVER?$AA@ 302f9f68     bg_misc.obj
 0003:00000f80       ??_C@_0M@GBGEMMKK@EV_BODYFADE?$AA@ 302f9f80     bg_misc.obj
 0003:00000f90       ??_C@_0O@NEHCEMNJ@EV_CTFMESSAGE?$AA@ 302f9f90     bg_misc.obj
 0003:00000fa0       ??_C@_0N@GAJBP@EV_SCOREPLUM?$AA@ 302f9fa0     bg_misc.obj
 0003:00000fb0       ??_C@_0O@JLGFLKBE@EV_GIB_PLAYER?$AA@ 302f9fb0     bg_misc.obj
 0003:00000fc0       ??_C@_0BB@KGMADNKO@EV_FORCE_DRAINED?$AA@ 302f9fc0     bg_misc.obj
 0003:00000fd4       ??_C@_0BG@CHAMNADK@EV_POWERUP_BATTLESUIT?$AA@ 302f9fd4     bg_misc.obj
 0003:00000ff0       ??_C@_0BA@HLHGHIIE@EV_POWERUP_QUAD?$AA@ 302f9ff0     bg_misc.obj
 0003:00001004       ??_C@_0M@PPLCDPP@EV_OBITUARY?$AA@ 302fa004     bg_misc.obj
 0003:00001014       ??_C@_09KNGHBIAK@EV_DEATH3?$AA@ 302fa014     bg_misc.obj
 0003:00001020       ??_C@_09LEHMCJEL@EV_DEATH2?$AA@ 302fa020     bg_misc.obj
 0003:0000102c       ??_C@_09JPFBHKII@EV_DEATH1?$AA@ 302fa02c     bg_misc.obj
 0003:00001038       ??_C@_07EMHHKOOH@EV_PAIN?$AA@ 302fa038     bg_misc.obj
 0003:00001044       ??_C@_09ICDIPKFJ@EV_BULLET?$AA@ 302fa044     bg_misc.obj
 0003:00001050       ??_C@_0BG@LPAHEABB@EV_MISSILE_MISS_METAL?$AA@ 302fa050     bg_misc.obj
 0003:0000106c       ??_C@_0BA@CAHALNAE@EV_MISSILE_MISS?$AA@ 302fa06c     bg_misc.obj
 0003:00001080       ??_C@_0P@JFMFNBMO@EV_MISSILE_HIT?$AA@ 302fa080     bg_misc.obj
 0003:00001094       ??_C@_0BD@PIOAMKHB@EV_CONC_ALT_IMPACT?$AA@ 302fa094     bg_misc.obj
 0003:000010ac       ??_C@_0BC@MLGOBNCG@EV_MISC_MODEL_EXP?$AA@ 302fa0ac     bg_misc.obj
 0003:000010c4       ??_C@_09KLJDDMJG@EV_DEBRIS?$AA@ 302fa0c4     bg_misc.obj
 0003:000010d0       ??_C@_0BB@HHFJBAND@EV_GLASS_SHATTER?$AA@ 302fa0d0     bg_misc.obj
 0003:000010e4       ??_C@_0N@BEKJCCJE@EV_PLAY_ROFF?$AA@ 302fa0e4     bg_misc.obj
 0003:000010f4       ??_C@_0BA@LLJGBFCE@EV_ENTITY_SOUND?$AA@ 302fa0f4     bg_misc.obj
 0003:00001108       ??_C@_0BF@DDOIKLHD@EV_GLOBAL_TEAM_SOUND?$AA@ 302fa108     bg_misc.obj
 0003:00001124       ??_C@_0BA@JAMKLOPJ@EV_GLOBAL_SOUND?$AA@ 302fa124     bg_misc.obj
 0003:00001138       ??_C@_0BB@LJGGMAII@EV_GENERAL_SOUND?$AA@ 302fa138     bg_misc.obj
 0003:0000114c       ??_C@_0BC@GMNGJAOD@EV_VOICECMD_SOUND?$AA@ 302fa14c     bg_misc.obj
 0003:00001164       ??_C@_0O@JHBKAOKG@EV_MUTE_SOUND?$AA@ 302fa164     bg_misc.obj
 0003:00001174       ??_C@_0BA@EGLCGAMO@EV_BMODEL_SOUND?$AA@ 302fa174     bg_misc.obj
 0003:00001188       ??_C@_0BF@BLAPJAMF@EV_PLAYDOORLOOPSOUND?$AA@ 302fa188     bg_misc.obj
 0003:000011a4       ??_C@_0BB@OGNONJKP@EV_PLAYDOORSOUND?$AA@ 302fa1a4     bg_misc.obj
 0003:000011b8       ??_C@_0BJ@CGDHKBCK@EV_PLAY_PORTAL_EFFECT_ID?$AA@ 302fa1b8     bg_misc.obj
 0003:000011d8       ??_C@_0BC@LCOMFDPL@EV_PLAY_EFFECT_ID?$AA@ 302fa1d8     bg_misc.obj
 0003:000011f0       ??_C@_0P@PLIFONPM@EV_PLAY_EFFECT?$AA@ 302fa1f0     bg_misc.obj
 0003:00001204       ??_C@_0BB@JGOOAGDJ@EV_MISSILE_STICK?$AA@ 302fa204     bg_misc.obj
 0003:00001218       ??_C@_0BC@ECIIAFLJ@EV_GRENADE_BOUNCE?$AA@ 302fa218     bg_misc.obj
 0003:00001230       ??_C@_0BH@FNNILPIN@EV_PLAYER_TELEPORT_OUT?$AA@ 302fa230     bg_misc.obj
 0003:0000124c       ??_C@_0BG@HBBJKNDP@EV_PLAYER_TELEPORT_IN?$AA@ 302fa24c     bg_misc.obj
 0003:00001268       ??_C@_0M@ECGFPIMP@EV_ITEM_POP?$AA@ 302fa268     bg_misc.obj
 0003:00001278       ??_C@_0BA@GJNCODNG@EV_ITEM_RESPAWN?$AA@ 302fa278     bg_misc.obj
 0003:0000128c       ??_C@_0P@JFHCOBFC@EV_ITEMUSEFAIL?$AA@ 302fa28c     bg_misc.obj
 0003:000012a0       ??_C@_0O@HHGOLJPJ@EV_USE_ITEM15?$AA@ 302fa2a0     bg_misc.obj
 0003:000012b0       ??_C@_0O@GOHFIILI@EV_USE_ITEM14?$AA@ 302fa2b0     bg_misc.obj
 0003:000012c0       ??_C@_0O@CBDEBOHP@EV_USE_ITEM13?$AA@ 302fa2c0     bg_misc.obj
 0003:000012d0       ??_C@_0O@DICPCPDO@EV_USE_ITEM12?$AA@ 302fa2d0     bg_misc.obj
 0003:000012e0       ??_C@_0O@BDACHMPN@EV_USE_ITEM11?$AA@ 302fa2e0     bg_misc.obj
 0003:000012f0       ??_C@_0O@KBJENLM@EV_USE_ITEM10?$AA@ 302fa2f0     bg_misc.obj
 0003:00001300       ??_C@_0N@PHODCBCK@EV_USE_ITEM9?$AA@ 302fa300     bg_misc.obj
 0003:00001310       ??_C@_0N@OOPIBAGL@EV_USE_ITEM8?$AA@ 302fa310     bg_misc.obj
 0003:00001320       ??_C@_0N@GJGAAMKE@EV_USE_ITEM7?$AA@ 302fa320     bg_misc.obj
 0003:00001330       ??_C@_0N@HAHLDNOF@EV_USE_ITEM6?$AA@ 302fa330     bg_misc.obj
 0003:00001340       ??_C@_0N@FLFGGOCG@EV_USE_ITEM5?$AA@ 302fa340     bg_misc.obj
 0003:00001350       ??_C@_0N@ECENFPGH@EV_USE_ITEM4?$AA@ 302fa350     bg_misc.obj
 0003:00001360       ??_C@_0N@NAMMJKA@EV_USE_ITEM3?$AA@ 302fa360     bg_misc.obj
 0003:00001370       ??_C@_0N@BEBHPIOB@EV_USE_ITEM2?$AA@ 302fa370     bg_misc.obj
 0003:00001380       ??_C@_0N@DPDKKLCC@EV_USE_ITEM1?$AA@ 302fa380     bg_misc.obj
 0003:00001390       ??_C@_0N@CGCBJKGD@EV_USE_ITEM0?$AA@ 302fa390     bg_misc.obj
 0003:000013a0       ??_C@_06LBDBNJG@EV_USE?$AA@ 302fa3a0     bg_misc.obj
 0003:000013a8       ??_C@_0O@GLOAIHAI@EV_LOCALTIMER?$AA@ 302fa3a8     bg_misc.obj
 0003:000013b8       ??_C@_0P@EIHBPBOL@EV_SCREENSHAKE?$AA@ 302fa3b8     bg_misc.obj
 0003:000013cc       ??_C@_0O@GMONIJJI@EV_TEAM_POWER?$AA@ 302fa3cc     bg_misc.obj
 0003:000013dc       ??_C@_0P@MDPKBHNH@EV_PREDEFSOUND?$AA@ 302fa3dc     bg_misc.obj
 0003:000013f0       ??_C@_0BH@GCPNKPAL@EV_DISRUPTOR_ZOOMSOUND?$AA@ 302fa3f0     bg_misc.obj
 0003:0000140c       ??_C@_0BB@JNGCFFFI@EV_DISRUPTOR_HIT?$AA@ 302fa40c     bg_misc.obj
 0003:00001420       ??_C@_0BJ@POMLOPMI@EV_DISRUPTOR_SNIPER_MISS?$AA@ 302fa420     bg_misc.obj
 0003:00001440       ??_C@_0BJ@MDNKGNJN@EV_DISRUPTOR_SNIPER_SHOT?$AA@ 302fa440     bg_misc.obj
 0003:00001460       ??_C@_0BH@KDGLLAMO@EV_DISRUPTOR_MAIN_SHOT?$AA@ 302fa460     bg_misc.obj
 0003:0000147c       ??_C@_0BF@MBILLJJH@EV_BECOME_JEDIMASTER?$AA@ 302fa47c     bg_misc.obj
 0003:00001498       ??_C@_0BD@FFJMPGGA@EV_SABER_UNHOLSTER?$AA@ 302fa498     bg_misc.obj
 0003:000014b0       ??_C@_0BE@HNEOPGEL@EV_SABER_CLASHFLARE?$AA@ 302fa4b0     bg_misc.obj
 0003:000014c8       ??_C@_0P@MNCBBKHB@EV_SABER_BLOCK?$AA@ 302fa4c8     bg_misc.obj
 0003:000014dc       ??_C@_0N@IKFBFHKB@EV_SABER_HIT?$AA@ 302fa4dc     bg_misc.obj
 0003:000014ec       ??_C@_0BA@FJAFFDLF@EV_SABER_ATTACK?$AA@ 302fa4ec     bg_misc.obj
 0003:00001500       ??_C@_0M@LKPOHPHC@EV_ALT_FIRE?$AA@ 302fa500     bg_misc.obj
 0003:00001510       ??_C@_0P@PFJPAFGH@EV_FIRE_WEAPON?$AA@ 302fa510     bg_misc.obj
 0003:00001524       ??_C@_0BB@ENKPHJLP@EV_CHANGE_WEAPON?$AA@ 302fa524     bg_misc.obj
 0003:00001538       ??_C@_09NMIICG@EV_NOAMMO?$AA@ 302fa538     bg_misc.obj
 0003:00001544       ??_C@_0M@MNGOLNFL@EV_VEH_FIRE?$AA@ 302fa544     bg_misc.obj
 0003:00001554       ??_C@_0BG@KFILGAMN@EV_GLOBAL_ITEM_PICKUP?$AA@ 302fa554     bg_misc.obj
 0003:00001570       ??_C@_0P@BGIOEPCB@EV_ITEM_PICKUP?$AA@ 302fa570     bg_misc.obj
 0003:00001584       ??_C@_0P@NIPCJOBG@EV_WATER_CLEAR?$AA@ 302fa584     bg_misc.obj
 0003:00001598       ??_C@_0P@MIAIODEJ@EV_WATER_UNDER?$AA@ 302fa598     bg_misc.obj
 0003:000015ac       ??_C@_0P@LHDMOIIG@EV_WATER_LEAVE?$AA@ 302fa5ac     bg_misc.obj
 0003:000015c0       ??_C@_0P@GCDBKPMP@EV_WATER_TOUCH?$AA@ 302fa5c0     bg_misc.obj
 0003:000015d4       ??_C@_07OCJFCKNN@EV_ROLL?$AA@ 302fa5d4     bg_misc.obj
 0003:000015e0       ??_C@_07GKBEHGAP@EV_JUMP?$AA@ 302fa5e0     bg_misc.obj
 0003:000015ec       ??_C@_0BA@NCAJLGNF@EV_PRIVATE_DUEL?$AA@ 302fa5ec     bg_misc.obj
 0003:00001600       ??_C@_0P@MHGGNABN@EV_GLOBAL_DUEL?$AA@ 302fa600     bg_misc.obj
 0003:00001614       ??_C@_0P@BMAPLDAL@EV_GHOUL2_MARK?$AA@ 302fa614     bg_misc.obj
 0003:00001628       ??_C@_0N@PAALAJAC@EV_SABERLOCK?$AA@ 302fa628     bg_misc.obj
 0003:00001638       ??_C@_07JHCKGMKM@EV_FALL?$AA@ 302fa638     bg_misc.obj
 0003:00001644       ??_C@_0L@HOOIOPKF@EV_STEP_16?$AA@ 302fa644     bg_misc.obj
 0003:00001654       ??_C@_0L@BKIECKKB@EV_STEP_12?$AA@ 302fa654     bg_misc.obj
 0003:00001664       ??_C@_09EHOLDGNN@EV_STEP_8?$AA@ 302fa664     bg_misc.obj
 0003:00001670       ??_C@_09OLFOHJNB@EV_STEP_4?$AA@ 302fa670     bg_misc.obj
 0003:0000167c       ??_C@_07FFIIIPLH@EV_SWIM?$AA@ 302fa67c     bg_misc.obj
 0003:00001688       ??_C@_0M@NPJBGELA@EV_FOOTWADE?$AA@ 302fa688     bg_misc.obj
 0003:00001698       ??_C@_0O@HLJHKIDH@EV_FOOTSPLASH?$AA@ 302fa698     bg_misc.obj
 0003:000016a8       ??_C@_0BC@DIJMAMMI@EV_FOOTSTEP_METAL?$AA@ 302fa6a8     bg_misc.obj
 0003:000016c0       ??_C@_0M@HLKBOJPO@EV_FOOTSTEP?$AA@ 302fa6c0     bg_misc.obj
 0003:000016d0       ??_C@_0O@JHBAELOC@EV_CLIENTJOIN?$AA@ 302fa6d0     bg_misc.obj
 0003:000016e0       ??_C@_07JFMDDPHJ@EV_NONE?$AA@ 302fa6e0     bg_misc.obj
 0003:000016ec       ??_C@_0N@EFNACPEM@Tusken?5Rifle?$AA@ 302fa6ec     bg_misc.obj
 0003:000016fc       ??_C@_0CO@CJLJGOME@models?1weapons2?1tusken_rifle?1tus@ 302fa6fc     bg_misc.obj
 0003:00001734       ??_C@_0DA@CKHMHCHN@models?1weapons2?1tusken_rifle?1tus@ 302fa734     bg_misc.obj
 0003:00001770       ??_C@_0BE@JFFHIOON@weapon_tusken_rifle?$AA@ 302fa770     bg_misc.obj
 0003:00001788       ??_C@_0BB@JKNLMJAB@icons?1iconh_borb?$AA@ 302fa788     bg_misc.obj
 0003:0000179c       ??_C@_0BO@CMJEFEFK@models?1powerups?1orb?1b_orb?4md3?$AA@ 302fa79c     bg_misc.obj
 0003:000017c0       ??_C@_0O@NHDOFNIN@item_bluecube?$AA@ 302fa7c0     bg_misc.obj
 0003:000017d0       ??_C@_0BB@PKDLFOID@icons?1iconh_rorb?$AA@ 302fa7d0     bg_misc.obj
 0003:000017e4       ??_C@_0BO@LDKNFLC@models?1powerups?1orb?1r_orb?4md3?$AA@ 302fa7e4     bg_misc.obj
 0003:00001808       ??_C@_0N@IDOEINCB@item_redcube?$AA@ 302fa808     bg_misc.obj
 0003:00001818       ??_C@_0BF@OGGGKBMJ@icons?1iconf_neutral1?$AA@ 302fa818     bg_misc.obj
 0003:00001834       ??_C@_0BI@FAJILPEC@models?1flags?1n_flag?4md3?$AA@ 302fa834     bg_misc.obj
 0003:00001850       ??_C@_0BF@NFGOPKAE@team_CTF_neutralflag?$AA@ 302fa850     bg_misc.obj
 0003:0000186c       ??_C@_0BC@JDBDOHJA@gfx?1hud?1mpi_bflag?$AA@ 302fa86c     bg_misc.obj
 0003:00001884       ??_C@_0BN@NABGHIBA@models?1flags?1b_flag_ysal?4md3?$AA@ 302fa884     bg_misc.obj
 0003:000018a8       ??_C@_0BI@FKICCNIF@models?1flags?1b_flag?4md3?$AA@ 302fa8a8     bg_misc.obj
 0003:000018c4       ??_C@_0BC@NLKCOFAB@team_CTF_blueflag?$AA@ 302fa8c4     bg_misc.obj
 0003:000018dc       ??_C@_0BC@JAMFOFAL@gfx?1hud?1mpi_rflag?$AA@ 302fa8dc     bg_misc.obj
 0003:000018f4       ??_C@_0BN@DGDBEGIO@models?1flags?1r_flag_ysal?4md3?$AA@ 302fa8f4     bg_misc.obj
 0003:00001918       ??_C@_0BI@PEHEOJEO@models?1flags?1r_flag?4md3?$AA@ 302fa918     bg_misc.obj
 0003:00001934       ??_C@_0BB@JNMMCIHG@team_CTF_redflag?$AA@ 302fa934     bg_misc.obj
 0003:00001948       ??_C@_0BJ@DIDDNCPE@models?1items?1battery?4md3?$AA@ 302fa948     bg_misc.obj
 0003:00001968       ??_C@_08LLJPIFOF@ammo_all?$AA@ 302fa968     bg_misc.obj
 0003:00001974       ??_C@_0BE@IIEBFJHN@gfx?1mp?1ammo_rockets?$AA@ 302fa974     bg_misc.obj
 0003:0000198c       ??_C@_0BJ@BCBNBFGD@models?1items?1rockets?4md3?$AA@ 302fa98c     bg_misc.obj
 0003:000019ac       ??_C@_0N@CLEPKBOE@ammo_rockets?$AA@ 302fa9ac     bg_misc.obj
 0003:000019bc       ??_C@_0BL@IPLJCMOM@gfx?1mp?1ammo_metallic_bolts?$AA@ 302fa9bc     bg_misc.obj
 0003:000019dc       ??_C@_0CA@POKDMLNN@models?1items?1metallic_bolts?4md3?$AA@ 302fa9dc     bg_misc.obj
 0003:00001a04       ??_C@_0BE@OMMGIMPN@ammo_metallic_bolts?$AA@ 302faa04     bg_misc.obj
 0003:00001a1c       ??_C@_0BH@KBMOAFPH@gfx?1mp?1ammo_power_cell?$AA@ 302faa1c     bg_misc.obj
 0003:00001a38       ??_C@_0BM@GDMBBHDI@models?1items?1power_cell?4md3?$AA@ 302faa38     bg_misc.obj
 0003:00001a5c       ??_C@_0P@GBMHNHF@ammo_powercell?$AA@ 302faa5c     bg_misc.obj
 0003:00001a70       ??_C@_0BH@MFDMPLPM@gfx?1hud?1i_icon_battery?$AA@ 302faa70     bg_misc.obj
 0003:00001a8c       ??_C@_0N@JHBODPOG@ammo_blaster?$AA@ 302faa8c     bg_misc.obj
 0003:00001a9c       ??_C@_0BN@BKBHFNLE@models?1items?1energy_cell?4md3?$AA@ 302faa9c     bg_misc.obj
 0003:00001ac0       ??_C@_0BO@EBHMDMMM@sound?1player?1pickupenergy?4wav?$AA@ 302faac0     bg_misc.obj
 0003:00001ae4       ??_C@_0L@GKDELMG@ammo_force?$AA@ 302faae4     bg_misc.obj
 0003:00001af4       ??_C@_0BA@EENDCNMH@weapon_turretwp?$AA@ 302faaf4     bg_misc.obj
 0003:00001b08       ??_C@_0BA@PHDHEKAE@weapon_emplaced?$AA@ 302fab08     bg_misc.obj
 0003:00001b1c       ??_C@_0BA@DBJEACCG@weapon_det_pack?$AA@ 302fab1c     bg_misc.obj
 0003:00001b30       ??_C@_0BB@KBIODFKP@weapon_trip_mine?$AA@ 302fab30     bg_misc.obj
 0003:00001b44       ??_C@_0P@OJLAIIJD@weapon_thermal?$AA@ 302fab44     bg_misc.obj
 0003:00001b58       ??_C@_0BM@MOLHJNKH@?$EAMENUS_A_DETONATION_PACK_IS?$AA@ 302fab58     bg_misc.obj
 0003:00001b7c       ??_C@_0BH@EBPPNJFB@gfx?1hud?1w_icon_detpack?$AA@ 302fab7c     bg_misc.obj
 0003:00001b98       ??_C@_0CF@NONMEFGL@models?1weapons2?1detpack?1det_pack@ 302fab98     bg_misc.obj
 0003:00001bc4       ??_C@_0CH@KPFPNMHO@models?1weapons2?1detpack?1det_pack@ 302fabc4     bg_misc.obj
 0003:00001bf4       ??_C@_0CK@CDFEGPDE@models?1weapons2?1detpack?1det_pack@ 302fabf4     bg_misc.obj
 0003:00001c28       ??_C@_0CI@CBJMGLP@models?1weapons2?1detpack?1det_pack@ 302fac28     bg_misc.obj
 0003:00001c58       ??_C@_0N@CIBIOIEN@ammo_detpack?$AA@ 302fac58     bg_misc.obj
 0003:00001c68       ??_C@_0BN@CMMDBNGF@?$EAMENUS_TRIP_MINES_CONSIST_OF?$AA@ 302fac68     bg_misc.obj
 0003:00001c8c       ??_C@_0BI@HEJGEJJK@gfx?1hud?1w_icon_tripmine?$AA@ 302fac8c     bg_misc.obj
 0003:00001ca8       ??_C@_0CK@BPCANEAG@models?1weapons2?1laser_trap?1laser@ 302faca8     bg_misc.obj
 0003:00001cdc       ??_C@_0CM@PIAEKLLK@models?1weapons2?1laser_trap?1laser@ 302facdc     bg_misc.obj
 0003:00001d10       ??_C@_0CN@JOEHJLGB@models?1weapons2?1laser_trap?1laser@ 302fad10     bg_misc.obj
 0003:00001d48       ??_C@_0O@GAPOPCOE@ammo_tripmine?$AA@ 302fad48     bg_misc.obj
 0003:00001d58       ??_C@_0BN@FMFLLCGL@?$EAMENUS_THE_THERMAL_DETONATOR?$AA@ 302fad58     bg_misc.obj
 0003:00001d7c       ??_C@_0BH@OIMKPGPF@gfx?1hud?1w_icon_thermal?$AA@ 302fad7c     bg_misc.obj
 0003:00001d98       ??_C@_0CE@PJGNCPEG@models?1weapons2?1thermal?1thermal?4@ 302fad98     bg_misc.obj
 0003:00001dc4       ??_C@_0CG@CCBCCJGG@models?1weapons2?1thermal?1thermal_@ 302fadc4     bg_misc.obj
 0003:00001df4       ??_C@_0CH@BBPIBDBM@models?1weapons2?1thermal?1thermal_@ 302fadf4     bg_misc.obj
 0003:00001e24       ??_C@_0N@IBCNMHOJ@ammo_thermal?$AA@ 302fae24     bg_misc.obj
 0003:00001e34       ??_C@_0CC@EJOKBHDJ@?$EAMENUS_THE_PLX_2M_IS_AN_EXTREMEL@ 302fae34     bg_misc.obj
 0003:00001e5c       ??_C@_0BI@DDNFEDEJ@gfx?1hud?1w_icon_merrsonn?$AA@ 302fae5c     bg_misc.obj
 0003:00001e78       ??_C@_0CI@CPIMDKHH@models?1weapons2?1merr_sonn?1merr_s@ 302fae78     bg_misc.obj
 0003:00001ea8       ??_C@_0CK@IJJCBMNO@models?1weapons2?1merr_sonn?1merr_s@ 302faea8     bg_misc.obj
 0003:00001edc       ??_C@_0BH@CFPMIEJH@weapon_rocket_launcher?$AA@ 302faedc     bg_misc.obj
 0003:00001ef8       ??_C@_0CE@HHDMNMLP@?$EAMENUS_WIDELY_USED_BY_THE_CORPOR@ 302faef8     bg_misc.obj
 0003:00001f24       ??_C@_0BJ@PJJJCKNF@gfx?1hud?1w_icon_flechette?$AA@ 302faf24     bg_misc.obj
 0003:00001f44       ??_C@_0CK@CNAHGKMH@models?1weapons2?1golan_arms?1golan@ 302faf44     bg_misc.obj
 0003:00001f78       ??_C@_0CM@GDMOBBJ@models?1weapons2?1golan_arms?1golan@ 302faf78     bg_misc.obj
 0003:00001fac       ??_C@_0BB@HNIDLLLF@weapon_flechette?$AA@ 302fafac     bg_misc.obj
 0003:00001fc0       ??_C@_0BM@BCDPDFEB@?$EAMENUS_COMMONLY_REFERRED_TO?$AA@ 302fafc0     bg_misc.obj
 0003:00001fe4       ??_C@_0BF@BPEBOIFE@gfx?1hud?1w_icon_demp2?$AA@ 302fafe4     bg_misc.obj
 0003:00002000       ??_C@_0CA@PKACJAPI@models?1weapons2?1demp2?1demp2?4md3?$AA@ 302fb000     bg_misc.obj
 0003:00002028       ??_C@_0CC@DIKAHCC@models?1weapons2?1demp2?1demp2_w?4gl@ 302fb028     bg_misc.obj
 0003:00002050       ??_C@_0N@MBLCNHPF@weapon_demp2?$AA@ 302fb050     bg_misc.obj
 0003:00002060       ??_C@_0CD@FCKGGFFG@?$EAMENUS_THIS_DESTRUCTIVE_PROJECTI@ 302fb060     bg_misc.obj
 0003:0000208c       ??_C@_0BI@LOPKELCD@gfx?1hud?1w_icon_repeater?$AA@ 302fb08c     bg_misc.obj
 0003:000020a8       ??_C@_0DC@FAHGABEB@models?1weapons2?1heavy_repeater?1h@ 302fb0a8     bg_misc.obj
 0003:000020e4       ??_C@_0DE@LBIFBLHF@models?1weapons2?1heavy_repeater?1h@ 302fb0e4     bg_misc.obj
 0003:00002124       ??_C@_0BA@BKCKPFDA@weapon_repeater?$AA@ 302fb124     bg_misc.obj
 0003:00002138       ??_C@_0BM@MHHBLDA@?$EAMENUS_THIS_ARCHAIC_LOOKING?$AA@ 302fb138     bg_misc.obj
 0003:0000215c       ??_C@_0BJ@CHKJPOAH@gfx?1hud?1w_icon_bowcaster?$AA@ 302fb15c     bg_misc.obj
 0003:0000217c       ??_C@_0CI@MANABGJH@models?1weapons2?1bowcaster?1bowcas@ 302fb17c     bg_misc.obj
 0003:000021ac       ??_C@_0CK@OFDEGMIN@models?1weapons2?1bowcaster?1bowcas@ 302fb1ac     bg_misc.obj
 0003:000021e0       ??_C@_0BB@KDLDGPGH@weapon_bowcaster?$AA@ 302fb1e0     bg_misc.obj
 0003:000021f4       ??_C@_0BN@PDALGMFE@?$EAMENUS_THIS_NEFARIOUS_WEAPON?$AA@ 302fb1f4     bg_misc.obj
 0003:00002218       ??_C@_0BJ@MODONBMB@gfx?1hud?1w_icon_disruptor?$AA@ 302fb218     bg_misc.obj
 0003:00002238       ??_C@_0CI@KNAINLEF@models?1weapons2?1disruptor?1disrup@ 302fb238     bg_misc.obj
 0003:00002268       ??_C@_0CK@LDOPBIMF@models?1weapons2?1disruptor?1disrup@ 302fb268     bg_misc.obj
 0003:0000229c       ??_C@_0BB@EKCEEAKB@weapon_disruptor?$AA@ 302fb29c     bg_misc.obj
 0003:000022b0       ??_C@_0BN@KLDCJACF@?$EAMENUS_THE_PRIMARY_WEAPON_OF?$AA@ 302fb2b0     bg_misc.obj
 0003:000022d4       ??_C@_0BH@POPJAOPK@gfx?1hud?1w_icon_blaster?$AA@ 302fb2d4     bg_misc.obj
 0003:000022f0       ??_C@_0CG@IJILPHPH@models?1weapons2?1blaster_r?1blaste@ 302fb2f0     bg_misc.obj
 0003:00002320       ??_C@_0CI@FHMEJMJP@models?1weapons2?1blaster_r?1blaste@ 302fb320     bg_misc.obj
 0003:00002350       ??_C@_0P@PPIDHAJM@weapon_blaster?$AA@ 302fb350     bg_misc.obj
 0003:00002364       ??_C@_0BK@JHPMONHL@?$EASP_INGAME_BLASTER_PISTOL?$AA@ 302fb364     bg_misc.obj
 0003:00002384       ??_C@_0BF@HJCHFBMO@gfx?1hud?1w_icon_briar?$AA@ 302fb384     bg_misc.obj
 0003:000023a0       ??_C@_0CO@LMBDAEMJ@models?1weapons2?1briar_pistol?1bri@ 302fb3a0     bg_misc.obj
 0003:000023d8       ??_C@_0DA@DCLFBBNM@models?1weapons2?1briar_pistol?1bri@ 302fb3d8     bg_misc.obj
 0003:00002414       ??_C@_0BE@NCEGAEHJ@weapon_bryar_pistol?$AA@ 302fb414     bg_misc.obj
 0003:0000242c       ??_C@_0BH@OEFKMKID@?$EAMENUS_CONC_RIFLE_DESC?$AA@ 302fb42c     bg_misc.obj
 0003:00002448       ??_C@_0BH@PEIIGOLA@gfx?1hud?1w_icon_c_rifle?$AA@ 302fb448     bg_misc.obj
 0003:00002464       ??_C@_0CH@PIBGBJPN@models?1weapons2?1concussion?1c_rif@ 302fb464     bg_misc.obj
 0003:00002494       ??_C@_0CJ@OKJJMKPH@models?1weapons2?1concussion?1c_rif@ 302fb494     bg_misc.obj
 0003:000024c8       ??_C@_0BI@JFLEEDJH@weapon_concussion_rifle?$AA@ 302fb4c8     bg_misc.obj
 0003:000024e4       ??_C@_0BL@EJPJHBLO@?$EAMENUS_BLASTER_PISTOL_DESC?$AA@ 302fb4e4     bg_misc.obj
 0003:00002504       ??_C@_0BO@EGOADNOO@gfx?1hud?1w_icon_blaster_pistol?$AA@ 302fb504     bg_misc.obj
 0003:00002528       ??_C@_0DC@EGNBDNKO@models?1weapons2?1blaster_pistol?1b@ 302fb528     bg_misc.obj
 0003:00002564       ??_C@_0DE@EHAMJOHG@models?1weapons2?1blaster_pistol?1b@ 302fb564     bg_misc.obj
 0003:000025a4       ??_C@_0BG@JEHALHIL@weapon_blaster_pistol?$AA@ 302fb5a4     bg_misc.obj
 0003:000025c0       ??_C@_0BN@GPMHMMHO@?$EAMENUS_AN_ELEGANT_WEAPON_FOR?$AA@ 302fb5c0     bg_misc.obj
 0003:000025e4       ??_C@_0BK@DENAAEJI@gfx?1hud?1w_icon_lightsaber?$AA@ 302fb5e4     bg_misc.obj
 0003:00002604       ??_C@_0CC@LELHOPDH@models?1weapons2?1saber?1saber_w?4md@ 302fb604     bg_misc.obj
 0003:0000262c       ??_C@_0CC@PBCBCODB@models?1weapons2?1saber?1saber_w?4gl@ 302fb62c     bg_misc.obj
 0003:00002654       ??_C@_0N@JIBGHNNO@weapon_saber?$AA@ 302fb654     bg_misc.obj
 0003:00002664       ??_C@_0BC@CEFBGLCB@?$EAMENUS_MELEE_DESC?$AA@ 302fb664     bg_misc.obj
 0003:0000267c       ??_C@_0BF@GPOFHEPB@gfx?1hud?1w_icon_melee?$AA@ 302fb67c     bg_misc.obj
 0003:00002698       ??_C@_0CF@INEBKGM@models?1weapons2?1stun_baton?1baton@ 302fb698     bg_misc.obj
 0003:000026c4       ??_C@_0CH@BLMKNANE@models?1weapons2?1stun_baton?1baton@ 302fb6c4     bg_misc.obj
 0003:000026f4       ??_C@_0N@LBBGELFA@weapon_melee?$AA@ 302fb6f4     bg_misc.obj
 0003:00002704       ??_C@_0BE@OEFHDNBF@gfx?1hud?1mpi_ysamari?$AA@ 302fb704     bg_misc.obj
 0003:0000271c       ??_C@_0CE@KCIGBHIN@models?1map_objects?1mp?1ysalimari?4@ 302fb71c     bg_misc.obj
 0003:00002748       ??_C@_0BL@LEFKKCEP@sound?1player?1ysalimari?4wav?$AA@ 302fb748     bg_misc.obj
 0003:00002768       ??_C@_0P@BMGIHJKN@item_ysalimari?$AA@ 302fb768     bg_misc.obj
 0003:0000277c       ??_C@_0BC@DEOLDKOL@gfx?1hud?1mpi_fboon?$AA@ 302fb77c     bg_misc.obj
 0003:00002794       ??_C@_0CF@JPDLAKMB@models?1map_objects?1mp?1force_boon@ 302fb794     bg_misc.obj
 0003:000027c0       ??_C@_0BG@GFIPDGIH@sound?1player?1boon?4wav?$AA@ 302fb7c0     bg_misc.obj
 0003:000027dc       ??_C@_0BA@HALIIJIE@item_force_boon?$AA@ 302fb7dc     bg_misc.obj
 0003:000027f0       ??_C@_0BE@NFHAGLDO@gfx?1hud?1mpi_dklight?$AA@ 302fb7f0     bg_misc.obj
 0003:00002808       ??_C@_0CL@IJLGBCPL@models?1map_objects?1mp?1dk_enlight@ 302fb808     bg_misc.obj
 0003:0000283c       ??_C@_0BK@JFKBFAGB@item_force_enlighten_dark?$AA@ 302fb83c     bg_misc.obj
 0003:0000285c       ??_C@_0BD@MPGMMGMB@gfx?1hud?1mpi_jlight?$AA@ 302fb85c     bg_misc.obj
 0003:00002874       ??_C@_0CN@DIMKCGKC@models?1map_objects?1mp?1jedi_enlig@ 302fb874     bg_misc.obj
 0003:000028ac       ??_C@_0BP@GFNNPIJO@sound?1player?1enlightenment?4wav?$AA@ 302fb8ac     bg_misc.obj
 0003:000028d4       ??_C@_0BL@MINBJMDE@item_force_enlighten_light?$AA@ 302fb8d4     bg_misc.obj
 0003:000028f4       ??_C@_0N@LDKIPHF@Flamethrower?$AA@ 302fb8f4     bg_misc.obj
 0003:00002904       ??_C@_0BC@FEOIGMFL@item_flamethrower?$AA@ 302fb904     bg_misc.obj
 0003:0000291c       ??_C@_0BC@GHMKCCIP@?$EAMENUS_CLOAK_DESC?$AA@ 302fb91c     bg_misc.obj
 0003:00002934       ??_C@_0BF@JNCBPHCG@gfx?1hud?1i_icon_cloak?$AA@ 302fb934     bg_misc.obj
 0003:00002950       ??_C@_0L@LGDPDIAF@item_cloak?$AA@ 302fb950     bg_misc.obj
 0003:00002960       ??_C@_0BB@BOLMLFOH@?$EAMENUS_EWEB_DESC?$AA@ 302fb960     bg_misc.obj
 0003:00002974       ??_C@_0BE@HACMCHO@gfx?1hud?1i_icon_eweb?$AA@ 302fb974     bg_misc.obj
 0003:0000298c       ??_C@_0CH@FJBCGPDI@models?1map_objects?1hoth?1eweb_mod@ 302fb98c     bg_misc.obj
 0003:000029bc       ??_C@_0CA@PCDIFNM@sound?1interface?1shieldcon_empty?$AA@ 302fb9bc     bg_misc.obj
 0003:000029e4       ??_C@_0BD@FNDPGFNF@item_eweb_holdable?$AA@ 302fb9e4     bg_misc.obj
 0003:000029fc       ??_C@_0BI@NJGLIFAN@gfx?1hud?1i_icon_ammodisp?$AA@ 302fb9fc     bg_misc.obj
 0003:00002a18       ??_C@_0O@FFANILHN@item_ammodisp?$AA@ 302fba18     bg_misc.obj
 0003:00002a28       ??_C@_0BK@CIGOJBM@gfx?1hud?1i_icon_healthdisp?$AA@ 302fba28     bg_misc.obj
 0003:00002a48       ??_C@_0BA@MKABDBIL@item_healthdisp?$AA@ 302fba48     bg_misc.obj
 0003:00002a5c       ??_C@_0BE@JOMGFMAF@?$EAMENUS_JETPACK_DESC?$AA@ 302fba5c     bg_misc.obj
 0003:00002a78       ??_C@_0FD@EDGCAKBF@sound?1chars?1boba?1JETON?4wav?5sound@ 302fba78     bg_misc.obj
 0003:00002adc       ??_C@_0BF@CHFBNMLA@effects?1boba?1jet?4efx?$AA@ 302fbadc     bg_misc.obj
 0003:00002af8       ??_C@_0BH@PNGEEMFJ@gfx?1hud?1i_icon_jetpack?$AA@ 302fbaf8     bg_misc.obj
 0003:00002b14       ??_C@_0N@EIBGMPAH@item_jetpack?$AA@ 302fbb14     bg_misc.obj
 0003:00002b24       ??_C@_0BN@MFHKBDDJ@?$EAMENUS_THIS_DEADLY_WEAPON_IS?$AA@ 302fbb24     bg_misc.obj
 0003:00002b48       ??_C@_0BJ@JKBMBJCM@gfx?1hud?1i_icon_sentrygun?$AA@ 302fbb48     bg_misc.obj
 0003:00002b68       ??_C@_0BH@PFALJFOC@models?1items?1psgun?4glm?$AA@ 302fbb68     bg_misc.obj
 0003:00002b84       ??_C@_0BA@HKIJMOIG@item_sentry_gun?$AA@ 302fbb84     bg_misc.obj
 0003:00002b98       ??_C@_0BL@PADDACKM@?$EASP_INGAME_LA_GOGGLES_DESC?$AA@ 302fbb98     bg_misc.obj
 0003:00002bb8       ??_C@_0BE@PKBACEEE@gfx?1hud?1i_icon_zoom?$AA@ 302fbbb8     bg_misc.obj
 0003:00002bd0       ??_C@_0BM@HNHCIOH@models?1items?1binoculars?4md3?$AA@ 302fbbd0     bg_misc.obj
 0003:00002bf4       ??_C@_0BA@KBLOKIGM@item_binoculars?$AA@ 302fbbf4     bg_misc.obj
 0003:00002c08       ??_C@_0BJ@DMMPEJNE@gfx?1hud?1i_icon_big_bacta?$AA@ 302fbc08     bg_misc.obj
 0003:00002c28       ??_C@_0BL@HEJMELJJ@models?1items?1big_bacta?4md3?$AA@ 302fbc28     bg_misc.obj
 0003:00002c48       ??_C@_0BA@JADGBDOO@item_medpac_big?$AA@ 302fbc48     bg_misc.obj
 0003:00002c5c       ??_C@_0BG@BFJBNBGL@?$EASP_INGAME_BACTA_DESC?$AA@ 302fbc5c     bg_misc.obj
 0003:00002c78       ??_C@_0BF@EDJNGJL@gfx?1hud?1i_icon_bacta?$AA@ 302fbc78     bg_misc.obj
 0003:00002c94       ??_C@_0CA@COCFAODK@models?1map_objects?1mp?1bacta?4md3?$AA@ 302fbc94     bg_misc.obj
 0003:00002cbc       ??_C@_0M@NLNOFNHL@item_medpac?$AA@ 302fbcbc     bg_misc.obj
 0003:00002ccc       ??_C@_0BO@HHEDFEHB@?$EAMENUS_THIS_STATIONARY_ENERGY?$AA@ 302fbccc     bg_misc.obj
 0003:00002cf0       ??_C@_0KM@PHBHELNF@sound?1weapons?1detpack?1stick?4wav?5@ 302fbcf0     bg_misc.obj
 0003:00002dc0       ??_C@_0BK@OODCPGGP@gfx?1hud?1i_icon_shieldwall?$AA@ 302fbdc0     bg_misc.obj
 0003:00002de0       ??_C@_0CB@EAKHAPIK@models?1map_objects?1mp?1shield?4md3@ 302fbde0     bg_misc.obj
 0003:00002e08       ??_C@_0M@IIGPMPLO@item_shield?$AA@ 302fbe08     bg_misc.obj
 0003:00002e18       ??_C@_0BP@JJMOPAPI@?$EAMENUS_AN_ATTACK_DRONE_SIMILAR?$AA@ 302fbe18     bg_misc.obj
 0003:00002e40       ??_C@_0BG@KANLKHLH@gfx?1hud?1i_icon_seeker?$AA@ 302fbe40     bg_misc.obj
 0003:00002e5c       ??_C@_0BI@PEKMFNBP@models?1items?1remote?4md3?$AA@ 302fbe5c     bg_misc.obj
 0003:00002e78       ??_C@_0BJ@IBMECGJM@sound?1weapons?1w_pkup?4wav?$AA@ 302fbe78     bg_misc.obj
 0003:00002e98       ??_C@_0M@CJHMIAK@item_seeker?$AA@ 302fbe98     bg_misc.obj
 0003:00002ea8       ??_C@_0BG@PFBKDHHG@gfx?1hud?1i_icon_medkit?$AA@ 302fbea8     bg_misc.obj
 0003:00002ec4       ??_C@_0CB@PABPOCJH@models?1map_objects?1mp?1medpac?4md3@ 302fbec4     bg_misc.obj
 0003:00002eec       ??_C@_0BO@NIGJKPEE@sound?1player?1pickuphealth?4wav?$AA@ 302fbeec     bg_misc.obj
 0003:00002f10       ??_C@_0BE@MEFMIHAD@item_medpak_instant?$AA@ 302fbf10     bg_misc.obj
 0003:00002f28       ??_C@_0BE@JKBNBKPH@gfx?1mp?1large_shield?$AA@ 302fbf28     bg_misc.obj
 0003:00002f40       ??_C@_0BO@JPJCNECL@models?1map_objects?1mp?1psd?4md3?$AA@ 302fbf40     bg_misc.obj
 0003:00002f64       ??_C@_0BI@HGJKGJEB@item_shield_lrg_instant?$AA@ 302fbf64     bg_misc.obj
 0003:00002f80       ??_C@_0BE@GPDHMLPP@gfx?1mp?1small_shield?$AA@ 302fbf80     bg_misc.obj
 0003:00002f98       ??_C@_0CB@FFNAAGJJ@models?1map_objects?1mp?1psd_sm?4md3@ 302fbf98     bg_misc.obj
 0003:00002fc0       ??_C@_0BO@CHCEMMJK@sound?1player?1pickupshield?4wav?$AA@ 302fbfc0     bg_misc.obj
 0003:00002fe4       ??_C@_0BH@DINJFPKN@item_shield_sm_instant?$AA@ 302fbfe4     bg_misc.obj
 0003:00002fff       ??_C@_00CNPNBAHC@?$AA@     302fbfff     bg_misc.obj
 0003:00003000       ??_C@_08FEEDNBKC@MASTERY7?$AA@ 302fc000     bg_misc.obj
 0003:0000300c       ??_C@_08ENFIOAOD@MASTERY6?$AA@ 302fc00c     bg_misc.obj
 0003:00003018       ??_C@_08GGHFLDCA@MASTERY5?$AA@ 302fc018     bg_misc.obj
 0003:00003024       ??_C@_08HPGOICGB@MASTERY4?$AA@ 302fc024     bg_misc.obj
 0003:00003030       ??_C@_08DACPBEKG@MASTERY3?$AA@ 302fc030     bg_misc.obj
 0003:0000303c       ??_C@_08CJDECFOH@MASTERY2?$AA@ 302fc03c     bg_misc.obj
 0003:00003048       ??_C@_08CBJHGCE@MASTERY1?$AA@ 302fc048     bg_misc.obj
 0003:00003054       ??_C@_08BLACEHGF@MASTERY0?$AA@ 302fc054     bg_misc.obj
 0003:00003060       ??_C@_0O@GKPNHIOC@?$CKtac_together?$AA@ 302fc060     bg_misc.obj
 0003:00003070       ??_C@_0L@MGMJIMAF@?$CKtac_split?$AA@ 302fc070     bg_misc.obj
 0003:00003080       ??_C@_09DINJJNAI@?$CKtac_hold?$AA@ 302fc080     bg_misc.obj
 0003:0000308c       ??_C@_0M@PABJGNLG@?$CKtac_follow?$AA@ 302fc08c     bg_misc.obj
 0003:0000309c       ??_C@_0O@NFGMPNBH@?$CKtac_fallback?$AA@ 302fc09c     bg_misc.obj
 0003:000030ac       ??_C@_0L@EHELGHNE@?$CKtac_cover?$AA@ 302fc0ac     bg_misc.obj
 0003:000030bc       ??_C@_0N@KDPAKEEJ@?$CKspot_troops?$AA@ 302fc0bc     bg_misc.obj
 0003:000030cc       ??_C@_0N@JGIPLKJE@?$CKspot_sniper?$AA@ 302fc0cc     bg_misc.obj
 0003:000030dc       ??_C@_0P@LLDGJFLE@?$CKspot_emplaced?$AA@ 302fc0dc     bg_misc.obj
 0003:000030f0       ??_C@_0P@ILGDCGKG@?$CKspot_defenses?$AA@ 302fc0f0     bg_misc.obj
 0003:00003104       ??_C@_09KPOPDKGM@?$CKspot_air?$AA@ 302fc104     bg_misc.obj
 0003:00003110       ??_C@_09FCIMPFEJ@?$CKreq_tech?$AA@ 302fc110     bg_misc.obj
 0003:0000311c       ??_C@_08EHGAEMIC@?$CKreq_sup?$AA@ 302fc11c     bg_misc.obj
 0003:00003128       ??_C@_0L@PJEOEMHI@?$CKreq_medic?$AA@ 302fc128     bg_misc.obj
 0003:00003138       ??_C@_08BDPMJJAM@?$CKreq_hvy?$AA@ 302fc138     bg_misc.obj
 0003:00003144       ??_C@_09HHLDNJAG@?$CKreq_demo?$AA@ 302fc144     bg_misc.obj
 0003:00003150       ??_C@_0M@MJLNGIKA@?$CKreq_assist?$AA@ 302fc150     bg_misc.obj
 0003:00003160       ??_C@_0L@DOBCHHPE@?$CKreply_yes?$AA@ 302fc160     bg_misc.obj
 0003:00003170       ??_C@_0M@PJKELJII@?$CKreply_stay?$AA@ 302fc170     bg_misc.obj
 0003:00003180       ??_C@_09FGIKFCBO@?$CKreply_no?$AA@ 302fc180     bg_misc.obj
 0003:0000318c       ??_C@_09FJFLGJJB@?$CKreply_go?$AA@ 302fc18c     bg_misc.obj
 0003:00003198       ??_C@_0O@LCDECPIN@?$CKreply_coming?$AA@ 302fc198     bg_misc.obj
 0003:000031a8       ??_C@_0M@HJCGMPNN@?$CKdef_second?$AA@ 302fc1a8     bg_misc.obj
 0003:000031b8       ??_C@_0N@LBIDFACI@?$CKdef_primary?$AA@ 302fc1b8     bg_misc.obj
 0003:000031c8       ??_C@_0O@EGEINPEB@?$CKdef_position?$AA@ 302fc1c8     bg_misc.obj
 0003:000031d8       ??_C@_09PJJIIOPG@?$CKdef_guns?$AA@ 302fc1d8     bg_misc.obj
 0003:000031e4       ??_C@_0M@ECCLODLO@?$CKatt_second?$AA@ 302fc1e4     bg_misc.obj
 0003:000031f4       ??_C@_0N@GFADGNOG@?$CKatt_primary?$AA@ 302fc1f4     bg_misc.obj
 0003:00003204       ??_C@_0M@MHLPAMFK@?$CKatt_attack?$AA@ 302fc204     bg_misc.obj
 0003:00003214       ??_C@_0N@ODJGPHCM@force_shield?$AA@ 302fc214     bg_misc.obj
 0003:00003224       ??_C@_0BI@KPCBHBOL@head_light_blaster_cann?$AA@ 302fc224     bg_misc.obj
 0003:00003240       ??_C@_0BI@FPANAMDK@head_concussion_charger?$AA@ 302fc240     bg_misc.obj
 0003:0000325c       ??_C@_04NEODDMOL@head?$AA@ 302fc25c     bg_misc.obj
 0003:00003264       ??_C@_06BCDCLMEB@helmet?$AA@ 302fc264     bg_misc.obj
 0003:0000326c       ??_C@_06INLMLPMC@r_hand?$AA@ 302fc26c     bg_misc.obj
 0003:00003274       ??_C@_06LKFNFIFB@l_hand?$AA@ 302fc274     bg_misc.obj
 0003:0000327c       ??_C@_05DAKMKCAJ@blah5?$AA@ 302fc27c     bg_misc.obj
 0003:00003284       ??_C@_05CJLHJDEI@blah4?$AA@ 302fc284     bg_misc.obj
 0003:0000328c       ??_C@_04DCKHGPHA@nose?$AA@ 302fc28c     bg_misc.obj
 0003:00003294       ??_C@_06KAKLKKDN@l_gear?$AA@ 302fc294     bg_misc.obj
 0003:0000329c       ??_C@_06JHEKENKO@r_gear?$AA@ 302fc29c     bg_misc.obj
 0003:000032a4       ??_C@_07DBBACNJN@l_wing2?$AA@ 302fc2a4     bg_misc.obj
 0003:000032b0       ??_C@_07BKDNHOFO@l_wing1?$AA@ 302fc2b0     bg_misc.obj
 0003:000032bc       ??_C@_07FICBAOIE@r_wing2?$AA@ 302fc2bc     bg_misc.obj
 0003:000032c8       ??_C@_07HDAMFNEH@r_wing1?$AA@ 302fc2c8     bg_misc.obj
 0003:000032d4       ??_C@_0N@FODOKFMD@torso_collar?$AA@ 302fc2d4     bg_misc.obj
 0003:000032e4       ??_C@_0BB@FPOHHKLE@torso_galaktorso?$AA@ 302fc2e4     bg_misc.obj
 0003:000032f8       ??_C@_0N@IFENOPML@torso_shield?$AA@ 302fc2f8     bg_misc.obj
 0003:00003308       ??_C@_05IPPEPANF@l_arm?$AA@ 302fc308     bg_misc.obj
 0003:00003310       ??_C@_05LGCIJDDO@r_arm?$AA@ 302fc310     bg_misc.obj
 0003:00003318       ??_C@_0M@HACAOHEH@torso_tube6?$AA@ 302fc318     bg_misc.obj
 0003:00003328       ??_C@_0M@FLANLEIE@torso_tube5?$AA@ 302fc328     bg_misc.obj
 0003:00003338       ??_C@_0M@ECBGIFMF@torso_tube4?$AA@ 302fc338     bg_misc.obj
 0003:00003348       ??_C@_0M@NFHBDAC@torso_tube3?$AA@ 302fc348     bg_misc.obj
 0003:00003358       ??_C@_0M@BEEMCCED@torso_tube2?$AA@ 302fc358     bg_misc.obj
 0003:00003368       ??_C@_0M@DPGBHBIA@torso_tube1?$AA@ 302fc368     bg_misc.obj
 0003:00003378       ??_C@_0BA@DHJPAGAH@torso_canister3?$AA@ 302fc378     bg_misc.obj
 0003:0000338c       ??_C@_0BA@COIEDHEG@torso_canister2?$AA@ 302fc38c     bg_misc.obj
 0003:000033a0       ??_C@_0BA@FKJGEIF@torso_canister1?$AA@ 302fc3a0     bg_misc.obj
 0003:000033b4       ??_C@_09EPBMGDBP@l_arm_key?$AA@ 302fc3b4     bg_misc.obj
 0003:000033c0       ?bgToggleableSurfaceDebris@@3QBHB 302fc3c0     bg_misc.obj
 0003:00003454       ??_C@_08OEKJENGB@?$CFf?5?$CFf?5?$CFf?$AA@ 302fc454     bg_misc.obj
 0003:00003460       ??_C@_02IKAHHCAI@?$CFi?$AA@ 302fc460     bg_misc.obj
 0003:00003464       ??_C@_03COHLNFKP@?$CFi?9?$AA@ 302fc464     bg_misc.obj
 0003:00003468       ??_C@_0CI@GINMDDBF@5?91?90000000000000000000000000000@ 302fc468     bg_misc.obj
 0003:00003498       __real@4076800000000000    302fc498     bg_misc.obj
 0003:000034a4       __real@43870000            302fc4a4     bg_misc.obj
 0003:000034a8       __real@42b40000            302fc4a8     bg_misc.obj
 0003:000034b0       __real@400921fb60000000    302fc4b0     bg_misc.obj
 0003:000034c0       __real@4066800000000000    302fc4c0     bg_misc.obj
 0003:000034cc       ??_C@_0BH@MFGKJDLM@HoldableItem?5not?5found?$AA@ 302fc4cc     bg_misc.obj
 0003:000034e8       ??_C@_0CB@DEACFJO@Couldn?8t?5find?5item?5for?5weapon?5?$CFi@ 302fc4e8     bg_misc.obj
 0003:00003510       ??_C@_0BP@LHPKGFBO@Couldn?8t?5find?5item?5for?5ammo?5?$CFi?$AA@ 302fc510     bg_misc.obj
 0003:00003538       __real@c042000000000000    302fc538     bg_misc.obj
 0003:00003548       __real@4042000000000000    302fc548     bg_misc.obj
 0003:00003558       __real@c049000000000000    302fc558     bg_misc.obj
 0003:00003568       __real@4046000000000000    302fc568     bg_misc.obj
 0003:00003574       ??_C@_0CG@HNLFCMEK@BG_CanItemBeGrabbed?3?5unknown?5enu@ 302fc574     bg_misc.obj
 0003:000035a4       ??_C@_0BM@NECGLAIF@BG_CanItemBeGrabbed?3?5IT_BAD?$AA@ 302fc5a4     bg_misc.obj
 0003:000035c8       ??_C@_0CI@MFONMA@BG_CanItemBeGrabbed?3?5index?5out?5o@ 302fc5c8     bg_misc.obj
 0003:000035f8       ??_C@_0DM@PPIGHFEL@BG_EvaluateTrajectory?3?5?$FLCLIENTGA@ 302fc5f8     bg_misc.obj
 0003:00003640       __real@4079000000000000    302fc640     bg_misc.obj
 0003:00003650       __real@4056800000000000    302fc650     bg_misc.obj
 0003:00003660       __real@3f50624de0000000    302fc660     bg_misc.obj
 0003:00003670       __real@3f50624dd2f1a9fc    302fc670     bg_misc.obj
 0003:0000367c       ??_C@_0CP@MCFPOIMF@BG_EvaluateTrajectoryDelta?3?5unkn@ 302fc67c     bg_misc.obj
 0003:000036b8       __real@4089000000000000    302fc6b8     bg_misc.obj
 0003:000036c8       __real@3fe0000000000000    302fc6c8     bg_misc.obj
 0003:000036d4       ??_C@_0DA@KOPJLGJF@Cgame?5event?5svt?5?$CF5d?5?9?$DO?5?$CF5d?3?5num?5@ 302fc6d4     bg_misc.obj
 0003:00003710       ??_C@_0L@MNPDPHLD@showevents?$AA@ 302fc710     bg_misc.obj
 0003:00003720       ??_C@_01GBGANLPD@0?$AA@    302fc720     bg_misc.obj
 0003:00003728       __real@4046800000000000    302fc728     bg_misc.obj
 0003:00003738       __real@bff0000000000000    302fc738     bg_misc.obj
 0003:00003748       __real@3ff0000000000000    302fc748     bg_misc.obj
 0003:00003754       ??_C@_05LKGOKJFG@fpls3?$AA@ 302fc754     bg_misc.obj
 0003:0000375c       ??_C@_05KDHFJIBH@fpls2?$AA@ 302fc75c     bg_misc.obj
 0003:00003764       ??_C@_04BEPDCOC@fpls?$AA@  302fc764     bg_misc.obj
 0003:0000376c       ??_C@_04JIEPAMAO@kyle?$AA@ 302fc76c     bg_misc.obj
 0003:00003774       ??_C@_04EEIGNHLG@menu?$AA@ 302fc774     bg_misc.obj
 0003:0000377c       ??_C@_05GLFHLNLB@_blue?$AA@ 302fc77c     bg_misc.obj
 0003:00003784       ??_C@_0CA@ODGGEHPP@models?1players?1?$CFs?1model_?$CFs?4skin?$AA@ 302fc784     bg_misc.obj
 0003:000037ac       ??_C@_04NCFJPIH@_red?$AA@  302fc7ac     bg_misc.obj
 0003:000037b4       ??_C@_07DLHCIBDH@default?$AA@ 302fc7b4     bg_misc.obj
 0003:000037c0       ??_C@_04OBGPFBCN@blue?$AA@ 302fc7c0     bg_misc.obj
 0003:000037c8       ??_C@_03FAAAOPJM@red?$AA@  302fc7c8     bg_misc.obj
 0003:000037cc       __real@3f800000            302fc7cc     bg_misc.obj
 0003:000037d0       ??_C@_05HIOBFLDN@jedi_?$AA@ 302fc7d0     bg_misc.obj
 0003:000037d8       ??_C@_0CJ@BDGLLNGN@BG_Alloc?3?5buffer?5exceeded?5tail?5?$CI@ 302fc7d8     bg_misc.obj
 0003:0000380c       ??_C@_0DC@MINDOIGG@BG_AllocUnaligned?3?5buffer?5exceed@ 302fc80c     bg_misc.obj
 0003:00003848       ??_C@_0CN@JLGNNLBK@BG_TempAlloc?3?5buffer?5exceeded?5he@ 302fc848     bg_misc.obj
 0003:00003880       ??_C@_0CO@IIHBNEDD@BG_TempFree?3?5tail?5greater?5than?5s@ 302fc880     bg_misc.obj
 0003:000038b8       ??_C@_15DMJFFMOP@?$AAp?$AAs?$AA?$AA@ 302fc8b8     bg_misc.obj
 0003:000038c0       ??_C@_1FA@KLMFIENC@?$AAd?$AA?3?$AA?2?$AAo?$AAj?$AAp?$AA?2?$AAe?$AAn?$AAh?$AAa?$AAn?$AAc?$AAe?$AAd?$AA?2?$AAs?$AAo?$AAu?$AAr?$AAc?$AAe?$AA?2?$AAg?$AAa?$AAm?$AAe?$AA?2?$AAb?$AAg?$AA_?$AAm@ 302fc8c0     bg_misc.obj
 0003:00003920       ??_C@_0BB@DLIIJLPK@BOTH_SWEEPKICKED?$AA@ 302fc920     bg_panimate.obj
 0003:00003934       ??_C@_0P@NONIJEBE@BOTH_SWEEPKICK?$AA@ 302fc934     bg_panimate.obj
 0003:00003948       ??_C@_0O@OMEINLAE@BOTH_P7_S1_B_?$AA@ 302fc948     bg_panimate.obj
 0003:00003958       ??_C@_0O@CAOCNLJK@BOTH_P6_S1_B_?$AA@ 302fc958     bg_panimate.obj
 0003:00003968       ??_C@_0O@CKCHNCID@BOTH_P1_S1_B_?$AA@ 302fc968     bg_panimate.obj
 0003:00003978       ??_C@_0M@JAIOEHIF@BOTH_CIN_50?$AA@ 302fc978     bg_panimate.obj
 0003:00003988       ??_C@_0M@EAIOJGPL@BOTH_CIN_49?$AA@ 302fc988     bg_panimate.obj
 0003:00003998       ??_C@_0M@FJJFKHLK@BOTH_CIN_48?$AA@ 302fc998     bg_panimate.obj
 0003:000039a8       ??_C@_0M@NOANLLHF@BOTH_CIN_47?$AA@ 302fc9a8     bg_panimate.obj
 0003:000039b8       ??_C@_0M@MHBGIKDE@BOTH_CIN_46?$AA@ 302fc9b8     bg_panimate.obj
 0003:000039c8       ??_C@_0M@OMDLNJPH@BOTH_CIN_45?$AA@ 302fc9c8     bg_panimate.obj
 0003:000039d8       ??_C@_0M@PFCAOILG@BOTH_CIN_44?$AA@ 302fc9d8     bg_panimate.obj
 0003:000039e8       ??_C@_0M@LKGBHOHB@BOTH_CIN_43?$AA@ 302fc9e8     bg_panimate.obj
 0003:000039f8       ??_C@_0M@KDHKEPDA@BOTH_CIN_42?$AA@ 302fc9f8     bg_panimate.obj
 0003:00003a08       ??_C@_0M@IIFHBMPD@BOTH_CIN_41?$AA@ 302fca08     bg_panimate.obj
 0003:00003a18       ??_C@_0M@JBEMCNLC@BOTH_CIN_40?$AA@ 302fca18     bg_panimate.obj
 0003:00003a28       ??_C@_0M@EFMBIAHO@BOTH_CIN_39?$AA@ 302fca28     bg_panimate.obj
 0003:00003a38       ??_C@_0M@FMNKLBDP@BOTH_CIN_38?$AA@ 302fca38     bg_panimate.obj
 0003:00003a48       ??_C@_0M@NLECKNPA@BOTH_CIN_37?$AA@ 302fca48     bg_panimate.obj
 0003:00003a58       ??_C@_0M@MCFJJMLB@BOTH_CIN_36?$AA@ 302fca58     bg_panimate.obj
 0003:00003a68       ??_C@_0M@OJHEMPHC@BOTH_CIN_35?$AA@ 302fca68     bg_panimate.obj
 0003:00003a78       ??_C@_0M@PAGPPODD@BOTH_CIN_34?$AA@ 302fca78     bg_panimate.obj
 0003:00003a88       ??_C@_0M@LPCOGIPE@BOTH_CIN_33?$AA@ 302fca88     bg_panimate.obj
 0003:00003a98       ??_C@_0M@KGDFFJLF@BOTH_CIN_32?$AA@ 302fca98     bg_panimate.obj
 0003:00003aa8       ??_C@_0M@INBIAKHG@BOTH_CIN_31?$AA@ 302fcaa8     bg_panimate.obj
 0003:00003ab8       ??_C@_0M@JEADDLDH@BOTH_CIN_30?$AA@ 302fcab8     bg_panimate.obj
 0003:00003ac8       ??_C@_0M@EEADOKEJ@BOTH_CIN_29?$AA@ 302fcac8     bg_panimate.obj
 0003:00003ad8       ??_C@_0M@FNBINLAI@BOTH_CIN_28?$AA@ 302fcad8     bg_panimate.obj
 0003:00003ae8       ??_C@_0M@NKIAMHMH@BOTH_CIN_27?$AA@ 302fcae8     bg_panimate.obj
 0003:00003af8       ??_C@_0M@MDJLPGIG@BOTH_CIN_26?$AA@ 302fcaf8     bg_panimate.obj
 0003:00003b08       ??_C@_0M@OILGKFEF@BOTH_CIN_25?$AA@ 302fcb08     bg_panimate.obj
 0003:00003b18       ??_C@_0M@PBKNJEAE@BOTH_CIN_24?$AA@ 302fcb18     bg_panimate.obj
 0003:00003b28       ??_C@_0M@LOOMACMD@BOTH_CIN_23?$AA@ 302fcb28     bg_panimate.obj
 0003:00003b38       ??_C@_0M@KHPHDDIC@BOTH_CIN_22?$AA@ 302fcb38     bg_panimate.obj
 0003:00003b48       ??_C@_0M@IMNKGAEB@BOTH_CIN_21?$AA@ 302fcb48     bg_panimate.obj
 0003:00003b58       ??_C@_0M@JFMBFBAA@BOTH_CIN_20?$AA@ 302fcb58     bg_panimate.obj
 0003:00003b68       ??_C@_0M@EGEFFEBA@BOTH_CIN_19?$AA@ 302fcb68     bg_panimate.obj
 0003:00003b78       ??_C@_0M@FPFOGFFB@BOTH_CIN_18?$AA@ 302fcb78     bg_panimate.obj
 0003:00003b88       ??_C@_0M@NIMGHJJO@BOTH_CIN_17?$AA@ 302fcb88     bg_panimate.obj
 0003:00003b98       ??_C@_0M@MBNNEINP@BOTH_CIN_16?$AA@ 302fcb98     bg_panimate.obj
 0003:00003ba8       ??_C@_0M@OKPABLBM@BOTH_CIN_15?$AA@ 302fcba8     bg_panimate.obj
 0003:00003bb8       ??_C@_0M@PDOLCKFN@BOTH_CIN_14?$AA@ 302fcbb8     bg_panimate.obj
 0003:00003bc8       ??_C@_0M@LMKKLMJK@BOTH_CIN_13?$AA@ 302fcbc8     bg_panimate.obj
 0003:00003bd8       ??_C@_0M@KFLBINNL@BOTH_CIN_12?$AA@ 302fcbd8     bg_panimate.obj
 0003:00003be8       ??_C@_0M@IOJMNOBI@BOTH_CIN_11?$AA@ 302fcbe8     bg_panimate.obj
 0003:00003bf8       ??_C@_0M@JHIHOPFJ@BOTH_CIN_10?$AA@ 302fcbf8     bg_panimate.obj
 0003:00003c08       ??_C@_0L@LLDGGLKP@BOTH_CIN_9?$AA@ 302fcc08     bg_panimate.obj
 0003:00003c18       ??_C@_0L@KCCNFKOO@BOTH_CIN_8?$AA@ 302fcc18     bg_panimate.obj
 0003:00003c28       ??_C@_0L@CFLFEGCB@BOTH_CIN_7?$AA@ 302fcc28     bg_panimate.obj
 0003:00003c38       ??_C@_0L@DMKOHHGA@BOTH_CIN_6?$AA@ 302fcc38     bg_panimate.obj
 0003:00003c48       ??_C@_0L@BHIDCEKD@BOTH_CIN_5?$AA@ 302fcc48     bg_panimate.obj
 0003:00003c58       ??_C@_0L@OJIBFOC@BOTH_CIN_4?$AA@ 302fcc58     bg_panimate.obj
 0003:00003c68       ??_C@_0L@EBNJIDCF@BOTH_CIN_3?$AA@ 302fcc68     bg_panimate.obj
 0003:00003c78       ??_C@_0L@FIMCLCGE@BOTH_CIN_2?$AA@ 302fcc78     bg_panimate.obj
 0003:00003c88       ??_C@_0L@HDOPOBKH@BOTH_CIN_1?$AA@ 302fcc88     bg_panimate.obj
 0003:00003c98       ??_C@_0BI@BOCBGNDA@BOTH_SABERDESANN_STANCE?$AA@ 302fcc98     bg_panimate.obj
 0003:00003cb4       ??_C@_0BI@HFIIMGKB@BOTH_SABERTAVION_STANCE?$AA@ 302fccb4     bg_panimate.obj
 0003:00003cd0       ??_C@_0BE@GNJJNMBI@BOTH_LEDGE_MERCPULL?$AA@ 302fccd0     bg_panimate.obj
 0003:00003ce8       ??_C@_0BB@POANIEBE@BOTH_LEDGE_RIGHT?$AA@ 302fcce8     bg_panimate.obj
 0003:00003cfc       ??_C@_0BA@MHCKFGEE@BOTH_LEDGE_LEFT?$AA@ 302fccfc     bg_panimate.obj
 0003:00003d10       ??_C@_0BA@BKECIHGH@BOTH_LEDGE_HOLD?$AA@ 302fcd10     bg_panimate.obj
 0003:00003d24       ??_C@_0BA@GEODKLCB@BOTH_LEDGE_GRAB?$AA@ 302fcd24     bg_panimate.obj
 0003:00003d38       ??_C@_0N@MEGKIHKK@LEGS_TURN180?$AA@ 302fcd38     bg_panimate.obj
 0003:00003d48       ??_C@_0N@EEPPLEKL@LEGS_S7_RUP5?$AA@ 302fcd48     bg_panimate.obj
 0003:00003d58       ??_C@_0N@FNOEIFOK@LEGS_S7_RUP4?$AA@ 302fcd58     bg_panimate.obj
 0003:00003d68       ??_C@_0N@BCKFBDCN@LEGS_S7_RUP3?$AA@ 302fcd68     bg_panimate.obj
 0003:00003d78       ??_C@_0N@LLOCCGM@LEGS_S7_RUP2?$AA@ 302fcd78     bg_panimate.obj
 0003:00003d88       ??_C@_0N@CAJDHBKP@LEGS_S7_RUP1?$AA@ 302fcd88     bg_panimate.obj
 0003:00003d98       ??_C@_0N@JLCPJNEI@LEGS_S7_LUP5?$AA@ 302fcd98     bg_panimate.obj
 0003:00003da8       ??_C@_0N@ICDEKMAJ@LEGS_S7_LUP4?$AA@ 302fcda8     bg_panimate.obj
 0003:00003db8       ??_C@_0N@MNHFDKMO@LEGS_S7_LUP3?$AA@ 302fcdb8     bg_panimate.obj
 0003:00003dc8       ??_C@_0N@NEGOALIP@LEGS_S7_LUP2?$AA@ 302fcdc8     bg_panimate.obj
 0003:00003dd8       ??_C@_0N@PPEDFIEM@LEGS_S7_LUP1?$AA@ 302fcdd8     bg_panimate.obj
 0003:00003de8       ??_C@_0N@OCIILPBP@LEGS_S6_RUP5?$AA@ 302fcde8     bg_panimate.obj
 0003:00003df8       ??_C@_0N@PLJDIOFO@LEGS_S6_RUP4?$AA@ 302fcdf8     bg_panimate.obj
 0003:00003e08       ??_C@_0N@LENCBIJJ@LEGS_S6_RUP3?$AA@ 302fce08     bg_panimate.obj
 0003:00003e18       ??_C@_0N@KNMJCJNI@LEGS_S6_RUP2?$AA@ 302fce18     bg_panimate.obj
 0003:00003e28       ??_C@_0N@IGOEHKBL@LEGS_S6_RUP1?$AA@ 302fce28     bg_panimate.obj
 0003:00003e38       ??_C@_0N@DNFIJGPM@LEGS_S6_LUP5?$AA@ 302fce38     bg_panimate.obj
 0003:00003e48       ??_C@_0N@CEEDKHLN@LEGS_S6_LUP4?$AA@ 302fce48     bg_panimate.obj
 0003:00003e58       ??_C@_0N@GLACDBHK@LEGS_S6_LUP3?$AA@ 302fce58     bg_panimate.obj
 0003:00003e68       ??_C@_0N@HCBJAADL@LEGS_S6_LUP2?$AA@ 302fce68     bg_panimate.obj
 0003:00003e78       ??_C@_0N@FJDEFDPI@LEGS_S6_LUP1?$AA@ 302fce78     bg_panimate.obj
 0003:00003e88       ??_C@_0N@NDGAKFIC@LEGS_S5_RUP5?$AA@ 302fce88     bg_panimate.obj
 0003:00003e98       ??_C@_0N@MKHLJEMD@LEGS_S5_RUP4?$AA@ 302fce98     bg_panimate.obj
 0003:00003ea8       ??_C@_0N@IFDKACAE@LEGS_S5_RUP3?$AA@ 302fcea8     bg_panimate.obj
 0003:00003eb8       ??_C@_0N@JMCBDDEF@LEGS_S5_RUP2?$AA@ 302fceb8     bg_panimate.obj
 0003:00003ec8       ??_C@_0N@LHAMGAIG@LEGS_S5_RUP1?$AA@ 302fcec8     bg_panimate.obj
 0003:00003ed8       ??_C@_0N@MLAIMGB@LEGS_S5_LUP5?$AA@ 302fced8     bg_panimate.obj
 0003:00003ee8       ??_C@_0N@BFKLLNCA@LEGS_S5_LUP4?$AA@ 302fcee8     bg_panimate.obj
 0003:00003ef8       ??_C@_0N@FKOKCLOH@LEGS_S5_LUP3?$AA@ 302fcef8     bg_panimate.obj
 0003:00003f08       ??_C@_0N@EDPBBKKG@LEGS_S5_LUP2?$AA@ 302fcf08     bg_panimate.obj
 0003:00003f18       ??_C@_0N@GINMEJGF@LEGS_S5_LUP1?$AA@ 302fcf18     bg_panimate.obj
 0003:00003f28       ??_C@_0N@HFBHKODG@LEGS_S4_RUP5?$AA@ 302fcf28     bg_panimate.obj
 0003:00003f38       ??_C@_0N@GMAMJPHH@LEGS_S4_RUP4?$AA@ 302fcf38     bg_panimate.obj
 0003:00003f48       ??_C@_0N@CDENAJLA@LEGS_S4_RUP3?$AA@ 302fcf48     bg_panimate.obj
 0003:00003f58       ??_C@_0N@DKFGDIPB@LEGS_S4_RUP2?$AA@ 302fcf58     bg_panimate.obj
 0003:00003f68       ??_C@_0N@BBHLGLDC@LEGS_S4_RUP1?$AA@ 302fcf68     bg_panimate.obj
 0003:00003f78       ??_C@_0N@KKMHIHNF@LEGS_S4_LUP5?$AA@ 302fcf78     bg_panimate.obj
 0003:00003f88       ??_C@_0N@LDNMLGJE@LEGS_S4_LUP4?$AA@ 302fcf88     bg_panimate.obj
 0003:00003f98       ??_C@_0N@PMJNCAFD@LEGS_S4_LUP3?$AA@ 302fcf98     bg_panimate.obj
 0003:00003fa8       ??_C@_0N@OFIGBBBC@LEGS_S4_LUP2?$AA@ 302fcfa8     bg_panimate.obj
 0003:00003fb8       ??_C@_0N@MOKLECNB@LEGS_S4_LUP1?$AA@ 302fcfb8     bg_panimate.obj
 0003:00003fc8       ??_C@_0N@LALAJALI@LEGS_S3_RUP5?$AA@ 302fcfc8     bg_panimate.obj
 0003:00003fd8       ??_C@_0N@KJKLKBPJ@LEGS_S3_RUP4?$AA@ 302fcfd8     bg_panimate.obj
 0003:00003fe8       ??_C@_0N@OGOKDHDO@LEGS_S3_RUP3?$AA@ 302fcfe8     bg_panimate.obj
 0003:00003ff8       ??_C@_0N@PPPBAGHP@LEGS_S3_RUP2?$AA@ 302fcff8     bg_panimate.obj
 0003:00004008       ??_C@_0N@NENMFFLM@LEGS_S3_RUP1?$AA@ 302fd008     bg_panimate.obj
 0003:00004018       ??_C@_0N@GPGALJFL@LEGS_S3_LUP5?$AA@ 302fd018     bg_panimate.obj
 0003:00004028       ??_C@_0N@HGHLIIBK@LEGS_S3_LUP4?$AA@ 302fd028     bg_panimate.obj
 0003:00004038       ??_C@_0N@DJDKBONN@LEGS_S3_LUP3?$AA@ 302fd038     bg_panimate.obj
 0003:00004048       ??_C@_0N@CACBCPJM@LEGS_S3_LUP2?$AA@ 302fd048     bg_panimate.obj
 0003:00004058       ??_C@_0N@LAMHMFP@LEGS_S3_LUP1?$AA@ 302fd058     bg_panimate.obj
 0003:00004068       ??_C@_0N@CHCPIBJB@LEGS_S1_RUP5?$AA@ 302fd068     bg_panimate.obj
 0003:00004078       ??_C@_0N@DODELANA@LEGS_S1_RUP4?$AA@ 302fd078     bg_panimate.obj
 0003:00004088       ??_C@_0N@HBHFCGBH@LEGS_S1_RUP3?$AA@ 302fd088     bg_panimate.obj
 0003:00004098       ??_C@_0N@GIGOBHFG@LEGS_S1_RUP2?$AA@ 302fd098     bg_panimate.obj
 0003:000040a8       ??_C@_0N@EDEDEEJF@LEGS_S1_RUP1?$AA@ 302fd0a8     bg_panimate.obj
 0003:000040b8       ??_C@_0N@PIPPKIHC@LEGS_S1_LUP5?$AA@ 302fd0b8     bg_panimate.obj
 0003:000040c8       ??_C@_0N@OBOEJJDD@LEGS_S1_LUP4?$AA@ 302fd0c8     bg_panimate.obj
 0003:000040d8       ??_C@_0N@KOKFAPPE@LEGS_S1_LUP3?$AA@ 302fd0d8     bg_panimate.obj
 0003:000040e8       ??_C@_0N@LHLODOLF@LEGS_S1_LUP2?$AA@ 302fd0e8     bg_panimate.obj
 0003:000040f8       ??_C@_0N@JMJDGNHG@LEGS_S1_LUP1?$AA@ 302fd0f8     bg_panimate.obj
 0003:00004108       ??_C@_0O@PPAOPDJO@LEGS_RIGHTUP5?$AA@ 302fd108     bg_panimate.obj
 0003:00004118       ??_C@_0O@OGBFMCNP@LEGS_RIGHTUP4?$AA@ 302fd118     bg_panimate.obj
 0003:00004128       ??_C@_0O@KJFEFEBI@LEGS_RIGHTUP3?$AA@ 302fd128     bg_panimate.obj
 0003:00004138       ??_C@_0O@LAEPGFFJ@LEGS_RIGHTUP2?$AA@ 302fd138     bg_panimate.obj
 0003:00004148       ??_C@_0O@JLGCDGJK@LEGS_RIGHTUP1?$AA@ 302fd148     bg_panimate.obj
 0003:00004158       ??_C@_0N@DBAKPANN@LEGS_LEFTUP5?$AA@ 302fd158     bg_panimate.obj
 0003:00004168       ??_C@_0N@CIBBMBJM@LEGS_LEFTUP4?$AA@ 302fd168     bg_panimate.obj
 0003:00004178       ??_C@_0N@GHFAFHFL@LEGS_LEFTUP3?$AA@ 302fd178     bg_panimate.obj
 0003:00004188       ??_C@_0N@HOELGGBK@LEGS_LEFTUP2?$AA@ 302fd188     bg_panimate.obj
 0003:00004198       ??_C@_0N@FFGGDFNJ@LEGS_LEFTUP1?$AA@ 302fd198     bg_panimate.obj
 0003:000041a8       ??_C@_0O@FPAJGKKH@LEGS_CHOKING1?$AA@ 302fd1a8     bg_panimate.obj
 0003:000041b8       ??_C@_0BB@HCNNJMLM@LEGS_LEAN_RIGHT1?$AA@ 302fd1b8     bg_panimate.obj
 0003:000041cc       ??_C@_0BA@MCADBFIF@LEGS_LEAN_LEFT1?$AA@ 302fd1cc     bg_panimate.obj
 0003:000041e0       ??_C@_0L@BFOCDDKC@LEGS_TURN2?$AA@ 302fd1e0     bg_panimate.obj
 0003:000041f0       ??_C@_0L@DOMPGAGB@LEGS_TURN1?$AA@ 302fd1f0     bg_panimate.obj
 0003:00004200       ??_C@_0BC@FAHFKMOC@TORSO_HANDSIGNAL5?$AA@ 302fd200     bg_panimate.obj
 0003:00004218       ??_C@_0BC@EJGOJNKD@TORSO_HANDSIGNAL4?$AA@ 302fd218     bg_panimate.obj
 0003:00004230       ??_C@_0BC@GCPALGE@TORSO_HANDSIGNAL3?$AA@ 302fd230     bg_panimate.obj
 0003:00004248       ??_C@_0BC@BPDEDKCF@TORSO_HANDSIGNAL2?$AA@ 302fd248     bg_panimate.obj
 0003:00004260       ??_C@_0BC@DEBJGJOG@TORSO_HANDSIGNAL1?$AA@ 302fd260     bg_panimate.obj
 0003:00004278       ??_C@_0P@EDGDJEAA@TORSO_CHOKING1?$AA@ 302fd278     bg_panimate.obj
 0003:0000428c       ??_C@_0BF@CAMHOBIG@TORSO_SURRENDER_STOP?$AA@ 302fd28c     bg_panimate.obj
 0003:000042a8       ??_C@_0BG@DJHHNKPJ@TORSO_SURRENDER_START?$AA@ 302fd2a8     bg_panimate.obj
 0003:000042c4       ??_C@_0BD@IPNKJOGP@TORSO_WEAPONIDLE10?$AA@ 302fd2c4     bg_panimate.obj
 0003:000042dc       ??_C@_0BC@OEKOFEDF@TORSO_WEAPONIDLE4?$AA@ 302fd2dc     bg_panimate.obj
 0003:000042f4       ??_C@_0BC@KLOPMCPC@TORSO_WEAPONIDLE3?$AA@ 302fd2f4     bg_panimate.obj
 0003:0000430c       ??_C@_0BC@LCPEPDLD@TORSO_WEAPONIDLE2?$AA@ 302fd30c     bg_panimate.obj
 0003:00004324       ??_C@_0BE@PLMMDJNI@TORSO_WEAPONREADY10?$AA@ 302fd324     bg_panimate.obj
 0003:0000433c       ??_C@_0BD@EDNLHJLG@TORSO_WEAPONREADY4?$AA@ 302fd33c     bg_panimate.obj
 0003:00004354       ??_C@_0BD@MJKOPHB@TORSO_WEAPONREADY3?$AA@ 302fd354     bg_panimate.obj
 0003:0000436c       ??_C@_0BD@BFIBNODA@TORSO_WEAPONREADY2?$AA@ 302fd36c     bg_panimate.obj
 0003:00004384       ??_C@_0BD@DOKMINPD@TORSO_WEAPONREADY1?$AA@ 302fd384     bg_panimate.obj
 0003:0000439c       ??_C@_0BB@JNFLGAHH@TORSO_RAISEWEAP4?$AA@ 302fd39c     bg_panimate.obj
 0003:000043b0       ??_C@_0BB@OACMJEDC@TORSO_RAISEWEAP1?$AA@ 302fd3b0     bg_panimate.obj
 0003:000043c4       ??_C@_0BA@CHPACHPA@TORSO_DROPWEAP4?$AA@ 302fd3c4     bg_panimate.obj
 0003:000043d8       ??_C@_0BA@FKIHNDLF@TORSO_DROPWEAP1?$AA@ 302fd3d8     bg_panimate.obj
 0003:000043ec       ??_C@_09LOFMHEDG@BOTH_SIT7?$AA@ 302fd3ec     bg_panimate.obj
 0003:000043f8       ??_C@_09KHEHEFHH@BOTH_SIT6?$AA@ 302fd3f8     bg_panimate.obj
 0003:00004404       ??_C@_0BA@KMDIIEBA@BOTH_SIT5_TALK3?$AA@ 302fd404     bg_panimate.obj
 0003:00004418       ??_C@_0BA@LFCDLFFB@BOTH_SIT5_TALK2?$AA@ 302fd418     bg_panimate.obj
 0003:0000442c       ??_C@_0BA@JOAOOGJC@BOTH_SIT5_TALK1?$AA@ 302fd42c     bg_panimate.obj
 0003:00004440       ??_C@_09IMGKBGLE@BOTH_SIT5?$AA@ 302fd440     bg_panimate.obj
 0003:0000444c       ??_C@_09JFHBCHPF@BOTH_SIT4?$AA@ 302fd44c     bg_panimate.obj
 0003:00004458       ??_C@_0BC@HMBKLJMI@BOTH_STAND1_TALK3?$AA@ 302fd458     bg_panimate.obj
 0003:00004470       ??_C@_0BC@GFABIIIJ@BOTH_STAND1_TALK2?$AA@ 302fd470     bg_panimate.obj
 0003:00004488       ??_C@_0BC@EOCMNLEK@BOTH_STAND1_TALK1?$AA@ 302fd488     bg_panimate.obj
 0003:000044a0       ??_C@_0BF@EILOIEKG@BOTH_STAND10TOSTAND1?$AA@ 302fd4a0     bg_panimate.obj
 0003:000044bc       ??_C@_0BD@BPMBLEGP@BOTH_STAND10_TALK2?$AA@ 302fd4bc     bg_panimate.obj
 0003:000044d4       ??_C@_0BD@DEOMOHKM@BOTH_STAND10_TALK1?$AA@ 302fd4d4     bg_panimate.obj
 0003:000044ec       ??_C@_0N@EGCBKCBH@BOTH_STAND10?$AA@ 302fd4ec     bg_panimate.obj
 0003:000044fc       ??_C@_0BD@KFKLMKIP@BOTH_SONICPAIN_END?$AA@ 302fd4fc     bg_panimate.obj
 0003:00004514       ??_C@_0BE@KHIIENBG@BOTH_SONICPAIN_HOLD?$AA@ 302fd514     bg_panimate.obj
 0003:0000452c       ??_C@_0BF@LOEEPGJI@BOTH_SONICPAIN_START?$AA@ 302fd52c     bg_panimate.obj
 0003:00004548       ??_C@_0BB@JEOPOJAL@BOTH_COWER1_STOP?$AA@ 302fd548     bg_panimate.obj
 0003:0000455c       ??_C@_0M@EAAAAKHE@BOTH_COWER1?$AA@ 302fd55c     bg_panimate.obj
 0003:0000456c       ??_C@_0BC@KKMKANGM@BOTH_COWER1_START?$AA@ 302fd56c     bg_panimate.obj
 0003:00004584       ??_C@_0BC@KDENGKBK@BOTH_TUSKENTAUNT1?$AA@ 302fd584     bg_panimate.obj
 0003:0000459c       ??_C@_0BC@BIOHNIGA@BOTH_TUSKENLUNGE1?$AA@ 302fd59c     bg_panimate.obj
 0003:000045b4       ??_C@_0BD@NFLDJLNC@BOTH_TUSKENATTACK3?$AA@ 302fd5b4     bg_panimate.obj
 0003:000045cc       ??_C@_0BD@MMKIKKJD@BOTH_TUSKENATTACK2?$AA@ 302fd5cc     bg_panimate.obj
 0003:000045e4       ??_C@_0BD@OHIFPJFA@BOTH_TUSKENATTACK1?$AA@ 302fd5e4     bg_panimate.obj
 0003:000045fc       ??_C@_0BE@OBEECCKH@BOTH_KNEEL_TO_STAND?$AA@ 302fd5fc     bg_panimate.obj
 0003:00004614       ??_C@_0BE@FLPJEFCO@BOTH_STAND_TO_KNEEL?$AA@ 302fd614     bg_panimate.obj
 0003:0000462c       ??_C@_09FOHPNOGF@BOTH_WIND?$AA@ 302fd62c     bg_panimate.obj
 0003:00004638       ??_C@_0BI@GLAHPFBH@BOTH_FORCE_PROTECT_FAST?$AA@ 302fd638     bg_panimate.obj
 0003:00004654       ??_C@_0BD@FFPOEFNG@BOTH_FORCE_PROTECT?$AA@ 302fd654     bg_panimate.obj
 0003:0000466c       ??_C@_0BG@CBNCOJEH@BOTH_FORCE_ABSORB_END?$AA@ 302fd66c     bg_panimate.obj
 0003:00004688       ??_C@_0BI@BPAAFONF@BOTH_FORCE_ABSORB_START?$AA@ 302fd688     bg_panimate.obj
 0003:000046a4       ??_C@_0BC@HHGANHBC@BOTH_FORCE_ABSORB?$AA@ 302fd6a4     bg_panimate.obj
 0003:000046bc       ??_C@_0BJ@GKPDEPNJ@BOTH_FORCE_DRAIN_GRABBED?$AA@ 302fd6bc     bg_panimate.obj
 0003:000046dc       ??_C@_0BK@POJHMFNL@BOTH_FORCE_DRAIN_GRAB_END?$AA@ 302fd6dc     bg_panimate.obj
 0003:000046fc       ??_C@_0BL@MLNFOEPE@BOTH_FORCE_DRAIN_GRAB_HOLD?$AA@ 302fd6fc     bg_panimate.obj
 0003:0000471c       ??_C@_0BM@PACMCIGF@BOTH_FORCE_DRAIN_GRAB_START?$AA@ 302fd71c     bg_panimate.obj
 0003:00004740       ??_C@_0BJ@OBGKFMHF@BOTH_FORCE_DRAIN_RELEASE?$AA@ 302fd740     bg_panimate.obj
 0003:00004760       ??_C@_0BG@JCLNDPPK@BOTH_FORCE_DRAIN_HOLD?$AA@ 302fd760     bg_panimate.obj
 0003:0000477c       ??_C@_0BH@BHMNGNLJ@BOTH_FORCE_DRAIN_START?$AA@ 302fd77c     bg_panimate.obj
 0003:00004798       ??_C@_0BB@NHPCBMHH@BOTH_FORCE_DRAIN?$AA@ 302fd798     bg_panimate.obj
 0003:000047ac       ??_C@_0CE@NFLNPDNI@BOTH_FORCE_2HANDEDLIGHTNING_RELE@ 302fd7ac     bg_panimate.obj
 0003:000047d8       ??_C@_0CB@MNKHBDGA@BOTH_FORCE_2HANDEDLIGHTNING_HOLD@ 302fd7d8     bg_panimate.obj
 0003:00004800       ??_C@_0CC@HEIANMP@BOTH_FORCE_2HANDEDLIGHTNING_STAR@ 302fd800     bg_panimate.obj
 0003:00004828       ??_C@_0BM@OPHDEJED@BOTH_FORCE_2HANDEDLIGHTNING?$AA@ 302fd828     bg_panimate.obj
 0003:0000484c       ??_C@_0BA@GLJOFMJL@BOTH_FORCE_RAGE?$AA@ 302fd84c     bg_panimate.obj
 0003:00004860       ??_C@_0L@GCDIADMB@BOTH_TOSS2?$AA@ 302fd860     bg_panimate.obj
 0003:00004870       ??_C@_0L@EJBFFAAC@BOTH_TOSS1?$AA@ 302fd870     bg_panimate.obj
 0003:00004880       ??_C@_0BH@JFCMGCAP@BOTH_FORCEGRIP_RELEASE?$AA@ 302fd880     bg_panimate.obj
 0003:0000489c       ??_C@_0BE@JLIMFCGH@BOTH_FORCEGRIP_HOLD?$AA@ 302fd89c     bg_panimate.obj
 0003:000048b4       ??_C@_0BF@BAAGEEBG@BOTH_FORCEGRIP3THROW?$AA@ 302fd8b4     bg_panimate.obj
 0003:000048d0       ??_C@_0BA@CBKDJPAH@BOTH_FORCEGRIP3?$AA@ 302fd8d0     bg_panimate.obj
 0003:000048e4       ??_C@_0BA@BDJFPNIF@BOTH_FORCEGRIP1?$AA@ 302fd8e4     bg_panimate.obj
 0003:000048f8       ??_C@_0P@PONJILD@BOTH_SABERPULL?$AA@ 302fd8f8     bg_panimate.obj
 0003:0000490c       ??_C@_0BF@DKJODMIL@BOTH_FORCEHEAL_QUICK?$AA@ 302fd90c     bg_panimate.obj
 0003:00004928       ??_C@_0BE@GNHNNEFM@BOTH_FORCEHEAL_STOP?$AA@ 302fd928     bg_panimate.obj
 0003:00004940       ??_C@_0BF@FPDMFLAG@BOTH_FORCEHEAL_START?$AA@ 302fd940     bg_panimate.obj
 0003:0000495c       ??_C@_0BM@GCBAKCPL@BOTH_FORCELIGHTNING_RELEASE?$AA@ 302fd95c     bg_panimate.obj
 0003:00004980       ??_C@_0BJ@KCFBGHIB@BOTH_FORCELIGHTNING_HOLD?$AA@ 302fd980     bg_panimate.obj
 0003:000049a0       ??_C@_0BK@NACKCJFF@BOTH_FORCELIGHTNING_START?$AA@ 302fd9a0     bg_panimate.obj
 0003:000049c0       ??_C@_0BE@OEAHGILF@BOTH_FORCELIGHTNING?$AA@ 302fd9c0     bg_panimate.obj
 0003:000049d8       ??_C@_0BA@KMPKOPAN@BOTH_MINDTRICK2?$AA@ 302fd9d8     bg_panimate.obj
 0003:000049ec       ??_C@_0BA@IHNHLMMO@BOTH_MINDTRICK1?$AA@ 302fd9ec     bg_panimate.obj
 0003:00004a00       ??_C@_0P@HBADPLP@BOTH_FORCEPULL?$AA@ 302fda00     bg_panimate.obj
 0003:00004a14       ??_C@_0P@HEAGBOPG@BOTH_FORCEPUSH?$AA@ 302fda14     bg_panimate.obj
 0003:00004a28       ??_C@_0BA@IBNLMMOO@BOTH_RESISTPUSH?$AA@ 302fda28     bg_panimate.obj
 0003:00004a3c       ??_C@_0BE@BFLOBGOL@BOTH_BUTTON_RELEASE?$AA@ 302fda3c     bg_panimate.obj
 0003:00004a54       ??_C@_0BB@FCMBEPCD@BOTH_BUTTON_HOLD?$AA@ 302fda54     bg_panimate.obj
 0003:00004a68       ??_C@_0N@JDJGEOPD@BOTH_BUTTON2?$AA@ 302fda68     bg_panimate.obj
 0003:00004a78       ??_C@_0N@LILLBNDA@BOTH_BUTTON1?$AA@ 302fda78     bg_panimate.obj
 0003:00004a88       ??_C@_0N@JAALPHCL@BOTH_TURNOFF?$AA@ 302fda88     bg_panimate.obj
 0003:00004a98       ??_C@_0M@ODIMNEKC@BOTH_TURNON?$AA@ 302fda98     bg_panimate.obj
 0003:00004aa8       ??_C@_0O@CAGOCCAO@BOTH_POWERUP1?$AA@ 302fdaa8     bg_panimate.obj
 0003:00004ab8       ??_C@_0M@MGBFEGML@BOTH_CHOKE3?$AA@ 302fdab8     bg_panimate.obj
 0003:00004ac8       ??_C@_0M@NPAOHHIK@BOTH_CHOKE2?$AA@ 302fdac8     bg_panimate.obj
 0003:00004ad8       ??_C@_0M@PECDCEEJ@BOTH_CHOKE1?$AA@ 302fdad8     bg_panimate.obj
 0003:00004ae8       ??_C@_0BF@ICMFFJIF@BOTH_CHOKE1STARTHOLD?$AA@ 302fdae8     bg_panimate.obj
 0003:00004b04       ??_C@_0BB@OFKGJANF@BOTH_CHOKE1START?$AA@ 302fdb04     bg_panimate.obj
 0003:00004b18       ??_C@_0BC@NPNJMHGC@BOTH_SLEEP1GETUP2?$AA@ 302fdb18     bg_panimate.obj
 0003:00004b30       ??_C@_0BB@HBPPPACM@BOTH_SLEEP1GETUP?$AA@ 302fdb30     bg_panimate.obj
 0003:00004b44       ??_C@_0BA@CINKHNGE@BOTH_SLEEP6STOP?$AA@ 302fdb44     bg_panimate.obj
 0003:00004b58       ??_C@_0BB@HHHLEEDB@BOTH_SLEEP6START?$AA@ 302fdb58     bg_panimate.obj
 0003:00004b6c       ??_C@_0M@LIOOPEJI@BOTH_SLEEP1?$AA@ 302fdb6c     bg_panimate.obj
 0003:00004b7c       ??_C@_0BC@LJIHFCKB@BOTH_SWIMBACKWARD?$AA@ 302fdb7c     bg_panimate.obj
 0003:00004b94       ??_C@_0BB@FOFCFDFI@BOTH_SWIMFORWARD?$AA@ 302fdb94     bg_panimate.obj
 0003:00004ba8       ??_C@_0BA@PIGFMLPF@BOTH_SWIM_IDLE1?$AA@ 302fdba8     bg_panimate.obj
 0003:00004bbc       ??_C@_0BC@ODIBALPH@BOTH_FLY_SHIELDED?$AA@ 302fdbbc     bg_panimate.obj
 0003:00004bd4       ??_C@_0BB@OMHFJNGP@BOTH_LADDER_IDLE?$AA@ 302fdbd4     bg_panimate.obj
 0003:00004be8       ??_C@_0BB@BOJOMJDD@BOTH_LADDER_DWN1?$AA@ 302fdbe8     bg_panimate.obj
 0003:00004bfc       ??_C@_0BA@ILKIBIOO@BOTH_LADDER_UP1?$AA@ 302fdbfc     bg_panimate.obj
 0003:00004c10       ??_C@_09PPDGHFCD@BOTH_HIT1?$AA@ 302fdc10     bg_panimate.obj
 0003:00004c1c       ??_C@_0P@EHILJFLF@BOTH_HANG_PAIN?$AA@ 302fdc1c     bg_panimate.obj
 0003:00004c30       ??_C@_0BB@CKCHJINN@BOTH_HANG_ATTACK?$AA@ 302fdc30     bg_panimate.obj
 0003:00004c44       ??_C@_0P@PIJKILFE@BOTH_HANG_IDLE?$AA@ 302fdc44     bg_panimate.obj
 0003:00004c58       ??_C@_0O@LAAPIANC@BOTH_RELEASED?$AA@ 302fdc58     bg_panimate.obj
 0003:00004c68       ??_C@_0N@CFDAGGFP@BOTH_GRABBED?$AA@ 302fdc68     bg_panimate.obj
 0003:00004c78       ??_C@_0P@PLIENJJJ@BOTH_HOLD_DROP?$AA@ 302fdc78     bg_panimate.obj
 0003:00004c8c       ??_C@_0BA@KJAIIPAE@BOTH_HOLD_SNIFF?$AA@ 302fdc8c     bg_panimate.obj
 0003:00004ca0       ??_C@_0BB@EFCJFPCD@BOTH_HOLD_ATTACK?$AA@ 302fdca0     bg_panimate.obj
 0003:00004cb4       ??_C@_0O@HFIKEJBB@BOTH_HOLD_END?$AA@ 302fdcb4     bg_panimate.obj
 0003:00004cc4       ??_C@_0P@EDJFENCG@BOTH_HOLD_IDLE?$AA@ 302fdcc4     bg_panimate.obj
 0003:00004cd8       ??_C@_0P@EPJNGCKB@BOTH_HOLD_MISS?$AA@ 302fdcd8     bg_panimate.obj
 0003:00004cec       ??_C@_0BA@CFDHFDLH@BOTH_HOLD_START?$AA@ 302fdcec     bg_panimate.obj
 0003:00004d00       ??_C@_0BA@NKEMKFLI@BOTH_BUCK_RIDER?$AA@ 302fdd00     bg_panimate.obj
 0003:00004d14       ??_C@_0BF@HCPCIHAG@BOTH_PLAYER_PA_3_FLY?$AA@ 302fdd14     bg_panimate.obj
 0003:00004d30       ??_C@_0BB@KIHONIOP@BOTH_PLAYER_PA_3?$AA@ 302fdd30     bg_panimate.obj
 0003:00004d44       ??_C@_0P@OMCEAAPC@BOTH_KYLE_PA_3?$AA@ 302fdd44     bg_panimate.obj
 0003:00004d58       ??_C@_0BD@BPPGNPKM@BOTH_PLAYER_PA_FLY?$AA@ 302fdd58     bg_panimate.obj
 0003:00004d70       ??_C@_0BB@LBGFOJKO@BOTH_PLAYER_PA_2?$AA@ 302fdd70     bg_panimate.obj
 0003:00004d84       ??_C@_0P@PFDPDBLD@BOTH_KYLE_PA_2?$AA@ 302fdd84     bg_panimate.obj
 0003:00004d98       ??_C@_0BB@JKEILKGN@BOTH_PLAYER_PA_1?$AA@ 302fdd98     bg_panimate.obj
 0003:00004dac       ??_C@_0P@NOBCGCHA@BOTH_KYLE_PA_1?$AA@ 302fddac     bg_panimate.obj
 0003:00004dc0       ??_C@_0P@NNAHOJON@BOTH_KYLE_MISS?$AA@ 302fddc0     bg_panimate.obj
 0003:00004dd4       ??_C@_0P@FMNEHFNM@BOTH_KYLE_GRAB?$AA@ 302fddd4     bg_panimate.obj
 0003:00004de8       ??_C@_0BC@MELKBIFA@BOTH_SCEPTER_STOP?$AA@ 302fdde8     bg_panimate.obj
 0003:00004e00       ??_C@_0BC@HIHKAHFB@BOTH_SCEPTER_HOLD?$AA@ 302fde00     bg_panimate.obj
 0003:00004e18       ??_C@_0BD@FGCDNAOB@BOTH_SCEPTER_START?$AA@ 302fde18     bg_panimate.obj
 0003:00004e30       ??_C@_0BH@HFIAAKKL@BOTH_TAVION_SWORDPOWER?$AA@ 302fde30     bg_panimate.obj
 0003:00004e4c       ??_C@_0BK@NBGHMOBL@BOTH_TAVION_SCEPTERGROUND?$AA@ 302fde4c     bg_panimate.obj
 0003:00004e6c       ??_C@_0P@ENOEHDDL@BOTH_ROSH_HEAL?$AA@ 302fde6c     bg_panimate.obj
 0003:00004e80       ??_C@_0P@KODDALBF@BOTH_ROSH_PAIN?$AA@ 302fde80     bg_panimate.obj
 0003:00004e94       ??_C@_0BB@JJKGACDG@BOTH_ALORA_TAUNT?$AA@ 302fde94     bg_panimate.obj
 0003:00004ea8       ??_C@_0BG@DCFBCKEL@BOTH_ALORA_SPIN_SLASH?$AA@ 302fdea8     bg_panimate.obj
 0003:00004ec4       ??_C@_0BG@EABOBAMI@BOTH_ALORA_SPIN_THROW?$AA@ 302fdec4     bg_panimate.obj
 0003:00004ee0       ??_C@_0BC@FIDADFOL@BOTH_ALORA_FLIP_B?$AA@ 302fdee0     bg_panimate.obj
 0003:00004ef8       ??_C@_0BC@GOBEHNFM@BOTH_ALORA_FLIP_3?$AA@ 302fdef8     bg_panimate.obj
 0003:00004f10       ??_C@_0BC@HHAPEMBN@BOTH_ALORA_FLIP_2?$AA@ 302fdf10     bg_panimate.obj
 0003:00004f28       ??_C@_0BC@FMCCBPNO@BOTH_ALORA_FLIP_1?$AA@ 302fdf28     bg_panimate.obj
 0003:00004f40       ??_C@_0BA@IMOMKPBA@BOTH_ALORA_SPIN?$AA@ 302fdf40     bg_panimate.obj
 0003:00004f54       ??_C@_0N@NLKPNJAP@BOTH_A7_HILT?$AA@ 302fdf54     bg_panimate.obj
 0003:00004f64       ??_C@_0L@PNLACCAF@BOTH_A6_LR?$AA@ 302fdf64     bg_panimate.obj
 0003:00004f74       ??_C@_0L@LKOFLFIC@BOTH_A6_FB?$AA@ 302fdf74     bg_panimate.obj
 0003:00004f84       ??_C@_0BA@ECEJJOCF@BOTH_DUAL_TAUNT?$AA@ 302fdf84     bg_panimate.obj
 0003:00004f98       ??_C@_0BB@IIJAHOAM@BOTH_STAFF_TAUNT?$AA@ 302fdf98     bg_panimate.obj
 0003:00004fac       ??_C@_0BA@NPLLAIGE@BOTH_LOSE_SABER?$AA@ 302fdfac     bg_panimate.obj
 0003:00004fc0       ??_C@_0BC@BJEPANJA@BOTH_BACK_FLIP_UP?$AA@ 302fdfc0     bg_panimate.obj
 0003:00004fd8       ??_C@_0BD@HFLMOBFH@BOTH_BUTTERFLY_FL1?$AA@ 302fdfd8     bg_panimate.obj
 0003:00004ff0       ??_C@_0BD@GDAEGPCN@BOTH_BUTTERFLY_FR1?$AA@ 302fdff0     bg_panimate.obj
 0003:00005008       ??_C@_0O@HINNODAG@BOTH_ARIAL_F1?$AA@ 302fe008     bg_panimate.obj
 0003:00005018       ??_C@_0N@PBBFIKGE@BOTH_BASHED1?$AA@ 302fe018     bg_panimate.obj
 0003:00005028       ??_C@_0BM@ELFFAKLF@BOTH_DEFLECTSLASH__R__L_FIN?$AA@ 302fe028     bg_panimate.obj
 0003:0000504c       ??_C@_0BJ@PHBNOEEM@BOTH_RIGHTHANDCHOPPEDOFF?$AA@ 302fe04c     bg_panimate.obj
 0003:0000506c       ??_C@_0BA@CDEAMOMG@BOTH_FJSS_TL_BR?$AA@ 302fe06c     bg_panimate.obj
 0003:00005080       ??_C@_0BA@CINBNIPK@BOTH_FJSS_TR_BL?$AA@ 302fe080     bg_panimate.obj
 0003:00005094       ??_C@_0BC@GKKAPGJM@BOTH_CEILING_DROP?$AA@ 302fe094     bg_panimate.obj
 0003:000050ac       ??_C@_0BD@LHONGOKG@BOTH_CEILING_CLING?$AA@ 302fe0ac     bg_panimate.obj
 0003:000050c4       ??_C@_0L@JNPKOHDB@BOTH_SPIN1?$AA@ 302fe0c4     bg_panimate.obj
 0003:000050d4       ??_C@_0BF@ECAKIGBB@BOTH_WALL_FLIP_BACK2?$AA@ 302fe0d4     bg_panimate.obj
 0003:000050f0       ??_C@_0BF@GJCHNFNC@BOTH_WALL_FLIP_BACK1?$AA@ 302fe0f0     bg_panimate.obj
 0003:0000510c       ??_C@_0BD@EOHNHFLF@BOTH_GETUP_FROLL_R?$AA@ 302fe10c     bg_panimate.obj
 0003:00005124       ??_C@_0BD@JKDMEKGK@BOTH_GETUP_FROLL_L?$AA@ 302fe124     bg_panimate.obj
 0003:0000513c       ??_C@_0BD@GANDKCOA@BOTH_GETUP_FROLL_F?$AA@ 302fe13c     bg_panimate.obj
 0003:00005154       ??_C@_0BD@ELPGHOE@BOTH_GETUP_FROLL_B?$AA@ 302fe154     bg_panimate.obj
 0003:0000516c       ??_C@_0BD@MKDHHLEP@BOTH_GETUP_BROLL_R?$AA@ 302fe16c     bg_panimate.obj
 0003:00005184       ??_C@_0BD@BOHGEEJA@BOTH_GETUP_BROLL_L?$AA@ 302fe184     bg_panimate.obj
 0003:0000519c       ??_C@_0BD@OEJJKMBK@BOTH_GETUP_BROLL_F?$AA@ 302fe19c     bg_panimate.obj
 0003:000051b4       ??_C@_0BD@IAPFGJBO@BOTH_GETUP_BROLL_B?$AA@ 302fe1b4     bg_panimate.obj
 0003:000051cc       ??_C@_0BE@FMMHDLNN@BOTH_FORCE_GETUP_B6?$AA@ 302fe1cc     bg_panimate.obj
 0003:000051e4       ??_C@_0BE@HHOKGIBO@BOTH_FORCE_GETUP_B5?$AA@ 302fe1e4     bg_panimate.obj
 0003:000051fc       ??_C@_0BE@GOPBFJFP@BOTH_FORCE_GETUP_B4?$AA@ 302fe1fc     bg_panimate.obj
 0003:00005214       ??_C@_0BE@CBLAMPJI@BOTH_FORCE_GETUP_B3?$AA@ 302fe214     bg_panimate.obj
 0003:0000522c       ??_C@_0BE@DIKLPONJ@BOTH_FORCE_GETUP_B2?$AA@ 302fe22c     bg_panimate.obj
 0003:00005244       ??_C@_0BE@BDIGKNBK@BOTH_FORCE_GETUP_B1?$AA@ 302fe244     bg_panimate.obj
 0003:0000525c       ??_C@_0BE@DPKCFGAF@BOTH_FORCE_GETUP_F2?$AA@ 302fe25c     bg_panimate.obj
 0003:00005274       ??_C@_0BE@BEIPAFMG@BOTH_FORCE_GETUP_F1?$AA@ 302fe274     bg_panimate.obj
 0003:0000528c       ??_C@_0BF@MJANPMOM@BOTH_GETUP_CROUCH_B1?$AA@ 302fe28c     bg_panimate.obj
 0003:000052a8       ??_C@_0BF@MOAEFEDA@BOTH_GETUP_CROUCH_F1?$AA@ 302fe2a8     bg_panimate.obj
 0003:000052c4       ??_C@_0M@GFIFDBCE@BOTH_GETUP5?$AA@ 302fe2c4     bg_panimate.obj
 0003:000052d4       ??_C@_0M@HMJOAAGF@BOTH_GETUP4?$AA@ 302fe2d4     bg_panimate.obj
 0003:000052e4       ??_C@_0M@DDNPJGKC@BOTH_GETUP3?$AA@ 302fe2e4     bg_panimate.obj
 0003:000052f4       ??_C@_0M@CKMEKHOD@BOTH_GETUP2?$AA@ 302fe2f4     bg_panimate.obj
 0003:00005304       ??_C@_0M@BOJPECA@BOTH_GETUP1?$AA@ 302fe304     bg_panimate.obj
 0003:00005314       ??_C@_0BA@OGIFEPII@BOTH_KNOCKDOWN5?$AA@ 302fe314     bg_panimate.obj
 0003:00005328       ??_C@_0BA@PPJOHOMJ@BOTH_KNOCKDOWN4?$AA@ 302fe328     bg_panimate.obj
 0003:0000533c       ??_C@_0BA@LANPOIAO@BOTH_KNOCKDOWN3?$AA@ 302fe33c     bg_panimate.obj
 0003:00005350       ??_C@_0BA@KJMENJEP@BOTH_KNOCKDOWN2?$AA@ 302fe350     bg_panimate.obj
 0003:00005364       ??_C@_0BA@ICOJIKIM@BOTH_KNOCKDOWN1?$AA@ 302fe364     bg_panimate.obj
 0003:00005378       ??_C@_0BE@ILAKMJOK@BOTH_WALL_FLIP_LEFT?$AA@ 302fe378     bg_panimate.obj
 0003:00005390       ??_C@_0BF@MPCPCKGE@BOTH_WALL_FLIP_RIGHT?$AA@ 302fe390     bg_panimate.obj
 0003:000053ac       ??_C@_0BI@ICEHPAIN@BOTH_WALL_RUN_LEFT_STOP?$AA@ 302fe3ac     bg_panimate.obj
 0003:000053c8       ??_C@_0BI@LLGHOLLN@BOTH_WALL_RUN_LEFT_FLIP?$AA@ 302fe3c8     bg_panimate.obj
 0003:000053e4       ??_C@_0BD@FOKEEMMD@BOTH_WALL_RUN_LEFT?$AA@ 302fe3e4     bg_panimate.obj
 0003:000053fc       ??_C@_0BJ@KEGEKGBP@BOTH_WALL_RUN_RIGHT_STOP?$AA@ 302fe3fc     bg_panimate.obj
 0003:0000541c       ??_C@_0BJ@JNEELNCP@BOTH_WALL_RUN_RIGHT_FLIP?$AA@ 302fe41c     bg_panimate.obj
 0003:0000543c       ??_C@_0BE@INEIBMIN@BOTH_WALL_RUN_RIGHT?$AA@ 302fe43c     bg_panimate.obj
 0003:00005454       ??_C@_0BF@JMFKBIFE@BOTH_BUTTERFLY_RIGHT?$AA@ 302fe454     bg_panimate.obj
 0003:00005470       ??_C@_0BE@ENKLMJBI@BOTH_BUTTERFLY_LEFT?$AA@ 302fe470     bg_panimate.obj
 0003:00005488       ??_C@_0BA@NNNINNPE@BOTH_FLIP_BACK3?$AA@ 302fe488     bg_panimate.obj
 0003:0000549c       ??_C@_0BA@MEMDOMLF@BOTH_FLIP_BACK2?$AA@ 302fe49c     bg_panimate.obj
 0003:000054b0       ??_C@_0BA@OPOOLPHG@BOTH_FLIP_BACK1?$AA@ 302fe4b0     bg_panimate.obj
 0003:000054c4       ??_C@_0P@JBLCLJDK@BOTH_FLIP_LEFT?$AA@ 302fe4c4     bg_panimate.obj
 0003:000054d8       ??_C@_0BF@NLFLOFGE@BOTH_CARTWHEEL_RIGHT?$AA@ 302fe4d8     bg_panimate.obj
 0003:000054f4       ??_C@_0BE@POJJIGPG@BOTH_CARTWHEEL_LEFT?$AA@ 302fe4f4     bg_panimate.obj
 0003:0000550c       ??_C@_0BB@HOMELNKD@BOTH_ARIAL_RIGHT?$AA@ 302fe50c     bg_panimate.obj
 0003:00005520       ??_C@_0BA@GLHECKNB@BOTH_ARIAL_LEFT?$AA@ 302fe520     bg_panimate.obj
 0003:00005534       ??_C@_0BD@JOGFDMEG@BOTH_VICTORY_STAFF?$AA@ 302fe534     bg_panimate.obj
 0003:0000554c       ??_C@_0BC@OIFMFNP@BOTH_VICTORY_DUAL?$AA@ 302fe54c     bg_panimate.obj
 0003:00005564       ??_C@_0BE@HEECKLDL@BOTH_VICTORY_STRONG?$AA@ 302fe564     bg_panimate.obj
 0003:0000557c       ??_C@_0BE@KLHOAEHD@BOTH_VICTORY_MEDIUM?$AA@ 302fe57c     bg_panimate.obj
 0003:00005594       ??_C@_0BC@DGIHLJDA@BOTH_VICTORY_FAST?$AA@ 302fe594     bg_panimate.obj
 0003:000055ac       ??_C@_0BD@PAPJANE@BOTH_SHOWOFF_STAFF?$AA@ 302fe5ac     bg_panimate.obj
 0003:000055c4       ??_C@_0BC@EFMAJB@BOTH_SHOWOFF_DUAL?$AA@ 302fe5c4     bg_panimate.obj
 0003:000055dc       ??_C@_0BE@GKNCDDPP@BOTH_SHOWOFF_STRONG?$AA@ 302fe5dc     bg_panimate.obj
 0003:000055f4       ??_C@_0BE@LFOOJMLH@BOTH_SHOWOFF_MEDIUM?$AA@ 302fe5f4     bg_panimate.obj
 0003:0000560c       ??_C@_0BC@DIEHLMHO@BOTH_SHOWOFF_FAST?$AA@ 302fe60c     bg_panimate.obj
 0003:00005624       ??_C@_0BC@DILNBIJM@BOTH_MEDITATE_END?$AA@ 302fe624     bg_panimate.obj
 0003:0000563c       ??_C@_0O@NBLEPMIO@BOTH_MEDITATE?$AA@ 302fe63c     bg_panimate.obj
 0003:0000564c       ??_C@_08CINMJMPG@BOTH_BOW?$AA@ 302fe64c     bg_panimate.obj
 0003:00005658       ??_C@_0BB@EBJHHEMP@BOTH_ENGAGETAUNT?$AA@ 302fe658     bg_panimate.obj
 0003:0000566c       ??_C@_0BC@GDJJMPG@BOTH_DODGE_HOLD_R?$AA@ 302fe66c     bg_panimate.obj
 0003:00005684       ??_C@_0BC@NCHIKDCJ@BOTH_DODGE_HOLD_L?$AA@ 302fe684     bg_panimate.obj
 0003:0000569c       ??_C@_0BD@MAHDPCBD@BOTH_DODGE_HOLD_BR?$AA@ 302fe69c     bg_panimate.obj
 0003:000056b4       ??_C@_0BD@BEDCMNMM@BOTH_DODGE_HOLD_BL?$AA@ 302fe6b4     bg_panimate.obj
 0003:000056cc       ??_C@_0BD@MHHKFKMP@BOTH_DODGE_HOLD_FR?$AA@ 302fe6cc     bg_panimate.obj
 0003:000056e4       ??_C@_0BD@BDDLGFBA@BOTH_DODGE_HOLD_FL?$AA@ 302fe6e4     bg_panimate.obj
 0003:000056fc       ??_C@_0N@KFGFCJLJ@BOTH_DODGE_R?$AA@ 302fe6fc     bg_panimate.obj
 0003:0000570c       ??_C@_0N@HBCEBGGG@BOTH_DODGE_L?$AA@ 302fe70c     bg_panimate.obj
 0003:0000571c       ??_C@_0O@CGLDPCKH@BOTH_DODGE_BR?$AA@ 302fe71c     bg_panimate.obj
 0003:0000572c       ??_C@_0O@PCPCMNHI@BOTH_DODGE_BL?$AA@ 302fe72c     bg_panimate.obj
 0003:0000573c       ??_C@_0O@CBLKFKHL@BOTH_DODGE_FR?$AA@ 302fe73c     bg_panimate.obj
 0003:0000574c       ??_C@_0O@PFPLGFKE@BOTH_DODGE_FL?$AA@ 302fe74c     bg_panimate.obj
 0003:0000575c       ??_C@_0L@GIHOPMAM@BOTH_HOP_R?$AA@ 302fe75c     bg_panimate.obj
 0003:0000576c       ??_C@_0L@LMDPMDND@BOTH_HOP_L?$AA@ 302fe76c     bg_panimate.obj
 0003:0000577c       ??_C@_0L@CCLMOOFN@BOTH_HOP_B?$AA@ 302fe77c     bg_panimate.obj
 0003:0000578c       ??_C@_0L@EGNACLFJ@BOTH_HOP_F?$AA@ 302fe78c     bg_panimate.obj
 0003:0000579c       ??_C@_0M@KNJJNPCA@BOTH_ROLL_R?$AA@ 302fe79c     bg_panimate.obj
 0003:000057ac       ??_C@_0M@HJNIOAPP@BOTH_ROLL_L?$AA@ 302fe7ac     bg_panimate.obj
 0003:000057bc       ??_C@_0M@OHFLMNHB@BOTH_ROLL_B?$AA@ 302fe7bc     bg_panimate.obj
 0003:000057cc       ??_C@_0M@IDDHAIHF@BOTH_ROLL_F?$AA@ 302fe7cc     bg_panimate.obj
 0003:000057dc       ??_C@_0M@GKLDHCAE@BOTH_FLIP_R?$AA@ 302fe7dc     bg_panimate.obj
 0003:000057ec       ??_C@_0M@LOPCENNL@BOTH_FLIP_L?$AA@ 302fe7ec     bg_panimate.obj
 0003:000057fc       ??_C@_0M@CAHBGAFF@BOTH_FLIP_B?$AA@ 302fe7fc     bg_panimate.obj
 0003:0000580c       ??_C@_0M@EEBNKFFB@BOTH_FLIP_F?$AA@ 302fe80c     bg_panimate.obj
 0003:0000581c       ??_C@_0BF@GPIHFNCP@BOTH_FORCELANDRIGHT1?$AA@ 302fe81c     bg_panimate.obj
 0003:00005838       ??_C@_0BG@OPKMFNMD@BOTH_FORCEINAIRRIGHT1?$AA@ 302fe838     bg_panimate.obj
 0003:00005854       ??_C@_0BF@GIALLFOK@BOTH_FORCEJUMPRIGHT1?$AA@ 302fe854     bg_panimate.obj
 0003:00005870       ??_C@_0BE@CPNCOCJF@BOTH_FORCELANDLEFT1?$AA@ 302fe870     bg_panimate.obj
 0003:00005888       ??_C@_0BF@GBLFMFAA@BOTH_FORCEINAIRLEFT1?$AA@ 302fe888     bg_panimate.obj
 0003:000058a4       ??_C@_0BE@MOPODOJB@BOTH_FORCEJUMPLEFT1?$AA@ 302fe8a4     bg_panimate.obj
 0003:000058bc       ??_C@_0BE@MAPMDBFK@BOTH_FORCELANDBACK1?$AA@ 302fe8bc     bg_panimate.obj
 0003:000058d4       ??_C@_0BF@IOJLBGMP@BOTH_FORCEINAIRBACK1?$AA@ 302fe8d4     bg_panimate.obj
 0003:000058f0       ??_C@_0BE@CBNAONFO@BOTH_FORCEJUMPBACK1?$AA@ 302fe8f0     bg_panimate.obj
 0003:00005908       ??_C@_0BA@NIOKNDAB@BOTH_FORCELAND1?$AA@ 302fe908     bg_panimate.obj
 0003:0000591c       ??_C@_0BB@CIEHHKPA@BOTH_FORCEINAIR1?$AA@ 302fe91c     bg_panimate.obj
 0003:00005930       ??_C@_0BA@JCEJKFBM@BOTH_FORCEJUMP1?$AA@ 302fe930     bg_panimate.obj
 0003:00005944       ??_C@_0BA@CAAEDJLF@BOTH_LANDRIGHT1?$AA@ 302fe944     bg_panimate.obj
 0003:00005958       ??_C@_0BB@PPDJKEPN@BOTH_INAIRRIGHT1?$AA@ 302fe958     bg_panimate.obj
 0003:0000596c       ??_C@_0BA@CHIINBHA@BOTH_JUMPRIGHT1?$AA@ 302fe96c     bg_panimate.obj
 0003:00005980       ??_C@_0P@HDEECKDG@BOTH_LANDLEFT1?$AA@ 302fe980     bg_panimate.obj
 0003:00005994       ??_C@_0BA@CODGKBJK@BOTH_INAIRLEFT1?$AA@ 302fe994     bg_panimate.obj
 0003:000059a8       ??_C@_0P@JCGIPGDC@BOTH_JUMPLEFT1?$AA@ 302fe9a8     bg_panimate.obj
 0003:000059bc       ??_C@_0P@JMGKPJPJ@BOTH_LANDBACK1?$AA@ 302fe9bc     bg_panimate.obj
 0003:000059d0       ??_C@_0BA@MBBIHCFF@BOTH_INAIRBACK1?$AA@ 302fe9d0     bg_panimate.obj
 0003:000059e4       ??_C@_0P@HNEGCFPN@BOTH_JUMPBACK1?$AA@ 302fe9e4     bg_panimate.obj
 0003:000059f8       ??_C@_0L@IJJHAHOB@BOTH_LAND2?$AA@ 302fe9f8     bg_panimate.obj
 0003:00005a08       ??_C@_0L@KCLKFECC@BOTH_LAND1?$AA@ 302fea08     bg_panimate.obj
 0003:00005a18       ??_C@_0M@IKFKFLAF@BOTH_INAIR1?$AA@ 302fea18     bg_panimate.obj
 0003:00005a28       ??_C@_0L@OIBJCCDP@BOTH_JUMP1?$AA@ 302fea28     bg_panimate.obj
 0003:00005a38       ??_C@_0O@GFMMDEIN@BOTH_RUNBACK2?$AA@ 302fea38     bg_panimate.obj
 0003:00005a48       ??_C@_0O@EOOBGHEO@BOTH_RUNBACK1?$AA@ 302fea48     bg_panimate.obj
 0003:00005a58       ??_C@_0P@NMGEKHLB@BOTH_WALKBACK2?$AA@ 302fea58     bg_panimate.obj
 0003:00005a6c       ??_C@_0P@PHEJPEHC@BOTH_WALKBACK1?$AA@ 302fea6c     bg_panimate.obj
 0003:00005a80       ??_C@_0BB@PGPEJHBN@BOTH_TURNCROUCH1?$AA@ 302fea80     bg_panimate.obj
 0003:00005a94       ??_C@_0BA@KBOEGPN@BOTH_TURNSTAND5?$AA@ 302fea94     bg_panimate.obj
 0003:00005aa8       ??_C@_0BA@BDAFHHLM@BOTH_TURNSTAND4?$AA@ 302feaa8     bg_panimate.obj
 0003:00005abc       ??_C@_0BA@FMEEOBHL@BOTH_TURNSTAND3?$AA@ 302feabc     bg_panimate.obj
 0003:00005ad0       ??_C@_0BA@EFFPNADK@BOTH_TURNSTAND2?$AA@ 302fead0     bg_panimate.obj
 0003:00005ae4       ??_C@_0BA@GOHCIDPJ@BOTH_TURNSTAND1?$AA@ 302feae4     bg_panimate.obj
 0003:00005af8       ??_C@_0BB@NDKEEJJD@BOTH_TURN_RIGHT1?$AA@ 302feaf8     bg_panimate.obj
 0003:00005b0c       ??_C@_0BA@GKEFEECE@BOTH_TURN_LEFT1?$AA@ 302feb0c     bg_panimate.obj
 0003:00005b20       ??_C@_0BG@OGEKFCND@BOTH_RUNSTRAFE_RIGHT1?$AA@ 302feb20     bg_panimate.obj
 0003:00005b3c       ??_C@_0BF@DBPGPOAM@BOTH_RUNSTRAFE_LEFT1?$AA@ 302feb3c     bg_panimate.obj
 0003:00005b58       ??_C@_0BD@LFCECKKK@BOTH_STRAFE_RIGHT1?$AA@ 302feb58     bg_panimate.obj
 0003:00005b70       ??_C@_0BC@OMBNLHPO@BOTH_STRAFE_LEFT1?$AA@ 302feb70     bg_panimate.obj
 0003:00005b88       ??_C@_0BC@KOJINEFM@BOTH_RUNBACK_DUAL?$AA@ 302feb88     bg_panimate.obj
 0003:00005ba0       ??_C@_0O@NLDNHDFF@BOTH_RUN_DUAL?$AA@ 302feba0     bg_panimate.obj
 0003:00005bb0       ??_C@_0BD@OKHEPDMN@BOTH_RUNBACK_STAFF?$AA@ 302febb0     bg_panimate.obj
 0003:00005bc8       ??_C@_0P@JDNNOOMO@BOTH_RUN_STAFF?$AA@ 302febc8     bg_panimate.obj
 0003:00005bdc       ??_C@_09KDGPMAME@BOTH_RUN4?$AA@ 302febdc     bg_panimate.obj
 0003:00005be8       ??_C@_0BA@DGLFAIMM@BOTH_RUN2TORUN1?$AA@ 302febe8     bg_panimate.obj
 0003:00005bfc       ??_C@_0BA@JDBHFMOM@BOTH_RUN1TORUN2?$AA@ 302febfc     bg_panimate.obj
 0003:00005c10       ??_C@_09PFDFGHEC@BOTH_RUN2?$AA@ 302fec10     bg_panimate.obj
 0003:00005c1c       ??_C@_0O@GPFGEBNP@BOTH_RUN1STOP?$AA@ 302fec1c     bg_panimate.obj
 0003:00005c2c       ??_C@_0P@CLIPKCAJ@BOTH_RUN1START?$AA@ 302fec2c     bg_panimate.obj
 0003:00005c40       ??_C@_09NOBIDEIB@BOTH_RUN1?$AA@ 302fec40     bg_panimate.obj
 0003:00005c4c       ??_C@_0L@DMKEIOEK@BOTH_WALK7?$AA@ 302fec4c     bg_panimate.obj
 0003:00005c5c       ??_C@_0L@CFLPLPAL@BOTH_WALK6?$AA@ 302fec5c     bg_panimate.obj
 0003:00005c6c       ??_C@_0L@OJCOMMI@BOTH_WALK5?$AA@ 302fec6c     bg_panimate.obj
 0003:00005c7c       ??_C@_0BD@DPFDKICF@BOTH_WALKBACK_DUAL?$AA@ 302fec7c     bg_panimate.obj
 0003:00005c94       ??_C@_0P@GCJFOAGJ@BOTH_WALK_DUAL?$AA@ 302fec94     bg_panimate.obj
 0003:00005ca8       ??_C@_0BE@MDDMPBCJ@BOTH_WALKBACK_STAFF?$AA@ 302feca8     bg_panimate.obj
 0003:00005cc0       ??_C@_0BA@LMALDKNK@BOTH_WALK_STAFF?$AA@ 302fecc0     bg_panimate.obj
 0003:00005cd4       ??_C@_0L@EBNDHKAP@BOTH_WALK2?$AA@ 302fecd4     bg_panimate.obj
 0003:00005ce4       ??_C@_0L@GKPOCJMM@BOTH_WALK1?$AA@ 302fece4     bg_panimate.obj
 0003:00005cf4       ??_C@_0P@OGCNLGGI@BOTH_KNEES2TO1?$AA@ 302fecf4     bg_panimate.obj
 0003:00005d08       ??_C@_0M@IIHMGKKA@BOTH_KNEES2?$AA@ 302fed08     bg_panimate.obj
 0003:00005d18       ??_C@_0M@KDFBDJGD@BOTH_KNEES1?$AA@ 302fed18     bg_panimate.obj
 0003:00005d28       ??_C@_0BD@FOKLKMPB@BOTH_DEATH14_SITUP?$AA@ 302fed28     bg_panimate.obj
 0003:00005d40       ??_C@_0BE@KHOKHMOE@BOTH_DEATH14_UNGRIP?$AA@ 302fed40     bg_panimate.obj
 0003:00005d58       ??_C@_0BB@KCBPOOGE@BOTH_WINGS_CLOSE?$AA@ 302fed58     bg_panimate.obj
 0003:00005d6c       ??_C@_0BA@FDONEPNA@BOTH_WINGS_OPEN?$AA@ 302fed6c     bg_panimate.obj
 0003:00005d80       ??_C@_0BB@LDEBMNOM@BOTH_GEARS_CLOSE?$AA@ 302fed80     bg_panimate.obj
 0003:00005d94       ??_C@_0BA@MMFJLAL@BOTH_GEARS_OPEN?$AA@ 302fed94     bg_panimate.obj
 0003:00005da8       ??_C@_0O@GFAOOOBE@BOTH_VT_ATF_G?$AA@ 302feda8     bg_panimate.obj
 0003:00005db8       ??_C@_0O@KLDAOHA@BOTH_VT_ATL_G?$AA@ 302fedb8     bg_panimate.obj
 0003:00005dc8       ??_C@_0O@LKHFCONM@BOTH_VT_ATR_G?$AA@ 302fedc8     bg_panimate.obj
 0003:00005dd8       ??_C@_0BD@KBPDPJPM@BOTH_VT_ATL_TO_R_S?$AA@ 302fedd8     bg_panimate.obj
 0003:00005df0       ??_C@_0BD@HFDHEALD@BOTH_VT_ATR_TO_L_S?$AA@ 302fedf0     bg_panimate.obj
 0003:00005e08       ??_C@_0O@JENLPJIJ@BOTH_VT_ATR_S?$AA@ 302fee08     bg_panimate.obj
 0003:00005e18       ??_C@_0O@CEBNNJCF@BOTH_VT_ATL_S?$AA@ 302fee18     bg_panimate.obj
 0003:00005e28       ??_C@_0P@JDHAFDKN@BOTH_VT_IDLE_T?$AA@ 302fee28     bg_panimate.obj
 0003:00005e3c       ??_C@_0P@PCJPBCDP@BOTH_VT_IDLE_G?$AA@ 302fee3c     bg_panimate.obj
 0003:00005e50       ??_C@_0P@NMDBMFGK@BOTH_VT_IDLE_S?$AA@ 302fee50     bg_panimate.obj
 0003:00005e64       ??_C@_0O@OONEODEJ@BOTH_VT_IDLE1?$AA@ 302fee64     bg_panimate.obj
 0003:00005e74       ??_C@_0N@ILFMGFDI@BOTH_VT_IDLE?$AA@ 302fee74     bg_panimate.obj
 0003:00005e84       ??_C@_0BA@CFDGIGFF@BOTH_VT_IDLE_SR?$AA@ 302fee84     bg_panimate.obj
 0003:00005e98       ??_C@_0BA@PBHHLJIK@BOTH_VT_IDLE_SL?$AA@ 302fee98     bg_panimate.obj
 0003:00005eac       ??_C@_0O@ICJCOGP@BOTH_VT_TURBO?$AA@ 302feeac     bg_panimate.obj
 0003:00005ebc       ??_C@_0N@GOPNPPFF@BOTH_VT_LAND?$AA@ 302feebc     bg_panimate.obj
 0003:00005ecc       ??_C@_0N@IBPGAOGA@BOTH_VT_BUCK?$AA@ 302feecc     bg_panimate.obj
 0003:00005edc       ??_C@_0O@IAAOOPLJ@BOTH_VT_STAND?$AA@ 302feedc     bg_panimate.obj
 0003:00005eec       ??_C@_0P@CICNDPJE@BOTH_VT_DEATH1?$AA@ 302feeec     bg_panimate.obj
 0003:00005f00       ??_C@_0O@DJGGCALJ@BOTH_VT_PAIN1?$AA@ 302fef00     bg_panimate.obj
 0003:00005f10       ??_C@_0M@KDHKMBFE@BOTH_VT_ATB?$AA@ 302fef10     bg_panimate.obj
 0003:00005f20       ??_C@_0M@PNEGODCG@BOTH_VT_AIR?$AA@ 302fef20     bg_panimate.obj
 0003:00005f30       ??_C@_0P@KFJEKMCA@BOTH_VT_SLIDEF?$AA@ 302fef30     bg_panimate.obj
 0003:00005f44       ??_C@_0BC@GNCPOJGJ@BOTH_VT_RUN_FWD_R?$AA@ 302fef44     bg_panimate.obj
 0003:00005f5c       ??_C@_0BC@LJGONGLG@BOTH_VT_RUN_FWD_L?$AA@ 302fef5c     bg_panimate.obj
 0003:00005f74       ??_C@_0BA@CMHLNAGB@BOTH_VT_RUN_REV?$AA@ 302fef74     bg_panimate.obj
 0003:00005f88       ??_C@_0BA@JEFGBHGE@BOTH_VT_RUN_FWD?$AA@ 302fef88     bg_panimate.obj
 0003:00005f9c       ??_C@_0BD@KHNHPFPI@BOTH_VT_WALK_FWD_R?$AA@ 302fef9c     bg_panimate.obj
 0003:00005fb4       ??_C@_0BD@HDJGMKCH@BOTH_VT_WALK_FWD_L?$AA@ 302fefb4     bg_panimate.obj
 0003:00005fcc       ??_C@_0BB@EAPIENEI@BOTH_VT_WALK_REV?$AA@ 302fefcc     bg_panimate.obj
 0003:00005fe0       ??_C@_0BB@PINFIKEN@BOTH_VT_WALK_FWD?$AA@ 302fefe0     bg_panimate.obj
 0003:00005ff4       ??_C@_0BD@OJHHNNHG@BOTH_VT_DISMOUNT_R?$AA@ 302feff4     bg_panimate.obj
 0003:0000600c       ??_C@_0BD@DNDGOCKJ@BOTH_VT_DISMOUNT_L?$AA@ 302ff00c     bg_panimate.obj
 0003:00006024       ??_C@_0BB@ICMLAFCL@BOTH_VT_DISMOUNT?$AA@ 302ff024     bg_panimate.obj
 0003:00006038       ??_C@_0BA@GEKLNCCD@BOTH_VT_MOUNT_B?$AA@ 302ff038     bg_panimate.obj
 0003:0000604c       ??_C@_0BA@COGJMAHC@BOTH_VT_MOUNT_R?$AA@ 302ff04c     bg_panimate.obj
 0003:00006060       ??_C@_0BA@PKCIPPKN@BOTH_VT_MOUNT_L?$AA@ 302ff060     bg_panimate.obj
 0003:00006074       ??_C@_0O@DDKDCJKA@BOTH_VS_PAIN1?$AA@ 302ff074     bg_panimate.obj
 0003:00006084       ??_C@_0O@GPMLOHAN@BOTH_VS_ATF_G?$AA@ 302ff084     bg_panimate.obj
 0003:00006094       ??_C@_0O@HGAHGJ@BOTH_VS_ATL_G?$AA@ 302ff094     bg_panimate.obj
 0003:000060a4       ??_C@_0O@LALACHMF@BOTH_VS_ATR_G?$AA@ 302ff0a4     bg_panimate.obj
 0003:000060b4       ??_C@_0BD@NMIAPPKE@BOTH_VS_ATL_TO_R_S?$AA@ 302ff0b4     bg_panimate.obj
 0003:000060cc       ??_C@_0BD@IEEEGOL@BOTH_VS_ATR_TO_L_S?$AA@ 302ff0cc     bg_panimate.obj
 0003:000060e4       ??_C@_0O@JOBOPAJA@BOTH_VS_ATR_S?$AA@ 302ff0e4     bg_panimate.obj
 0003:000060f4       ??_C@_0O@CONINADM@BOTH_VS_ATL_S?$AA@ 302ff0f4     bg_panimate.obj
 0003:00006104       ??_C@_0BB@IEDLHMEE@BOTH_VS_LEANR_SR?$AA@ 302ff104     bg_panimate.obj
 0003:00006118       ??_C@_0BB@FAHKEDJL@BOTH_VS_LEANR_SL?$AA@ 302ff118     bg_panimate.obj
 0003:0000612c       ??_C@_0BA@COPGHNJO@BOTH_VS_LEANR_G?$AA@ 302ff12c     bg_panimate.obj
 0003:00006140       ??_C@_0O@DJFDFNAL@BOTH_VS_LEANR?$AA@ 302ff140     bg_panimate.obj
 0003:00006150       ??_C@_0BB@FLOLFFKH@BOTH_VS_LEANL_SR?$AA@ 302ff150     bg_panimate.obj
 0003:00006164       ??_C@_0BB@IPKKGKHI@BOTH_VS_LEANL_SL?$AA@ 302ff164     bg_panimate.obj
 0003:00006178       ??_C@_0BA@JODAFNDC@BOTH_VS_LEANL_G?$AA@ 302ff178     bg_panimate.obj
 0003:0000618c       ??_C@_0O@ONBCGCNE@BOTH_VS_LEANL?$AA@ 302ff18c     bg_panimate.obj
 0003:0000619c       ??_C@_0BA@MHOKJNCM@BOTH_VS_IDLE_SR?$AA@ 302ff19c     bg_panimate.obj
 0003:000061b0       ??_C@_0BA@BDKLKCPD@BOTH_VS_IDLE_SL?$AA@ 302ff1b0     bg_panimate.obj
 0003:000061c4       ??_C@_0P@JGPOHPPG@BOTH_VS_IDLE_G?$AA@ 302ff1c4     bg_panimate.obj
 0003:000061d8       ??_C@_0N@EOPLFLLG@BOTH_VS_IDLE?$AA@ 302ff1d8     bg_panimate.obj
 0003:000061e8       ??_C@_0BA@KNJKDEFE@BOTH_VS_LAND_SR?$AA@ 302ff1e8     bg_panimate.obj
 0003:000061fc       ??_C@_0BA@HJNLALIL@BOTH_VS_LAND_SL?$AA@ 302ff1fc     bg_panimate.obj
 0003:00006210       ??_C@_0P@FGHHPFOH@BOTH_VS_LAND_G?$AA@ 302ff210     bg_panimate.obj
 0003:00006224       ??_C@_0N@KLFKMBNL@BOTH_VS_LAND?$AA@ 302ff224     bg_panimate.obj
 0003:00006234       ??_C@_0P@MHFEKDCH@BOTH_VS_AIR_SR?$AA@ 302ff234     bg_panimate.obj
 0003:00006248       ??_C@_0P@BDBFJMPI@BOTH_VS_AIR_SL?$AA@ 302ff248     bg_panimate.obj
 0003:0000625c       ??_C@_0O@CIMAHEPG@BOTH_VS_AIR_G?$AA@ 302ff25c     bg_panimate.obj
 0003:0000626c       ??_C@_0M@OAEDNDJO@BOTH_VS_AIR?$AA@ 302ff26c     bg_panimate.obj
 0003:0000627c       ??_C@_0M@MPJJBHIP@BOTH_VS_REV?$AA@ 302ff27c     bg_panimate.obj
 0003:0000628c       ??_C@_0O@COMCHHG@BOTH_VS_TURBO?$AA@ 302ff28c     bg_panimate.obj
 0003:0000629c       ??_C@_0BC@FMBEBFOC@BOTH_VS_LOOKRIGHT?$AA@ 302ff29c     bg_panimate.obj
 0003:000062b4       ??_C@_0BB@LJMKNCGH@BOTH_VS_LOOKLEFT?$AA@ 302ff2b4     bg_panimate.obj
 0003:000062c8       ??_C@_0BF@IKPLNBPC@BOTH_VS_MOUNTTHROWEE?$AA@ 302ff2c8     bg_panimate.obj
 0003:000062e4       ??_C@_0BF@JOMJHDMC@BOTH_VS_MOUNTTHROW_R?$AA@ 302ff2e4     bg_panimate.obj
 0003:00006300       ??_C@_0BF@EKIIEMBN@BOTH_VS_MOUNTTHROW_L?$AA@ 302ff300     bg_panimate.obj
 0003:0000631c       ??_C@_0BD@HKDNANFN@BOTH_VS_MOUNTTHROW?$AA@ 302ff31c     bg_panimate.obj
 0003:00006334       ??_C@_0BE@CFBMPALJ@BOTH_VS_MOUNTJUMP_L?$AA@ 302ff334     bg_panimate.obj
 0003:0000634c       ??_C@_0BD@JEAENLCO@BOTH_VS_DISMOUNT_R?$AA@ 302ff34c     bg_panimate.obj
 0003:00006364       ??_C@_0BA@MMLFNLAL@BOTH_VS_MOUNT_R?$AA@ 302ff364     bg_panimate.obj
 0003:00006378       ??_C@_0BD@EAEFOEPB@BOTH_VS_DISMOUNT_L?$AA@ 302ff378     bg_panimate.obj
 0003:00006390       ??_C@_0BA@BIPEOENE@BOTH_VS_MOUNT_L?$AA@ 302ff390     bg_panimate.obj
 0003:000063a4       ??_C@_0N@NEOMJHMD@BOTH_GUNSIT1?$AA@ 302ff3a4     bg_panimate.obj
 0003:000063b4       ??_C@_0P@FBKMEIKP@BOTH_UNCROUCH4?$AA@ 302ff3b4     bg_panimate.obj
 0003:000063c8       ??_C@_0N@NGOLMPIH@BOTH_CROUCH4?$AA@ 302ff3c8     bg_panimate.obj
 0003:000063d8       ??_C@_0P@BOONNOGI@BOTH_UNCROUCH3?$AA@ 302ff3d8     bg_panimate.obj
 0003:000063ec       ??_C@_0N@JJKKFJEA@BOTH_CROUCH3?$AA@ 302ff3ec     bg_panimate.obj
 0003:000063fc       ??_C@_0BF@OBDEHHPH@BOTH_CROUCH2TOSTAND1?$AA@ 302ff3fc     bg_panimate.obj
 0003:00006418       ??_C@_0P@CMNLLMOK@BOTH_UNCROUCH1?$AA@ 302ff418     bg_panimate.obj
 0003:0000642c       ??_C@_0BF@IKEOFDBF@BOTH_CROUCH1WALKBACK?$AA@ 302ff42c     bg_panimate.obj
 0003:00006448       ??_C@_0BB@KLBMFNGD@BOTH_CROUCH1WALK?$AA@ 302ff448     bg_panimate.obj
 0003:0000645c       ??_C@_0BB@NNJBKJDM@BOTH_CROUCH1IDLE?$AA@ 302ff45c     bg_panimate.obj
 0003:00006470       ??_C@_0N@KLJMDLMC@BOTH_CROUCH1?$AA@ 302ff470     bg_panimate.obj
 0003:00006480       ??_C@_0BC@BHAOLAOM@BOTH_SIT3TOSTAND5?$AA@ 302ff480     bg_panimate.obj
 0003:00006498       ??_C@_0BA@LICOGNPB@BOTH_SIT2TOSIT4?$AA@ 302ff498     bg_panimate.obj
 0003:000064ac       ??_C@_0BC@LANJPAEM@BOTH_STAND5TOSIT2?$AA@ 302ff4ac     bg_panimate.obj
 0003:000064c4       ??_C@_0BC@PIMMNLNC@BOTH_SIT2TOSTAND5?$AA@ 302ff4c4     bg_panimate.obj
 0003:000064dc       ??_C@_09NKDALBDC@BOTH_SIT3?$AA@ 302ff4dc     bg_panimate.obj
 0003:000064e8       ??_C@_09MDCLIAHD@BOTH_SIT2?$AA@ 302ff4e8     bg_panimate.obj
 0003:000064f4       ??_C@_09OIAGNDLA@BOTH_SIT1?$AA@ 302ff4f4     bg_panimate.obj
 0003:00006500       ??_C@_0BF@IPAEPPNA@BOTH_SABERTHROW2STOP?$AA@ 302ff500     bg_panimate.obj
 0003:0000651c       ??_C@_0BG@LLNAONCG@BOTH_SABERTHROW2START?$AA@ 302ff51c     bg_panimate.obj
 0003:00006538       ??_C@_0BF@JJAINHO@BOTH_SABERTHROW1STOP?$AA@ 302ff538     bg_panimate.obj
 0003:00006554       ??_C@_0BG@IKDIPHLL@BOTH_SABERTHROW1START?$AA@ 302ff554     bg_panimate.obj
 0003:00006570       ??_C@_0BB@OHEDMGHA@BOTH_HUGGEESTOP1?$AA@ 302ff570     bg_panimate.obj
 0003:00006584       ??_C@_0N@OIJBJDBK@BOTH_HUGGEE1?$AA@ 302ff584     bg_panimate.obj
 0003:00006594       ??_C@_0BB@EFDKGEDA@BOTH_HUGGERSTOP1?$AA@ 302ff594     bg_panimate.obj
 0003:000065a8       ??_C@_0N@PBPICGOP@BOTH_HUGGER1?$AA@ 302ff5a8     bg_panimate.obj
 0003:000065b8       ??_C@_0BC@DNFCOFMA@BOTH_SABERKILLEE1?$AA@ 302ff5b8     bg_panimate.obj
 0003:000065d0       ??_C@_0BC@CEDLFADF@BOTH_SABERKILLER1?$AA@ 302ff5d0     bg_panimate.obj
 0003:000065e8       ??_C@_0BE@LPKJJENM@BOTH_REACHFORSABER1?$AA@ 302ff5e8     bg_panimate.obj
 0003:00006600       ??_C@_0BF@HGBIDKLM@BOTH_SILENCEGESTURE1?$AA@ 302ff600     bg_panimate.obj
 0003:0000661c       ??_C@_0BE@EEMNDGPF@BOTH_STEADYSELF1END?$AA@ 302ff61c     bg_panimate.obj
 0003:00006634       ??_C@_0BB@BHOCMBMP@BOTH_STEADYSELF1?$AA@ 302ff634     bg_panimate.obj
 0003:00006648       ??_C@_0O@KHABGCAK@BOTH_COME_ON1?$AA@ 302ff648     bg_panimate.obj
 0003:00006658       ??_C@_0BA@MHPGDDPE@BOTH_REACH1STOP?$AA@ 302ff658     bg_panimate.obj
 0003:0000666c       ??_C@_0BB@IHJLPLDL@BOTH_REACH1START?$AA@ 302ff66c     bg_panimate.obj
 0003:00006680       ??_C@_0BH@KHIEGBCO@BOTH_SIT2HEADTILTLSTOP?$AA@ 302ff680     bg_panimate.obj
 0003:0000669c       ??_C@_0BI@OBPNLCKD@BOTH_SIT2HEADTILTLSTART?$AA@ 302ff69c     bg_panimate.obj
 0003:000066b8       ??_C@_0P@DFINNNBF@BOTH_HEADSHAKE?$AA@ 302ff6b8     bg_panimate.obj
 0003:000066cc       ??_C@_0N@JGGIBJHN@BOTH_HEADNOD?$AA@ 302ff6cc     bg_panimate.obj
 0003:000066dc       ??_C@_0BD@CBEOFNED@BOTH_HEADTILTRSTOP?$AA@ 302ff6dc     bg_panimate.obj
 0003:000066f4       ??_C@_0BE@NCHIGFHK@BOTH_HEADTILTRSTART?$AA@ 302ff6f4     bg_panimate.obj
 0003:0000670c       ??_C@_0BD@BIJCDOKI@BOTH_HEADTILTLSTOP?$AA@ 302ff70c     bg_panimate.obj
 0003:00006724       ??_C@_0BE@OFJJICOJ@BOTH_HEADTILTLSTART?$AA@ 302ff724     bg_panimate.obj
 0003:0000673c       ??_C@_0BC@HDFGDEIC@BOTH_TALKGESTURE1?$AA@ 302ff73c     bg_panimate.obj
 0003:00006754       ??_C@_0BD@KGADCINA@BOTH_TALKCOMM1STOP?$AA@ 302ff754     bg_panimate.obj
 0003:0000676c       ??_C@_0P@IMEACJDE@BOTH_TALKCOMM1?$AA@ 302ff76c     bg_panimate.obj
 0003:00006780       ??_C@_0BE@LLPJOKPB@BOTH_TALKCOMM1START?$AA@ 302ff780     bg_panimate.obj
 0003:00006798       ??_C@_0L@MHEHAIKB@BOTH_TALK2?$AA@ 302ff798     bg_panimate.obj
 0003:000067a8       ??_C@_0L@OMGKFLGC@BOTH_TALK1?$AA@ 302ff7a8     bg_panimate.obj
 0003:000067b8       ??_C@_0BE@OAMCANFF@BOTH_WALK1TALKCOMM1?$AA@ 302ff7b8     bg_panimate.obj
 0003:000067d0       ??_C@_0O@FLPNDCKC@BOTH_GESTURE2?$AA@ 302ff7d0     bg_panimate.obj
 0003:000067e0       ??_C@_0O@HANAGBGB@BOTH_GESTURE1?$AA@ 302ff7e0     bg_panimate.obj
 0003:000067f0       ??_C@_0BB@LLGPJFGM@BOTH_GUARD_IDLE1?$AA@ 302ff7f0     bg_panimate.obj
 0003:00006804       ??_C@_0BH@IIALJNIM@BOTH_GUARD_LOOKAROUND1?$AA@ 302ff804     bg_panimate.obj
 0003:00006820       ??_C@_0BJ@PHBEHMKF@BOTH_CONSOLE2HOLDCOMSTOP?$AA@ 302ff820     bg_panimate.obj
 0003:00006840       ??_C@_0BK@JLMHHIBG@BOTH_CONSOLE2HOLDCOMSTART?$AA@ 302ff840     bg_panimate.obj
 0003:00006860       ??_C@_0BC@JKGILGAP@BOTH_CONSOLE2STOP?$AA@ 302ff860     bg_panimate.obj
 0003:00006878       ??_C@_0O@BGELBNFP@BOTH_CONSOLE2?$AA@ 302ff878     bg_panimate.obj
 0003:00006888       ??_C@_0BD@KNKJEOCK@BOTH_CONSOLE2START?$AA@ 302ff888     bg_panimate.obj
 0003:000068a0       ??_C@_0BC@BMPMMEKB@BOTH_CONSOLE1STOP?$AA@ 302ff8a0     bg_panimate.obj
 0003:000068b8       ??_C@_0O@DNGGEOJM@BOTH_CONSOLE1?$AA@ 302ff8b8     bg_panimate.obj
 0003:000068c8       ??_C@_0BD@JMEBFELH@BOTH_CONSOLE1START?$AA@ 302ff8c8     bg_panimate.obj
 0003:000068e0       ??_C@_0BL@HDGAEFLK@BOTH_STAND5LOOK180LEFTSTOP?$AA@ 302ff8e0     bg_panimate.obj
 0003:00006900       ??_C@_0BM@BGELABNK@BOTH_STAND5LOOK180LEFTSTART?$AA@ 302ff900     bg_panimate.obj
 0003:00006924       ??_C@_0BJ@HFICOBLF@BOTH_STAND5TURNRIGHTSTOP?$AA@ 302ff924     bg_panimate.obj
 0003:00006944       ??_C@_0BK@IGPCPOOP@BOTH_STAND5TURNRIGHTSTART?$AA@ 302ff944     bg_panimate.obj
 0003:00006964       ??_C@_0BI@JADJJLGI@BOTH_STAND5TURNLEFTSTOP?$AA@ 302ff964     bg_panimate.obj
 0003:00006980       ??_C@_0BJ@HOHFOLPM@BOTH_STAND5TURNLEFTSTART?$AA@ 302ff980     bg_panimate.obj
 0003:000069a0       ??_C@_0BL@EHCDGJJ@BOTH_STAND5SHIFTWEIGHTSTOP?$AA@ 302ff9a0     bg_panimate.obj
 0003:000069c0       ??_C@_0BM@LEFLGCNL@BOTH_STAND5SHIFTWEIGHTSTART?$AA@ 302ff9c0     bg_panimate.obj
 0003:000069e4       ??_C@_0BH@LKALMHBN@BOTH_STAND5SHIFTWEIGHT?$AA@ 302ff9e4     bg_panimate.obj
 0003:00006a00       ??_C@_0BB@NHGNFEJF@BOTH_STAND9IDLE1?$AA@ 302ffa00     bg_panimate.obj
 0003:00006a14       ??_C@_0M@KGBMNEAL@BOTH_STAND9?$AA@ 302ffa14     bg_panimate.obj
 0003:00006a24       ??_C@_0BE@PHIMDIEF@BOTH_STAND8TOSTAND5?$AA@ 302ffa24     bg_panimate.obj
 0003:00006a3c       ??_C@_0BE@LDCJBNIF@BOTH_STAND7TOSTAND8?$AA@ 302ffa3c     bg_panimate.obj
 0003:00006a54       ??_C@_0BE@LHNMMNLI@BOTH_STAND5TOSTAND8?$AA@ 302ffa54     bg_panimate.obj
 0003:00006a6c       ??_C@_0BO@JCPBABCF@BOTH_STARTLEDLOOKLEFTTOSTAND5?$AA@ 302ffa6c     bg_panimate.obj
 0003:00006a90       ??_C@_0BM@LKMKNIB@BOTH_STAND5STARTLEDLOOKLEFT?$AA@ 302ffa90     bg_panimate.obj
 0003:00006ab4       ??_C@_0BB@KAKPAJPG@BOTH_STAND5TOAIM?$AA@ 302ffab4     bg_panimate.obj
 0003:00006ac8       ??_C@_0BE@GGBOHGPB@BOTH_STAND5TOSTAND1?$AA@ 302ffac8     bg_panimate.obj
 0003:00006ae0       ??_C@_0BE@LJJBDIP@BOTH_STAND1TOSTAND5?$AA@ 302ffae0     bg_panimate.obj
 0003:00006af8       ??_C@_0BC@KJMCMBAN@BOTH_STAND5TOSIT3?$AA@ 302ffaf8     bg_panimate.obj
 0003:00006b10       ??_C@_0O@JCHGFLGA@BOTH_STANDUP2?$AA@ 302ffb10     bg_panimate.obj
 0003:00006b20       ??_C@_0BF@MNEGLANN@BOTH_STAND4TOATTACK2?$AA@ 302ffb20     bg_panimate.obj
 0003:00006b3c       ??_C@_0P@NHEJHBNL@BOTH_STAND4TO2?$AA@ 302ffb3c     bg_panimate.obj
 0003:00006b50       ??_C@_0P@OFDCDPN@BOTH_STAND2TO4?$AA@ 302ffb50     bg_panimate.obj
 0003:00006b64       ??_C@_0P@HDCENHLI@BOTH_STAND2TO1?$AA@ 302ffb64     bg_panimate.obj
 0003:00006b78       ??_C@_0P@BPKJPOKL@BOTH_STAND1TO2?$AA@ 302ffb78     bg_panimate.obj
 0003:00006b8c       ??_C@_0M@LPAHOFEK@BOTH_STAND8?$AA@ 302ffb8c     bg_panimate.obj
 0003:00006b9c       ??_C@_0M@CBIEMIME@BOTH_STAND6?$AA@ 302ffb9c     bg_panimate.obj
 0003:00006bac       ??_C@_0BB@BAMNDOOB@BOTH_STAND5IDLE1?$AA@ 302ffbac     bg_panimate.obj
 0003:00006bc0       ??_C@_0M@KKJJLAH@BOTH_STAND5?$AA@ 302ffbc0     bg_panimate.obj
 0003:00006bd0       ??_C@_0M@BDLCKKEG@BOTH_STAND4?$AA@ 302ffbd0     bg_panimate.obj
 0003:00006be0       ??_C@_0BB@HDBNALNL@BOTH_STAND3IDLE1?$AA@ 302ffbe0     bg_panimate.obj
 0003:00006bf4       ??_C@_0M@FMPDDMIB@BOTH_STAND3?$AA@ 302ffbf4     bg_panimate.obj
 0003:00006c04       ??_C@_0BB@POEHFDKM@BOTH_STAND2IDLE2?$AA@ 302ffc04     bg_panimate.obj
 0003:00006c18       ??_C@_0BB@NFGKAAGP@BOTH_STAND2IDLE1?$AA@ 302ffc18     bg_panimate.obj
 0003:00006c2c       ??_C@_0M@EFOIANMA@BOTH_STAND2?$AA@ 302ffc2c     bg_panimate.obj
 0003:00006c3c       ??_C@_0BB@OEICBKPC@BOTH_STAND1IDLE1?$AA@ 302ffc3c     bg_panimate.obj
 0003:00006c50       ??_C@_0M@GOMFFOAD@BOTH_STAND1?$AA@ 302ffc50     bg_panimate.obj
 0003:00006c60       ??_C@_0P@HNCGMPEI@BOTH_ROLL_STAB?$AA@ 302ffc60     bg_panimate.obj
 0003:00006c74       ??_C@_0BA@PJPEDJMA@BOTH_A3_SPECIAL?$AA@ 302ffc74     bg_panimate.obj
 0003:00006c88       ??_C@_0BA@BGDGFCPO@BOTH_A2_SPECIAL?$AA@ 302ffc88     bg_panimate.obj
 0003:00006c9c       ??_C@_0BA@PNABOJPN@BOTH_A1_SPECIAL?$AA@ 302ffc9c     bg_panimate.obj
 0003:00006cb0       ??_C@_0BA@IPLCAALD@BOTH_A7_SOULCAL?$AA@ 302ffcb0     bg_panimate.obj
 0003:00006cc4       ??_C@_0BF@JKDHMCK@BOTH_A6_SABERPROTECT?$AA@ 302ffcc4     bg_panimate.obj
 0003:00006ce0       ??_C@_0BD@FCALGDP@BOTH_STABDOWN_DUAL?$AA@ 302ffce0     bg_panimate.obj
 0003:00006cf8       ??_C@_0BE@DOGEHLEN@BOTH_STABDOWN_STAFF?$AA@ 302ffcf8     bg_panimate.obj
 0003:00006d10       ??_C@_0O@FMNFAMJP@BOTH_STABDOWN?$AA@ 302ffd10     bg_panimate.obj
 0003:00006d20       ??_C@_0BE@NCOEMLED@BOTH_PULLED_INAIR_F?$AA@ 302ffd20     bg_panimate.obj
 0003:00006d38       ??_C@_0BE@LGIIAOEH@BOTH_PULLED_INAIR_B?$AA@ 302ffd38     bg_panimate.obj
 0003:00006d50       ??_C@_0BH@ENKMMKI@BOTH_PULL_IMPALE_SWING?$AA@ 302ffd50     bg_panimate.obj
 0003:00006d6c       ??_C@_0BG@FJEBNIOP@BOTH_PULL_IMPALE_STAB?$AA@ 302ffd6c     bg_panimate.obj
 0003:00006d88       ??_C@_0P@FKABGNIE@BOTH_FLIP_LAND?$AA@ 302ffd88     bg_panimate.obj
 0003:00006d9c       ??_C@_0BA@PECANCJM@BOTH_FLIP_HOLD7?$AA@ 302ffd9c     bg_panimate.obj
 0003:00006db0       ??_C@_0BC@OAEPKLIJ@BOTH_FLIP_ATTACK7?$AA@ 302ffdb0     bg_panimate.obj
 0003:00006dc8       ??_C@_0BD@MBINELLK@BOTH_A7_KICK_L_AIR?$AA@ 302ffdc8     bg_panimate.obj
 0003:00006de0       ??_C@_0BD@PIFBCIFB@BOTH_A7_KICK_R_AIR?$AA@ 302ffde0     bg_panimate.obj
 0003:00006df8       ??_C@_0BD@PLIHCKMK@BOTH_A7_KICK_B_AIR?$AA@ 302ffdf8     bg_panimate.obj
 0003:00006e10       ??_C@_0BD@GABGGINM@BOTH_A7_KICK_F_AIR?$AA@ 302ffe10     bg_panimate.obj
 0003:00006e28       ??_C@_0BA@CADMNHIP@BOTH_A7_KICK_RL?$AA@ 302ffe28     bg_panimate.obj
 0003:00006e3c       ??_C@_0BF@OPHCPADF@BOTH_A7_KICK_BF_STOP?$AA@ 302ffe3c     bg_panimate.obj
 0003:00006e58       ??_C@_0BA@MGPFJMHF@BOTH_A7_KICK_BF?$AA@ 302ffe58     bg_panimate.obj
 0003:00006e6c       ??_C@_0P@DFCDAAIP@BOTH_A7_KICK_S?$AA@ 302ffe6c     bg_panimate.obj
 0003:00006e80       ??_C@_0P@PIHJAOBB@BOTH_A7_KICK_L?$AA@ 302ffe80     bg_panimate.obj
 0003:00006e94       ??_C@_0P@CMDIDBMO@BOTH_A7_KICK_R?$AA@ 302ffe94     bg_panimate.obj
 0003:00006ea8       ??_C@_0P@GGPKCDJP@BOTH_A7_KICK_B?$AA@ 302ffea8     bg_panimate.obj
 0003:00006ebc       ??_C@_0P@CJGOGJL@BOTH_A7_KICK_F?$AA@ 302ffebc     bg_panimate.obj
 0003:00006ed0       ??_C@_0BM@OHENEONK@BOTH_FORCEWALLRELEASE_RIGHT?$AA@ 302ffed0     bg_panimate.obj
 0003:00006ef4       ??_C@_0BL@BABFAMJB@BOTH_FORCEWALLRELEASE_BACK?$AA@ 302ffef4     bg_panimate.obj
 0003:00006f14       ??_C@_0BL@OLNGOJNC@BOTH_FORCEWALLRELEASE_LEFT?$AA@ 302fff14     bg_panimate.obj
 0003:00006f34       ??_C@_0BO@FMNDOIKN@BOTH_FORCEWALLRELEASE_FORWARD?$AA@ 302fff34     bg_panimate.obj
 0003:00006f58       ??_C@_0BJ@CCJINKMK@BOTH_FORCEWALLHOLD_RIGHT?$AA@ 302fff58     bg_panimate.obj
 0003:00006f78       ??_C@_0BI@HPLKKCCJ@BOTH_FORCEWALLHOLD_BACK?$AA@ 302fff78     bg_panimate.obj
 0003:00006f94       ??_C@_0BI@IEHJEHGK@BOTH_FORCEWALLHOLD_LEFT?$AA@ 302fff94     bg_panimate.obj
 0003:00006fb0       ??_C@_0BL@OBHDGIHE@BOTH_FORCEWALLHOLD_FORWARD?$AA@ 302fffb0     bg_panimate.obj
 0003:00006fd0       ??_C@_0BM@FDLDEBGK@BOTH_FORCEWALLREBOUND_RIGHT?$AA@ 302fffd0     bg_panimate.obj
 0003:00006ff4       ??_C@_0BL@OFKEILGN@BOTH_FORCEWALLREBOUND_BACK?$AA@ 302ffff4     bg_panimate.obj
 0003:00007014       ??_C@_0BL@BOGHGOCO@BOTH_FORCEWALLREBOUND_LEFT?$AA@ 30300014     bg_panimate.obj
 0003:00007034       ??_C@_0BO@CIKJOPHK@BOTH_FORCEWALLREBOUND_FORWARD?$AA@ 30300034     bg_panimate.obj
 0003:00007058       ??_C@_0BK@KJKIIGOD@BOTH_FORCEWALLRUNFLIP_ALT?$AA@ 30300058     bg_panimate.obj
 0003:00007078       ??_C@_0BK@GPIMNHIL@BOTH_FORCEWALLRUNFLIP_END?$AA@ 30300078     bg_panimate.obj
 0003:00007098       ??_C@_0BM@LJCOJFGC@BOTH_FORCEWALLRUNFLIP_START?$AA@ 30300098     bg_panimate.obj
 0003:000070bc       ??_C@_0BI@MHONAGNG@BOTH_FORCELONGLEAP_LAND?$AA@ 303000bc     bg_panimate.obj
 0003:000070d8       ??_C@_0BK@HABCCIOP@BOTH_FORCELONGLEAP_ATTACK?$AA@ 303000d8     bg_panimate.obj
 0003:000070f8       ??_C@_0BJ@KLOIGFJP@BOTH_FORCELONGLEAP_START?$AA@ 303000f8     bg_panimate.obj
 0003:00007118       ??_C@_0L@NHGEHEAM@BOTH_S7_S1?$AA@ 30300118     bg_panimate.obj
 0003:00007128       ??_C@_0L@OHOCGCK@BOTH_S1_S7?$AA@ 30300128     bg_panimate.obj
 0003:00007138       ??_C@_0L@OKAEFNLM@BOTH_S6_S1?$AA@ 30300138     bg_panimate.obj
 0003:00007148       ??_C@_0L@BHGFBHGL@BOTH_S1_S6?$AA@ 30300148     bg_panimate.obj
 0003:00007158       ??_C@_0BB@KFONEAEN@BOTH_SPINATTACK7?$AA@ 30300158     bg_panimate.obj
 0003:0000716c       ??_C@_0BB@LMPGHBAM@BOTH_SPINATTACK6?$AA@ 3030016c     bg_panimate.obj
 0003:00007180       ??_C@_0BB@CIOCACPL@BOTH_JUMPATTACK7?$AA@ 30300180     bg_panimate.obj
 0003:00007194       ??_C@_0BB@DBPJDDLK@BOTH_JUMPATTACK6?$AA@ 30300194     bg_panimate.obj
 0003:000071a8       ??_C@_0BH@INLIBEMO@BOTH_CROUCHATTACKBACK1?$AA@ 303001a8     bg_panimate.obj
 0003:000071c4       ??_C@_0BC@BEBALKBG@BOTH_LUNGE2_B__T_?$AA@ 303001c4     bg_panimate.obj
 0003:000071dc       ??_C@_0BG@CELCKDAN@BOTH_FORCELEAP2_T__B_?$AA@ 303001dc     bg_panimate.obj
 0003:000071f8       ??_C@_0BG@BFMBDODP@BOTH_JUMPFLIPSTABDOWN?$AA@ 303001f8     bg_panimate.obj
 0003:00007214       ??_C@_0BI@HBGICLGG@BOTH_JUMPFLIPSLASHDOWN1?$AA@ 30300214     bg_panimate.obj
 0003:00007230       ??_C@_0BB@CBLKELKF@BOTH_ATTACK_BACK?$AA@ 30300230     bg_panimate.obj
 0003:00007244       ??_C@_0BC@PILNDLJJ@BOTH_A2_STABBACK1?$AA@ 30300244     bg_panimate.obj
 0003:0000725c       ??_C@_0BH@BDCLHPPP@BOTH_SABERSTAFF_STANCE?$AA@ 3030025c     bg_panimate.obj
 0003:00007278       ??_C@_0BG@HKMBABJH@BOTH_SABERDUAL_STANCE?$AA@ 30300278     bg_panimate.obj
 0003:00007294       ??_C@_0BG@OHKGBDLF@BOTH_SABERSLOW_STANCE?$AA@ 30300294     bg_panimate.obj
 0003:000072b0       ??_C@_0BG@LMJGJJPN@BOTH_SABERFAST_STANCE?$AA@ 303002b0     bg_panimate.obj
 0003:000072cc       ??_C@_0BD@KOAOCCAN@BOTH_CCWCIRCLELOCK?$AA@ 303002cc     bg_panimate.obj
 0003:000072e4       ??_C@_0BC@KJPAFMDI@BOTH_CWCIRCLELOCK?$AA@ 303002e4     bg_panimate.obj
 0003:000072fc       ??_C@_0BE@OHBEAMBI@BOTH_CCWCIRCLEBREAK?$AA@ 303002fc     bg_panimate.obj
 0003:00007314       ??_C@_0BD@LBKADGEF@BOTH_CWCIRCLEBREAK?$AA@ 30300314     bg_panimate.obj
 0003:0000732c       ??_C@_0BI@CIMIIHDK@BOTH_CCWCIRCLE_A2__R__L?$AA@ 3030032c     bg_panimate.obj
 0003:00007348       ??_C@_0BH@DBGDLJEC@BOTH_CWCIRCLE_A2__L__R?$AA@ 30300348     bg_panimate.obj
 0003:00007364       ??_C@_0BI@PBNOCOLC@BOTH_CCWCIRCLE_R2__L_S1?$AA@ 30300364     bg_panimate.obj
 0003:00007380       ??_C@_0BH@DMDECPBF@BOTH_CWCIRCLE_R2__R_S1?$AA@ 30300380     bg_panimate.obj
 0003:0000739c       ??_C@_0N@DLCMNLOG@BOTH_BF1LOCK?$AA@ 3030039c     bg_panimate.obj
 0003:000073ac       ??_C@_0O@NAFJBFBB@BOTH_BF1BREAK?$AA@ 303003ac     bg_panimate.obj
 0003:000073bc       ??_C@_0P@OMJLFDIE@BOTH_BF1RETURN?$AA@ 303003bc     bg_panimate.obj
 0003:000073d0       ??_C@_0N@LNLIKJEI@BOTH_BF2LOCK?$AA@ 303003d0     bg_panimate.obj
 0003:000073e0       ??_C@_0O@OBLBAPIM@BOTH_BF2BREAK?$AA@ 303003e0     bg_panimate.obj
 0003:000073f0       ??_C@_0P@GCBEFEGH@BOTH_BF2RETURN?$AA@ 303003f0     bg_panimate.obj
 0003:00007404       ??_C@_0BE@DOCAGAEJ@BOTH_LK_ST_ST_T_L_2?$AA@ 30300404     bg_panimate.obj
 0003:0000741c       ??_C@_0BE@CDCFFAPB@BOTH_LK_ST_ST_S_L_2?$AA@ 3030041c     bg_panimate.obj
 0003:00007434       ??_C@_0BE@DFGKEEJC@BOTH_LK_DL_DL_T_L_2?$AA@ 30300434     bg_panimate.obj
 0003:0000744c       ??_C@_0BE@CIGPHECK@BOTH_LK_DL_DL_S_L_2?$AA@ 3030044c     bg_panimate.obj
 0003:00007464       ??_C@_0BC@NOIODFFL@BOTH_LK_S_S_T_L_2?$AA@ 30300464     bg_panimate.obj
 0003:0000747c       ??_C@_0BC@MDILAFOD@BOTH_LK_S_S_S_L_2?$AA@ 3030047c     bg_panimate.obj
 0003:00007494       ??_C@_0BG@DGNDNELM@BOTH_LK_ST_S_T_SB_1_W?$AA@ 30300494     bg_panimate.obj
 0003:000074b0       ??_C@_0BG@JPOFBPCG@BOTH_LK_ST_S_T_SB_1_L?$AA@ 303004b0     bg_panimate.obj
 0003:000074cc       ??_C@_0BD@DOGCPFDO@BOTH_LK_ST_S_T_L_1?$AA@ 303004cc     bg_panimate.obj
 0003:000074e4       ??_C@_0BF@CEACOAOC@BOTH_LK_ST_S_T_B_1_W?$AA@ 303004e4     bg_panimate.obj
 0003:00007500       ??_C@_0BF@INDECLHI@BOTH_LK_ST_S_T_B_1_L?$AA@ 30300500     bg_panimate.obj
 0003:0000751c       ??_C@_0BG@FCLCLJHF@BOTH_LK_ST_S_S_SB_1_W?$AA@ 3030051c     bg_panimate.obj
 0003:00007538       ??_C@_0BG@PLIEHCOP@BOTH_LK_ST_S_S_SB_1_L?$AA@ 30300538     bg_panimate.obj
 0003:00007554       ??_C@_0BD@CDGHMFIG@BOTH_LK_ST_S_S_L_1?$AA@ 30300554     bg_panimate.obj
 0003:0000756c       ??_C@_0BF@COMHOJPL@BOTH_LK_ST_S_S_B_1_W?$AA@ 3030056c     bg_panimate.obj
 0003:00007588       ??_C@_0BF@IHPBCCGB@BOTH_LK_ST_S_S_B_1_L?$AA@ 30300588     bg_panimate.obj
 0003:000075a4       ??_C@_0BH@LECJIOFK@BOTH_LK_ST_ST_T_SB_1_W?$AA@ 303005a4     bg_panimate.obj
 0003:000075c0       ??_C@_0BH@BNBPEFMA@BOTH_LK_ST_ST_T_SB_1_L?$AA@ 303005c0     bg_panimate.obj
 0003:000075dc       ??_C@_0BE@BFANDDIK@BOTH_LK_ST_ST_T_L_1?$AA@ 303005dc     bg_panimate.obj
 0003:000075f4       ??_C@_0BG@NGKMMHLE@BOTH_LK_ST_ST_T_B_1_W?$AA@ 303005f4     bg_panimate.obj
 0003:00007610       ??_C@_0BG@HPJKAMCO@BOTH_LK_ST_ST_T_B_1_L?$AA@ 30300610     bg_panimate.obj
 0003:0000762c       ??_C@_0BH@NAEIODJD@BOTH_LK_ST_ST_S_SB_1_W?$AA@ 3030062c     bg_panimate.obj
 0003:00007648       ??_C@_0BH@HJHOCIAJ@BOTH_LK_ST_ST_S_SB_1_L?$AA@ 30300648     bg_panimate.obj
 0003:00007664       ??_C@_0BE@IAIADDC@BOTH_LK_ST_ST_S_L_1?$AA@ 30300664     bg_panimate.obj
 0003:0000767c       ??_C@_0BG@NMGJMOKN@BOTH_LK_ST_ST_S_B_1_W?$AA@ 3030067c     bg_panimate.obj
 0003:00007698       ??_C@_0BG@HFFPAFDH@BOTH_LK_ST_ST_S_B_1_L?$AA@ 30300698     bg_panimate.obj
 0003:000076b4       ??_C@_0BH@NIJMKPKH@BOTH_LK_ST_DL_T_SB_1_W?$AA@ 303006b4     bg_panimate.obj
 0003:000076d0       ??_C@_0BH@HBKKGEDN@BOTH_LK_ST_DL_T_SB_1_L?$AA@ 303006d0     bg_panimate.obj
 0003:000076ec       ??_C@_0BE@HCPCDGKM@BOTH_LK_ST_DL_T_L_1?$AA@ 303006ec     bg_panimate.obj
 0003:00007704       ??_C@_0BG@GFBINHOA@BOTH_LK_ST_DL_T_B_1_W?$AA@ 30300704     bg_panimate.obj
 0003:00007720       ??_C@_0BG@MMCOBMHK@BOTH_LK_ST_DL_T_B_1_L?$AA@ 30300720     bg_panimate.obj
 0003:0000773c       ??_C@_0BH@LMPNMCGO@BOTH_LK_ST_DL_S_SB_1_W?$AA@ 3030073c     bg_panimate.obj
 0003:00007758       ??_C@_0BH@BFMLAJPE@BOTH_LK_ST_DL_S_SB_1_L?$AA@ 30300758     bg_panimate.obj
 0003:00007774       ??_C@_0BE@GPPHAGBE@BOTH_LK_ST_DL_S_L_1?$AA@ 30300774     bg_panimate.obj
 0003:0000778c       ??_C@_0BG@GPNNNOPJ@BOTH_LK_ST_DL_S_B_1_W?$AA@ 3030078c     bg_panimate.obj
 0003:000077a8       ??_C@_0BG@MGOLBFGD@BOTH_LK_ST_DL_S_B_1_L?$AA@ 303007a8     bg_panimate.obj
 0003:000077c4       ??_C@_0BG@NLKIDHKH@BOTH_LK_DL_S_T_SB_1_W?$AA@ 303007c4     bg_panimate.obj
 0003:000077e0       ??_C@_0BG@HCJOPMDN@BOTH_LK_DL_S_T_SB_1_L?$AA@ 303007e0     bg_panimate.obj
 0003:000077fc       ??_C@_0BD@INNGOFGK@BOTH_LK_DL_S_T_L_1?$AA@ 303007fc     bg_panimate.obj
 0003:00007814       ??_C@_0BF@OHGCNLGC@BOTH_LK_DL_S_T_B_1_W?$AA@ 30300814     bg_panimate.obj
 0003:00007830       ??_C@_0BF@EOFEBAPI@BOTH_LK_DL_S_T_B_1_L?$AA@ 30300830     bg_panimate.obj
 0003:0000784c       ??_C@_0BG@LPMJFKGO@BOTH_LK_DL_S_S_SB_1_W?$AA@ 3030084c     bg_panimate.obj
 0003:00007868       ??_C@_0BG@BGPPJBPE@BOTH_LK_DL_S_S_SB_1_L?$AA@ 30300868     bg_panimate.obj
 0003:00007884       ??_C@_0BD@JANDNFNC@BOTH_LK_DL_S_S_L_1?$AA@ 30300884     bg_panimate.obj
 0003:0000789c       ??_C@_0BF@ONKHNCHL@BOTH_LK_DL_S_S_B_1_W?$AA@ 3030089c     bg_panimate.obj
 0003:000078b8       ??_C@_0BF@EEJBBJOB@BOTH_LK_DL_S_S_B_1_L?$AA@ 303008b8     bg_panimate.obj
 0003:000078d4       ??_C@_0BH@DOKBDMFF@BOTH_LK_DL_ST_T_SB_1_W?$AA@ 303008d4     bg_panimate.obj
 0003:000078f0       ??_C@_0BH@JHJHPHMP@BOTH_LK_DL_ST_T_SB_1_L?$AA@ 303008f0     bg_panimate.obj
 0003:0000790c       ??_C@_0BE@HJLIBCHH@BOTH_LK_DL_ST_T_L_1?$AA@ 3030090c     bg_panimate.obj
 0003:00007924       ??_C@_0BG@DLNHCEKP@BOTH_LK_DL_ST_T_B_1_W?$AA@ 30300924     bg_panimate.obj
 0003:00007940       ??_C@_0BG@JCOBOPDF@BOTH_LK_DL_ST_T_B_1_L?$AA@ 30300940     bg_panimate.obj
 0003:0000795c       ??_C@_0BH@FKMAFBJM@BOTH_LK_DL_ST_S_SB_1_W?$AA@ 3030095c     bg_panimate.obj
 0003:00007978       ??_C@_0BH@PDPGJKAG@BOTH_LK_DL_ST_S_SB_1_L?$AA@ 30300978     bg_panimate.obj
 0003:00007994       ??_C@_0BE@GELNCCMP@BOTH_LK_DL_ST_S_L_1?$AA@ 30300994     bg_panimate.obj
 0003:000079ac       ??_C@_0BG@DBBCCNLG@BOTH_LK_DL_ST_S_B_1_W?$AA@ 303009ac     bg_panimate.obj
 0003:000079c8       ??_C@_0BG@JICEOGCM@BOTH_LK_DL_ST_S_B_1_L?$AA@ 303009c8     bg_panimate.obj
 0003:000079e4       ??_C@_0BH@FCBEBNKI@BOTH_LK_DL_DL_T_SB_1_W?$AA@ 303009e4     bg_panimate.obj
 0003:00007a00       ??_C@_0BH@PLCCNGDC@BOTH_LK_DL_DL_T_SB_1_L?$AA@ 30300a00     bg_panimate.obj
 0003:00007a1c       ??_C@_0BE@BOEHBHFB@BOTH_LK_DL_DL_T_L_1?$AA@ 30300a1c     bg_panimate.obj
 0003:00007a34       ??_C@_0BG@IIGDDEPL@BOTH_LK_DL_DL_T_B_1_W?$AA@ 30300a34     bg_panimate.obj
 0003:00007a50       ??_C@_0BG@CBFFPPGB@BOTH_LK_DL_DL_T_B_1_L?$AA@ 30300a50     bg_panimate.obj
 0003:00007a6c       ??_C@_0BH@DGHFHAGB@BOTH_LK_DL_DL_S_SB_1_W?$AA@ 30300a6c     bg_panimate.obj
 0003:00007a88       ??_C@_0BH@JPEDLLPL@BOTH_LK_DL_DL_S_SB_1_L?$AA@ 30300a88     bg_panimate.obj
 0003:00007aa4       ??_C@_0BE@DECCHOJ@BOTH_LK_DL_DL_S_L_1?$AA@ 30300aa4     bg_panimate.obj
 0003:00007abc       ??_C@_0BG@ICKGDNOC@BOTH_LK_DL_DL_S_B_1_W?$AA@ 30300abc     bg_panimate.obj
 0003:00007ad8       ??_C@_0BG@CLJAPGHI@BOTH_LK_DL_DL_S_B_1_L?$AA@ 30300ad8     bg_panimate.obj
 0003:00007af4       ??_C@_0BF@FNCJNOFK@BOTH_LK_S_S_T_SB_1_W?$AA@ 30300af4     bg_panimate.obj
 0003:00007b10       ??_C@_0BF@PEBPBFMA@BOTH_LK_S_S_T_SB_1_L?$AA@ 30300b10     bg_panimate.obj
 0003:00007b2c       ??_C@_0BC@PFKDGGJI@BOTH_LK_S_S_T_L_1?$AA@ 30300b2c     bg_panimate.obj
 0003:00007b44       ??_C@_0BE@LFFJPCLC@BOTH_LK_S_S_T_B_1_W?$AA@ 30300b44     bg_panimate.obj
 0003:00007b5c       ??_C@_0BE@BMGPDJCI@BOTH_LK_S_S_T_B_1_L?$AA@ 30300b5c     bg_panimate.obj
 0003:00007b74       ??_C@_0BF@DJEILDJD@BOTH_LK_S_S_S_SB_1_W?$AA@ 30300b74     bg_panimate.obj
 0003:00007b90       ??_C@_0BF@JAHOHIAJ@BOTH_LK_S_S_S_SB_1_L?$AA@ 30300b90     bg_panimate.obj
 0003:00007bac       ??_C@_0BC@OIKGFGCA@BOTH_LK_S_S_S_L_1?$AA@ 30300bac     bg_panimate.obj
 0003:00007bc4       ??_C@_0BE@LPJMPLKL@BOTH_LK_S_S_S_B_1_W?$AA@ 30300bc4     bg_panimate.obj
 0003:00007bdc       ??_C@_0BE@BGKKDADB@BOTH_LK_S_S_S_B_1_L?$AA@ 30300bdc     bg_panimate.obj
 0003:00007bf4       ??_C@_0BG@PNCLDDBN@BOTH_LK_S_ST_T_SB_1_W?$AA@ 30300bf4     bg_panimate.obj
 0003:00007c10       ??_C@_0BG@FEBNPIIH@BOTH_LK_S_ST_T_SB_1_L?$AA@ 30300c10     bg_panimate.obj
